ARM GAS  /tmp/cc00LnFH.s 			page 1


   1              		.cpu cortex-m4
   2              		.eabi_attribute 27, 1
   3              		.eabi_attribute 28, 1
   4              		.eabi_attribute 20, 1
   5              		.eabi_attribute 21, 1
   6              		.eabi_attribute 23, 3
   7              		.eabi_attribute 24, 1
   8              		.eabi_attribute 25, 1
   9              		.eabi_attribute 26, 1
  10              		.eabi_attribute 30, 2
  11              		.eabi_attribute 34, 1
  12              		.eabi_attribute 18, 4
  13              		.file	"mc_interface.c"
  14              		.text
  15              	.Ltext0:
  16              		.cfi_sections	.debug_frame
  17              		.section	.text.MCI_ExecSpeedRamp,"ax",%progbits
  18              		.align	1
  19              		.p2align 2,,3
  20              		.weak	MCI_ExecSpeedRamp
  21              		.arch armv7e-m
  22              		.syntax unified
  23              		.thumb
  24              		.thumb_func
  25              		.fpu fpv4-sp-d16
  27              	MCI_ExecSpeedRamp:
  28              	.LVL0:
  29              	.LFB1466:
  30              		.file 1 "Src/mc_interface.c"
   1:Src/mc_interface.c **** 
   2:Src/mc_interface.c **** /**
   3:Src/mc_interface.c ****   ******************************************************************************
   4:Src/mc_interface.c ****   * @file    mc_interface.c
   5:Src/mc_interface.c ****   * @author  Motor Control SDK Team, ST Microelectronics
   6:Src/mc_interface.c ****   * @brief   This file provides firmware functions that implement the features
   7:Src/mc_interface.c ****   *          of the MC Interface component of the Motor Control SDK:
   8:Src/mc_interface.c ****   *
   9:Src/mc_interface.c ****   ******************************************************************************
  10:Src/mc_interface.c ****   * @attention
  11:Src/mc_interface.c ****   *
  12:Src/mc_interface.c ****   * <h2><center>&copy; Copyright (c) 2024 STMicroelectronics.
  13:Src/mc_interface.c ****   * All rights reserved.</center></h2>
  14:Src/mc_interface.c ****   *
  15:Src/mc_interface.c ****   * This software component is licensed by ST under Ultimate Liberty license
  16:Src/mc_interface.c ****   * SLA0044, the "License"; You may not use this file except in compliance with
  17:Src/mc_interface.c ****   * the License. You may obtain a copy of the License at:
  18:Src/mc_interface.c ****   *                             www.st.com/SLA0044
  19:Src/mc_interface.c ****   *
  20:Src/mc_interface.c ****   ******************************************************************************
  21:Src/mc_interface.c ****   * @ingroup MCInterface
  22:Src/mc_interface.c ****   */
  23:Src/mc_interface.c **** 
  24:Src/mc_interface.c **** /* Includes ------------------------------------------------------------------*/
  25:Src/mc_interface.c **** #include "mc_math.h"
  26:Src/mc_interface.c **** #include "speed_torq_ctrl.h"
  27:Src/mc_interface.c **** #include "mc_interface.h"
  28:Src/mc_interface.c **** #include "motorcontrol.h"
ARM GAS  /tmp/cc00LnFH.s 			page 2


  29:Src/mc_interface.c **** 
  30:Src/mc_interface.c **** #define ROUNDING_OFF
  31:Src/mc_interface.c **** 
  32:Src/mc_interface.c **** /** @addtogroup MCSDK
  33:Src/mc_interface.c ****   * @{
  34:Src/mc_interface.c ****   */
  35:Src/mc_interface.c **** 
  36:Src/mc_interface.c **** /** @addtogroup CAI
  37:Src/mc_interface.c ****   * @{
  38:Src/mc_interface.c ****   */
  39:Src/mc_interface.c **** 
  40:Src/mc_interface.c **** /** @defgroup MCInterface Motor Control Interface
  41:Src/mc_interface.c ****   * @brief MC Interface component of the Motor Control SDK
  42:Src/mc_interface.c ****   *
  43:Src/mc_interface.c ****   *  This interface allows for performing basic operations on the motor driven by a
  44:Src/mc_interface.c ****   *  Motor Control SDK based application. With it, motors can be started and stopped, speed or
  45:Src/mc_interface.c ****   *  torque ramps can be programmed and executed and information on the state of the motor can
  46:Src/mc_interface.c ****   *  be retrieved, among others.
  47:Src/mc_interface.c ****   *
  48:Src/mc_interface.c ****   *  These functions aims at being the main interface used by an application to control the motor.
  49:Src/mc_interface.c ****   *
  50:Src/mc_interface.c ****   * @{
  51:Src/mc_interface.c ****   */
  52:Src/mc_interface.c **** /* Private macros ------------------------------------------------------------*/
  53:Src/mc_interface.c **** 
  54:Src/mc_interface.c **** #define round(x) ((x)>=0?(int32_t)((x)+0.5):(int32_t)((x)-0.5))
  55:Src/mc_interface.c **** 
  56:Src/mc_interface.c **** /* Functions -----------------------------------------------*/
  57:Src/mc_interface.c **** 
  58:Src/mc_interface.c **** /**
  59:Src/mc_interface.c ****   * @brief  Programs a motor speed ramp
  60:Src/mc_interface.c ****   *
  61:Src/mc_interface.c ****   * @param  pHandle Pointer on the component instance to operate on.
  62:Src/mc_interface.c ****   * @param  hFinalSpeed The value of mechanical rotor speed reference at the
  63:Src/mc_interface.c ****   *         end of the ramp expressed in the unit defined by #SPEED_UNIT.
  64:Src/mc_interface.c ****   * @param  hDurationms The duration of the ramp expressed in milliseconds. It
  65:Src/mc_interface.c ****   *         is possible to set 0 to perform an instantaneous change in the
  66:Src/mc_interface.c ****   *         value.
  67:Src/mc_interface.c ****   *
  68:Src/mc_interface.c ****   *  This command is executed immediately if the target motor's state machine is in
  69:Src/mc_interface.c ****   * the #RUN state. Otherwise, it is buffered and its execution is delayed until This
  70:Src/mc_interface.c ****   * state is reached.
  71:Src/mc_interface.c ****   *
  72:Src/mc_interface.c ****   * Users can check the status of the command by calling the MCI_IsCommandAcknowledged()
  73:Src/mc_interface.c ****   * function.
  74:Src/mc_interface.c ****   *
  75:Src/mc_interface.c ****   * @sa MCI_ExecSpeedRamp
  76:Src/mc_interface.c ****   */
  77:Src/mc_interface.c **** __weak void MCI_ExecSpeedRamp(MCI_Handle_t *pHandle, int16_t hFinalSpeed, uint16_t hDurationms)
  78:Src/mc_interface.c **** {
  31              		.loc 1 78 1 view -0
  32              		.cfi_startproc
  33              		@ args = 0, pretend = 0, frame = 0
  34              		@ frame_needed = 0, uses_anonymous_args = 0
  35              		@ link register save eliminated.
  79:Src/mc_interface.c **** #ifdef NULL_PTR_CHECK_MC_INT
  80:Src/mc_interface.c ****   if (MC_NULL == pHandle)
ARM GAS  /tmp/cc00LnFH.s 			page 3


  81:Src/mc_interface.c ****   {
  82:Src/mc_interface.c ****     /* Nothing to do */
  83:Src/mc_interface.c ****   }
  84:Src/mc_interface.c ****   else
  85:Src/mc_interface.c ****   {
  86:Src/mc_interface.c **** #endif
  87:Src/mc_interface.c ****     pHandle->lastCommand = MCI_CMD_EXECSPEEDRAMP;
  36              		.loc 1 87 5 view .LVU1
  78:Src/mc_interface.c **** #ifdef NULL_PTR_CHECK_MC_INT
  37              		.loc 1 78 1 is_stmt 0 view .LVU2
  38 0000 10B4     		push	{r4}
  39              	.LCFI0:
  40              		.cfi_def_cfa_offset 4
  41              		.cfi_offset 4, -4
  88:Src/mc_interface.c ****     pHandle->hFinalSpeed = hFinalSpeed;
  89:Src/mc_interface.c ****     pHandle->hDurationms = hDurationms;
  90:Src/mc_interface.c ****     pHandle->CommandState = MCI_COMMAND_NOT_ALREADY_EXECUTED;
  42              		.loc 1 90 27 view .LVU3
  43 0002 40F20133 		movw	r3, #769
  87:Src/mc_interface.c ****     pHandle->hFinalSpeed = hFinalSpeed;
  44              		.loc 1 87 26 view .LVU4
  45 0006 0124     		movs	r4, #1
  46 0008 0473     		strb	r4, [r0, #12]
  88:Src/mc_interface.c ****     pHandle->hFinalSpeed = hFinalSpeed;
  47              		.loc 1 88 5 is_stmt 1 view .LVU5
  89:Src/mc_interface.c ****     pHandle->CommandState = MCI_COMMAND_NOT_ALREADY_EXECUTED;
  48              		.loc 1 89 5 view .LVU6
  49              		.loc 1 90 5 view .LVU7
  91:Src/mc_interface.c ****     pHandle->LastModalitySetByUser = MCM_SPEED_MODE;
  50              		.loc 1 91 5 view .LVU8
  88:Src/mc_interface.c ****     pHandle->hDurationms = hDurationms;
  51              		.loc 1 88 26 is_stmt 0 view .LVU9
  52 000a C181     		strh	r1, [r0, #14]	@ movhi
  89:Src/mc_interface.c ****     pHandle->CommandState = MCI_COMMAND_NOT_ALREADY_EXECUTED;
  53              		.loc 1 89 26 view .LVU10
  54 000c 8283     		strh	r2, [r0, #28]	@ movhi
  90:Src/mc_interface.c ****     pHandle->LastModalitySetByUser = MCM_SPEED_MODE;
  55              		.loc 1 90 27 view .LVU11
  56 000e 8384     		strh	r3, [r0, #36]	@ movhi
  92:Src/mc_interface.c **** 
  93:Src/mc_interface.c **** #ifdef NULL_PTR_CHECK_MC_INT
  94:Src/mc_interface.c ****   }
  95:Src/mc_interface.c **** #endif
  96:Src/mc_interface.c **** }
  57              		.loc 1 96 1 view .LVU12
  58 0010 5DF8044B 		ldr	r4, [sp], #4
  59              	.LCFI1:
  60              		.cfi_restore 4
  61              		.cfi_def_cfa_offset 0
  62 0014 7047     		bx	lr
  63              		.cfi_endproc
  64              	.LFE1466:
  66 0016 00BF     		.section	.text.MCI_ExecSpeedRamp_F,"ax",%progbits
  67              		.align	1
  68              		.p2align 2,,3
  69              		.weak	MCI_ExecSpeedRamp_F
  70              		.syntax unified
ARM GAS  /tmp/cc00LnFH.s 			page 4


  71              		.thumb
  72              		.thumb_func
  73              		.fpu fpv4-sp-d16
  75              	MCI_ExecSpeedRamp_F:
  76              	.LVL1:
  77              	.LFB1467:
  97:Src/mc_interface.c **** 
  98:Src/mc_interface.c **** /**
  99:Src/mc_interface.c ****   * @brief  Programs a motor speed ramp
 100:Src/mc_interface.c ****   *
 101:Src/mc_interface.c ****   * @param  pHandle Pointer on the component instance to operate on.
 102:Src/mc_interface.c ****   * @param  FinalSpeed is the value of mechanical rotor speed reference at the
 103:Src/mc_interface.c ****   *         end of the ramp expressed in RPM.
 104:Src/mc_interface.c ****   * @param  hDurationms the duration of the ramp expressed in milliseconds. It
 105:Src/mc_interface.c ****   *         is possible to set 0 to perform an instantaneous change in the
 106:Src/mc_interface.c ****   *         value.
 107:Src/mc_interface.c ****   *
 108:Src/mc_interface.c ****   *  This command is executed immediately if the target motor's state machine is in
 109:Src/mc_interface.c ****   * the #RUN state. Otherwise, it is buffered and its execution is delayed until This
 110:Src/mc_interface.c ****   * state is reached.
 111:Src/mc_interface.c ****   *
 112:Src/mc_interface.c ****   * Users can check the status of the command by calling the MCI_IsCommandAcknowledged()
 113:Src/mc_interface.c ****   * function.
 114:Src/mc_interface.c ****   *
 115:Src/mc_interface.c ****   * @sa MCI_ExecSpeedRamp_F
 116:Src/mc_interface.c ****   */
 117:Src/mc_interface.c **** __weak void MCI_ExecSpeedRamp_F(MCI_Handle_t *pHandle, const float_t FinalSpeed, uint16_t hDuration
 118:Src/mc_interface.c **** {
  78              		.loc 1 118 1 is_stmt 1 view -0
  79              		.cfi_startproc
  80              		@ args = 0, pretend = 0, frame = 0
  81              		@ frame_needed = 0, uses_anonymous_args = 0
 119:Src/mc_interface.c **** #ifdef NULL_PTR_CHECK_MC_INT
 120:Src/mc_interface.c ****   if (MC_NULL == pHandle)
 121:Src/mc_interface.c ****   {
 122:Src/mc_interface.c ****     /* Nothing to do */
 123:Src/mc_interface.c ****   }
 124:Src/mc_interface.c ****   else
 125:Src/mc_interface.c ****   {
 126:Src/mc_interface.c **** #endif
 127:Src/mc_interface.c ****     float_t hFinalSpeed = ((FinalSpeed * (float_t)SPEED_UNIT) / (float_t)U_RPM);
  82              		.loc 1 127 5 view .LVU14
 128:Src/mc_interface.c ****     MCI_ExecSpeedRamp(pHandle, (int16_t)hFinalSpeed, hDurationms);
  83              		.loc 1 128 5 view .LVU15
 127:Src/mc_interface.c ****     MCI_ExecSpeedRamp(pHandle, (int16_t)hFinalSpeed, hDurationms);
  84              		.loc 1 127 40 is_stmt 0 view .LVU16
  85 0000 F2EE047A 		vmov.f32	s15, #1.0e+1
  86 0004 20EE270A 		vmul.f32	s0, s0, s15
  87              	.LVL2:
 127:Src/mc_interface.c ****     MCI_ExecSpeedRamp(pHandle, (int16_t)hFinalSpeed, hDurationms);
  88              		.loc 1 127 13 view .LVU17
  89 0008 9FED067A 		vldr.32	s14, .L6
  90 000c C0EE077A 		vdiv.f32	s15, s0, s14
  91              	.LVL3:
 118:Src/mc_interface.c **** #ifdef NULL_PTR_CHECK_MC_INT
  92              		.loc 1 118 1 view .LVU18
  93 0010 08B5     		push	{r3, lr}
ARM GAS  /tmp/cc00LnFH.s 			page 5


  94              	.LCFI2:
  95              		.cfi_def_cfa_offset 8
  96              		.cfi_offset 3, -8
  97              		.cfi_offset 14, -4
  98              		.loc 1 128 5 view .LVU19
  99 0012 0A46     		mov	r2, r1
 100 0014 FDEEE77A 		vcvt.s32.f32	s15, s15
 101              	.LVL4:
 102              		.loc 1 128 5 view .LVU20
 103 0018 17EE903A 		vmov	r3, s15	@ int
 104 001c 19B2     		sxth	r1, r3
 105              	.LVL5:
 106              		.loc 1 128 5 view .LVU21
 107 001e FFF7FEFF 		bl	MCI_ExecSpeedRamp
 108              	.LVL6:
 129:Src/mc_interface.c **** #ifdef NULL_PTR_CHECK_MC_INT
 130:Src/mc_interface.c ****   }
 131:Src/mc_interface.c **** #endif
 132:Src/mc_interface.c **** }
 109              		.loc 1 132 1 view .LVU22
 110 0022 08BD     		pop	{r3, pc}
 111              	.L7:
 112              		.align	2
 113              	.L6:
 114 0024 00007042 		.word	1114636288
 115              		.cfi_endproc
 116              	.LFE1467:
 118              		.section	.text.MCI_ExecTorqueRamp,"ax",%progbits
 119              		.align	1
 120              		.p2align 2,,3
 121              		.weak	MCI_ExecTorqueRamp
 122              		.syntax unified
 123              		.thumb
 124              		.thumb_func
 125              		.fpu fpv4-sp-d16
 127              	MCI_ExecTorqueRamp:
 128              	.LVL7:
 129              	.LFB1468:
 133:Src/mc_interface.c **** 
 134:Src/mc_interface.c **** /**
 135:Src/mc_interface.c ****   * @brief  Programs a motor torque ramp
 136:Src/mc_interface.c ****   *
 137:Src/mc_interface.c ****   * @param  pHandle Pointer on the component instance to work on.
 138:Src/mc_interface.c ****   * @param  hFinalTorque is the value of motor torque reference at the end of
 139:Src/mc_interface.c ****   *         the ramp. This value represents actually the $I_q$ current expressed in
 140:Src/mc_interface.c ****   *         digit.
 141:Src/mc_interface.c ****   *         To convert current expressed in Amps to current expressed in digit
 142:Src/mc_interface.c ****   *         is possible to use the formula:
 143:Src/mc_interface.c ****   *         Current (digit) = [Current(Amp) * 65536 * Rshunt * Aop] / Vdd micro.
 144:Src/mc_interface.c ****   * @param  hDurationms the duration of the ramp expressed in milliseconds. It
 145:Src/mc_interface.c ****   *         is possible to set 0 to perform an instantaneous change in the
 146:Src/mc_interface.c ****   *         value.
 147:Src/mc_interface.c ****   *
 148:Src/mc_interface.c ****   *  This command is executed immediately if the target motor's state machine is in
 149:Src/mc_interface.c ****   * the #RUN state. Otherwise, it is buffered and its execution is delayed until This
 150:Src/mc_interface.c ****   * state is reached.
 151:Src/mc_interface.c ****   *
ARM GAS  /tmp/cc00LnFH.s 			page 6


 152:Src/mc_interface.c ****   * Users can check the status of the command by calling the MCI_IsCommandAcknowledged()
 153:Src/mc_interface.c ****   * function.
 154:Src/mc_interface.c ****   *
 155:Src/mc_interface.c ****   * @sa MCI_ExecTorqueRamp
 156:Src/mc_interface.c ****   */
 157:Src/mc_interface.c **** __weak void MCI_ExecTorqueRamp(MCI_Handle_t *pHandle, int16_t hFinalTorque, uint16_t hDurationms)
 158:Src/mc_interface.c **** {
 130              		.loc 1 158 1 is_stmt 1 view -0
 131              		.cfi_startproc
 132              		@ args = 0, pretend = 0, frame = 0
 133              		@ frame_needed = 0, uses_anonymous_args = 0
 134              		@ link register save eliminated.
 159:Src/mc_interface.c **** #ifdef NULL_PTR_CHECK_MC_INT
 160:Src/mc_interface.c ****   if (MC_NULL == pHandle)
 161:Src/mc_interface.c ****   {
 162:Src/mc_interface.c ****     /* Nothing to do */
 163:Src/mc_interface.c ****   }
 164:Src/mc_interface.c ****   else
 165:Src/mc_interface.c ****   {
 166:Src/mc_interface.c **** #endif
 167:Src/mc_interface.c ****     pHandle->lastCommand = MCI_CMD_EXECTORQUERAMP;
 135              		.loc 1 167 5 view .LVU24
 158:Src/mc_interface.c **** #ifdef NULL_PTR_CHECK_MC_INT
 136              		.loc 1 158 1 is_stmt 0 view .LVU25
 137 0000 10B4     		push	{r4}
 138              	.LCFI3:
 139              		.cfi_def_cfa_offset 4
 140              		.cfi_offset 4, -4
 168:Src/mc_interface.c ****     pHandle->hFinalTorque = hFinalTorque;
 169:Src/mc_interface.c ****     pHandle->hDurationms = hDurationms;
 170:Src/mc_interface.c ****     pHandle->CommandState = MCI_COMMAND_NOT_ALREADY_EXECUTED;
 141              		.loc 1 170 27 view .LVU26
 142 0002 40F20143 		movw	r3, #1025
 167:Src/mc_interface.c ****     pHandle->hFinalTorque = hFinalTorque;
 143              		.loc 1 167 26 view .LVU27
 144 0006 0224     		movs	r4, #2
 145 0008 0473     		strb	r4, [r0, #12]
 168:Src/mc_interface.c ****     pHandle->hFinalTorque = hFinalTorque;
 146              		.loc 1 168 5 is_stmt 1 view .LVU28
 169:Src/mc_interface.c ****     pHandle->CommandState = MCI_COMMAND_NOT_ALREADY_EXECUTED;
 147              		.loc 1 169 5 view .LVU29
 148              		.loc 1 170 5 view .LVU30
 171:Src/mc_interface.c ****     pHandle->LastModalitySetByUser = MCM_TORQUE_MODE;
 149              		.loc 1 171 5 view .LVU31
 168:Src/mc_interface.c ****     pHandle->hDurationms = hDurationms;
 150              		.loc 1 168 27 is_stmt 0 view .LVU32
 151 000a 0182     		strh	r1, [r0, #16]	@ movhi
 169:Src/mc_interface.c ****     pHandle->CommandState = MCI_COMMAND_NOT_ALREADY_EXECUTED;
 152              		.loc 1 169 26 view .LVU33
 153 000c 8283     		strh	r2, [r0, #28]	@ movhi
 170:Src/mc_interface.c ****     pHandle->LastModalitySetByUser = MCM_TORQUE_MODE;
 154              		.loc 1 170 27 view .LVU34
 155 000e 8384     		strh	r3, [r0, #36]	@ movhi
 172:Src/mc_interface.c **** #ifdef NULL_PTR_CHECK_MC_INT
 173:Src/mc_interface.c ****   }
 174:Src/mc_interface.c **** #endif
 175:Src/mc_interface.c **** }
ARM GAS  /tmp/cc00LnFH.s 			page 7


 156              		.loc 1 175 1 view .LVU35
 157 0010 5DF8044B 		ldr	r4, [sp], #4
 158              	.LCFI4:
 159              		.cfi_restore 4
 160              		.cfi_def_cfa_offset 0
 161 0014 7047     		bx	lr
 162              		.cfi_endproc
 163              	.LFE1468:
 165 0016 00BF     		.section	.text.MCI_ExecTorqueRamp_F,"ax",%progbits
 166              		.align	1
 167              		.p2align 2,,3
 168              		.weak	MCI_ExecTorqueRamp_F
 169              		.syntax unified
 170              		.thumb
 171              		.thumb_func
 172              		.fpu fpv4-sp-d16
 174              	MCI_ExecTorqueRamp_F:
 175              	.LVL8:
 176              	.LFB1469:
 176:Src/mc_interface.c **** 
 177:Src/mc_interface.c **** /**
 178:Src/mc_interface.c ****   * @brief  Programs a motor torque ramp
 179:Src/mc_interface.c ****   *
 180:Src/mc_interface.c ****   * @param  pHandle Pointer on the component instance to work on.
 181:Src/mc_interface.c ****   * @param  FinalTorque is the value of motor torque reference at the end of
 182:Src/mc_interface.c ****   *         the ramp. This value represents actually the $I_q$ current expressed in
 183:Src/mc_interface.c ****   *         Ampere.
 184:Src/mc_interface.c ****   *         Here the formula for conversion from current in Ampere to digit:
 185:Src/mc_interface.c ****   *           I(s16) = [i(Amp) * 65536 * Rshunt * Aop] / Vdd_micro.
 186:Src/mc_interface.c ****   * @param  hDurationms the duration of the ramp expressed in milliseconds. It
 187:Src/mc_interface.c ****   *         is possible to set 0 to perform an instantaneous change in the
 188:Src/mc_interface.c ****   *         value.
 189:Src/mc_interface.c ****   *
 190:Src/mc_interface.c ****   *  This command is executed immediately if the target motor's state machine is in
 191:Src/mc_interface.c ****   * the #RUN state. Otherwise, it is buffered and its execution is delayed until This
 192:Src/mc_interface.c ****   * state is reached.
 193:Src/mc_interface.c ****   *
 194:Src/mc_interface.c ****   * Users can check the status of the command by calling the MCI_IsCommandAcknowledged()
 195:Src/mc_interface.c ****   * function.
 196:Src/mc_interface.c ****   *
 197:Src/mc_interface.c ****   * @sa MCI_ExecTorqueRamp_F
 198:Src/mc_interface.c ****   */
 199:Src/mc_interface.c **** __weak void MCI_ExecTorqueRamp_F(MCI_Handle_t *pHandle, const float_t FinalTorque, uint16_t hDurati
 200:Src/mc_interface.c **** {
 177              		.loc 1 200 1 is_stmt 1 view -0
 178              		.cfi_startproc
 179              		@ args = 0, pretend = 0, frame = 0
 180              		@ frame_needed = 0, uses_anonymous_args = 0
 201:Src/mc_interface.c **** #ifdef NULL_PTR_CHECK_MC_INT
 202:Src/mc_interface.c ****   if (MC_NULL == pHandle)
 203:Src/mc_interface.c ****   {
 204:Src/mc_interface.c ****     /* Nothing to do */
 205:Src/mc_interface.c ****   }
 206:Src/mc_interface.c ****   else
 207:Src/mc_interface.c ****   {
 208:Src/mc_interface.c **** #endif
 209:Src/mc_interface.c ****     float_t hFinalTorque = (FinalTorque * (float_t)CURRENT_CONV_FACTOR);
ARM GAS  /tmp/cc00LnFH.s 			page 8


 181              		.loc 1 209 5 view .LVU37
 210:Src/mc_interface.c ****     MCI_ExecTorqueRamp(pHandle, (int16_t)hFinalTorque, hDurationms);
 182              		.loc 1 210 5 view .LVU38
 209:Src/mc_interface.c ****     MCI_ExecTorqueRamp(pHandle, (int16_t)hFinalTorque, hDurationms);
 183              		.loc 1 209 13 is_stmt 0 view .LVU39
 184 0000 DFED067A 		vldr.32	s15, .L12
 185 0004 20EE270A 		vmul.f32	s0, s0, s15
 186              	.LVL9:
 200:Src/mc_interface.c **** #ifdef NULL_PTR_CHECK_MC_INT
 187              		.loc 1 200 1 view .LVU40
 188 0008 08B5     		push	{r3, lr}
 189              	.LCFI5:
 190              		.cfi_def_cfa_offset 8
 191              		.cfi_offset 3, -8
 192              		.cfi_offset 14, -4
 193              		.loc 1 210 5 view .LVU41
 194 000a BDEEC00A 		vcvt.s32.f32	s0, s0
 195              	.LVL10:
 196              		.loc 1 210 5 view .LVU42
 197 000e 0A46     		mov	r2, r1
 198 0010 10EE103A 		vmov	r3, s0	@ int
 199 0014 19B2     		sxth	r1, r3
 200              	.LVL11:
 201              		.loc 1 210 5 view .LVU43
 202 0016 FFF7FEFF 		bl	MCI_ExecTorqueRamp
 203              	.LVL12:
 211:Src/mc_interface.c **** #ifdef NULL_PTR_CHECK_MC_INT
 212:Src/mc_interface.c ****   }
 213:Src/mc_interface.c **** #endif
 214:Src/mc_interface.c **** }
 204              		.loc 1 214 1 view .LVU44
 205 001a 08BD     		pop	{r3, pc}
 206              	.L13:
 207              		.align	2
 208              	.L12:
 209 001c 00000844 		.word	1141374976
 210              		.cfi_endproc
 211              	.LFE1469:
 213              		.section	.text.MCI_SetCurrentReferences,"ax",%progbits
 214              		.align	1
 215              		.p2align 2,,3
 216              		.weak	MCI_SetCurrentReferences
 217              		.syntax unified
 218              		.thumb
 219              		.thumb_func
 220              		.fpu fpv4-sp-d16
 222              	MCI_SetCurrentReferences:
 223              	.LVL13:
 224              	.LFB1470:
 215:Src/mc_interface.c **** 
 216:Src/mc_interface.c **** /**
 217:Src/mc_interface.c ****   * @brief  Sets the motor current references $I_q$ and $I_d$ directly.
 218:Src/mc_interface.c ****   *
 219:Src/mc_interface.c ****   * @param  pHandle Pointer on the component instance to work on.
 220:Src/mc_interface.c ****   * @param  Iqdref current references on qd reference frame in qd_t format.
 221:Src/mc_interface.c ****   *
 222:Src/mc_interface.c ****   *  This command is executed immediately if the target motor's state machine is in
ARM GAS  /tmp/cc00LnFH.s 			page 9


 223:Src/mc_interface.c ****   * the #RUN state. Otherwise, it is buffered and its execution is delayed until This
 224:Src/mc_interface.c ****   * state is reached.
 225:Src/mc_interface.c ****   *
 226:Src/mc_interface.c ****   * Users can check the status of the command by calling the MCI_IsCommandAcknowledged()
 227:Src/mc_interface.c ****   * function.
 228:Src/mc_interface.c **** 
 229:Src/mc_interface.c ****   @sa MCI_SetCurrentReferences_F
 230:Src/mc_interface.c ****   */
 231:Src/mc_interface.c **** __weak void MCI_SetCurrentReferences(MCI_Handle_t *pHandle, qd_t Iqdref)
 232:Src/mc_interface.c **** {
 225              		.loc 1 232 1 is_stmt 1 view -0
 226              		.cfi_startproc
 227              		@ args = 0, pretend = 0, frame = 8
 228              		@ frame_needed = 0, uses_anonymous_args = 0
 229              		@ link register save eliminated.
 233:Src/mc_interface.c **** #ifdef NULL_PTR_CHECK_MC_INT
 234:Src/mc_interface.c ****   if (MC_NULL == pHandle)
 235:Src/mc_interface.c ****   {
 236:Src/mc_interface.c ****     /* Nothing to do */
 237:Src/mc_interface.c ****   }
 238:Src/mc_interface.c ****   else
 239:Src/mc_interface.c ****   {
 240:Src/mc_interface.c **** #endif
 241:Src/mc_interface.c **** 
 242:Src/mc_interface.c ****     pHandle->lastCommand = MCI_CMD_SETCURRENTREFERENCES;
 230              		.loc 1 242 5 view .LVU46
 232:Src/mc_interface.c **** #ifdef NULL_PTR_CHECK_MC_INT
 231              		.loc 1 232 1 is_stmt 0 view .LVU47
 232 0000 82B0     		sub	sp, sp, #8
 233              	.LCFI6:
 234              		.cfi_def_cfa_offset 8
 235              		.loc 1 242 26 view .LVU48
 236 0002 0322     		movs	r2, #3
 243:Src/mc_interface.c ****     pHandle->Iqdref.q = Iqdref.q;
 244:Src/mc_interface.c ****     pHandle->Iqdref.d = Iqdref.d;
 245:Src/mc_interface.c ****     pHandle->CommandState = MCI_COMMAND_NOT_ALREADY_EXECUTED;
 237              		.loc 1 245 27 view .LVU49
 238 0004 40F20143 		movw	r3, #1025
 243:Src/mc_interface.c ****     pHandle->Iqdref.q = Iqdref.q;
 239              		.loc 1 243 23 view .LVU50
 240 0008 C0F81210 		str	r1, [r0, #18]	@ unaligned
 242:Src/mc_interface.c ****     pHandle->Iqdref.q = Iqdref.q;
 241              		.loc 1 242 26 view .LVU51
 242 000c 0273     		strb	r2, [r0, #12]
 243:Src/mc_interface.c ****     pHandle->Iqdref.q = Iqdref.q;
 243              		.loc 1 243 5 is_stmt 1 view .LVU52
 244:Src/mc_interface.c ****     pHandle->CommandState = MCI_COMMAND_NOT_ALREADY_EXECUTED;
 244              		.loc 1 244 5 view .LVU53
 245              		.loc 1 245 5 view .LVU54
 246:Src/mc_interface.c ****     pHandle->LastModalitySetByUser = MCM_TORQUE_MODE;
 246              		.loc 1 246 5 view .LVU55
 245:Src/mc_interface.c ****     pHandle->LastModalitySetByUser = MCM_TORQUE_MODE;
 247              		.loc 1 245 27 is_stmt 0 view .LVU56
 248 000e 8384     		strh	r3, [r0, #36]	@ movhi
 247:Src/mc_interface.c **** #ifdef NULL_PTR_CHECK_MC_INT
 248:Src/mc_interface.c ****   }
 249:Src/mc_interface.c **** #endif
ARM GAS  /tmp/cc00LnFH.s 			page 10


 250:Src/mc_interface.c **** }
 249              		.loc 1 250 1 view .LVU57
 250 0010 02B0     		add	sp, sp, #8
 251              	.LCFI7:
 252              		.cfi_def_cfa_offset 0
 253              		@ sp needed
 254 0012 7047     		bx	lr
 255              		.cfi_endproc
 256              	.LFE1470:
 258              		.section	.text.MCI_SetCurrentReferences_F,"ax",%progbits
 259              		.align	1
 260              		.p2align 2,,3
 261              		.weak	MCI_SetCurrentReferences_F
 262              		.syntax unified
 263              		.thumb
 264              		.thumb_func
 265              		.fpu fpv4-sp-d16
 267              	MCI_SetCurrentReferences_F:
 268              	.LVL14:
 269              	.LFB1471:
 251:Src/mc_interface.c **** 
 252:Src/mc_interface.c **** /**
 253:Src/mc_interface.c ****   * @brief  Sets the motor current references $I_q$ and $I_d$ directly.
 254:Src/mc_interface.c ****   *
 255:Src/mc_interface.c ****   * @param  pHandle Pointer on the component instance to work on.
 256:Src/mc_interface.c ****   * @param  IqdRef current (A) references on qd reference frame in qd_f_t format.
 257:Src/mc_interface.c ****   *
 258:Src/mc_interface.c ****   *  This command is executed immediately if the target motor's state machine is in
 259:Src/mc_interface.c ****   * the #RUN state. Otherwise, it is buffered and its execution is delayed until This
 260:Src/mc_interface.c ****   * state is reached.
 261:Src/mc_interface.c ****   *
 262:Src/mc_interface.c ****   * Users can check the status of the command by calling the MCI_IsCommandAcknowledged()
 263:Src/mc_interface.c ****   * function.
 264:Src/mc_interface.c **** 
 265:Src/mc_interface.c ****   @sa MCI_SetCurrentReferences
 266:Src/mc_interface.c ****   */
 267:Src/mc_interface.c **** __weak void MCI_SetCurrentReferences_F(MCI_Handle_t *pHandle, qd_f_t IqdRef)
 268:Src/mc_interface.c **** {
 270              		.loc 1 268 1 is_stmt 1 view -0
 271              		.cfi_startproc
 272              		@ args = 0, pretend = 0, frame = 16
 273              		@ frame_needed = 0, uses_anonymous_args = 0
 269:Src/mc_interface.c **** #ifdef NULL_PTR_CHECK_MC_INT
 270:Src/mc_interface.c ****   if (MC_NULL == pHandle)
 271:Src/mc_interface.c ****   {
 272:Src/mc_interface.c ****     /* Nothing to do */
 273:Src/mc_interface.c ****   }
 274:Src/mc_interface.c ****   else
 275:Src/mc_interface.c ****   {
 276:Src/mc_interface.c **** #endif
 277:Src/mc_interface.c ****     qd_t iqDrefTemp;
 274              		.loc 1 277 5 view .LVU59
 278:Src/mc_interface.c ****     qd_f_t iqDrefTempf;
 275              		.loc 1 278 5 view .LVU60
 279:Src/mc_interface.c ****     iqDrefTempf.d = (IqdRef.d * (float_t)CURRENT_CONV_FACTOR);
 276              		.loc 1 279 5 view .LVU61
 280:Src/mc_interface.c ****     iqDrefTempf.q = (IqdRef.q * (float_t)CURRENT_CONV_FACTOR);
ARM GAS  /tmp/cc00LnFH.s 			page 11


 277              		.loc 1 280 31 is_stmt 0 view .LVU62
 278 0000 DFED0C7A 		vldr.32	s15, .L18
 268:Src/mc_interface.c **** #ifdef NULL_PTR_CHECK_MC_INT
 279              		.loc 1 268 1 view .LVU63
 280 0004 00B5     		push	{lr}
 281              	.LCFI8:
 282              		.cfi_def_cfa_offset 4
 283              		.cfi_offset 14, -4
 284              		.loc 1 280 31 view .LVU64
 285 0006 20EE270A 		vmul.f32	s0, s0, s15
 279:Src/mc_interface.c ****     iqDrefTempf.d = (IqdRef.d * (float_t)CURRENT_CONV_FACTOR);
 286              		.loc 1 279 31 view .LVU65
 287 000a 60EEA70A 		vmul.f32	s1, s1, s15
 281:Src/mc_interface.c ****     iqDrefTemp.d = (int16_t)(iqDrefTempf.d);
 282:Src/mc_interface.c ****     iqDrefTemp.q = (int16_t)(iqDrefTempf.q);
 288              		.loc 1 282 20 view .LVU66
 289 000e BDEEC00A 		vcvt.s32.f32	s0, s0
 268:Src/mc_interface.c **** #ifdef NULL_PTR_CHECK_MC_INT
 290              		.loc 1 268 1 view .LVU67
 291 0012 85B0     		sub	sp, sp, #20
 292              	.LCFI9:
 293              		.cfi_def_cfa_offset 24
 294              	.LVL15:
 280:Src/mc_interface.c ****     iqDrefTemp.d = (int16_t)(iqDrefTempf.d);
 295              		.loc 1 280 5 is_stmt 1 view .LVU68
 281:Src/mc_interface.c ****     iqDrefTemp.d = (int16_t)(iqDrefTempf.d);
 296              		.loc 1 281 5 view .LVU69
 297              		.loc 1 282 20 is_stmt 0 view .LVU70
 298 0014 10EE103A 		vmov	r3, s0	@ int
 281:Src/mc_interface.c ****     iqDrefTemp.d = (int16_t)(iqDrefTempf.d);
 299              		.loc 1 281 20 view .LVU71
 300 0018 FDEEE00A 		vcvt.s32.f32	s1, s1
 301              		.loc 1 282 20 view .LVU72
 302 001c ADF80C30 		strh	r3, [sp, #12]	@ movhi
 281:Src/mc_interface.c ****     iqDrefTemp.d = (int16_t)(iqDrefTempf.d);
 303              		.loc 1 281 20 view .LVU73
 304 0020 10EE903A 		vmov	r3, s1	@ int
 305 0024 ADF80E30 		strh	r3, [sp, #14]	@ movhi
 306              		.loc 1 282 5 is_stmt 1 view .LVU74
 283:Src/mc_interface.c ****     MCI_SetCurrentReferences(pHandle, iqDrefTemp);
 307              		.loc 1 283 5 view .LVU75
 308 0028 0399     		ldr	r1, [sp, #12]
 309 002a FFF7FEFF 		bl	MCI_SetCurrentReferences
 310              	.LVL16:
 284:Src/mc_interface.c **** #ifdef NULL_PTR_CHECK_MC_INT
 285:Src/mc_interface.c ****   }
 286:Src/mc_interface.c **** #endif
 287:Src/mc_interface.c **** }
 311              		.loc 1 287 1 is_stmt 0 view .LVU76
 312 002e 05B0     		add	sp, sp, #20
 313              	.LCFI10:
 314              		.cfi_def_cfa_offset 4
 315              		@ sp needed
 316 0030 5DF804FB 		ldr	pc, [sp], #4
 317              	.LVL17:
 318              	.L19:
 319              		.loc 1 287 1 view .LVU77
ARM GAS  /tmp/cc00LnFH.s 			page 12


 320              		.align	2
 321              	.L18:
 322 0034 00000844 		.word	1141374976
 323              		.cfi_endproc
 324              	.LFE1471:
 326              		.section	.text.MCI_GetCalibratedOffsetsMotor,"ax",%progbits
 327              		.align	1
 328              		.p2align 2,,3
 329              		.weak	MCI_GetCalibratedOffsetsMotor
 330              		.syntax unified
 331              		.thumb
 332              		.thumb_func
 333              		.fpu fpv4-sp-d16
 335              	MCI_GetCalibratedOffsetsMotor:
 336              	.LVL18:
 337              	.LFB1475:
 288:Src/mc_interface.c **** 
 289:Src/mc_interface.c **** /**
 290:Src/mc_interface.c ****   * @brief  Initiates a motor startup procedure
 291:Src/mc_interface.c ****   *
 292:Src/mc_interface.c ****   * @param  pHandle Handle on the target motor interface structure
 293:Src/mc_interface.c ****   * @retval Returns true if the command is successfully executed;
 294:Src/mc_interface.c ****   *         returns false otherwise
 295:Src/mc_interface.c ****   *
 296:Src/mc_interface.c ****   *  If the state machine of target the motor is in #IDLE state the command is
 297:Src/mc_interface.c ****   * executed instantaneously otherwise it is discarded. Users can check
 298:Src/mc_interface.c ****   * the return value of the function to get its status. The state of the motor
 299:Src/mc_interface.c ****   * can be queried with the MCI_GetSTMState() function.
 300:Src/mc_interface.c ****   *
 301:Src/mc_interface.c ****   * Before calling MCI_StartMotor() it is mandatory to execute one of the
 302:Src/mc_interface.c ****   * following commands, in order to set a torque or a speed reference
 303:Src/mc_interface.c ****   * otherwise the behavior of the motor when it reaches the #RUN state will
 304:Src/mc_interface.c ****   * be unpredictable:
 305:Src/mc_interface.c ****   *  - MCI_ExecSpeedRamp
 306:Src/mc_interface.c ****   *  - MCI_ExecTorqueRamp
 307:Src/mc_interface.c ****   *  - MCI_SetCurrentReferences
 308:Src/mc_interface.c ****   *
 309:Src/mc_interface.c ****   * If the offsets of the current measurement circuitry offsets are not known yet,
 310:Src/mc_interface.c ****   * an offset calibration procedure is executed to measure them prior to acutally
 311:Src/mc_interface.c ****   * starting up the motor.
 312:Src/mc_interface.c ****   *
 313:Src/mc_interface.c ****   * @note The MCI_StartMotor command only triggers the execution of the start-up
 314:Src/mc_interface.c ****   * procedure (or eventually the offset calibration procedure) and returns
 315:Src/mc_interface.c ****   * immediately after. It is not blocking the execution of the application until
 316:Src/mc_interface.c ****   * the motor is indeed running in steady state. If the application needs to wait
 317:Src/mc_interface.c ****   * for the motor to be running in steady state, the application has to check the
 318:Src/mc_interface.c ****   * state machine of the motor and verify that the #RUN state has been reached.
 319:Src/mc_interface.c ****   * Note also that if the startup sequence fails the #RUN state may never be reached.
 320:Src/mc_interface.c ****   */
 321:Src/mc_interface.c **** __weak bool MCI_StartMotor(MCI_Handle_t *pHandle)
 322:Src/mc_interface.c **** {
 323:Src/mc_interface.c ****   bool retVal = false;
 324:Src/mc_interface.c **** #ifdef NULL_PTR_CHECK_MC_INT
 325:Src/mc_interface.c ****   if (MC_NULL == pHandle)
 326:Src/mc_interface.c ****   {
 327:Src/mc_interface.c ****     /* Nothing to do */
 328:Src/mc_interface.c ****   }
ARM GAS  /tmp/cc00LnFH.s 			page 13


 329:Src/mc_interface.c ****   else
 330:Src/mc_interface.c ****   {
 331:Src/mc_interface.c **** #endif
 332:Src/mc_interface.c ****     if ((IDLE == MCI_GetSTMState(pHandle)) &&
 333:Src/mc_interface.c ****         (MC_NO_FAULTS == MCI_GetOccurredFaults(pHandle)) &&
 334:Src/mc_interface.c ****         (MC_NO_FAULTS == MCI_GetCurrentFaults(pHandle)))
 335:Src/mc_interface.c ****     {
 336:Src/mc_interface.c ****       pHandle->DirectCommand = MCI_START;
 337:Src/mc_interface.c ****       pHandle->CommandState = MCI_COMMAND_NOT_ALREADY_EXECUTED;
 338:Src/mc_interface.c ****       retVal = true;
 339:Src/mc_interface.c ****     }
 340:Src/mc_interface.c ****     else
 341:Src/mc_interface.c ****     {
 342:Src/mc_interface.c ****       /* Reject the command as the condition are not met */
 343:Src/mc_interface.c ****     }
 344:Src/mc_interface.c **** #ifdef NULL_PTR_CHECK_MC_INT
 345:Src/mc_interface.c ****   }
 346:Src/mc_interface.c **** #endif
 347:Src/mc_interface.c ****   return (retVal);
 348:Src/mc_interface.c **** }
 349:Src/mc_interface.c **** 
 350:Src/mc_interface.c **** /**
 351:Src/mc_interface.c ****   * @brief  Initiates a motor startup procedure preceded by an offset
 352:Src/mc_interface.c ****   *         calibration procedure
 353:Src/mc_interface.c ****   *
 354:Src/mc_interface.c ****   * @param  pHandle Handle on the target motor interface structure
 355:Src/mc_interface.c ****   * @retval Returns true if the command is successfully executed;
 356:Src/mc_interface.c ****   *         returns false otherwise
 357:Src/mc_interface.c ****   *
 358:Src/mc_interface.c ****   *  If the state machine of target the motor is in #IDLE state the command is
 359:Src/mc_interface.c ****   * executed instantaneously otherwise it is discarded. Users can check
 360:Src/mc_interface.c ****   * the return value of the function to get its status. The state of the motor
 361:Src/mc_interface.c ****   * can be queried with the MCI_GetSTMState() function.
 362:Src/mc_interface.c ****   *
 363:Src/mc_interface.c ****   * Before calling MCI_StartMotor() it is mandatory to execute one of the
 364:Src/mc_interface.c ****   * following commands, in order to set a torque or a speed reference
 365:Src/mc_interface.c ****   * otherwise the behavior of the motor when it reaches the #RUN state will
 366:Src/mc_interface.c ****   * be unpredictable:
 367:Src/mc_interface.c ****   *  - MCI_ExecSpeedRamp
 368:Src/mc_interface.c ****   *  - MCI_ExecTorqueRamp
 369:Src/mc_interface.c ****   *  - MCI_SetCurrentReferences
 370:Src/mc_interface.c ****   *
 371:Src/mc_interface.c ****   * Whether the current measurement circuitry offsets are known or not, an
 372:Src/mc_interface.c ****   * offset calibration procedure is executed to (re)measure them. Once it has
 373:Src/mc_interface.c ****   * completed, the start up procedure of the motor is executed.
 374:Src/mc_interface.c ****   *
 375:Src/mc_interface.c ****   * @note The MCI_StartMotor command only triggers the execution of the start-up
 376:Src/mc_interface.c ****   * procedure (or eventually the offset calibration procedure) and returns
 377:Src/mc_interface.c ****   * immediately after. It is not blocking the execution of the application until
 378:Src/mc_interface.c ****   * the motor is indeed running in steady state. If the application needs to wait
 379:Src/mc_interface.c ****   * for the motor to be running in steady state, the application has to check the
 380:Src/mc_interface.c ****   * state machine of the motor and verify that the #RUN state has been reached.
 381:Src/mc_interface.c ****   * Note also that if the startup sequence fails the #RUN state may never be reached.
 382:Src/mc_interface.c ****   */
 383:Src/mc_interface.c **** __weak bool MCI_StartWithPolarizationMotor(MCI_Handle_t* pHandle)
 384:Src/mc_interface.c **** {
 385:Src/mc_interface.c ****   bool retVal = false;
ARM GAS  /tmp/cc00LnFH.s 			page 14


 386:Src/mc_interface.c **** #ifdef NULL_PTR_CHECK_MC_INT
 387:Src/mc_interface.c ****   if (MC_NULL == pHandle)
 388:Src/mc_interface.c ****   {
 389:Src/mc_interface.c ****     /* Nothing to do */
 390:Src/mc_interface.c ****   }
 391:Src/mc_interface.c ****   else
 392:Src/mc_interface.c ****   {
 393:Src/mc_interface.c **** #endif
 394:Src/mc_interface.c ****     if ((IDLE == MCI_GetSTMState(pHandle)) &&
 395:Src/mc_interface.c ****         (MC_NO_FAULTS == MCI_GetOccurredFaults(pHandle)) &&
 396:Src/mc_interface.c ****         (MC_NO_FAULTS == MCI_GetCurrentFaults(pHandle)))
 397:Src/mc_interface.c ****     {
 398:Src/mc_interface.c ****       pHandle->DirectCommand = MCI_START;
 399:Src/mc_interface.c ****       pHandle->CommandState = MCI_COMMAND_NOT_ALREADY_EXECUTED;
 400:Src/mc_interface.c ****       pHandle->pPWM->offsetCalibStatus = false;
 401:Src/mc_interface.c ****       retVal = true;
 402:Src/mc_interface.c ****   }
 403:Src/mc_interface.c ****   else
 404:Src/mc_interface.c ****   {
 405:Src/mc_interface.c ****     /* Reject the command as the condition are not met */
 406:Src/mc_interface.c ****   }
 407:Src/mc_interface.c **** #ifdef NULL_PTR_CHECK_MC_INT
 408:Src/mc_interface.c ****   }
 409:Src/mc_interface.c **** #endif
 410:Src/mc_interface.c ****   return (retVal);
 411:Src/mc_interface.c **** }
 412:Src/mc_interface.c **** 
 413:Src/mc_interface.c **** /**
 414:Src/mc_interface.c ****   * @brief  This is a user command used to begin the phase offset calibration
 415:Src/mc_interface.c ****   *         procedure. If the state machine is in IDLE state the command is executed
 416:Src/mc_interface.c ****   *         instantaneously otherwise the command is discarded. User must take
 417:Src/mc_interface.c ****   *         care of this possibility by checking the return value.\n
 418:Src/mc_interface.c ****   *         <B>Note:</B> The MCI_StartOffsetMeasurments command is used to begin phase
 419:Src/mc_interface.c ****   *         offset calibration procedure moving the state machine from IDLE state to
 420:Src/mc_interface.c ****   *         OFFSET_CALIB. The command MCI_StartOffsetMeasurments is not blocking
 421:Src/mc_interface.c ****   *         the execution of project until the measurments are done; to do this, the user
 422:Src/mc_interface.c ****   *         have to check the state machine and verify that the IDLE state (or
 423:Src/mc_interface.c ****   *         any other state) has been reached.
 424:Src/mc_interface.c ****   * @param  pHandle Pointer on the component instance to work on.
 425:Src/mc_interface.c ****   * @retval bool It returns true if the command is successfully executed
 426:Src/mc_interface.c ****   *         otherwise it return false.
 427:Src/mc_interface.c ****   */
 428:Src/mc_interface.c **** __weak bool MCI_StartOffsetMeasurments(MCI_Handle_t *pHandle)
 429:Src/mc_interface.c **** {
 430:Src/mc_interface.c ****   bool retVal = false;
 431:Src/mc_interface.c **** #ifdef NULL_PTR_CHECK_MC_INT
 432:Src/mc_interface.c ****   if (MC_NULL == pHandle)
 433:Src/mc_interface.c ****   {
 434:Src/mc_interface.c ****     /* Nothing to do */
 435:Src/mc_interface.c ****   }
 436:Src/mc_interface.c ****   else
 437:Src/mc_interface.c ****   {
 438:Src/mc_interface.c **** #endif
 439:Src/mc_interface.c ****     if ((IDLE == MCI_GetSTMState(pHandle)) &&
 440:Src/mc_interface.c ****         (MC_NO_FAULTS == MCI_GetOccurredFaults(pHandle)) &&
 441:Src/mc_interface.c ****         (MC_NO_FAULTS == MCI_GetCurrentFaults(pHandle)))
 442:Src/mc_interface.c ****     {
ARM GAS  /tmp/cc00LnFH.s 			page 15


 443:Src/mc_interface.c ****       pHandle->DirectCommand = MCI_MEASURE_OFFSETS;
 444:Src/mc_interface.c ****       pHandle->pPWM->offsetCalibStatus = false;
 445:Src/mc_interface.c ****       retVal = true;
 446:Src/mc_interface.c ****     }
 447:Src/mc_interface.c ****     else
 448:Src/mc_interface.c ****     {
 449:Src/mc_interface.c ****       /* Reject the command as the condition are not met */
 450:Src/mc_interface.c ****     }
 451:Src/mc_interface.c **** #ifdef NULL_PTR_CHECK_MC_INT
 452:Src/mc_interface.c ****   }
 453:Src/mc_interface.c **** #endif
 454:Src/mc_interface.c ****   return (retVal);
 455:Src/mc_interface.c **** }
 456:Src/mc_interface.c **** 
 457:Src/mc_interface.c **** /**
 458:Src/mc_interface.c ****   * @brief  Gets the phase current measurement offset values
 459:Src/mc_interface.c ****   *
 460:Src/mc_interface.c ****   * The offset values are written in the PolarizationOffsets structure provided that they
 461:Src/mc_interface.c ****   * have been previously provided for the Motor Control subsystem or measured by it.
 462:Src/mc_interface.c ****   *
 463:Src/mc_interface.c ****   * If the offset have not previously been provided to the Motor Control subsystem or
 464:Src/mc_interface.c ****   * if it has not measured them the function returns false and nothing is written in the
 465:Src/mc_interface.c ****   * PolarizationOffsets structure.
 466:Src/mc_interface.c ****   *
 467:Src/mc_interface.c ****   * @param  pHandle Pointer on the component instance to work on.
 468:Src/mc_interface.c ****   * @param  PolarizationOffsets Pointer on ploarization offset structure in which offsets will be w
 469:Src/mc_interface.c ****   * @retval returns true if the command is successfully executed; returns false otherwise.
 470:Src/mc_interface.c ****   */
 471:Src/mc_interface.c **** __weak bool MCI_GetCalibratedOffsetsMotor(MCI_Handle_t *pHandle, PolarizationOffsets_t *Polarizatio
 472:Src/mc_interface.c **** {
 338              		.loc 1 472 1 is_stmt 1 view -0
 339              		.cfi_startproc
 340              		@ args = 0, pretend = 0, frame = 0
 341              		@ frame_needed = 0, uses_anonymous_args = 0
 473:Src/mc_interface.c ****   bool retVal = false;
 342              		.loc 1 473 3 view .LVU79
 474:Src/mc_interface.c **** #ifdef NULL_PTR_CHECK_MC_INT
 475:Src/mc_interface.c ****   if (MC_NULL == pHandle)
 476:Src/mc_interface.c ****   {
 477:Src/mc_interface.c ****     /* Nothing to do */
 478:Src/mc_interface.c ****   }
 479:Src/mc_interface.c ****   else
 480:Src/mc_interface.c ****   {
 481:Src/mc_interface.c **** #endif
 482:Src/mc_interface.c ****     if (pHandle->pPWM->offsetCalibStatus == true)
 343              		.loc 1 482 5 view .LVU80
 344              		.loc 1 482 16 is_stmt 0 view .LVU81
 345 0000 8068     		ldr	r0, [r0, #8]
 346              	.LVL19:
 472:Src/mc_interface.c ****   bool retVal = false;
 347              		.loc 1 472 1 view .LVU82
 348 0002 10B5     		push	{r4, lr}
 349              	.LCFI11:
 350              		.cfi_def_cfa_offset 8
 351              		.cfi_offset 4, -8
 352              		.cfi_offset 14, -4
 353              		.loc 1 482 22 view .LVU83
ARM GAS  /tmp/cc00LnFH.s 			page 16


 354 0004 90F87F40 		ldrb	r4, [r0, #127]	@ zero_extendqisi2
 355              		.loc 1 482 8 view .LVU84
 356 0008 0CB9     		cbnz	r4, .L26
 357              	.LVL20:
 483:Src/mc_interface.c ****     {
 484:Src/mc_interface.c ****       PWMC_GetOffsetCalib(pHandle->pPWM, PolarizationOffsets);
 485:Src/mc_interface.c ****       retVal = true;
 486:Src/mc_interface.c ****     }
 487:Src/mc_interface.c ****     else
 488:Src/mc_interface.c ****     {
 489:Src/mc_interface.c ****       /* Reject the command as the condition are not met */
 490:Src/mc_interface.c ****     }
 358              		.loc 1 490 5 is_stmt 1 view .LVU85
 491:Src/mc_interface.c **** #ifdef NULL_PTR_CHECK_MC_INT
 492:Src/mc_interface.c ****   }
 493:Src/mc_interface.c **** #endif
 494:Src/mc_interface.c **** 
 495:Src/mc_interface.c ****   return(retVal);
 359              		.loc 1 495 3 view .LVU86
 496:Src/mc_interface.c **** }
 360              		.loc 1 496 1 is_stmt 0 view .LVU87
 361 000a 2046     		mov	r0, r4
 362 000c 10BD     		pop	{r4, pc}
 363              	.LVL21:
 364              	.L26:
 484:Src/mc_interface.c ****       retVal = true;
 365              		.loc 1 484 7 is_stmt 1 view .LVU88
 366 000e FFF7FEFF 		bl	PWMC_GetOffsetCalib
 367              	.LVL22:
 485:Src/mc_interface.c ****     }
 368              		.loc 1 485 7 view .LVU89
 490:Src/mc_interface.c **** #ifdef NULL_PTR_CHECK_MC_INT
 369              		.loc 1 490 5 view .LVU90
 495:Src/mc_interface.c **** }
 370              		.loc 1 495 3 view .LVU91
 371              		.loc 1 496 1 is_stmt 0 view .LVU92
 372 0012 2046     		mov	r0, r4
 373 0014 10BD     		pop	{r4, pc}
 374              		.loc 1 496 1 view .LVU93
 375              		.cfi_endproc
 376              	.LFE1475:
 378 0016 00BF     		.section	.text.MCI_FaultProcessing,"ax",%progbits
 379              		.align	1
 380              		.p2align 2,,3
 381              		.weak	MCI_FaultProcessing
 382              		.syntax unified
 383              		.thumb
 384              		.thumb_func
 385              		.fpu fpv4-sp-d16
 387              	MCI_FaultProcessing:
 388              	.LVL23:
 389              	.LFB1479:
 497:Src/mc_interface.c **** 
 498:Src/mc_interface.c **** /**
 499:Src/mc_interface.c ****   * @brief  Sets the phase current measurement offset values
 500:Src/mc_interface.c ****   *
 501:Src/mc_interface.c ****   * If the state machine is in IDLE state the command is executed
ARM GAS  /tmp/cc00LnFH.s 			page 17


 502:Src/mc_interface.c ****   * instantaneously otherwise the command is discarded. User must take
 503:Src/mc_interface.c ****   * care of this possibility by checking the return value.
 504:Src/mc_interface.c ****   *
 505:Src/mc_interface.c ****   * @note The MCI_SetCalibratedOffsetsMotor command is used to set the phase
 506:Src/mc_interface.c ****   *  offset values . The command MCI_SetCalibratedOffsetsMotor is not blocking
 507:Src/mc_interface.c ****   * the execution of project until the measurments are done; to do this, the user
 508:Src/mc_interface.c ****   * have to check the state machine and verify that the IDLE state (or
 509:Src/mc_interface.c ****   * any other state) has been reached.
 510:Src/mc_interface.c ****   *
 511:Src/mc_interface.c ****   * @param  pHandle Pointer on the component instance to work on.
 512:Src/mc_interface.c ****   * @param  PolarizationOffsets Pointer on ploarization offset structure that contains phase A,
 513:Src/mc_interface.c ****   *         and C values.
 514:Src/mc_interface.c ****   * @retval Returns true if the command is successfully executed
 515:Src/mc_interface.c ****   *         otherwise it return false.
 516:Src/mc_interface.c ****   */
 517:Src/mc_interface.c **** __weak bool MCI_SetCalibratedOffsetsMotor(MCI_Handle_t *pHandle, PolarizationOffsets_t *Polarizatio
 518:Src/mc_interface.c **** {
 519:Src/mc_interface.c ****   bool retVal = false;
 520:Src/mc_interface.c **** #ifdef NULL_PTR_CHECK_MC_INT
 521:Src/mc_interface.c ****   if (MC_NULL == pHandle)
 522:Src/mc_interface.c ****   {
 523:Src/mc_interface.c ****     /* Nothing to do */
 524:Src/mc_interface.c ****   }
 525:Src/mc_interface.c ****   else
 526:Src/mc_interface.c ****   {
 527:Src/mc_interface.c **** #endif
 528:Src/mc_interface.c ****     if ((IDLE == MCI_GetSTMState(pHandle)) &&
 529:Src/mc_interface.c ****         (MC_NO_FAULTS == MCI_GetOccurredFaults(pHandle)) &&
 530:Src/mc_interface.c ****         (MC_NO_FAULTS == MCI_GetCurrentFaults(pHandle)))
 531:Src/mc_interface.c ****     {
 532:Src/mc_interface.c ****       PWMC_SetOffsetCalib(pHandle->pPWM, PolarizationOffsets);
 533:Src/mc_interface.c ****       pHandle->pPWM->offsetCalibStatus = true;
 534:Src/mc_interface.c ****       retVal = true;
 535:Src/mc_interface.c ****     }
 536:Src/mc_interface.c ****     else
 537:Src/mc_interface.c ****     {
 538:Src/mc_interface.c ****       /* Reject the command as the condition are not met */
 539:Src/mc_interface.c ****     }
 540:Src/mc_interface.c **** #ifdef NULL_PTR_CHECK_MC_INT
 541:Src/mc_interface.c ****   }
 542:Src/mc_interface.c **** #endif
 543:Src/mc_interface.c ****     return(retVal);
 544:Src/mc_interface.c **** }
 545:Src/mc_interface.c **** 
 546:Src/mc_interface.c **** /**
 547:Src/mc_interface.c ****   * @brief Initiates the stop procedure for a motor
 548:Src/mc_interface.c ****   *
 549:Src/mc_interface.c ****   *  If the state machine is in any state but the #ICLWAIT, #IDLE, #FAULT_NOW and
 550:Src/mc_interface.c ****   * #FAULT_OVER states, the command is immediately executed. Otherwise, it is
 551:Src/mc_interface.c ****   * discarded. The Application can check the return value to know whether the
 552:Src/mc_interface.c ****   * command was executed or discarded.
 553:Src/mc_interface.c ****   *
 554:Src/mc_interface.c ****   * @note The MCI_StopMotor() command only triggers the stop motor procedure
 555:Src/mc_interface.c ****   * and then returns. It is not blocking the application until the motor is indeed
 556:Src/mc_interface.c ****   * stopped. To know if it has stopped, the application can query the motor's state
 557:Src/mc_interface.c ****   * machine and check if the #IDLE state has been reached.
 558:Src/mc_interface.c ****   *
ARM GAS  /tmp/cc00LnFH.s 			page 18


 559:Src/mc_interface.c ****   * @param  pHandle Pointer on the component instance to work on.
 560:Src/mc_interface.c ****   * @retval returns true if the command is successfully executed, false otherwise.
 561:Src/mc_interface.c ****   */
 562:Src/mc_interface.c **** __weak bool MCI_StopMotor(MCI_Handle_t *pHandle)
 563:Src/mc_interface.c **** {
 564:Src/mc_interface.c ****   bool retVal = false;
 565:Src/mc_interface.c **** #ifdef NULL_PTR_CHECK_MC_INT
 566:Src/mc_interface.c ****   if (MC_NULL == pHandle)
 567:Src/mc_interface.c ****   {
 568:Src/mc_interface.c ****     /* Nothing to do */
 569:Src/mc_interface.c ****   }
 570:Src/mc_interface.c ****   else
 571:Src/mc_interface.c ****   {
 572:Src/mc_interface.c **** #endif
 573:Src/mc_interface.c ****     bool status;
 574:Src/mc_interface.c ****     MCI_State_t State;
 575:Src/mc_interface.c **** 
 576:Src/mc_interface.c ****     State = MCI_GetSTMState(pHandle);
 577:Src/mc_interface.c ****     if ((IDLE == State) || (ICLWAIT == State))
 578:Src/mc_interface.c ****     {
 579:Src/mc_interface.c ****       status = false;
 580:Src/mc_interface.c ****     }
 581:Src/mc_interface.c ****     else
 582:Src/mc_interface.c ****     {
 583:Src/mc_interface.c ****       status = true;
 584:Src/mc_interface.c ****     }
 585:Src/mc_interface.c **** 
 586:Src/mc_interface.c ****     if ((MC_NO_FAULTS == MCI_GetOccurredFaults(pHandle)) &&
 587:Src/mc_interface.c ****         (MC_NO_FAULTS == MCI_GetCurrentFaults(pHandle)) &&
 588:Src/mc_interface.c ****         (status == true))
 589:Src/mc_interface.c ****     {
 590:Src/mc_interface.c ****       pHandle->DirectCommand = MCI_STOP;
 591:Src/mc_interface.c ****       retVal = true;
 592:Src/mc_interface.c ****     }
 593:Src/mc_interface.c ****     else
 594:Src/mc_interface.c ****     {
 595:Src/mc_interface.c ****       /* Reject the command as the condition are not met */
 596:Src/mc_interface.c ****     }
 597:Src/mc_interface.c **** #ifdef NULL_PTR_CHECK_MC_INT
 598:Src/mc_interface.c ****   }
 599:Src/mc_interface.c **** #endif
 600:Src/mc_interface.c ****   return (retVal);
 601:Src/mc_interface.c **** }
 602:Src/mc_interface.c **** 
 603:Src/mc_interface.c **** /**
 604:Src/mc_interface.c ****  * @brief Acknowledges Motor Control faults that occurred on the target motor 1.
 605:Src/mc_interface.c ****  *
 606:Src/mc_interface.c ****  *  This function must be called before the motor can be started again when a fault
 607:Src/mc_interface.c ****  * condition has occured. It clears the faults status and resets the state machine
 608:Src/mc_interface.c ****  * of the target motor to the #IDLE state provided that there is no active fault
 609:Src/mc_interface.c ****  * condition anymore.
 610:Src/mc_interface.c ****  *
 611:Src/mc_interface.c ****  *  If the state machine of the target motor is in the #FAULT_OVER state, the function
 612:Src/mc_interface.c ****  * clears the list of past faults, transitions to the #IDLE state and returns true.
 613:Src/mc_interface.c ****  * Otherwise, it oes nothing and returns false.
 614:Src/mc_interface.c ****  *
 615:Src/mc_interface.c ****  * @param  pHandle Pointer on the target motor drive structure.
ARM GAS  /tmp/cc00LnFH.s 			page 19


 616:Src/mc_interface.c ****  */
 617:Src/mc_interface.c **** __weak bool MCI_FaultAcknowledged(MCI_Handle_t *pHandle)
 618:Src/mc_interface.c **** {
 619:Src/mc_interface.c ****   bool reVal = false;
 620:Src/mc_interface.c **** #ifdef NULL_PTR_CHECK_MC_INT
 621:Src/mc_interface.c ****   if (MC_NULL == pHandle)
 622:Src/mc_interface.c ****   {
 623:Src/mc_interface.c ****     /* Nothing to do */
 624:Src/mc_interface.c ****   }
 625:Src/mc_interface.c ****   else
 626:Src/mc_interface.c ****   {
 627:Src/mc_interface.c **** #endif
 628:Src/mc_interface.c ****     if ((FAULT_OVER == MCI_GetSTMState(pHandle)) && (MC_NO_FAULTS == MCI_GetCurrentFaults(pHandle))
 629:Src/mc_interface.c ****     {
 630:Src/mc_interface.c ****       pHandle->PastFaults = MC_NO_FAULTS;
 631:Src/mc_interface.c ****       pHandle->DirectCommand = MCI_ACK_FAULTS;
 632:Src/mc_interface.c ****       reVal = true;
 633:Src/mc_interface.c ****     }
 634:Src/mc_interface.c ****     else
 635:Src/mc_interface.c ****     {
 636:Src/mc_interface.c ****       /* Reject the command as the conditions are not met */
 637:Src/mc_interface.c ****     }
 638:Src/mc_interface.c **** #ifdef NULL_PTR_CHECK_MC_INT
 639:Src/mc_interface.c ****   }
 640:Src/mc_interface.c **** #endif
 641:Src/mc_interface.c ****   return (reVal);
 642:Src/mc_interface.c **** }
 643:Src/mc_interface.c **** 
 644:Src/mc_interface.c **** /**
 645:Src/mc_interface.c ****  * @brief It clocks both HW and SW faults processing and update the state
 646:Src/mc_interface.c ****  *        machine accordingly with hSetErrors, hResetErrors and present state.
 647:Src/mc_interface.c ****  *        Refer to State_t description for more information about fault states.
 648:Src/mc_interface.c ****  * @param pHandle pointer of type  STM_Handle_t
 649:Src/mc_interface.c ****  * @param hSetErrors Bit field reporting faults currently present
 650:Src/mc_interface.c ****  * @param hResetErrors Bit field reporting faults to be cleared
 651:Src/mc_interface.c ****  */
 652:Src/mc_interface.c **** __weak void MCI_FaultProcessing(MCI_Handle_t *pHandle, uint16_t hSetErrors, uint16_t hResetErrors)
 653:Src/mc_interface.c **** {
 390              		.loc 1 653 1 is_stmt 1 view -0
 391              		.cfi_startproc
 392              		@ args = 0, pretend = 0, frame = 0
 393              		@ frame_needed = 0, uses_anonymous_args = 0
 394              		@ link register save eliminated.
 654:Src/mc_interface.c **** #ifdef NULL_PTR_CHECK_MC_INT
 655:Src/mc_interface.c ****   if (MC_NULL == pHandle)
 656:Src/mc_interface.c ****   {
 657:Src/mc_interface.c ****     /* Nothing to do */
 658:Src/mc_interface.c ****   }
 659:Src/mc_interface.c ****   else
 660:Src/mc_interface.c ****   {
 661:Src/mc_interface.c **** #endif
 662:Src/mc_interface.c ****     /* Set current errors */
 663:Src/mc_interface.c ****     pHandle->CurrentFaults = (pHandle->CurrentFaults | hSetErrors ) & (~hResetErrors);
 395              		.loc 1 663 5 view .LVU95
 396              		.loc 1 663 69 is_stmt 0 view .LVU96
 397 0000 038C     		ldrh	r3, [r0, #32]
 653:Src/mc_interface.c **** #ifdef NULL_PTR_CHECK_MC_INT
ARM GAS  /tmp/cc00LnFH.s 			page 20


 398              		.loc 1 653 1 view .LVU97
 399 0002 10B4     		push	{r4}
 400              	.LCFI12:
 401              		.cfi_def_cfa_offset 4
 402              		.cfi_offset 4, -4
 664:Src/mc_interface.c ****     pHandle->PastFaults |= hSetErrors;
 403              		.loc 1 664 25 view .LVU98
 404 0004 448C     		ldrh	r4, [r0, #34]
 663:Src/mc_interface.c ****     pHandle->PastFaults |= hSetErrors;
 405              		.loc 1 663 69 view .LVU99
 406 0006 0B43     		orrs	r3, r3, r1
 407 0008 23EA0202 		bic	r2, r3, r2
 408              	.LVL24:
 409              		.loc 1 664 25 view .LVU100
 410 000c 2143     		orrs	r1, r1, r4
 411              	.LVL25:
 663:Src/mc_interface.c ****     pHandle->PastFaults |= hSetErrors;
 412              		.loc 1 663 28 view .LVU101
 413 000e 0284     		strh	r2, [r0, #32]	@ movhi
 414              		.loc 1 664 5 is_stmt 1 view .LVU102
 415              		.loc 1 664 25 is_stmt 0 view .LVU103
 416 0010 4184     		strh	r1, [r0, #34]	@ movhi
 665:Src/mc_interface.c **** #ifdef NULL_PTR_CHECK_MC_INT
 666:Src/mc_interface.c ****   }
 667:Src/mc_interface.c **** #endif
 668:Src/mc_interface.c **** }
 417              		.loc 1 668 1 view .LVU104
 418 0012 5DF8044B 		ldr	r4, [sp], #4
 419              	.LCFI13:
 420              		.cfi_restore 4
 421              		.cfi_def_cfa_offset 0
 422 0016 7047     		bx	lr
 423              		.cfi_endproc
 424              	.LFE1479:
 426              		.section	.text.MCI_ExecBufferedCommands,"ax",%progbits
 427              		.align	1
 428              		.p2align 2,,3
 429              		.weak	MCI_ExecBufferedCommands
 430              		.syntax unified
 431              		.thumb
 432              		.thumb_func
 433              		.fpu fpv4-sp-d16
 435              	MCI_ExecBufferedCommands:
 436              	.LVL26:
 437              	.LFB1480:
 669:Src/mc_interface.c **** 
 670:Src/mc_interface.c **** /**
 671:Src/mc_interface.c ****   * @brief  This is usually a method managed by task. It must be called
 672:Src/mc_interface.c ****   *         periodically in order to check the status of the related pSTM object
 673:Src/mc_interface.c ****   *         and eventually to execute the buffered command if the condition
 674:Src/mc_interface.c ****   *         occurs.
 675:Src/mc_interface.c ****   * @param  pHandle Pointer on the component instance to work on.
 676:Src/mc_interface.c ****   */
 677:Src/mc_interface.c **** __weak void MCI_ExecBufferedCommands(MCI_Handle_t *pHandle)
 678:Src/mc_interface.c **** {
 438              		.loc 1 678 1 is_stmt 1 view -0
 439              		.cfi_startproc
ARM GAS  /tmp/cc00LnFH.s 			page 21


 440              		@ args = 0, pretend = 0, frame = 0
 441              		@ frame_needed = 0, uses_anonymous_args = 0
 679:Src/mc_interface.c **** #ifdef NULL_PTR_CHECK_MC_INT
 680:Src/mc_interface.c ****   if (NULL == pHandle)
 681:Src/mc_interface.c ****   {
 682:Src/mc_interface.c ****     /* Nothing to do */
 683:Src/mc_interface.c ****   }
 684:Src/mc_interface.c ****   else
 685:Src/mc_interface.c ****   {
 686:Src/mc_interface.c **** #endif
 687:Src/mc_interface.c ****     if ( pHandle->CommandState == MCI_COMMAND_NOT_ALREADY_EXECUTED )
 442              		.loc 1 687 5 view .LVU106
 443              		.loc 1 687 8 is_stmt 0 view .LVU107
 444 0000 90F82430 		ldrb	r3, [r0, #36]	@ zero_extendqisi2
 445 0004 012B     		cmp	r3, #1
 446 0006 00D0     		beq	.L43
 447 0008 7047     		bx	lr
 448              	.L43:
 449              	.LBB40:
 688:Src/mc_interface.c ****     {
 689:Src/mc_interface.c ****       bool commandHasBeenExecuted = false;
 690:Src/mc_interface.c ****       switch (pHandle->lastCommand)
 450              		.loc 1 690 22 view .LVU108
 451 000a 027B     		ldrb	r2, [r0, #12]	@ zero_extendqisi2
 452              		.loc 1 690 7 view .LVU109
 453 000c 022A     		cmp	r2, #2
 454              	.LBE40:
 678:Src/mc_interface.c **** #ifdef NULL_PTR_CHECK_MC_INT
 455              		.loc 1 678 1 view .LVU110
 456 000e 10B5     		push	{r4, lr}
 457              	.LCFI14:
 458              		.cfi_def_cfa_offset 8
 459              		.cfi_offset 4, -8
 460              		.cfi_offset 14, -4
 461 0010 0446     		mov	r4, r0
 462              	.LBB41:
 689:Src/mc_interface.c ****       switch (pHandle->lastCommand)
 463              		.loc 1 689 7 is_stmt 1 view .LVU111
 464              	.LVL27:
 465              		.loc 1 690 7 view .LVU112
 466 0012 07D0     		beq	.L31
 467              		.loc 1 690 7 is_stmt 0 view .LVU113
 468 0014 032A     		cmp	r2, #3
 469 0016 28D0     		beq	.L32
 470 0018 012A     		cmp	r2, #1
 471 001a 17D0     		beq	.L44
 472              	.LVL28:
 473              	.L33:
 691:Src/mc_interface.c ****       {
 692:Src/mc_interface.c ****         case MCI_CMD_EXECSPEEDRAMP:
 693:Src/mc_interface.c ****         {
 694:Src/mc_interface.c ****           pHandle->pFOCVars->bDriveInput = INTERNAL;
 695:Src/mc_interface.c ****           STC_SetControlMode(pHandle->pSTC, MCM_SPEED_MODE);
 696:Src/mc_interface.c ****           commandHasBeenExecuted = STC_ExecRamp(pHandle->pSTC, pHandle->hFinalSpeed, pHandle->hDura
 697:Src/mc_interface.c ****           break;
 698:Src/mc_interface.c ****         }
 699:Src/mc_interface.c **** 
ARM GAS  /tmp/cc00LnFH.s 			page 22


 700:Src/mc_interface.c ****         case MCI_CMD_EXECTORQUERAMP:
 701:Src/mc_interface.c ****         {
 702:Src/mc_interface.c ****           pHandle->pFOCVars->bDriveInput = INTERNAL;
 703:Src/mc_interface.c ****           STC_SetControlMode(pHandle->pSTC, MCM_TORQUE_MODE);
 704:Src/mc_interface.c ****           commandHasBeenExecuted = STC_ExecRamp(pHandle->pSTC, pHandle->hFinalTorque, pHandle->hDur
 705:Src/mc_interface.c ****           break;
 706:Src/mc_interface.c ****         }
 707:Src/mc_interface.c **** 
 708:Src/mc_interface.c ****         case MCI_CMD_SETCURRENTREFERENCES:
 709:Src/mc_interface.c ****         {
 710:Src/mc_interface.c ****           pHandle->pFOCVars->bDriveInput = EXTERNAL;
 711:Src/mc_interface.c ****           pHandle->pFOCVars->Iqdref = pHandle->Iqdref;
 712:Src/mc_interface.c ****           commandHasBeenExecuted = true;
 713:Src/mc_interface.c ****           break;
 714:Src/mc_interface.c ****         }
 715:Src/mc_interface.c **** 
 716:Src/mc_interface.c ****         default:
 717:Src/mc_interface.c ****           break;
 718:Src/mc_interface.c ****       }
 719:Src/mc_interface.c **** 
 720:Src/mc_interface.c ****       if (commandHasBeenExecuted)
 721:Src/mc_interface.c ****       {
 722:Src/mc_interface.c ****         pHandle->CommandState = MCI_COMMAND_EXECUTED_SUCCESSFULLY;
 723:Src/mc_interface.c ****       }
 724:Src/mc_interface.c ****       else
 725:Src/mc_interface.c ****       {
 726:Src/mc_interface.c ****         pHandle->CommandState = MCI_COMMAND_EXECUTED_UNSUCCESSFULLY;
 474              		.loc 1 726 9 is_stmt 1 view .LVU114
 475              		.loc 1 726 31 is_stmt 0 view .LVU115
 476 001c 0323     		movs	r3, #3
 477 001e 84F82430 		strb	r3, [r4, #36]
 478              	.LBE41:
 727:Src/mc_interface.c ****       }
 728:Src/mc_interface.c ****     }
 729:Src/mc_interface.c **** #ifdef NULL_PTR_CHECK_MC_INT
 730:Src/mc_interface.c ****   }
 731:Src/mc_interface.c **** #endif
 732:Src/mc_interface.c **** }
 479              		.loc 1 732 1 view .LVU116
 480 0022 10BD     		pop	{r4, pc}
 481              	.LVL29:
 482              	.L31:
 483              	.LBB42:
 702:Src/mc_interface.c ****           STC_SetControlMode(pHandle->pSTC, MCM_TORQUE_MODE);
 484              		.loc 1 702 11 is_stmt 1 view .LVU117
 703:Src/mc_interface.c ****           commandHasBeenExecuted = STC_ExecRamp(pHandle->pSTC, pHandle->hFinalTorque, pHandle->hDur
 485              		.loc 1 703 11 is_stmt 0 view .LVU118
 486 0024 D0E90003 		ldrd	r0, r3, [r0]
 487              	.LVL30:
 702:Src/mc_interface.c ****           STC_SetControlMode(pHandle->pSTC, MCM_TORQUE_MODE);
 488              		.loc 1 702 42 view .LVU119
 489 0028 0022     		movs	r2, #0
 490 002a 83F82420 		strb	r2, [r3, #36]
 703:Src/mc_interface.c ****           commandHasBeenExecuted = STC_ExecRamp(pHandle->pSTC, pHandle->hFinalTorque, pHandle->hDur
 491              		.loc 1 703 11 is_stmt 1 view .LVU120
 492 002e 0421     		movs	r1, #4
 493 0030 FFF7FEFF 		bl	STC_SetControlMode
ARM GAS  /tmp/cc00LnFH.s 			page 23


 494              	.LVL31:
 704:Src/mc_interface.c ****           break;
 495              		.loc 1 704 11 view .LVU121
 704:Src/mc_interface.c ****           break;
 496              		.loc 1 704 36 is_stmt 0 view .LVU122
 497 0034 A28B     		ldrh	r2, [r4, #28]
 498 0036 B4F91010 		ldrsh	r1, [r4, #16]
 499 003a 2068     		ldr	r0, [r4]
 500 003c FFF7FEFF 		bl	STC_ExecRamp
 501              	.LVL32:
 705:Src/mc_interface.c ****         }
 502              		.loc 1 705 11 is_stmt 1 view .LVU123
 503              	.L34:
 720:Src/mc_interface.c ****       {
 504              		.loc 1 720 7 view .LVU124
 720:Src/mc_interface.c ****       {
 505              		.loc 1 720 10 is_stmt 0 view .LVU125
 506 0040 0028     		cmp	r0, #0
 507 0042 EBD0     		beq	.L33
 508              	.LVL33:
 509              	.L35:
 722:Src/mc_interface.c ****       }
 510              		.loc 1 722 9 is_stmt 1 view .LVU126
 722:Src/mc_interface.c ****       }
 511              		.loc 1 722 31 is_stmt 0 view .LVU127
 512 0044 0223     		movs	r3, #2
 513 0046 84F82430 		strb	r3, [r4, #36]
 514              	.LBE42:
 515              		.loc 1 732 1 view .LVU128
 516 004a 10BD     		pop	{r4, pc}
 517              	.LVL34:
 518              	.L44:
 519              	.LBB43:
 694:Src/mc_interface.c ****           STC_SetControlMode(pHandle->pSTC, MCM_SPEED_MODE);
 520              		.loc 1 694 11 is_stmt 1 view .LVU129
 695:Src/mc_interface.c ****           commandHasBeenExecuted = STC_ExecRamp(pHandle->pSTC, pHandle->hFinalSpeed, pHandle->hDura
 521              		.loc 1 695 11 is_stmt 0 view .LVU130
 522 004c D0E90003 		ldrd	r0, r3, [r0]
 523              	.LVL35:
 694:Src/mc_interface.c ****           STC_SetControlMode(pHandle->pSTC, MCM_SPEED_MODE);
 524              		.loc 1 694 42 view .LVU131
 525 0050 0022     		movs	r2, #0
 526 0052 83F82420 		strb	r2, [r3, #36]
 695:Src/mc_interface.c ****           commandHasBeenExecuted = STC_ExecRamp(pHandle->pSTC, pHandle->hFinalSpeed, pHandle->hDura
 527              		.loc 1 695 11 is_stmt 1 view .LVU132
 528 0056 0321     		movs	r1, #3
 529 0058 FFF7FEFF 		bl	STC_SetControlMode
 530              	.LVL36:
 696:Src/mc_interface.c ****           break;
 531              		.loc 1 696 11 view .LVU133
 696:Src/mc_interface.c ****           break;
 532              		.loc 1 696 36 is_stmt 0 view .LVU134
 533 005c A28B     		ldrh	r2, [r4, #28]
 534 005e B4F90E10 		ldrsh	r1, [r4, #14]
 535 0062 2068     		ldr	r0, [r4]
 536 0064 FFF7FEFF 		bl	STC_ExecRamp
 537              	.LVL37:
ARM GAS  /tmp/cc00LnFH.s 			page 24


 697:Src/mc_interface.c ****         }
 538              		.loc 1 697 11 is_stmt 1 view .LVU135
 539 0068 EAE7     		b	.L34
 540              	.LVL38:
 541              	.L32:
 710:Src/mc_interface.c ****           pHandle->pFOCVars->Iqdref = pHandle->Iqdref;
 542              		.loc 1 710 11 view .LVU136
 710:Src/mc_interface.c ****           pHandle->pFOCVars->Iqdref = pHandle->Iqdref;
 543              		.loc 1 710 18 is_stmt 0 view .LVU137
 544 006a 4268     		ldr	r2, [r0, #4]
 711:Src/mc_interface.c ****           commandHasBeenExecuted = true;
 545              		.loc 1 711 37 view .LVU138
 546 006c D0F81210 		ldr	r1, [r0, #18]	@ unaligned
 547 0070 1161     		str	r1, [r2, #16]	@ unaligned
 710:Src/mc_interface.c ****           pHandle->pFOCVars->Iqdref = pHandle->Iqdref;
 548              		.loc 1 710 42 view .LVU139
 549 0072 82F82430 		strb	r3, [r2, #36]
 711:Src/mc_interface.c ****           commandHasBeenExecuted = true;
 550              		.loc 1 711 11 is_stmt 1 view .LVU140
 712:Src/mc_interface.c ****           break;
 551              		.loc 1 712 11 view .LVU141
 552              	.LVL39:
 713:Src/mc_interface.c ****         }
 553              		.loc 1 713 11 view .LVU142
 720:Src/mc_interface.c ****       {
 554              		.loc 1 720 7 view .LVU143
 555 0076 E5E7     		b	.L35
 556              	.LBE43:
 557              		.cfi_endproc
 558              	.LFE1480:
 560              		.section	.text.MCI_IsCommandAcknowledged,"ax",%progbits
 561              		.align	1
 562              		.p2align 2,,3
 563              		.weak	MCI_IsCommandAcknowledged
 564              		.syntax unified
 565              		.thumb
 566              		.thumb_func
 567              		.fpu fpv4-sp-d16
 569              	MCI_IsCommandAcknowledged:
 570              	.LVL40:
 571              	.LFB1481:
 733:Src/mc_interface.c **** 
 734:Src/mc_interface.c **** /**
 735:Src/mc_interface.c ****   * @brief  Returns information about the state of the last buffered command.
 736:Src/mc_interface.c ****   * @param  pHandle Pointer on the component instance to work on.
 737:Src/mc_interface.c ****   * @retval The state of the last buffered command
 738:Src/mc_interface.c ****   *
 739:Src/mc_interface.c ****   * The state returned by this function can be one of the following codes:
 740:Src/mc_interface.c ****   * - #MCI_BUFFER_EMPTY if no buffered command has been called.
 741:Src/mc_interface.c ****   * - #MCI_COMMAND_NOT_ALREADY_EXECUTED if the buffered command
 742:Src/mc_interface.c ****   * condition has not already occurred.
 743:Src/mc_interface.c ****   * - #MCI_COMMAND_EXECUTED_SUCCESSFULLY if the buffered command has
 744:Src/mc_interface.c ****   * been executed successfully. In this case calling this function resets
 745:Src/mc_interface.c ****   * the command state to #MCI_BUFFER_EMPTY.
 746:Src/mc_interface.c ****   * - #MCI_COMMAND_EXECUTED_UNSUCCESSFULLY if the buffered command has
 747:Src/mc_interface.c ****   * been executed unsuccessfully. In this case calling this function
 748:Src/mc_interface.c ****   * resets the command state to #MCI_BUFFER_EMPTY.
ARM GAS  /tmp/cc00LnFH.s 			page 25


 749:Src/mc_interface.c ****   */
 750:Src/mc_interface.c **** __weak MCI_CommandState_t MCI_IsCommandAcknowledged(MCI_Handle_t *pHandle)
 751:Src/mc_interface.c **** {
 572              		.loc 1 751 1 view -0
 573              		.cfi_startproc
 574              		@ args = 0, pretend = 0, frame = 0
 575              		@ frame_needed = 0, uses_anonymous_args = 0
 576              		@ link register save eliminated.
 752:Src/mc_interface.c ****   MCI_CommandState_t retVal;
 577              		.loc 1 752 3 view .LVU145
 753:Src/mc_interface.c **** #ifdef NULL_PTR_CHECK_MC_INT
 754:Src/mc_interface.c ****   if (MC_NULL == pHandle)
 755:Src/mc_interface.c ****   {
 756:Src/mc_interface.c ****     retVal = MCI_COMMAND_EXECUTED_UNSUCCESSFULLY;
 757:Src/mc_interface.c ****   }
 758:Src/mc_interface.c ****   else
 759:Src/mc_interface.c ****   {
 760:Src/mc_interface.c **** #endif
 761:Src/mc_interface.c ****     retVal = pHandle->CommandState;
 578              		.loc 1 761 5 view .LVU146
 579              		.loc 1 761 12 is_stmt 0 view .LVU147
 580 0000 90F82430 		ldrb	r3, [r0, #36]	@ zero_extendqisi2
 581              	.LVL41:
 762:Src/mc_interface.c **** 
 763:Src/mc_interface.c ****     if ((MCI_COMMAND_EXECUTED_SUCCESSFULLY == retVal) || (MCI_COMMAND_EXECUTED_UNSUCCESSFULLY == re
 582              		.loc 1 763 5 is_stmt 1 view .LVU148
 583              		.loc 1 763 8 is_stmt 0 view .LVU149
 584 0004 9A1E     		subs	r2, r3, #2
 585 0006 012A     		cmp	r2, #1
 764:Src/mc_interface.c ****     {
 765:Src/mc_interface.c ****       pHandle->CommandState = MCI_BUFFER_EMPTY;
 586              		.loc 1 765 7 is_stmt 1 view .LVU150
 587              		.loc 1 765 29 is_stmt 0 view .LVU151
 588 0008 9CBF     		itt	ls
 589 000a 0022     		movls	r2, #0
 590 000c 80F82420 		strbls	r2, [r0, #36]
 766:Src/mc_interface.c ****     }
 767:Src/mc_interface.c ****     else
 768:Src/mc_interface.c ****     {
 769:Src/mc_interface.c ****       /* Nothing to do */
 770:Src/mc_interface.c ****     }
 591              		.loc 1 770 5 is_stmt 1 view .LVU152
 771:Src/mc_interface.c **** #ifdef NULL_PTR_CHECK_MC_INT
 772:Src/mc_interface.c ****   }
 773:Src/mc_interface.c **** #endif
 774:Src/mc_interface.c ****   return (retVal);
 592              		.loc 1 774 3 view .LVU153
 775:Src/mc_interface.c **** }
 593              		.loc 1 775 1 is_stmt 0 view .LVU154
 594 0010 1846     		mov	r0, r3
 595              	.LVL42:
 596              		.loc 1 775 1 view .LVU155
 597 0012 7047     		bx	lr
 598              		.cfi_endproc
 599              	.LFE1481:
 601              		.section	.text.MCI_GetSTMState,"ax",%progbits
 602              		.align	1
ARM GAS  /tmp/cc00LnFH.s 			page 26


 603              		.p2align 2,,3
 604              		.weak	MCI_GetSTMState
 605              		.syntax unified
 606              		.thumb
 607              		.thumb_func
 608              		.fpu fpv4-sp-d16
 610              	MCI_GetSTMState:
 611              	.LVL43:
 612              	.LFB1482:
 776:Src/mc_interface.c **** 
 777:Src/mc_interface.c **** /**
 778:Src/mc_interface.c ****   * @brief  It returns information about the state of the related pSTM object.
 779:Src/mc_interface.c ****   * @param  pHandle Pointer on the component instance to work on.
 780:Src/mc_interface.c ****   * @retval State_t It returns the current state of the related pSTM object.
 781:Src/mc_interface.c ****   */
 782:Src/mc_interface.c **** __weak MCI_State_t MCI_GetSTMState(MCI_Handle_t *pHandle) //cstat !MISRAC2012-Rule-8.13
 783:Src/mc_interface.c **** {
 613              		.loc 1 783 1 is_stmt 1 view -0
 614              		.cfi_startproc
 615              		@ args = 0, pretend = 0, frame = 0
 616              		@ frame_needed = 0, uses_anonymous_args = 0
 617              		@ link register save eliminated.
 784:Src/mc_interface.c **** #ifdef NULL_PTR_CHECK_MC_INT
 785:Src/mc_interface.c ****   return ((MC_NULL == pHandle) ? FAULT_NOW : pHandle->State);
 786:Src/mc_interface.c **** #else
 787:Src/mc_interface.c ****   return (pHandle->State);
 618              		.loc 1 787 3 view .LVU157
 788:Src/mc_interface.c **** #endif
 789:Src/mc_interface.c **** }
 619              		.loc 1 789 1 is_stmt 0 view .LVU158
 620 0000 C07F     		ldrb	r0, [r0, #31]	@ zero_extendqisi2
 621              	.LVL44:
 622              		.loc 1 789 1 view .LVU159
 623 0002 7047     		bx	lr
 624              		.cfi_endproc
 625              	.LFE1482:
 627              		.section	.text.MCI_GetOccurredFaults,"ax",%progbits
 628              		.align	1
 629              		.p2align 2,,3
 630              		.weak	MCI_GetOccurredFaults
 631              		.syntax unified
 632              		.thumb
 633              		.thumb_func
 634              		.fpu fpv4-sp-d16
 636              	MCI_GetOccurredFaults:
 637              	.LVL45:
 638              	.LFB1483:
 790:Src/mc_interface.c **** 
 791:Src/mc_interface.c **** /**
 792:Src/mc_interface.c ****   * @brief Returns the list of non-acknowledged faults that occured on the target motor
 793:Src/mc_interface.c ****   *
 794:Src/mc_interface.c ****   * This function returns a bitfield indicating the faults that occured since the state machine
 795:Src/mc_interface.c ****   * of the target motor has been moved into the #FAULT_NOW state.
 796:Src/mc_interface.c ****   *
 797:Src/mc_interface.c ****   * Possible error codes are listed in the @ref fault_codes "Fault codes" section.
 798:Src/mc_interface.c ****   *
 799:Src/mc_interface.c ****   * @param  pHandle Pointer on the target motor drive structure.
ARM GAS  /tmp/cc00LnFH.s 			page 27


 800:Src/mc_interface.c ****   * @retval uint16_t  16 bit fields with information about the faults
 801:Src/mc_interface.c ****   *         historically occurred since the state machine has been moved into
 802:Src/mc_interface.c ****   */
 803:Src/mc_interface.c **** __weak uint16_t MCI_GetOccurredFaults(MCI_Handle_t *pHandle) //cstat !MISRAC2012-Rule-8.13
 804:Src/mc_interface.c **** {
 639              		.loc 1 804 1 is_stmt 1 view -0
 640              		.cfi_startproc
 641              		@ args = 0, pretend = 0, frame = 0
 642              		@ frame_needed = 0, uses_anonymous_args = 0
 643              		@ link register save eliminated.
 805:Src/mc_interface.c **** #ifdef NULL_PTR_CHECK_MC_INT
 806:Src/mc_interface.c ****   return ((MC_NULL == pHandle) ? MC_SW_ERROR : (uint16_t)pHandle->PastFaults);
 807:Src/mc_interface.c **** #else
 808:Src/mc_interface.c ****   return ((uint16_t)pHandle->PastFaults);
 644              		.loc 1 808 3 view .LVU161
 809:Src/mc_interface.c **** #endif
 810:Src/mc_interface.c **** }
 645              		.loc 1 810 1 is_stmt 0 view .LVU162
 646 0000 408C     		ldrh	r0, [r0, #34]
 647              	.LVL46:
 648              		.loc 1 810 1 view .LVU163
 649 0002 7047     		bx	lr
 650              		.cfi_endproc
 651              	.LFE1483:
 653              		.section	.text.MCI_GetCurrentFaults,"ax",%progbits
 654              		.align	1
 655              		.p2align 2,,3
 656              		.weak	MCI_GetCurrentFaults
 657              		.syntax unified
 658              		.thumb
 659              		.thumb_func
 660              		.fpu fpv4-sp-d16
 662              	MCI_GetCurrentFaults:
 663              	.LVL47:
 664              	.LFB1484:
 811:Src/mc_interface.c **** 
 812:Src/mc_interface.c **** /**
 813:Src/mc_interface.c ****   * @brief Returns the list of faults that are currently active on the target motor
 814:Src/mc_interface.c ****   *
 815:Src/mc_interface.c ****   * This function returns a bitfield that indicates faults that occured on the Motor
 816:Src/mc_interface.c ****   * Control subsystem for the target motor and that are still active (the conditions
 817:Src/mc_interface.c ****   * that triggered the faults returned are still true).
 818:Src/mc_interface.c ****   *
 819:Src/mc_interface.c ****   * Possible error codes are listed in the @ref fault_codes "Fault codes" section.
 820:Src/mc_interface.c ****   *
 821:Src/mc_interface.c ****   * @param  pHandle Pointer on the target motor drive structure.
 822:Src/mc_interface.c ****   */
 823:Src/mc_interface.c **** __weak uint16_t MCI_GetCurrentFaults(MCI_Handle_t *pHandle) //cstat !MISRAC2012-Rule-8.13
 824:Src/mc_interface.c **** {
 665              		.loc 1 824 1 is_stmt 1 view -0
 666              		.cfi_startproc
 667              		@ args = 0, pretend = 0, frame = 0
 668              		@ frame_needed = 0, uses_anonymous_args = 0
 669              		@ link register save eliminated.
 825:Src/mc_interface.c **** #ifdef NULL_PTR_CHECK_MC_INT
 826:Src/mc_interface.c ****   return ((MC_NULL == pHandle) ? MC_SW_ERROR : (uint16_t)pHandle->CurrentFaults);
 827:Src/mc_interface.c **** #else
ARM GAS  /tmp/cc00LnFH.s 			page 28


 828:Src/mc_interface.c ****   return ((uint16_t)pHandle->CurrentFaults);
 670              		.loc 1 828 3 view .LVU165
 829:Src/mc_interface.c **** #endif
 830:Src/mc_interface.c **** }
 671              		.loc 1 830 1 is_stmt 0 view .LVU166
 672 0000 008C     		ldrh	r0, [r0, #32]
 673              	.LVL48:
 674              		.loc 1 830 1 view .LVU167
 675 0002 7047     		bx	lr
 676              		.cfi_endproc
 677              	.LFE1484:
 679              		.section	.text.MCI_StartMotor,"ax",%progbits
 680              		.align	1
 681              		.p2align 2,,3
 682              		.weak	MCI_StartMotor
 683              		.syntax unified
 684              		.thumb
 685              		.thumb_func
 686              		.fpu fpv4-sp-d16
 688              	MCI_StartMotor:
 689              	.LVL49:
 690              	.LFB1472:
 322:Src/mc_interface.c ****   bool retVal = false;
 691              		.loc 1 322 1 is_stmt 1 view -0
 692              		.cfi_startproc
 693              		@ args = 0, pretend = 0, frame = 0
 694              		@ frame_needed = 0, uses_anonymous_args = 0
 323:Src/mc_interface.c **** #ifdef NULL_PTR_CHECK_MC_INT
 695              		.loc 1 323 3 view .LVU169
 332:Src/mc_interface.c ****         (MC_NO_FAULTS == MCI_GetOccurredFaults(pHandle)) &&
 696              		.loc 1 332 5 view .LVU170
 322:Src/mc_interface.c ****   bool retVal = false;
 697              		.loc 1 322 1 is_stmt 0 view .LVU171
 698 0000 10B5     		push	{r4, lr}
 699              	.LCFI15:
 700              		.cfi_def_cfa_offset 8
 701              		.cfi_offset 4, -8
 702              		.cfi_offset 14, -4
 322:Src/mc_interface.c ****   bool retVal = false;
 703              		.loc 1 322 1 view .LVU172
 704 0002 0446     		mov	r4, r0
 332:Src/mc_interface.c ****         (MC_NO_FAULTS == MCI_GetOccurredFaults(pHandle)) &&
 705              		.loc 1 332 18 view .LVU173
 706 0004 FFF7FEFF 		bl	MCI_GetSTMState
 707              	.LVL50:
 332:Src/mc_interface.c ****         (MC_NO_FAULTS == MCI_GetOccurredFaults(pHandle)) &&
 708              		.loc 1 332 8 view .LVU174
 709 0008 08B1     		cbz	r0, .L51
 710              	.L53:
 323:Src/mc_interface.c **** #ifdef NULL_PTR_CHECK_MC_INT
 711              		.loc 1 323 8 view .LVU175
 712 000a 0020     		movs	r0, #0
 713              	.LVL51:
 343:Src/mc_interface.c **** #ifdef NULL_PTR_CHECK_MC_INT
 714              		.loc 1 343 5 is_stmt 1 view .LVU176
 347:Src/mc_interface.c **** }
 715              		.loc 1 347 3 view .LVU177
ARM GAS  /tmp/cc00LnFH.s 			page 29


 348:Src/mc_interface.c **** 
 716              		.loc 1 348 1 is_stmt 0 view .LVU178
 717 000c 10BD     		pop	{r4, pc}
 718              	.LVL52:
 719              	.L51:
 333:Src/mc_interface.c ****         (MC_NO_FAULTS == MCI_GetCurrentFaults(pHandle)))
 720              		.loc 1 333 26 discriminator 1 view .LVU179
 721 000e 2046     		mov	r0, r4
 722 0010 FFF7FEFF 		bl	MCI_GetOccurredFaults
 723              	.LVL53:
 332:Src/mc_interface.c ****         (MC_NO_FAULTS == MCI_GetOccurredFaults(pHandle)) &&
 724              		.loc 1 332 44 discriminator 1 view .LVU180
 725 0014 0028     		cmp	r0, #0
 726 0016 F8D1     		bne	.L53
 334:Src/mc_interface.c ****     {
 727              		.loc 1 334 26 view .LVU181
 728 0018 2046     		mov	r0, r4
 729 001a FFF7FEFF 		bl	MCI_GetCurrentFaults
 730              	.LVL54:
 333:Src/mc_interface.c ****         (MC_NO_FAULTS == MCI_GetCurrentFaults(pHandle)))
 731              		.loc 1 333 58 view .LVU182
 732 001e 0028     		cmp	r0, #0
 733 0020 F3D1     		bne	.L53
 336:Src/mc_interface.c ****       pHandle->CommandState = MCI_COMMAND_NOT_ALREADY_EXECUTED;
 734              		.loc 1 336 7 is_stmt 1 view .LVU183
 336:Src/mc_interface.c ****       pHandle->CommandState = MCI_COMMAND_NOT_ALREADY_EXECUTED;
 735              		.loc 1 336 30 is_stmt 0 view .LVU184
 736 0022 0120     		movs	r0, #1
 737 0024 A077     		strb	r0, [r4, #30]
 337:Src/mc_interface.c ****       retVal = true;
 738              		.loc 1 337 7 is_stmt 1 view .LVU185
 337:Src/mc_interface.c ****       retVal = true;
 739              		.loc 1 337 29 is_stmt 0 view .LVU186
 740 0026 84F82400 		strb	r0, [r4, #36]
 338:Src/mc_interface.c ****     }
 741              		.loc 1 338 7 is_stmt 1 view .LVU187
 742              	.LVL55:
 343:Src/mc_interface.c **** #ifdef NULL_PTR_CHECK_MC_INT
 743              		.loc 1 343 5 view .LVU188
 347:Src/mc_interface.c **** }
 744              		.loc 1 347 3 view .LVU189
 348:Src/mc_interface.c **** 
 745              		.loc 1 348 1 is_stmt 0 view .LVU190
 746 002a 10BD     		pop	{r4, pc}
 348:Src/mc_interface.c **** 
 747              		.loc 1 348 1 view .LVU191
 748              		.cfi_endproc
 749              	.LFE1472:
 751              		.section	.text.MCI_StartWithPolarizationMotor,"ax",%progbits
 752              		.align	1
 753              		.p2align 2,,3
 754              		.weak	MCI_StartWithPolarizationMotor
 755              		.syntax unified
 756              		.thumb
 757              		.thumb_func
 758              		.fpu fpv4-sp-d16
 760              	MCI_StartWithPolarizationMotor:
ARM GAS  /tmp/cc00LnFH.s 			page 30


 761              	.LVL56:
 762              	.LFB1473:
 384:Src/mc_interface.c ****   bool retVal = false;
 763              		.loc 1 384 1 is_stmt 1 view -0
 764              		.cfi_startproc
 765              		@ args = 0, pretend = 0, frame = 0
 766              		@ frame_needed = 0, uses_anonymous_args = 0
 385:Src/mc_interface.c **** #ifdef NULL_PTR_CHECK_MC_INT
 767              		.loc 1 385 3 view .LVU193
 394:Src/mc_interface.c ****         (MC_NO_FAULTS == MCI_GetOccurredFaults(pHandle)) &&
 768              		.loc 1 394 5 view .LVU194
 384:Src/mc_interface.c ****   bool retVal = false;
 769              		.loc 1 384 1 is_stmt 0 view .LVU195
 770 0000 10B5     		push	{r4, lr}
 771              	.LCFI16:
 772              		.cfi_def_cfa_offset 8
 773              		.cfi_offset 4, -8
 774              		.cfi_offset 14, -4
 384:Src/mc_interface.c ****   bool retVal = false;
 775              		.loc 1 384 1 view .LVU196
 776 0002 0446     		mov	r4, r0
 394:Src/mc_interface.c ****         (MC_NO_FAULTS == MCI_GetOccurredFaults(pHandle)) &&
 777              		.loc 1 394 18 view .LVU197
 778 0004 FFF7FEFF 		bl	MCI_GetSTMState
 779              	.LVL57:
 394:Src/mc_interface.c ****         (MC_NO_FAULTS == MCI_GetOccurredFaults(pHandle)) &&
 780              		.loc 1 394 8 view .LVU198
 781 0008 08B1     		cbz	r0, .L56
 782              	.L58:
 385:Src/mc_interface.c **** #ifdef NULL_PTR_CHECK_MC_INT
 783              		.loc 1 385 8 view .LVU199
 784 000a 0020     		movs	r0, #0
 785              	.LVL58:
 406:Src/mc_interface.c **** #ifdef NULL_PTR_CHECK_MC_INT
 786              		.loc 1 406 3 is_stmt 1 view .LVU200
 410:Src/mc_interface.c **** }
 787              		.loc 1 410 3 view .LVU201
 411:Src/mc_interface.c **** 
 788              		.loc 1 411 1 is_stmt 0 view .LVU202
 789 000c 10BD     		pop	{r4, pc}
 790              	.LVL59:
 791              	.L56:
 395:Src/mc_interface.c ****         (MC_NO_FAULTS == MCI_GetCurrentFaults(pHandle)))
 792              		.loc 1 395 26 discriminator 1 view .LVU203
 793 000e 2046     		mov	r0, r4
 794 0010 FFF7FEFF 		bl	MCI_GetOccurredFaults
 795              	.LVL60:
 394:Src/mc_interface.c ****         (MC_NO_FAULTS == MCI_GetOccurredFaults(pHandle)) &&
 796              		.loc 1 394 44 discriminator 1 view .LVU204
 797 0014 0028     		cmp	r0, #0
 798 0016 F8D1     		bne	.L58
 396:Src/mc_interface.c ****     {
 799              		.loc 1 396 26 view .LVU205
 800 0018 2046     		mov	r0, r4
 801 001a FFF7FEFF 		bl	MCI_GetCurrentFaults
 802              	.LVL61:
 395:Src/mc_interface.c ****         (MC_NO_FAULTS == MCI_GetCurrentFaults(pHandle)))
ARM GAS  /tmp/cc00LnFH.s 			page 31


 803              		.loc 1 395 58 view .LVU206
 804 001e 0246     		mov	r2, r0
 805 0020 0028     		cmp	r0, #0
 806 0022 F2D1     		bne	.L58
 398:Src/mc_interface.c ****       pHandle->CommandState = MCI_COMMAND_NOT_ALREADY_EXECUTED;
 807              		.loc 1 398 7 is_stmt 1 view .LVU207
 400:Src/mc_interface.c ****       retVal = true;
 808              		.loc 1 400 40 is_stmt 0 view .LVU208
 809 0024 A168     		ldr	r1, [r4, #8]
 398:Src/mc_interface.c ****       pHandle->CommandState = MCI_COMMAND_NOT_ALREADY_EXECUTED;
 810              		.loc 1 398 30 view .LVU209
 811 0026 0123     		movs	r3, #1
 812 0028 A377     		strb	r3, [r4, #30]
 399:Src/mc_interface.c ****       pHandle->pPWM->offsetCalibStatus = false;
 813              		.loc 1 399 7 is_stmt 1 view .LVU210
 399:Src/mc_interface.c ****       pHandle->pPWM->offsetCalibStatus = false;
 814              		.loc 1 399 29 is_stmt 0 view .LVU211
 815 002a 84F82430 		strb	r3, [r4, #36]
 400:Src/mc_interface.c ****       retVal = true;
 816              		.loc 1 400 7 is_stmt 1 view .LVU212
 401:Src/mc_interface.c ****   }
 817              		.loc 1 401 14 is_stmt 0 view .LVU213
 818 002e 1846     		mov	r0, r3
 400:Src/mc_interface.c ****       retVal = true;
 819              		.loc 1 400 40 view .LVU214
 820 0030 81F87F20 		strb	r2, [r1, #127]
 401:Src/mc_interface.c ****   }
 821              		.loc 1 401 7 is_stmt 1 view .LVU215
 822              	.LVL62:
 406:Src/mc_interface.c **** #ifdef NULL_PTR_CHECK_MC_INT
 823              		.loc 1 406 3 view .LVU216
 410:Src/mc_interface.c **** }
 824              		.loc 1 410 3 view .LVU217
 411:Src/mc_interface.c **** 
 825              		.loc 1 411 1 is_stmt 0 view .LVU218
 826 0034 10BD     		pop	{r4, pc}
 411:Src/mc_interface.c **** 
 827              		.loc 1 411 1 view .LVU219
 828              		.cfi_endproc
 829              	.LFE1473:
 831 0036 00BF     		.section	.text.MCI_StartOffsetMeasurments,"ax",%progbits
 832              		.align	1
 833              		.p2align 2,,3
 834              		.weak	MCI_StartOffsetMeasurments
 835              		.syntax unified
 836              		.thumb
 837              		.thumb_func
 838              		.fpu fpv4-sp-d16
 840              	MCI_StartOffsetMeasurments:
 841              	.LVL63:
 842              	.LFB1474:
 429:Src/mc_interface.c ****   bool retVal = false;
 843              		.loc 1 429 1 is_stmt 1 view -0
 844              		.cfi_startproc
 845              		@ args = 0, pretend = 0, frame = 0
 846              		@ frame_needed = 0, uses_anonymous_args = 0
 430:Src/mc_interface.c **** #ifdef NULL_PTR_CHECK_MC_INT
ARM GAS  /tmp/cc00LnFH.s 			page 32


 847              		.loc 1 430 3 view .LVU221
 439:Src/mc_interface.c ****         (MC_NO_FAULTS == MCI_GetOccurredFaults(pHandle)) &&
 848              		.loc 1 439 5 view .LVU222
 429:Src/mc_interface.c ****   bool retVal = false;
 849              		.loc 1 429 1 is_stmt 0 view .LVU223
 850 0000 10B5     		push	{r4, lr}
 851              	.LCFI17:
 852              		.cfi_def_cfa_offset 8
 853              		.cfi_offset 4, -8
 854              		.cfi_offset 14, -4
 429:Src/mc_interface.c ****   bool retVal = false;
 855              		.loc 1 429 1 view .LVU224
 856 0002 0446     		mov	r4, r0
 439:Src/mc_interface.c ****         (MC_NO_FAULTS == MCI_GetOccurredFaults(pHandle)) &&
 857              		.loc 1 439 18 view .LVU225
 858 0004 FFF7FEFF 		bl	MCI_GetSTMState
 859              	.LVL64:
 439:Src/mc_interface.c ****         (MC_NO_FAULTS == MCI_GetOccurredFaults(pHandle)) &&
 860              		.loc 1 439 8 view .LVU226
 861 0008 08B1     		cbz	r0, .L61
 862              	.L63:
 430:Src/mc_interface.c **** #ifdef NULL_PTR_CHECK_MC_INT
 863              		.loc 1 430 8 view .LVU227
 864 000a 0020     		movs	r0, #0
 865              	.LVL65:
 450:Src/mc_interface.c **** #ifdef NULL_PTR_CHECK_MC_INT
 866              		.loc 1 450 5 is_stmt 1 view .LVU228
 454:Src/mc_interface.c **** }
 867              		.loc 1 454 3 view .LVU229
 455:Src/mc_interface.c **** 
 868              		.loc 1 455 1 is_stmt 0 view .LVU230
 869 000c 10BD     		pop	{r4, pc}
 870              	.LVL66:
 871              	.L61:
 440:Src/mc_interface.c ****         (MC_NO_FAULTS == MCI_GetCurrentFaults(pHandle)))
 872              		.loc 1 440 26 discriminator 1 view .LVU231
 873 000e 2046     		mov	r0, r4
 874 0010 FFF7FEFF 		bl	MCI_GetOccurredFaults
 875              	.LVL67:
 439:Src/mc_interface.c ****         (MC_NO_FAULTS == MCI_GetOccurredFaults(pHandle)) &&
 876              		.loc 1 439 44 discriminator 1 view .LVU232
 877 0014 0028     		cmp	r0, #0
 878 0016 F8D1     		bne	.L63
 441:Src/mc_interface.c ****     {
 879              		.loc 1 441 26 view .LVU233
 880 0018 2046     		mov	r0, r4
 881 001a FFF7FEFF 		bl	MCI_GetCurrentFaults
 882              	.LVL68:
 440:Src/mc_interface.c ****         (MC_NO_FAULTS == MCI_GetCurrentFaults(pHandle)))
 883              		.loc 1 440 58 view .LVU234
 884 001e 0346     		mov	r3, r0
 885 0020 0028     		cmp	r0, #0
 886 0022 F2D1     		bne	.L63
 443:Src/mc_interface.c ****       pHandle->pPWM->offsetCalibStatus = false;
 887              		.loc 1 443 7 is_stmt 1 view .LVU235
 444:Src/mc_interface.c ****       retVal = true;
 888              		.loc 1 444 40 is_stmt 0 view .LVU236
ARM GAS  /tmp/cc00LnFH.s 			page 33


 889 0024 A268     		ldr	r2, [r4, #8]
 443:Src/mc_interface.c ****       pHandle->pPWM->offsetCalibStatus = false;
 890              		.loc 1 443 30 view .LVU237
 891 0026 0321     		movs	r1, #3
 892 0028 A177     		strb	r1, [r4, #30]
 444:Src/mc_interface.c ****       retVal = true;
 893              		.loc 1 444 7 is_stmt 1 view .LVU238
 445:Src/mc_interface.c ****     }
 894              		.loc 1 445 14 is_stmt 0 view .LVU239
 895 002a 0120     		movs	r0, #1
 444:Src/mc_interface.c ****       retVal = true;
 896              		.loc 1 444 40 view .LVU240
 897 002c 82F87F30 		strb	r3, [r2, #127]
 445:Src/mc_interface.c ****     }
 898              		.loc 1 445 7 is_stmt 1 view .LVU241
 899              	.LVL69:
 450:Src/mc_interface.c **** #ifdef NULL_PTR_CHECK_MC_INT
 900              		.loc 1 450 5 view .LVU242
 454:Src/mc_interface.c **** }
 901              		.loc 1 454 3 view .LVU243
 455:Src/mc_interface.c **** 
 902              		.loc 1 455 1 is_stmt 0 view .LVU244
 903 0030 10BD     		pop	{r4, pc}
 455:Src/mc_interface.c **** 
 904              		.loc 1 455 1 view .LVU245
 905              		.cfi_endproc
 906              	.LFE1474:
 908 0032 00BF     		.section	.text.MCI_SetCalibratedOffsetsMotor,"ax",%progbits
 909              		.align	1
 910              		.p2align 2,,3
 911              		.weak	MCI_SetCalibratedOffsetsMotor
 912              		.syntax unified
 913              		.thumb
 914              		.thumb_func
 915              		.fpu fpv4-sp-d16
 917              	MCI_SetCalibratedOffsetsMotor:
 918              	.LVL70:
 919              	.LFB1476:
 518:Src/mc_interface.c ****   bool retVal = false;
 920              		.loc 1 518 1 is_stmt 1 view -0
 921              		.cfi_startproc
 922              		@ args = 0, pretend = 0, frame = 0
 923              		@ frame_needed = 0, uses_anonymous_args = 0
 519:Src/mc_interface.c **** #ifdef NULL_PTR_CHECK_MC_INT
 924              		.loc 1 519 3 view .LVU247
 528:Src/mc_interface.c ****         (MC_NO_FAULTS == MCI_GetOccurredFaults(pHandle)) &&
 925              		.loc 1 528 5 view .LVU248
 518:Src/mc_interface.c ****   bool retVal = false;
 926              		.loc 1 518 1 is_stmt 0 view .LVU249
 927 0000 38B5     		push	{r3, r4, r5, lr}
 928              	.LCFI18:
 929              		.cfi_def_cfa_offset 16
 930              		.cfi_offset 3, -16
 931              		.cfi_offset 4, -12
 932              		.cfi_offset 5, -8
 933              		.cfi_offset 14, -4
 518:Src/mc_interface.c ****   bool retVal = false;
ARM GAS  /tmp/cc00LnFH.s 			page 34


 934              		.loc 1 518 1 view .LVU250
 935 0002 0D46     		mov	r5, r1
 936 0004 0446     		mov	r4, r0
 528:Src/mc_interface.c ****         (MC_NO_FAULTS == MCI_GetOccurredFaults(pHandle)) &&
 937              		.loc 1 528 18 view .LVU251
 938 0006 FFF7FEFF 		bl	MCI_GetSTMState
 939              	.LVL71:
 528:Src/mc_interface.c ****         (MC_NO_FAULTS == MCI_GetOccurredFaults(pHandle)) &&
 940              		.loc 1 528 8 view .LVU252
 941 000a 08B1     		cbz	r0, .L66
 942              	.L68:
 519:Src/mc_interface.c **** #ifdef NULL_PTR_CHECK_MC_INT
 943              		.loc 1 519 8 view .LVU253
 944 000c 0020     		movs	r0, #0
 945              	.LVL72:
 539:Src/mc_interface.c **** #ifdef NULL_PTR_CHECK_MC_INT
 946              		.loc 1 539 5 is_stmt 1 view .LVU254
 543:Src/mc_interface.c **** }
 947              		.loc 1 543 5 view .LVU255
 544:Src/mc_interface.c **** 
 948              		.loc 1 544 1 is_stmt 0 view .LVU256
 949 000e 38BD     		pop	{r3, r4, r5, pc}
 950              	.LVL73:
 951              	.L66:
 529:Src/mc_interface.c ****         (MC_NO_FAULTS == MCI_GetCurrentFaults(pHandle)))
 952              		.loc 1 529 26 discriminator 1 view .LVU257
 953 0010 2046     		mov	r0, r4
 954 0012 FFF7FEFF 		bl	MCI_GetOccurredFaults
 955              	.LVL74:
 528:Src/mc_interface.c ****         (MC_NO_FAULTS == MCI_GetOccurredFaults(pHandle)) &&
 956              		.loc 1 528 44 discriminator 1 view .LVU258
 957 0016 0028     		cmp	r0, #0
 958 0018 F8D1     		bne	.L68
 530:Src/mc_interface.c ****     {
 959              		.loc 1 530 26 view .LVU259
 960 001a 2046     		mov	r0, r4
 961 001c FFF7FEFF 		bl	MCI_GetCurrentFaults
 962              	.LVL75:
 529:Src/mc_interface.c ****         (MC_NO_FAULTS == MCI_GetCurrentFaults(pHandle)))
 963              		.loc 1 529 58 view .LVU260
 964 0020 0028     		cmp	r0, #0
 965 0022 F3D1     		bne	.L68
 532:Src/mc_interface.c ****       pHandle->pPWM->offsetCalibStatus = true;
 966              		.loc 1 532 7 is_stmt 1 view .LVU261
 967 0024 A068     		ldr	r0, [r4, #8]
 968 0026 2946     		mov	r1, r5
 969 0028 FFF7FEFF 		bl	PWMC_SetOffsetCalib
 970              	.LVL76:
 533:Src/mc_interface.c ****       retVal = true;
 971              		.loc 1 533 7 view .LVU262
 533:Src/mc_interface.c ****       retVal = true;
 972              		.loc 1 533 40 is_stmt 0 view .LVU263
 973 002c A368     		ldr	r3, [r4, #8]
 974 002e 0120     		movs	r0, #1
 975 0030 83F87F00 		strb	r0, [r3, #127]
 534:Src/mc_interface.c ****     }
 976              		.loc 1 534 7 is_stmt 1 view .LVU264
ARM GAS  /tmp/cc00LnFH.s 			page 35


 977              	.LVL77:
 539:Src/mc_interface.c **** #ifdef NULL_PTR_CHECK_MC_INT
 978              		.loc 1 539 5 view .LVU265
 543:Src/mc_interface.c **** }
 979              		.loc 1 543 5 view .LVU266
 544:Src/mc_interface.c **** 
 980              		.loc 1 544 1 is_stmt 0 view .LVU267
 981 0034 38BD     		pop	{r3, r4, r5, pc}
 544:Src/mc_interface.c **** 
 982              		.loc 1 544 1 view .LVU268
 983              		.cfi_endproc
 984              	.LFE1476:
 986 0036 00BF     		.section	.text.MCI_StopMotor,"ax",%progbits
 987              		.align	1
 988              		.p2align 2,,3
 989              		.weak	MCI_StopMotor
 990              		.syntax unified
 991              		.thumb
 992              		.thumb_func
 993              		.fpu fpv4-sp-d16
 995              	MCI_StopMotor:
 996              	.LVL78:
 997              	.LFB1477:
 563:Src/mc_interface.c ****   bool retVal = false;
 998              		.loc 1 563 1 is_stmt 1 view -0
 999              		.cfi_startproc
 1000              		@ args = 0, pretend = 0, frame = 0
 1001              		@ frame_needed = 0, uses_anonymous_args = 0
 564:Src/mc_interface.c **** #ifdef NULL_PTR_CHECK_MC_INT
 1002              		.loc 1 564 3 view .LVU270
 573:Src/mc_interface.c ****     MCI_State_t State;
 1003              		.loc 1 573 5 view .LVU271
 574:Src/mc_interface.c **** 
 1004              		.loc 1 574 5 view .LVU272
 576:Src/mc_interface.c ****     if ((IDLE == State) || (ICLWAIT == State))
 1005              		.loc 1 576 5 view .LVU273
 563:Src/mc_interface.c ****   bool retVal = false;
 1006              		.loc 1 563 1 is_stmt 0 view .LVU274
 1007 0000 38B5     		push	{r3, r4, r5, lr}
 1008              	.LCFI19:
 1009              		.cfi_def_cfa_offset 16
 1010              		.cfi_offset 3, -16
 1011              		.cfi_offset 4, -12
 1012              		.cfi_offset 5, -8
 1013              		.cfi_offset 14, -4
 563:Src/mc_interface.c ****   bool retVal = false;
 1014              		.loc 1 563 1 view .LVU275
 1015 0002 0546     		mov	r5, r0
 576:Src/mc_interface.c ****     if ((IDLE == State) || (ICLWAIT == State))
 1016              		.loc 1 576 13 view .LVU276
 1017 0004 FFF7FEFF 		bl	MCI_GetSTMState
 1018              	.LVL79:
 577:Src/mc_interface.c ****     {
 1019              		.loc 1 577 5 is_stmt 1 view .LVU277
 577:Src/mc_interface.c ****     {
 1020              		.loc 1 577 8 is_stmt 0 view .LVU278
 1021 0008 50B1     		cbz	r0, .L75
ARM GAS  /tmp/cc00LnFH.s 			page 36


 577:Src/mc_interface.c ****     {
 1022              		.loc 1 577 25 discriminator 1 view .LVU279
 1023 000a B0F10C04 		subs	r4, r0, #12
 586:Src/mc_interface.c ****         (MC_NO_FAULTS == MCI_GetCurrentFaults(pHandle)) &&
 1024              		.loc 1 586 26 discriminator 1 view .LVU280
 1025 000e 2846     		mov	r0, r5
 1026              	.LVL80:
 577:Src/mc_interface.c ****     {
 1027              		.loc 1 577 25 discriminator 1 view .LVU281
 1028 0010 18BF     		it	ne
 1029 0012 0124     		movne	r4, #1
 1030              	.LVL81:
 586:Src/mc_interface.c ****         (MC_NO_FAULTS == MCI_GetCurrentFaults(pHandle)) &&
 1031              		.loc 1 586 5 is_stmt 1 discriminator 1 view .LVU282
 586:Src/mc_interface.c ****         (MC_NO_FAULTS == MCI_GetCurrentFaults(pHandle)) &&
 1032              		.loc 1 586 26 is_stmt 0 discriminator 1 view .LVU283
 1033 0014 FFF7FEFF 		bl	MCI_GetOccurredFaults
 1034              	.LVL82:
 586:Src/mc_interface.c ****         (MC_NO_FAULTS == MCI_GetCurrentFaults(pHandle)) &&
 1035              		.loc 1 586 8 discriminator 1 view .LVU284
 1036 0018 40B1     		cbz	r0, .L72
 1037              	.L74:
 564:Src/mc_interface.c **** #ifdef NULL_PTR_CHECK_MC_INT
 1038              		.loc 1 564 8 view .LVU285
 1039 001a 0024     		movs	r4, #0
 1040              	.LVL83:
 1041              	.L73:
 596:Src/mc_interface.c **** #ifdef NULL_PTR_CHECK_MC_INT
 1042              		.loc 1 596 5 is_stmt 1 view .LVU286
 600:Src/mc_interface.c **** }
 1043              		.loc 1 600 3 view .LVU287
 601:Src/mc_interface.c **** 
 1044              		.loc 1 601 1 is_stmt 0 view .LVU288
 1045 001c 2046     		mov	r0, r4
 1046 001e 38BD     		pop	{r3, r4, r5, pc}
 1047              	.LVL84:
 1048              	.L75:
 579:Src/mc_interface.c ****     }
 1049              		.loc 1 579 14 view .LVU289
 1050 0020 0446     		mov	r4, r0
 1051              	.LVL85:
 586:Src/mc_interface.c ****         (MC_NO_FAULTS == MCI_GetCurrentFaults(pHandle)) &&
 1052              		.loc 1 586 5 is_stmt 1 view .LVU290
 586:Src/mc_interface.c ****         (MC_NO_FAULTS == MCI_GetCurrentFaults(pHandle)) &&
 1053              		.loc 1 586 26 is_stmt 0 view .LVU291
 1054 0022 2846     		mov	r0, r5
 1055              	.LVL86:
 586:Src/mc_interface.c ****         (MC_NO_FAULTS == MCI_GetCurrentFaults(pHandle)) &&
 1056              		.loc 1 586 26 view .LVU292
 1057 0024 FFF7FEFF 		bl	MCI_GetOccurredFaults
 1058              	.LVL87:
 586:Src/mc_interface.c ****         (MC_NO_FAULTS == MCI_GetCurrentFaults(pHandle)) &&
 1059              		.loc 1 586 8 view .LVU293
 1060 0028 0028     		cmp	r0, #0
 1061 002a F6D1     		bne	.L74
 1062              	.L72:
 587:Src/mc_interface.c ****         (status == true))
ARM GAS  /tmp/cc00LnFH.s 			page 37


 1063              		.loc 1 587 26 discriminator 1 view .LVU294
 1064 002c 2846     		mov	r0, r5
 1065 002e FFF7FEFF 		bl	MCI_GetCurrentFaults
 1066              	.LVL88:
 586:Src/mc_interface.c ****         (MC_NO_FAULTS == MCI_GetCurrentFaults(pHandle)) &&
 1067              		.loc 1 586 58 discriminator 1 view .LVU295
 1068 0032 0028     		cmp	r0, #0
 1069 0034 F1D1     		bne	.L74
 587:Src/mc_interface.c ****         (status == true))
 1070              		.loc 1 587 57 view .LVU296
 1071 0036 002C     		cmp	r4, #0
 1072 0038 EFD0     		beq	.L74
 590:Src/mc_interface.c ****       retVal = true;
 1073              		.loc 1 590 7 is_stmt 1 view .LVU297
 590:Src/mc_interface.c ****       retVal = true;
 1074              		.loc 1 590 30 is_stmt 0 view .LVU298
 1075 003a 0523     		movs	r3, #5
 1076 003c AB77     		strb	r3, [r5, #30]
 591:Src/mc_interface.c ****     }
 1077              		.loc 1 591 7 is_stmt 1 view .LVU299
 1078              	.LVL89:
 591:Src/mc_interface.c ****     }
 1079              		.loc 1 591 7 is_stmt 0 view .LVU300
 1080 003e EDE7     		b	.L73
 1081              		.cfi_endproc
 1082              	.LFE1477:
 1084              		.section	.text.MCI_FaultAcknowledged,"ax",%progbits
 1085              		.align	1
 1086              		.p2align 2,,3
 1087              		.weak	MCI_FaultAcknowledged
 1088              		.syntax unified
 1089              		.thumb
 1090              		.thumb_func
 1091              		.fpu fpv4-sp-d16
 1093              	MCI_FaultAcknowledged:
 1094              	.LVL90:
 1095              	.LFB1478:
 618:Src/mc_interface.c ****   bool reVal = false;
 1096              		.loc 1 618 1 is_stmt 1 view -0
 1097              		.cfi_startproc
 1098              		@ args = 0, pretend = 0, frame = 0
 1099              		@ frame_needed = 0, uses_anonymous_args = 0
 619:Src/mc_interface.c **** #ifdef NULL_PTR_CHECK_MC_INT
 1100              		.loc 1 619 3 view .LVU302
 628:Src/mc_interface.c ****     {
 1101              		.loc 1 628 5 view .LVU303
 618:Src/mc_interface.c ****   bool reVal = false;
 1102              		.loc 1 618 1 is_stmt 0 view .LVU304
 1103 0000 10B5     		push	{r4, lr}
 1104              	.LCFI20:
 1105              		.cfi_def_cfa_offset 8
 1106              		.cfi_offset 4, -8
 1107              		.cfi_offset 14, -4
 618:Src/mc_interface.c ****   bool reVal = false;
 1108              		.loc 1 618 1 view .LVU305
 1109 0002 0446     		mov	r4, r0
 628:Src/mc_interface.c ****     {
ARM GAS  /tmp/cc00LnFH.s 			page 38


 1110              		.loc 1 628 24 view .LVU306
 1111 0004 FFF7FEFF 		bl	MCI_GetSTMState
 1112              	.LVL91:
 628:Src/mc_interface.c ****     {
 1113              		.loc 1 628 8 view .LVU307
 1114 0008 0B28     		cmp	r0, #11
 1115 000a 01D0     		beq	.L81
 1116              	.L83:
 619:Src/mc_interface.c **** #ifdef NULL_PTR_CHECK_MC_INT
 1117              		.loc 1 619 8 view .LVU308
 1118 000c 0020     		movs	r0, #0
 1119              	.LVL92:
 637:Src/mc_interface.c **** #ifdef NULL_PTR_CHECK_MC_INT
 1120              		.loc 1 637 5 is_stmt 1 view .LVU309
 641:Src/mc_interface.c **** }
 1121              		.loc 1 641 3 view .LVU310
 642:Src/mc_interface.c **** 
 1122              		.loc 1 642 1 is_stmt 0 view .LVU311
 1123 000e 10BD     		pop	{r4, pc}
 1124              	.LVL93:
 1125              	.L81:
 628:Src/mc_interface.c ****     {
 1126              		.loc 1 628 70 discriminator 1 view .LVU312
 1127 0010 2046     		mov	r0, r4
 1128 0012 FFF7FEFF 		bl	MCI_GetCurrentFaults
 1129              	.LVL94:
 628:Src/mc_interface.c ****     {
 1130              		.loc 1 628 50 discriminator 1 view .LVU313
 1131 0016 0028     		cmp	r0, #0
 1132 0018 F8D1     		bne	.L83
 630:Src/mc_interface.c ****       pHandle->DirectCommand = MCI_ACK_FAULTS;
 1133              		.loc 1 630 7 is_stmt 1 view .LVU314
 631:Src/mc_interface.c ****       reVal = true;
 1134              		.loc 1 631 30 is_stmt 0 view .LVU315
 1135 001a 0223     		movs	r3, #2
 630:Src/mc_interface.c ****       pHandle->DirectCommand = MCI_ACK_FAULTS;
 1136              		.loc 1 630 27 view .LVU316
 1137 001c 6084     		strh	r0, [r4, #34]	@ movhi
 631:Src/mc_interface.c ****       reVal = true;
 1138              		.loc 1 631 7 is_stmt 1 view .LVU317
 631:Src/mc_interface.c ****       reVal = true;
 1139              		.loc 1 631 30 is_stmt 0 view .LVU318
 1140 001e A377     		strb	r3, [r4, #30]
 632:Src/mc_interface.c ****     }
 1141              		.loc 1 632 7 is_stmt 1 view .LVU319
 1142              	.LVL95:
 632:Src/mc_interface.c ****     }
 1143              		.loc 1 632 13 is_stmt 0 view .LVU320
 1144 0020 0120     		movs	r0, #1
 1145              	.LVL96:
 637:Src/mc_interface.c **** #ifdef NULL_PTR_CHECK_MC_INT
 1146              		.loc 1 637 5 is_stmt 1 view .LVU321
 641:Src/mc_interface.c **** }
 1147              		.loc 1 641 3 view .LVU322
 642:Src/mc_interface.c **** 
 1148              		.loc 1 642 1 is_stmt 0 view .LVU323
 1149 0022 10BD     		pop	{r4, pc}
ARM GAS  /tmp/cc00LnFH.s 			page 39


 642:Src/mc_interface.c **** 
 1150              		.loc 1 642 1 view .LVU324
 1151              		.cfi_endproc
 1152              	.LFE1478:
 1154              		.section	.text.MCI_GetFaultState,"ax",%progbits
 1155              		.align	1
 1156              		.p2align 2,,3
 1157              		.weak	MCI_GetFaultState
 1158              		.syntax unified
 1159              		.thumb
 1160              		.thumb_func
 1161              		.fpu fpv4-sp-d16
 1163              	MCI_GetFaultState:
 1164              	.LVL97:
 1165              	.LFB1485:
 831:Src/mc_interface.c **** 
 832:Src/mc_interface.c **** /**
 833:Src/mc_interface.c ****   * @brief Returns the lists of current and past faults that occurred on the target motor
 834:Src/mc_interface.c ****   *
 835:Src/mc_interface.c ****   *  This function returns two bitfields containing information about the faults currently
 836:Src/mc_interface.c ****   * present and the faults occurred since the state machine has been moved into the #FAULT_NOW
 837:Src/mc_interface.c ****   * state.
 838:Src/mc_interface.c ****   *
 839:Src/mc_interface.c ****   * These two bitfields are 16 bits wide each and are concatenated into the 32-bit data. The
 840:Src/mc_interface.c ****   * 16 most significant bits contains the status of the current faults while that of the
 841:Src/mc_interface.c ****   * past faults is in the 16 least significant bits.
 842:Src/mc_interface.c ****   *
 843:Src/mc_interface.c ****   * @sa MCI_GetOccurredFaults, MCI_GetCurrentFaults
 844:Src/mc_interface.c ****   *
 845:Src/mc_interface.c ****   * @param  pHandle Pointer on the target motor drive structure.
 846:Src/mc_interface.c ****   */
 847:Src/mc_interface.c **** __weak uint32_t MCI_GetFaultState(MCI_Handle_t *pHandle) //cstat !MISRAC2012-Rule-8.13
 848:Src/mc_interface.c **** {
 1166              		.loc 1 848 1 is_stmt 1 view -0
 1167              		.cfi_startproc
 1168              		@ args = 0, pretend = 0, frame = 0
 1169              		@ frame_needed = 0, uses_anonymous_args = 0
 1170              		@ link register save eliminated.
 849:Src/mc_interface.c ****   uint32_t LocalFaultState;
 1171              		.loc 1 849 3 view .LVU326
 850:Src/mc_interface.c **** #ifdef NULL_PTR_CHECK_MC_INT
 851:Src/mc_interface.c ****   if (MC_NULL == pHandle)
 852:Src/mc_interface.c ****   {
 853:Src/mc_interface.c ****     LocalFaultState = MC_SW_ERROR | (MC_SW_ERROR << 16);
 854:Src/mc_interface.c ****   }
 855:Src/mc_interface.c ****   else
 856:Src/mc_interface.c ****   {
 857:Src/mc_interface.c **** #endif
 858:Src/mc_interface.c ****     LocalFaultState = (uint32_t)(pHandle->PastFaults);
 1172              		.loc 1 858 5 view .LVU327
 1173              		.loc 1 858 21 is_stmt 0 view .LVU328
 1174 0000 438C     		ldrh	r3, [r0, #34]
 1175              	.LVL98:
 859:Src/mc_interface.c ****     LocalFaultState |= (uint32_t)(pHandle->CurrentFaults) << 16;
 1176              		.loc 1 859 5 is_stmt 1 view .LVU329
 860:Src/mc_interface.c **** #ifdef NULL_PTR_CHECK_MC_INT
 861:Src/mc_interface.c ****   }
ARM GAS  /tmp/cc00LnFH.s 			page 40


 862:Src/mc_interface.c **** #endif
 863:Src/mc_interface.c ****   return (LocalFaultState);
 1177              		.loc 1 863 3 view .LVU330
 859:Src/mc_interface.c ****     LocalFaultState |= (uint32_t)(pHandle->CurrentFaults) << 16;
 1178              		.loc 1 859 24 is_stmt 0 view .LVU331
 1179 0002 008C     		ldrh	r0, [r0, #32]
 1180              	.LVL99:
 864:Src/mc_interface.c **** }
 1181              		.loc 1 864 1 view .LVU332
 1182 0004 43EA0040 		orr	r0, r3, r0, lsl #16
 1183 0008 7047     		bx	lr
 1184              		.cfi_endproc
 1185              	.LFE1485:
 1187 000a 00BF     		.section	.text.MCI_GetControlMode,"ax",%progbits
 1188              		.align	1
 1189              		.p2align 2,,3
 1190              		.weak	MCI_GetControlMode
 1191              		.syntax unified
 1192              		.thumb
 1193              		.thumb_func
 1194              		.fpu fpv4-sp-d16
 1196              	MCI_GetControlMode:
 1197              	.LVL100:
 1198              	.LFB1486:
 865:Src/mc_interface.c **** 
 866:Src/mc_interface.c **** /**
 867:Src/mc_interface.c ****   * @brief  It returns the modality of the speed and torque controller.
 868:Src/mc_interface.c ****   * @param  pHandle Pointer on the component instance to work on.
 869:Src/mc_interface.c ****   * @retval MC_ControlMode_t It returns the modality of STC. It can be one of
 870:Src/mc_interface.c ****   *         these two values: MCM_TORQUE_MODE or MCM_SPEED_MODE.
 871:Src/mc_interface.c ****   */
 872:Src/mc_interface.c **** __weak MC_ControlMode_t MCI_GetControlMode(MCI_Handle_t *pHandle) //cstat !MISRAC2012-Rule-8.13
 873:Src/mc_interface.c **** {
 1199              		.loc 1 873 1 is_stmt 1 view -0
 1200              		.cfi_startproc
 1201              		@ args = 0, pretend = 0, frame = 0
 1202              		@ frame_needed = 0, uses_anonymous_args = 0
 1203              		@ link register save eliminated.
 874:Src/mc_interface.c **** #ifdef NULL_PTR_CHECK_MC_INT
 875:Src/mc_interface.c ****   return ((MC_NULL == pHandle) ? MCM_TORQUE_MODE : pHandle->LastModalitySetByUser);
 876:Src/mc_interface.c **** #else
 877:Src/mc_interface.c ****   return (pHandle->LastModalitySetByUser);
 1204              		.loc 1 877 3 view .LVU334
 878:Src/mc_interface.c **** #endif
 879:Src/mc_interface.c **** }
 1205              		.loc 1 879 1 is_stmt 0 view .LVU335
 1206 0000 90F82500 		ldrb	r0, [r0, #37]	@ zero_extendqisi2
 1207              	.LVL101:
 1208              		.loc 1 879 1 view .LVU336
 1209 0004 7047     		bx	lr
 1210              		.cfi_endproc
 1211              	.LFE1486:
 1213 0006 00BF     		.section	.text.MCI_GetImposedMotorDirection,"ax",%progbits
 1214              		.align	1
 1215              		.p2align 2,,3
 1216              		.weak	MCI_GetImposedMotorDirection
 1217              		.syntax unified
ARM GAS  /tmp/cc00LnFH.s 			page 41


 1218              		.thumb
 1219              		.thumb_func
 1220              		.fpu fpv4-sp-d16
 1222              	MCI_GetImposedMotorDirection:
 1223              	.LVL102:
 1224              	.LFB1487:
 880:Src/mc_interface.c **** 
 881:Src/mc_interface.c **** /**
 882:Src/mc_interface.c ****   * @brief  It returns the motor direction imposed by the last command
 883:Src/mc_interface.c ****   *         (MCI_ExecSpeedRamp, MCI_ExecTorqueRamp or MCI_SetCurrentReferences).
 884:Src/mc_interface.c ****   * @param  pHandle Pointer on the component instance to work on.
 885:Src/mc_interface.c ****   * @retval int16_t It returns 1 or -1 according the sign of hFinalSpeed,
 886:Src/mc_interface.c ****   *         hFinalTorque or Iqdref.q of the last command.
 887:Src/mc_interface.c ****   */
 888:Src/mc_interface.c **** __weak int16_t MCI_GetImposedMotorDirection(MCI_Handle_t *pHandle) //cstat !MISRAC2012-Rule-8.13
 889:Src/mc_interface.c **** {
 1225              		.loc 1 889 1 is_stmt 1 view -0
 1226              		.cfi_startproc
 1227              		@ args = 0, pretend = 0, frame = 0
 1228              		@ frame_needed = 0, uses_anonymous_args = 0
 1229              		@ link register save eliminated.
 890:Src/mc_interface.c ****   int16_t retVal = 1;
 1230              		.loc 1 890 3 view .LVU338
 891:Src/mc_interface.c **** 
 892:Src/mc_interface.c **** #ifdef NULL_PTR_CHECK_MC_INT
 893:Src/mc_interface.c ****   if (MC_NULL == pHandle)
 894:Src/mc_interface.c ****   {
 895:Src/mc_interface.c ****     /* Nothing to do */
 896:Src/mc_interface.c ****   }
 897:Src/mc_interface.c ****   else
 898:Src/mc_interface.c ****   {
 899:Src/mc_interface.c **** #endif
 900:Src/mc_interface.c ****     switch (pHandle->lastCommand)
 1231              		.loc 1 900 5 view .LVU339
 1232              		.loc 1 900 20 is_stmt 0 view .LVU340
 1233 0000 037B     		ldrb	r3, [r0, #12]	@ zero_extendqisi2
 1234              		.loc 1 900 5 view .LVU341
 1235 0002 022B     		cmp	r3, #2
 1236 0004 05D0     		beq	.L88
 1237 0006 032B     		cmp	r3, #3
 1238 0008 13D0     		beq	.L89
 1239 000a 012B     		cmp	r3, #1
 1240 000c 09D0     		beq	.L95
 890:Src/mc_interface.c ****   int16_t retVal = 1;
 1241              		.loc 1 890 11 view .LVU342
 1242 000e 0120     		movs	r0, #1
 1243              	.LVL103:
 901:Src/mc_interface.c ****     {
 902:Src/mc_interface.c ****       case MCI_CMD_EXECSPEEDRAMP:
 903:Src/mc_interface.c ****       {
 904:Src/mc_interface.c ****         if (pHandle->hFinalSpeed < 0)
 905:Src/mc_interface.c ****         {
 906:Src/mc_interface.c ****           retVal = -1;
 907:Src/mc_interface.c ****         }
 908:Src/mc_interface.c ****         else
 909:Src/mc_interface.c ****         {
 910:Src/mc_interface.c ****           /* Nothing to do */
ARM GAS  /tmp/cc00LnFH.s 			page 42


 911:Src/mc_interface.c ****         }
 912:Src/mc_interface.c ****         break;
 913:Src/mc_interface.c ****       }
 914:Src/mc_interface.c **** 
 915:Src/mc_interface.c ****       case MCI_CMD_EXECTORQUERAMP:
 916:Src/mc_interface.c ****       {
 917:Src/mc_interface.c ****         if (pHandle->hFinalTorque < 0)
 918:Src/mc_interface.c ****         {
 919:Src/mc_interface.c ****           retVal = -1;
 920:Src/mc_interface.c ****         }
 921:Src/mc_interface.c ****         else
 922:Src/mc_interface.c ****         {
 923:Src/mc_interface.c ****           /* Nothing to do */
 924:Src/mc_interface.c ****         }
 925:Src/mc_interface.c ****         break;
 926:Src/mc_interface.c ****       }
 927:Src/mc_interface.c **** 
 928:Src/mc_interface.c ****       case MCI_CMD_SETCURRENTREFERENCES:
 929:Src/mc_interface.c ****       {
 930:Src/mc_interface.c ****         if (pHandle->Iqdref.q < 0)
 931:Src/mc_interface.c ****         {
 932:Src/mc_interface.c ****           retVal = -1;
 933:Src/mc_interface.c ****         }
 934:Src/mc_interface.c ****         else
 935:Src/mc_interface.c ****         {
 936:Src/mc_interface.c ****           /* Nothing to do */
 937:Src/mc_interface.c ****         }
 938:Src/mc_interface.c ****         break;
 939:Src/mc_interface.c ****        }
 940:Src/mc_interface.c ****       default:
 941:Src/mc_interface.c ****         break;
 942:Src/mc_interface.c ****     }
 943:Src/mc_interface.c **** #ifdef NULL_PTR_CHECK_MC_INT
 944:Src/mc_interface.c ****   }
 945:Src/mc_interface.c **** #endif
 946:Src/mc_interface.c ****   return (retVal);
 1244              		.loc 1 946 3 is_stmt 1 view .LVU343
 947:Src/mc_interface.c **** }
 1245              		.loc 1 947 1 is_stmt 0 view .LVU344
 1246 0010 7047     		bx	lr
 1247              	.LVL104:
 1248              	.L88:
 917:Src/mc_interface.c ****         {
 1249              		.loc 1 917 9 is_stmt 1 view .LVU345
 917:Src/mc_interface.c ****         {
 1250              		.loc 1 917 12 is_stmt 0 view .LVU346
 1251 0012 B0F91030 		ldrsh	r3, [r0, #16]
 1252 0016 002B     		cmp	r3, #0
 906:Src/mc_interface.c ****         }
 1253              		.loc 1 906 18 view .LVU347
 1254 0018 ACBF     		ite	ge
 1255 001a 0120     		movge	r0, #1
 1256              	.LVL105:
 906:Src/mc_interface.c ****         }
 1257              		.loc 1 906 18 view .LVU348
 1258 001c 4FF0FF30 		movlt	r0, #-1
 1259 0020 7047     		bx	lr
ARM GAS  /tmp/cc00LnFH.s 			page 43


 1260              	.LVL106:
 1261              	.L95:
 904:Src/mc_interface.c ****         {
 1262              		.loc 1 904 9 is_stmt 1 view .LVU349
 904:Src/mc_interface.c ****         {
 1263              		.loc 1 904 12 is_stmt 0 view .LVU350
 1264 0022 B0F90E30 		ldrsh	r3, [r0, #14]
 1265 0026 002B     		cmp	r3, #0
 906:Src/mc_interface.c ****         }
 1266              		.loc 1 906 18 view .LVU351
 1267 0028 ACBF     		ite	ge
 1268 002a 0120     		movge	r0, #1
 1269              	.LVL107:
 906:Src/mc_interface.c ****         }
 1270              		.loc 1 906 18 view .LVU352
 1271 002c 4FF0FF30 		movlt	r0, #-1
 1272 0030 7047     		bx	lr
 1273              	.LVL108:
 1274              	.L89:
 930:Src/mc_interface.c ****         {
 1275              		.loc 1 930 9 is_stmt 1 view .LVU353
 930:Src/mc_interface.c ****         {
 1276              		.loc 1 930 12 is_stmt 0 view .LVU354
 1277 0032 B0F91230 		ldrsh	r3, [r0, #18]
 1278 0036 002B     		cmp	r3, #0
 906:Src/mc_interface.c ****         }
 1279              		.loc 1 906 18 view .LVU355
 1280 0038 ACBF     		ite	ge
 1281 003a 0120     		movge	r0, #1
 1282              	.LVL109:
 906:Src/mc_interface.c ****         }
 1283              		.loc 1 906 18 view .LVU356
 1284 003c 4FF0FF30 		movlt	r0, #-1
 1285 0040 7047     		bx	lr
 1286              		.cfi_endproc
 1287              	.LFE1487:
 1289 0042 00BF     		.section	.text.MCI_GetLastRampFinalSpeed,"ax",%progbits
 1290              		.align	1
 1291              		.p2align 2,,3
 1292              		.weak	MCI_GetLastRampFinalSpeed
 1293              		.syntax unified
 1294              		.thumb
 1295              		.thumb_func
 1296              		.fpu fpv4-sp-d16
 1298              	MCI_GetLastRampFinalSpeed:
 1299              	.LVL110:
 1300              	.LFB1488:
 948:Src/mc_interface.c **** 
 949:Src/mc_interface.c **** /**
 950:Src/mc_interface.c ****   * @brief  It returns information about the last ramp final speed sent by the
 951:Src/mc_interface.c ****   *         user expressed in the unit defined by #SPEED_UNIT.
 952:Src/mc_interface.c ****   * @param  pHandle Pointer on the component instance to work on.
 953:Src/mc_interface.c ****   * @retval int16_t last ramp final speed sent by the user expressed in
 954:Src/mc_interface.c ****   *         the unit defined by #SPEED_UNIT.
 955:Src/mc_interface.c ****   */
 956:Src/mc_interface.c **** __weak int16_t MCI_GetLastRampFinalSpeed(MCI_Handle_t *pHandle) //cstat !MISRAC2012-Rule-8.13
 957:Src/mc_interface.c **** {
ARM GAS  /tmp/cc00LnFH.s 			page 44


 1301              		.loc 1 957 1 is_stmt 1 view -0
 1302              		.cfi_startproc
 1303              		@ args = 0, pretend = 0, frame = 0
 1304              		@ frame_needed = 0, uses_anonymous_args = 0
 1305              		@ link register save eliminated.
 958:Src/mc_interface.c **** #ifdef NULL_PTR_CHECK_MC_INT
 959:Src/mc_interface.c ****   int16_t retVal = 0;
 960:Src/mc_interface.c **** 
 961:Src/mc_interface.c ****   if (MC_NULL == pHandle)
 962:Src/mc_interface.c ****   {
 963:Src/mc_interface.c ****     /* Nothing to do */
 964:Src/mc_interface.c ****   }
 965:Src/mc_interface.c ****   else
 966:Src/mc_interface.c ****   {
 967:Src/mc_interface.c ****     retVal = pHandle->hFinalSpeed;
 968:Src/mc_interface.c ****   }
 969:Src/mc_interface.c ****   return (retVal);
 970:Src/mc_interface.c **** #else
 971:Src/mc_interface.c ****   return (pHandle->hFinalSpeed);
 1306              		.loc 1 971 3 view .LVU358
 972:Src/mc_interface.c **** #endif
 973:Src/mc_interface.c **** }
 1307              		.loc 1 973 1 is_stmt 0 view .LVU359
 1308 0000 B0F90E00 		ldrsh	r0, [r0, #14]
 1309              	.LVL111:
 1310              		.loc 1 973 1 view .LVU360
 1311 0004 7047     		bx	lr
 1312              		.cfi_endproc
 1313              	.LFE1488:
 1315 0006 00BF     		.section	.text.MCI_GetLastRampFinalTorque,"ax",%progbits
 1316              		.align	1
 1317              		.p2align 2,,3
 1318              		.weak	MCI_GetLastRampFinalTorque
 1319              		.syntax unified
 1320              		.thumb
 1321              		.thumb_func
 1322              		.fpu fpv4-sp-d16
 1324              	MCI_GetLastRampFinalTorque:
 1325              	.LVL112:
 1326              	.LFB1489:
 974:Src/mc_interface.c **** 
 975:Src/mc_interface.c **** /**
 976:Src/mc_interface.c ****   * @brief  It returns information about the last ramp final torque sent by the
 977:Src/mc_interface.c ****   *         user .This value represents actually the Iq current expressed in
 978:Src/mc_interface.c ****   *         digit.
 979:Src/mc_interface.c ****   * @param  pHandle Pointer on the component instance to work on.
 980:Src/mc_interface.c ****   * @retval int16_t last ramp final torque sent by the user expressed in digit
 981:Src/mc_interface.c ****   */
 982:Src/mc_interface.c **** __weak int16_t MCI_GetLastRampFinalTorque(MCI_Handle_t *pHandle) //cstat !MISRAC2012-Rule-8.13
 983:Src/mc_interface.c **** {
 1327              		.loc 1 983 1 is_stmt 1 view -0
 1328              		.cfi_startproc
 1329              		@ args = 0, pretend = 0, frame = 0
 1330              		@ frame_needed = 0, uses_anonymous_args = 0
 1331              		@ link register save eliminated.
 984:Src/mc_interface.c **** #ifdef NULL_PTR_CHECK_MC_INT
 985:Src/mc_interface.c ****   int16_t retVal = 0;
ARM GAS  /tmp/cc00LnFH.s 			page 45


 986:Src/mc_interface.c **** 
 987:Src/mc_interface.c ****   if (MC_NULL == pHandle)
 988:Src/mc_interface.c ****   {
 989:Src/mc_interface.c ****     /* Nothing to do */
 990:Src/mc_interface.c ****   }
 991:Src/mc_interface.c ****   else
 992:Src/mc_interface.c ****   {
 993:Src/mc_interface.c ****     retVal = pHandle->hFinalTorque;
 994:Src/mc_interface.c ****   }
 995:Src/mc_interface.c ****   return (retVal);
 996:Src/mc_interface.c **** #else
 997:Src/mc_interface.c ****   return (pHandle->hFinalTorque);
 1332              		.loc 1 997 3 view .LVU362
 998:Src/mc_interface.c **** #endif
 999:Src/mc_interface.c **** }
 1333              		.loc 1 999 1 is_stmt 0 view .LVU363
 1334 0000 B0F91000 		ldrsh	r0, [r0, #16]
 1335              	.LVL113:
 1336              		.loc 1 999 1 view .LVU364
 1337 0004 7047     		bx	lr
 1338              		.cfi_endproc
 1339              	.LFE1489:
 1341 0006 00BF     		.section	.text.MCI_GetLastRampFinalTorque_F,"ax",%progbits
 1342              		.align	1
 1343              		.p2align 2,,3
 1344              		.weak	MCI_GetLastRampFinalTorque_F
 1345              		.syntax unified
 1346              		.thumb
 1347              		.thumb_func
 1348              		.fpu fpv4-sp-d16
 1350              	MCI_GetLastRampFinalTorque_F:
 1351              	.LVL114:
 1352              	.LFB1490:
1000:Src/mc_interface.c **** 
1001:Src/mc_interface.c **** /**
1002:Src/mc_interface.c ****   * @brief  It returns information about the last ramp final torque sent by the
1003:Src/mc_interface.c ****   *         user .This value represents actually the Iq current expressed in
1004:Src/mc_interface.c ****   *         Ampere.
1005:Src/mc_interface.c ****   * @param  pHandle Pointer on the component instance to work on.
1006:Src/mc_interface.c ****   * @retval float_t last ramp final torque sent by the user expressed in digit
1007:Src/mc_interface.c ****   */
1008:Src/mc_interface.c **** __weak float_t MCI_GetLastRampFinalTorque_F(MCI_Handle_t *pHandle) //cstat !MISRAC2012-Rule-8.13
1009:Src/mc_interface.c **** {
 1353              		.loc 1 1009 1 is_stmt 1 view -0
 1354              		.cfi_startproc
 1355              		@ args = 0, pretend = 0, frame = 0
 1356              		@ frame_needed = 0, uses_anonymous_args = 0
 1357              		@ link register save eliminated.
1010:Src/mc_interface.c **** #ifdef NULL_PTR_CHECK_MC_INT
1011:Src/mc_interface.c ****   int16_t retVal = 0;
1012:Src/mc_interface.c **** 
1013:Src/mc_interface.c ****   if (MC_NULL == pHandle)
1014:Src/mc_interface.c ****   {
1015:Src/mc_interface.c ****     /* Nothing to do */
1016:Src/mc_interface.c ****   }
1017:Src/mc_interface.c ****   else
1018:Src/mc_interface.c ****   {
ARM GAS  /tmp/cc00LnFH.s 			page 46


1019:Src/mc_interface.c ****     retVal = ((float_t)pHandle->hFinalTorque * (float_t)pHandle->pScale->current);
1020:Src/mc_interface.c ****   }
1021:Src/mc_interface.c ****   return (retVal);
1022:Src/mc_interface.c **** #else
1023:Src/mc_interface.c ****   return ((float_t)pHandle->hFinalTorque * (float_t)pHandle->pScale->current);
 1358              		.loc 1 1023 3 view .LVU366
 1359              		.loc 1 1023 11 is_stmt 0 view .LVU367
 1360 0000 B0F91030 		ldrsh	r3, [r0, #16]
 1361 0004 07EE903A 		vmov	s15, r3	@ int
 1362              		.loc 1 1023 68 view .LVU368
 1363 0008 8369     		ldr	r3, [r0, #24]
 1364 000a 5B68     		ldr	r3, [r3, #4]	@ unaligned
 1365              		.loc 1 1023 11 view .LVU369
 1366 000c F8EEE77A 		vcvt.f32.s32	s15, s15
 1367              		.loc 1 1023 68 view .LVU370
 1368 0010 00EE103A 		vmov	s0, r3	@ int
1024:Src/mc_interface.c **** #endif
1025:Src/mc_interface.c **** }
 1369              		.loc 1 1025 1 view .LVU371
 1370 0014 27EE800A 		vmul.f32	s0, s15, s0
 1371 0018 7047     		bx	lr
 1372              		.cfi_endproc
 1373              	.LFE1490:
 1375 001a 00BF     		.section	.text.MCI_GetLastRampFinalDuration,"ax",%progbits
 1376              		.align	1
 1377              		.p2align 2,,3
 1378              		.weak	MCI_GetLastRampFinalDuration
 1379              		.syntax unified
 1380              		.thumb
 1381              		.thumb_func
 1382              		.fpu fpv4-sp-d16
 1384              	MCI_GetLastRampFinalDuration:
 1385              	.LVL115:
 1386              	.LFB1491:
1026:Src/mc_interface.c **** 
1027:Src/mc_interface.c **** /**
1028:Src/mc_interface.c ****   * @brief  It returns information about the last ramp Duration sent by the
1029:Src/mc_interface.c ****   *         user .
1030:Src/mc_interface.c ****   * @param  pHandle Pointer on the component instance to work on.
1031:Src/mc_interface.c ****   * @retval uint16_t last ramp final torque sent by the user expressed in digit
1032:Src/mc_interface.c ****   */
1033:Src/mc_interface.c **** __weak uint16_t MCI_GetLastRampFinalDuration(MCI_Handle_t *pHandle) //cstat !MISRAC2012-Rule-8.13
1034:Src/mc_interface.c **** {
 1387              		.loc 1 1034 1 is_stmt 1 view -0
 1388              		.cfi_startproc
 1389              		@ args = 0, pretend = 0, frame = 0
 1390              		@ frame_needed = 0, uses_anonymous_args = 0
 1391              		@ link register save eliminated.
1035:Src/mc_interface.c **** #ifdef NULL_PTR_CHECK_MC_INT
1036:Src/mc_interface.c ****   uint16_t retVal = 0;
1037:Src/mc_interface.c **** 
1038:Src/mc_interface.c ****   if (MC_NULL == pHandle)
1039:Src/mc_interface.c ****   {
1040:Src/mc_interface.c ****     /* Nothing to do */
1041:Src/mc_interface.c ****   }
1042:Src/mc_interface.c ****   else
1043:Src/mc_interface.c ****   {
ARM GAS  /tmp/cc00LnFH.s 			page 47


1044:Src/mc_interface.c ****     retVal = pHandle->hDurationms;
1045:Src/mc_interface.c ****   }
1046:Src/mc_interface.c ****   return (retVal);
1047:Src/mc_interface.c **** #else
1048:Src/mc_interface.c ****   return (pHandle->hDurationms);
 1392              		.loc 1 1048 3 view .LVU373
1049:Src/mc_interface.c **** #endif
1050:Src/mc_interface.c **** }
 1393              		.loc 1 1050 1 is_stmt 0 view .LVU374
 1394 0000 808B     		ldrh	r0, [r0, #28]
 1395              	.LVL116:
 1396              		.loc 1 1050 1 view .LVU375
 1397 0002 7047     		bx	lr
 1398              		.cfi_endproc
 1399              	.LFE1491:
 1401              		.section	.text.MCI_GetLastRampFinalSpeed_F,"ax",%progbits
 1402              		.align	1
 1403              		.p2align 2,,3
 1404              		.weak	MCI_GetLastRampFinalSpeed_F
 1405              		.syntax unified
 1406              		.thumb
 1407              		.thumb_func
 1408              		.fpu fpv4-sp-d16
 1410              	MCI_GetLastRampFinalSpeed_F:
 1411              	.LVL117:
 1412              	.LFB1492:
1051:Src/mc_interface.c **** 
1052:Src/mc_interface.c **** /**
1053:Src/mc_interface.c ****   * @brief  It returns last ramp final speed expressed in rpm.
1054:Src/mc_interface.c ****   * @param  pHandle Pointer on the component instance to work on.
1055:Src/mc_interface.c ****   * @retval float_t last ramp final speed sent by the user expressed in rpm.
1056:Src/mc_interface.c ****   */
1057:Src/mc_interface.c **** __weak float_t MCI_GetLastRampFinalSpeed_F(MCI_Handle_t *pHandle) //cstat !MISRAC2012-Rule-8.13
1058:Src/mc_interface.c **** {
 1413              		.loc 1 1058 1 is_stmt 1 view -0
 1414              		.cfi_startproc
 1415              		@ args = 0, pretend = 0, frame = 0
 1416              		@ frame_needed = 0, uses_anonymous_args = 0
 1417              		@ link register save eliminated.
1059:Src/mc_interface.c ****   float_t reVal = 0.0f;
 1418              		.loc 1 1059 3 view .LVU377
1060:Src/mc_interface.c **** 
1061:Src/mc_interface.c ****   if (MC_NULL == pHandle)
 1419              		.loc 1 1061 3 view .LVU378
 1420              		.loc 1 1061 6 is_stmt 0 view .LVU379
 1421 0000 70B1     		cbz	r0, .L102
1062:Src/mc_interface.c ****   {
1063:Src/mc_interface.c ****     /* Nothing to do */
1064:Src/mc_interface.c ****   }
1065:Src/mc_interface.c ****   else
1066:Src/mc_interface.c ****   {
1067:Src/mc_interface.c ****     reVal = (((float_t)pHandle->hFinalSpeed * (float_t)U_RPM) / (float_t)SPEED_UNIT);
 1422              		.loc 1 1067 5 is_stmt 1 view .LVU380
 1423              		.loc 1 1067 15 is_stmt 0 view .LVU381
 1424 0002 B0F90E30 		ldrsh	r3, [r0, #14]
 1425              		.loc 1 1067 45 view .LVU382
 1426 0006 DFED086A 		vldr.32	s13, .L103
ARM GAS  /tmp/cc00LnFH.s 			page 48


 1427              		.loc 1 1067 15 view .LVU383
 1428 000a 07EE903A 		vmov	s15, r3	@ int
 1429 000e F8EEE77A 		vcvt.f32.s32	s15, s15
 1430              		.loc 1 1067 11 view .LVU384
 1431 0012 B2EE047A 		vmov.f32	s14, #1.0e+1
 1432              		.loc 1 1067 45 view .LVU385
 1433 0016 67EEA67A 		vmul.f32	s15, s15, s13
 1434              		.loc 1 1067 11 view .LVU386
 1435 001a 87EE870A 		vdiv.f32	s0, s15, s14
 1436              	.LVL118:
 1437              		.loc 1 1067 11 view .LVU387
 1438 001e 7047     		bx	lr
 1439              	.LVL119:
 1440              	.L102:
1059:Src/mc_interface.c **** 
 1441              		.loc 1 1059 11 view .LVU388
 1442 0020 9FED020A 		vldr.32	s0, .L103+4
1068:Src/mc_interface.c ****   }
1069:Src/mc_interface.c ****   return (reVal);
 1443              		.loc 1 1069 3 is_stmt 1 view .LVU389
1070:Src/mc_interface.c **** }
 1444              		.loc 1 1070 1 is_stmt 0 view .LVU390
 1445 0024 7047     		bx	lr
 1446              	.L104:
 1447 0026 00BF     		.align	2
 1448              	.L103:
 1449 0028 00007042 		.word	1114636288
 1450 002c 00000000 		.word	0
 1451              		.cfi_endproc
 1452              	.LFE1492:
 1454              		.section	.text.MCI_RampCompleted,"ax",%progbits
 1455              		.align	1
 1456              		.p2align 2,,3
 1457              		.weak	MCI_RampCompleted
 1458              		.syntax unified
 1459              		.thumb
 1460              		.thumb_func
 1461              		.fpu fpv4-sp-d16
 1463              	MCI_RampCompleted:
 1464              	.LVL120:
 1465              	.LFB1493:
1071:Src/mc_interface.c **** 
1072:Src/mc_interface.c **** /**
1073:Src/mc_interface.c ****   * @brief  Check if the settled speed or torque ramp has been completed.
1074:Src/mc_interface.c ****   * @param  pHandle Pointer on the component instance to work on.
1075:Src/mc_interface.c ****   * @retval bool It returns true if the ramp is completed, false otherwise.
1076:Src/mc_interface.c ****   */
1077:Src/mc_interface.c **** __weak bool MCI_RampCompleted(MCI_Handle_t *pHandle)
1078:Src/mc_interface.c **** {
 1466              		.loc 1 1078 1 is_stmt 1 view -0
 1467              		.cfi_startproc
 1468              		@ args = 0, pretend = 0, frame = 0
 1469              		@ frame_needed = 0, uses_anonymous_args = 0
1079:Src/mc_interface.c ****   bool retVal = false;
 1470              		.loc 1 1079 3 view .LVU392
1080:Src/mc_interface.c **** #ifdef NULL_PTR_CHECK_MC_INT
1081:Src/mc_interface.c ****   if (MC_NULL == pHandle)
ARM GAS  /tmp/cc00LnFH.s 			page 49


1082:Src/mc_interface.c ****   {
1083:Src/mc_interface.c ****     /* Nothing to do */
1084:Src/mc_interface.c ****   }
1085:Src/mc_interface.c ****   else
1086:Src/mc_interface.c ****   {
1087:Src/mc_interface.c **** #endif
1088:Src/mc_interface.c ****     if (RUN == MCI_GetSTMState(pHandle))
 1471              		.loc 1 1088 5 view .LVU393
1078:Src/mc_interface.c ****   bool retVal = false;
 1472              		.loc 1 1078 1 is_stmt 0 view .LVU394
 1473 0000 10B5     		push	{r4, lr}
 1474              	.LCFI21:
 1475              		.cfi_def_cfa_offset 8
 1476              		.cfi_offset 4, -8
 1477              		.cfi_offset 14, -4
1078:Src/mc_interface.c ****   bool retVal = false;
 1478              		.loc 1 1078 1 view .LVU395
 1479 0002 0446     		mov	r4, r0
 1480              		.loc 1 1088 16 view .LVU396
 1481 0004 FFF7FEFF 		bl	MCI_GetSTMState
 1482              	.LVL121:
 1483              		.loc 1 1088 8 view .LVU397
 1484 0008 0628     		cmp	r0, #6
 1485 000a 01D0     		beq	.L109
1079:Src/mc_interface.c ****   bool retVal = false;
 1486              		.loc 1 1079 8 view .LVU398
 1487 000c 0020     		movs	r0, #0
 1488              	.LVL122:
1089:Src/mc_interface.c ****     {
1090:Src/mc_interface.c ****       retVal = STC_RampCompleted(pHandle->pSTC);
1091:Src/mc_interface.c ****     }
1092:Src/mc_interface.c ****     else
1093:Src/mc_interface.c ****     {
1094:Src/mc_interface.c ****       /* Nothing to do */
1095:Src/mc_interface.c ****     }
 1489              		.loc 1 1095 5 is_stmt 1 view .LVU399
1096:Src/mc_interface.c **** #ifdef NULL_PTR_CHECK_MC_INT
1097:Src/mc_interface.c ****   }
1098:Src/mc_interface.c **** #endif
1099:Src/mc_interface.c ****   return (retVal);
 1490              		.loc 1 1099 3 view .LVU400
1100:Src/mc_interface.c **** }
 1491              		.loc 1 1100 1 is_stmt 0 view .LVU401
 1492 000e 10BD     		pop	{r4, pc}
 1493              	.LVL123:
 1494              	.L109:
1090:Src/mc_interface.c ****     }
 1495              		.loc 1 1090 7 is_stmt 1 view .LVU402
 1496              	.LBB44:
 1497              	.LBI44:
 1498              		.file 2 "MCSDK_v6.3.0-Full/MotorControl/MCSDK/MCLib/Any/Inc/speed_torq_ctrl.h"
   1:MCSDK_v6.3.0-Full/MotorControl/MCSDK/MCLib/Any/Inc/speed_torq_ctrl.h **** /**
   2:MCSDK_v6.3.0-Full/MotorControl/MCSDK/MCLib/Any/Inc/speed_torq_ctrl.h ****   ******************************************************************************
   3:MCSDK_v6.3.0-Full/MotorControl/MCSDK/MCLib/Any/Inc/speed_torq_ctrl.h ****   * @file    speed_torq_ctrl.h
   4:MCSDK_v6.3.0-Full/MotorControl/MCSDK/MCLib/Any/Inc/speed_torq_ctrl.h ****   * @author  Motor Control SDK Team, ST Microelectronics
   5:MCSDK_v6.3.0-Full/MotorControl/MCSDK/MCLib/Any/Inc/speed_torq_ctrl.h ****   * @brief   This file contains all definitions and functions prototypes for the
   6:MCSDK_v6.3.0-Full/MotorControl/MCSDK/MCLib/Any/Inc/speed_torq_ctrl.h ****   *          Speed & Torque Control component of the Motor Control SDK.
ARM GAS  /tmp/cc00LnFH.s 			page 50


   7:MCSDK_v6.3.0-Full/MotorControl/MCSDK/MCLib/Any/Inc/speed_torq_ctrl.h ****   ******************************************************************************
   8:MCSDK_v6.3.0-Full/MotorControl/MCSDK/MCLib/Any/Inc/speed_torq_ctrl.h ****   * @attention
   9:MCSDK_v6.3.0-Full/MotorControl/MCSDK/MCLib/Any/Inc/speed_torq_ctrl.h ****   *
  10:MCSDK_v6.3.0-Full/MotorControl/MCSDK/MCLib/Any/Inc/speed_torq_ctrl.h ****   * <h2><center>&copy; Copyright (c) 2024 STMicroelectronics.
  11:MCSDK_v6.3.0-Full/MotorControl/MCSDK/MCLib/Any/Inc/speed_torq_ctrl.h ****   * All rights reserved.</center></h2>
  12:MCSDK_v6.3.0-Full/MotorControl/MCSDK/MCLib/Any/Inc/speed_torq_ctrl.h ****   *
  13:MCSDK_v6.3.0-Full/MotorControl/MCSDK/MCLib/Any/Inc/speed_torq_ctrl.h ****   * This software component is licensed by ST under Ultimate Liberty license
  14:MCSDK_v6.3.0-Full/MotorControl/MCSDK/MCLib/Any/Inc/speed_torq_ctrl.h ****   * SLA0044, the "License"; You may not use this file except in compliance with
  15:MCSDK_v6.3.0-Full/MotorControl/MCSDK/MCLib/Any/Inc/speed_torq_ctrl.h ****   * the License. You may obtain a copy of the License at:
  16:MCSDK_v6.3.0-Full/MotorControl/MCSDK/MCLib/Any/Inc/speed_torq_ctrl.h ****   *                             www.st.com/SLA0044
  17:MCSDK_v6.3.0-Full/MotorControl/MCSDK/MCLib/Any/Inc/speed_torq_ctrl.h ****   *
  18:MCSDK_v6.3.0-Full/MotorControl/MCSDK/MCLib/Any/Inc/speed_torq_ctrl.h ****   ******************************************************************************
  19:MCSDK_v6.3.0-Full/MotorControl/MCSDK/MCLib/Any/Inc/speed_torq_ctrl.h ****   * @ingroup SpeednTorqCtrlClassic
  20:MCSDK_v6.3.0-Full/MotorControl/MCSDK/MCLib/Any/Inc/speed_torq_ctrl.h ****   */
  21:MCSDK_v6.3.0-Full/MotorControl/MCSDK/MCLib/Any/Inc/speed_torq_ctrl.h **** 
  22:MCSDK_v6.3.0-Full/MotorControl/MCSDK/MCLib/Any/Inc/speed_torq_ctrl.h **** /* Define to prevent recursive inclusion -------------------------------------*/
  23:MCSDK_v6.3.0-Full/MotorControl/MCSDK/MCLib/Any/Inc/speed_torq_ctrl.h **** #ifndef SPEEDNTORQCTRLCLASS_H
  24:MCSDK_v6.3.0-Full/MotorControl/MCSDK/MCLib/Any/Inc/speed_torq_ctrl.h **** #define SPEEDNTORQCTRLCLASS_H
  25:MCSDK_v6.3.0-Full/MotorControl/MCSDK/MCLib/Any/Inc/speed_torq_ctrl.h **** 
  26:MCSDK_v6.3.0-Full/MotorControl/MCSDK/MCLib/Any/Inc/speed_torq_ctrl.h **** #ifdef __cplusplus
  27:MCSDK_v6.3.0-Full/MotorControl/MCSDK/MCLib/Any/Inc/speed_torq_ctrl.h **** extern "C" {
  28:MCSDK_v6.3.0-Full/MotorControl/MCSDK/MCLib/Any/Inc/speed_torq_ctrl.h **** #endif /* __cplusplus */
  29:MCSDK_v6.3.0-Full/MotorControl/MCSDK/MCLib/Any/Inc/speed_torq_ctrl.h **** 
  30:MCSDK_v6.3.0-Full/MotorControl/MCSDK/MCLib/Any/Inc/speed_torq_ctrl.h **** /* Includes ------------------------------------------------------------------*/
  31:MCSDK_v6.3.0-Full/MotorControl/MCSDK/MCLib/Any/Inc/speed_torq_ctrl.h **** #include "mc_type.h"
  32:MCSDK_v6.3.0-Full/MotorControl/MCSDK/MCLib/Any/Inc/speed_torq_ctrl.h **** #include "pid_regulator.h"
  33:MCSDK_v6.3.0-Full/MotorControl/MCSDK/MCLib/Any/Inc/speed_torq_ctrl.h **** #include "speed_pos_fdbk.h"
  34:MCSDK_v6.3.0-Full/MotorControl/MCSDK/MCLib/Any/Inc/speed_torq_ctrl.h **** 
  35:MCSDK_v6.3.0-Full/MotorControl/MCSDK/MCLib/Any/Inc/speed_torq_ctrl.h **** /** @addtogroup MCSDK
  36:MCSDK_v6.3.0-Full/MotorControl/MCSDK/MCLib/Any/Inc/speed_torq_ctrl.h ****   * @{
  37:MCSDK_v6.3.0-Full/MotorControl/MCSDK/MCLib/Any/Inc/speed_torq_ctrl.h ****   */
  38:MCSDK_v6.3.0-Full/MotorControl/MCSDK/MCLib/Any/Inc/speed_torq_ctrl.h **** 
  39:MCSDK_v6.3.0-Full/MotorControl/MCSDK/MCLib/Any/Inc/speed_torq_ctrl.h **** /** @addtogroup SpeednTorqCtrl
  40:MCSDK_v6.3.0-Full/MotorControl/MCSDK/MCLib/Any/Inc/speed_torq_ctrl.h ****   * @{
  41:MCSDK_v6.3.0-Full/MotorControl/MCSDK/MCLib/Any/Inc/speed_torq_ctrl.h ****   */
  42:MCSDK_v6.3.0-Full/MotorControl/MCSDK/MCLib/Any/Inc/speed_torq_ctrl.h **** 
  43:MCSDK_v6.3.0-Full/MotorControl/MCSDK/MCLib/Any/Inc/speed_torq_ctrl.h **** /** @addtogroup SpeednTorqCtrlClassic
  44:MCSDK_v6.3.0-Full/MotorControl/MCSDK/MCLib/Any/Inc/speed_torq_ctrl.h ****   * @{
  45:MCSDK_v6.3.0-Full/MotorControl/MCSDK/MCLib/Any/Inc/speed_torq_ctrl.h ****   */
  46:MCSDK_v6.3.0-Full/MotorControl/MCSDK/MCLib/Any/Inc/speed_torq_ctrl.h **** 
  47:MCSDK_v6.3.0-Full/MotorControl/MCSDK/MCLib/Any/Inc/speed_torq_ctrl.h **** /* Exported types ------------------------------------------------------------*/
  48:MCSDK_v6.3.0-Full/MotorControl/MCSDK/MCLib/Any/Inc/speed_torq_ctrl.h **** 
  49:MCSDK_v6.3.0-Full/MotorControl/MCSDK/MCLib/Any/Inc/speed_torq_ctrl.h **** /**
  50:MCSDK_v6.3.0-Full/MotorControl/MCSDK/MCLib/Any/Inc/speed_torq_ctrl.h ****   * @brief  Speed & Torque Control parameters definition
  51:MCSDK_v6.3.0-Full/MotorControl/MCSDK/MCLib/Any/Inc/speed_torq_ctrl.h ****   */
  52:MCSDK_v6.3.0-Full/MotorControl/MCSDK/MCLib/Any/Inc/speed_torq_ctrl.h **** typedef struct
  53:MCSDK_v6.3.0-Full/MotorControl/MCSDK/MCLib/Any/Inc/speed_torq_ctrl.h **** {
  54:MCSDK_v6.3.0-Full/MotorControl/MCSDK/MCLib/Any/Inc/speed_torq_ctrl.h ****   MC_ControlMode_t Mode;               /*!< Modality of STC. It can be one of these two settings:
  55:MCSDK_v6.3.0-Full/MotorControl/MCSDK/MCLib/Any/Inc/speed_torq_ctrl.h ****                                            MCM_TORQUE_MODE to enable the Torque mode or
  56:MCSDK_v6.3.0-Full/MotorControl/MCSDK/MCLib/Any/Inc/speed_torq_ctrl.h ****                                            MCM_SPEED_MODE to enable the Speed mode. */
  57:MCSDK_v6.3.0-Full/MotorControl/MCSDK/MCLib/Any/Inc/speed_torq_ctrl.h ****   int16_t TargetFinal;                 /*!< Backup of #hTargetFinal to be applied in the last step.
  58:MCSDK_v6.3.0-Full/MotorControl/MCSDK/MCLib/Any/Inc/speed_torq_ctrl.h ****   int32_t SpeedRefUnitExt;             /*!< Current mechanical rotor speed reference expressed in
  59:MCSDK_v6.3.0-Full/MotorControl/MCSDK/MCLib/Any/Inc/speed_torq_ctrl.h ****                                             [SPEED_UNIT](measurement_units.md) multiplied by 65536.
  60:MCSDK_v6.3.0-Full/MotorControl/MCSDK/MCLib/Any/Inc/speed_torq_ctrl.h ****   int32_t TorqueRef;                   /*!< Current motor torque reference. This value represents a
  61:MCSDK_v6.3.0-Full/MotorControl/MCSDK/MCLib/Any/Inc/speed_torq_ctrl.h ****                                             the Iq current expressed in digit multiplied by 65536. 
  62:MCSDK_v6.3.0-Full/MotorControl/MCSDK/MCLib/Any/Inc/speed_torq_ctrl.h ****   uint32_t RampRemainingStep;          /*!< Number of steps remaining to complete the ramp. */
  63:MCSDK_v6.3.0-Full/MotorControl/MCSDK/MCLib/Any/Inc/speed_torq_ctrl.h ****   PID_Handle_t *PISpeed;               /*!< The regulator used to perform the speed control loop. *
ARM GAS  /tmp/cc00LnFH.s 			page 51


  64:MCSDK_v6.3.0-Full/MotorControl/MCSDK/MCLib/Any/Inc/speed_torq_ctrl.h ****   SpeednPosFdbk_Handle_t *SPD;         /*!< The speed sensor used to perform the speed regulation. 
  65:MCSDK_v6.3.0-Full/MotorControl/MCSDK/MCLib/Any/Inc/speed_torq_ctrl.h ****   int32_t IncDecAmount;                /*!< Increment/decrement amount to be applied to the referen
  66:MCSDK_v6.3.0-Full/MotorControl/MCSDK/MCLib/Any/Inc/speed_torq_ctrl.h ****                                             #CalcTorqueReference. */
  67:MCSDK_v6.3.0-Full/MotorControl/MCSDK/MCLib/Any/Inc/speed_torq_ctrl.h ****   uint16_t STCFrequencyHz;             /*!< Frequency on which the user updates the torque referenc
  68:MCSDK_v6.3.0-Full/MotorControl/MCSDK/MCLib/Any/Inc/speed_torq_ctrl.h ****                                             #STC_CalcTorqueReference method expressed in Hz */
  69:MCSDK_v6.3.0-Full/MotorControl/MCSDK/MCLib/Any/Inc/speed_torq_ctrl.h ****   uint16_t MaxAppPositiveMecSpeedUnit; /*!< Application maximum positive value of the rotor mechani
  70:MCSDK_v6.3.0-Full/MotorControl/MCSDK/MCLib/Any/Inc/speed_torq_ctrl.h ****                                             Expressed in the unit defined by [SPEED_UNIT](measureme
  71:MCSDK_v6.3.0-Full/MotorControl/MCSDK/MCLib/Any/Inc/speed_torq_ctrl.h ****   uint16_t MinAppPositiveMecSpeedUnit; /*!< Application minimum positive value of the rotor mechani
  72:MCSDK_v6.3.0-Full/MotorControl/MCSDK/MCLib/Any/Inc/speed_torq_ctrl.h ****                                             Expressed in the unit defined by [SPEED_UNIT](measureme
  73:MCSDK_v6.3.0-Full/MotorControl/MCSDK/MCLib/Any/Inc/speed_torq_ctrl.h ****   int16_t MaxAppNegativeMecSpeedUnit;  /*!< Application maximum negative value of the rotor mechani
  74:MCSDK_v6.3.0-Full/MotorControl/MCSDK/MCLib/Any/Inc/speed_torq_ctrl.h ****                                             Expressed in the unit defined by [SPEED_UNIT](measureme
  75:MCSDK_v6.3.0-Full/MotorControl/MCSDK/MCLib/Any/Inc/speed_torq_ctrl.h ****   int16_t MinAppNegativeMecSpeedUnit;  /*!< Application minimum negative value of the rotor mechani
  76:MCSDK_v6.3.0-Full/MotorControl/MCSDK/MCLib/Any/Inc/speed_torq_ctrl.h ****                                             Expressed in the unit defined by [SPEED_UNIT](measureme
  77:MCSDK_v6.3.0-Full/MotorControl/MCSDK/MCLib/Any/Inc/speed_torq_ctrl.h ****   uint16_t MaxPositiveTorque;          /*!< Maximum positive value of motor torque. This value repr
  78:MCSDK_v6.3.0-Full/MotorControl/MCSDK/MCLib/Any/Inc/speed_torq_ctrl.h ****                                             the maximum Iq current expressed in digit. */
  79:MCSDK_v6.3.0-Full/MotorControl/MCSDK/MCLib/Any/Inc/speed_torq_ctrl.h ****   int16_t MinNegativeTorque;           /*!< Minimum negative value of motor torque. This value repr
  80:MCSDK_v6.3.0-Full/MotorControl/MCSDK/MCLib/Any/Inc/speed_torq_ctrl.h ****                                             the maximum Iq current expressed in digit. */
  81:MCSDK_v6.3.0-Full/MotorControl/MCSDK/MCLib/Any/Inc/speed_torq_ctrl.h ****   MC_ControlMode_t ModeDefault;        /*!< Default STC modality. */
  82:MCSDK_v6.3.0-Full/MotorControl/MCSDK/MCLib/Any/Inc/speed_torq_ctrl.h ****   int16_t MecSpeedRefUnitDefault;      /*!< Default mechanical rotor speed reference expressed in t
  83:MCSDK_v6.3.0-Full/MotorControl/MCSDK/MCLib/Any/Inc/speed_torq_ctrl.h ****                                             [SPEED_UNIT](measurement_units.md). */
  84:MCSDK_v6.3.0-Full/MotorControl/MCSDK/MCLib/Any/Inc/speed_torq_ctrl.h ****   int16_t TorqueRefDefault;            /*!< Default motor torque reference. This value represents a
  85:MCSDK_v6.3.0-Full/MotorControl/MCSDK/MCLib/Any/Inc/speed_torq_ctrl.h ****                                             current reference expressed in digit. */
  86:MCSDK_v6.3.0-Full/MotorControl/MCSDK/MCLib/Any/Inc/speed_torq_ctrl.h ****   int16_t IdrefDefault;                /*!< Default Id current reference expressed in digit. */
  87:MCSDK_v6.3.0-Full/MotorControl/MCSDK/MCLib/Any/Inc/speed_torq_ctrl.h **** } SpeednTorqCtrl_Handle_t;
  88:MCSDK_v6.3.0-Full/MotorControl/MCSDK/MCLib/Any/Inc/speed_torq_ctrl.h **** 
  89:MCSDK_v6.3.0-Full/MotorControl/MCSDK/MCLib/Any/Inc/speed_torq_ctrl.h **** 
  90:MCSDK_v6.3.0-Full/MotorControl/MCSDK/MCLib/Any/Inc/speed_torq_ctrl.h **** 
  91:MCSDK_v6.3.0-Full/MotorControl/MCSDK/MCLib/Any/Inc/speed_torq_ctrl.h **** /* Initializes all the object variables */
  92:MCSDK_v6.3.0-Full/MotorControl/MCSDK/MCLib/Any/Inc/speed_torq_ctrl.h **** void STC_Init(SpeednTorqCtrl_Handle_t *pHandle, PID_Handle_t *pPI, SpeednPosFdbk_Handle_t *SPD_Hand
  93:MCSDK_v6.3.0-Full/MotorControl/MCSDK/MCLib/Any/Inc/speed_torq_ctrl.h **** 
  94:MCSDK_v6.3.0-Full/MotorControl/MCSDK/MCLib/Any/Inc/speed_torq_ctrl.h **** /* Resets the integral term of speed regulator */
  95:MCSDK_v6.3.0-Full/MotorControl/MCSDK/MCLib/Any/Inc/speed_torq_ctrl.h **** void STC_Clear(SpeednTorqCtrl_Handle_t *pHandle);
  96:MCSDK_v6.3.0-Full/MotorControl/MCSDK/MCLib/Any/Inc/speed_torq_ctrl.h **** 
  97:MCSDK_v6.3.0-Full/MotorControl/MCSDK/MCLib/Any/Inc/speed_torq_ctrl.h **** /* Gets the current mechanical rotor speed reference */
  98:MCSDK_v6.3.0-Full/MotorControl/MCSDK/MCLib/Any/Inc/speed_torq_ctrl.h **** int16_t STC_GetMecSpeedRefUnit(SpeednTorqCtrl_Handle_t *pHandle);
  99:MCSDK_v6.3.0-Full/MotorControl/MCSDK/MCLib/Any/Inc/speed_torq_ctrl.h **** 
 100:MCSDK_v6.3.0-Full/MotorControl/MCSDK/MCLib/Any/Inc/speed_torq_ctrl.h **** /* Sets the mode of the speed and torque controller (Torque mode or Speed mode) */
 101:MCSDK_v6.3.0-Full/MotorControl/MCSDK/MCLib/Any/Inc/speed_torq_ctrl.h **** void STC_SetControlMode(SpeednTorqCtrl_Handle_t *pHandle, MC_ControlMode_t bMode);
 102:MCSDK_v6.3.0-Full/MotorControl/MCSDK/MCLib/Any/Inc/speed_torq_ctrl.h **** 
 103:MCSDK_v6.3.0-Full/MotorControl/MCSDK/MCLib/Any/Inc/speed_torq_ctrl.h **** /* Starts the execution of a ramp using new target and duration */
 104:MCSDK_v6.3.0-Full/MotorControl/MCSDK/MCLib/Any/Inc/speed_torq_ctrl.h **** bool STC_ExecRamp(SpeednTorqCtrl_Handle_t *pHandle, int16_t hTargetFinal, uint32_t hDurationms);
 105:MCSDK_v6.3.0-Full/MotorControl/MCSDK/MCLib/Any/Inc/speed_torq_ctrl.h **** 
 106:MCSDK_v6.3.0-Full/MotorControl/MCSDK/MCLib/Any/Inc/speed_torq_ctrl.h **** /* Computes the new value of motor torque reference */
 107:MCSDK_v6.3.0-Full/MotorControl/MCSDK/MCLib/Any/Inc/speed_torq_ctrl.h **** int16_t STC_CalcTorqueReference(SpeednTorqCtrl_Handle_t *pHandle);
 108:MCSDK_v6.3.0-Full/MotorControl/MCSDK/MCLib/Any/Inc/speed_torq_ctrl.h **** 
 109:MCSDK_v6.3.0-Full/MotorControl/MCSDK/MCLib/Any/Inc/speed_torq_ctrl.h **** /* Gets the Default mechanical rotor speed reference */
 110:MCSDK_v6.3.0-Full/MotorControl/MCSDK/MCLib/Any/Inc/speed_torq_ctrl.h **** int16_t STC_GetMecSpeedRefUnitDefault(SpeednTorqCtrl_Handle_t *pHandle);
 111:MCSDK_v6.3.0-Full/MotorControl/MCSDK/MCLib/Any/Inc/speed_torq_ctrl.h **** 
 112:MCSDK_v6.3.0-Full/MotorControl/MCSDK/MCLib/Any/Inc/speed_torq_ctrl.h **** /* Returns the Application maximum positive rotor mechanical speed */
 113:MCSDK_v6.3.0-Full/MotorControl/MCSDK/MCLib/Any/Inc/speed_torq_ctrl.h **** uint16_t STC_GetMaxAppPositiveMecSpeedUnit(SpeednTorqCtrl_Handle_t *pHandle);
 114:MCSDK_v6.3.0-Full/MotorControl/MCSDK/MCLib/Any/Inc/speed_torq_ctrl.h **** 
 115:MCSDK_v6.3.0-Full/MotorControl/MCSDK/MCLib/Any/Inc/speed_torq_ctrl.h **** /* Returns the Application minimum negative rotor mechanical speed */
 116:MCSDK_v6.3.0-Full/MotorControl/MCSDK/MCLib/Any/Inc/speed_torq_ctrl.h **** int16_t STC_GetMinAppNegativeMecSpeedUnit(SpeednTorqCtrl_Handle_t *pHandle);
 117:MCSDK_v6.3.0-Full/MotorControl/MCSDK/MCLib/Any/Inc/speed_torq_ctrl.h **** 
 118:MCSDK_v6.3.0-Full/MotorControl/MCSDK/MCLib/Any/Inc/speed_torq_ctrl.h **** /* Stops the execution of speed ramp */
 119:MCSDK_v6.3.0-Full/MotorControl/MCSDK/MCLib/Any/Inc/speed_torq_ctrl.h **** bool STC_StopSpeedRamp(SpeednTorqCtrl_Handle_t *pHandle);
 120:MCSDK_v6.3.0-Full/MotorControl/MCSDK/MCLib/Any/Inc/speed_torq_ctrl.h **** 
ARM GAS  /tmp/cc00LnFH.s 			page 52


 121:MCSDK_v6.3.0-Full/MotorControl/MCSDK/MCLib/Any/Inc/speed_torq_ctrl.h **** /* Sets in real time the speed sensor utilized by the FOC */
 122:MCSDK_v6.3.0-Full/MotorControl/MCSDK/MCLib/Any/Inc/speed_torq_ctrl.h **** void STC_SetSpeedSensor(SpeednTorqCtrl_Handle_t *pHandle, SpeednPosFdbk_Handle_t *SPD_Handle);
 123:MCSDK_v6.3.0-Full/MotorControl/MCSDK/MCLib/Any/Inc/speed_torq_ctrl.h **** 
 124:MCSDK_v6.3.0-Full/MotorControl/MCSDK/MCLib/Any/Inc/speed_torq_ctrl.h **** /* It returns the default values of Iqdref */
 125:MCSDK_v6.3.0-Full/MotorControl/MCSDK/MCLib/Any/Inc/speed_torq_ctrl.h **** qd_t STC_GetDefaultIqdref(SpeednTorqCtrl_Handle_t *pHandle);
 126:MCSDK_v6.3.0-Full/MotorControl/MCSDK/MCLib/Any/Inc/speed_torq_ctrl.h **** 
 127:MCSDK_v6.3.0-Full/MotorControl/MCSDK/MCLib/Any/Inc/speed_torq_ctrl.h **** /* Forces the speed reference to the current speed */
 128:MCSDK_v6.3.0-Full/MotorControl/MCSDK/MCLib/Any/Inc/speed_torq_ctrl.h **** void STC_ForceSpeedReferenceToCurrentSpeed(SpeednTorqCtrl_Handle_t *pHandle);
 129:MCSDK_v6.3.0-Full/MotorControl/MCSDK/MCLib/Any/Inc/speed_torq_ctrl.h **** 
 130:MCSDK_v6.3.0-Full/MotorControl/MCSDK/MCLib/Any/Inc/speed_torq_ctrl.h **** /**
 131:MCSDK_v6.3.0-Full/MotorControl/MCSDK/MCLib/Any/Inc/speed_torq_ctrl.h ****   * @brief  Gets the modality of the speed and torque controller
 132:MCSDK_v6.3.0-Full/MotorControl/MCSDK/MCLib/Any/Inc/speed_torq_ctrl.h ****   *           @ref SpeednTorqCtrl_Handle_t::Mode "Mode".
 133:MCSDK_v6.3.0-Full/MotorControl/MCSDK/MCLib/Any/Inc/speed_torq_ctrl.h ****   * @param  pHandle: handler of the current instance of the SpeednTorqCtrl component.
 134:MCSDK_v6.3.0-Full/MotorControl/MCSDK/MCLib/Any/Inc/speed_torq_ctrl.h ****   * @retval MC_ControlMode_t  modality of STC. It can be one of
 135:MCSDK_v6.3.0-Full/MotorControl/MCSDK/MCLib/Any/Inc/speed_torq_ctrl.h ****   *         these two values: MCM_TORQUE_MODE or MCM_SPEED_MODE.
 136:MCSDK_v6.3.0-Full/MotorControl/MCSDK/MCLib/Any/Inc/speed_torq_ctrl.h ****   *
 137:MCSDK_v6.3.0-Full/MotorControl/MCSDK/MCLib/Any/Inc/speed_torq_ctrl.h ****   * - Called by @ref SpeedRegulatorPotentiometer Speed potentiometer component to manage new speed 
 138:MCSDK_v6.3.0-Full/MotorControl/MCSDK/MCLib/Any/Inc/speed_torq_ctrl.h ****   */
 139:MCSDK_v6.3.0-Full/MotorControl/MCSDK/MCLib/Any/Inc/speed_torq_ctrl.h **** static inline MC_ControlMode_t STC_GetControlMode(SpeednTorqCtrl_Handle_t *pHandle)
 140:MCSDK_v6.3.0-Full/MotorControl/MCSDK/MCLib/Any/Inc/speed_torq_ctrl.h **** {
 141:MCSDK_v6.3.0-Full/MotorControl/MCSDK/MCLib/Any/Inc/speed_torq_ctrl.h **** #ifdef NULL_PTR_CHECK_SPD_TRQ_CTL
 142:MCSDK_v6.3.0-Full/MotorControl/MCSDK/MCLib/Any/Inc/speed_torq_ctrl.h ****   return ((MC_NULL == pHandle) ? MCM_TORQUE_MODE : pHandle->Mode);
 143:MCSDK_v6.3.0-Full/MotorControl/MCSDK/MCLib/Any/Inc/speed_torq_ctrl.h **** #else
 144:MCSDK_v6.3.0-Full/MotorControl/MCSDK/MCLib/Any/Inc/speed_torq_ctrl.h ****   return (pHandle->Mode);
 145:MCSDK_v6.3.0-Full/MotorControl/MCSDK/MCLib/Any/Inc/speed_torq_ctrl.h **** #endif
 146:MCSDK_v6.3.0-Full/MotorControl/MCSDK/MCLib/Any/Inc/speed_torq_ctrl.h **** }
 147:MCSDK_v6.3.0-Full/MotorControl/MCSDK/MCLib/Any/Inc/speed_torq_ctrl.h **** 
 148:MCSDK_v6.3.0-Full/MotorControl/MCSDK/MCLib/Any/Inc/speed_torq_ctrl.h **** /**
 149:MCSDK_v6.3.0-Full/MotorControl/MCSDK/MCLib/Any/Inc/speed_torq_ctrl.h ****   * @brief  Interrupts the execution of any previous ramp command in particular by clearing
 150:MCSDK_v6.3.0-Full/MotorControl/MCSDK/MCLib/Any/Inc/speed_torq_ctrl.h ****   *         the number of steps remaining to complete the ramp
 151:MCSDK_v6.3.0-Full/MotorControl/MCSDK/MCLib/Any/Inc/speed_torq_ctrl.h ****   *         @ref SpeednTorqCtrl_Handle_t::RampRemainingStep "RampRemainingStep".
 152:MCSDK_v6.3.0-Full/MotorControl/MCSDK/MCLib/Any/Inc/speed_torq_ctrl.h ****   * @param  pHandle: handler of the current instance of the SpeednTorqCtrl component.
 153:MCSDK_v6.3.0-Full/MotorControl/MCSDK/MCLib/Any/Inc/speed_torq_ctrl.h ****   * @retval none
 154:MCSDK_v6.3.0-Full/MotorControl/MCSDK/MCLib/Any/Inc/speed_torq_ctrl.h ****   *
 155:MCSDK_v6.3.0-Full/MotorControl/MCSDK/MCLib/Any/Inc/speed_torq_ctrl.h ****   * - If STC has been set in Torque mode the last value of Iq is maintained.\n
 156:MCSDK_v6.3.0-Full/MotorControl/MCSDK/MCLib/Any/Inc/speed_torq_ctrl.h ****   * - If STC has been set in Speed mode the last value of mechanical
 157:MCSDK_v6.3.0-Full/MotorControl/MCSDK/MCLib/Any/Inc/speed_torq_ctrl.h ****   * rotor speed reference is maintained.
 158:MCSDK_v6.3.0-Full/MotorControl/MCSDK/MCLib/Any/Inc/speed_torq_ctrl.h ****   * - Called by MCI_StopSpeedRamp execution command.
 159:MCSDK_v6.3.0-Full/MotorControl/MCSDK/MCLib/Any/Inc/speed_torq_ctrl.h ****   */
 160:MCSDK_v6.3.0-Full/MotorControl/MCSDK/MCLib/Any/Inc/speed_torq_ctrl.h **** static inline void STC_StopRamp(SpeednTorqCtrl_Handle_t *pHandle)
 161:MCSDK_v6.3.0-Full/MotorControl/MCSDK/MCLib/Any/Inc/speed_torq_ctrl.h **** {
 162:MCSDK_v6.3.0-Full/MotorControl/MCSDK/MCLib/Any/Inc/speed_torq_ctrl.h **** #ifdef NULL_PTR_CHECK_SPD_TRQ_CTL
 163:MCSDK_v6.3.0-Full/MotorControl/MCSDK/MCLib/Any/Inc/speed_torq_ctrl.h ****   if (MC_NULL == pHandle)
 164:MCSDK_v6.3.0-Full/MotorControl/MCSDK/MCLib/Any/Inc/speed_torq_ctrl.h ****   {
 165:MCSDK_v6.3.0-Full/MotorControl/MCSDK/MCLib/Any/Inc/speed_torq_ctrl.h ****     /* Nothing to do */
 166:MCSDK_v6.3.0-Full/MotorControl/MCSDK/MCLib/Any/Inc/speed_torq_ctrl.h ****   }
 167:MCSDK_v6.3.0-Full/MotorControl/MCSDK/MCLib/Any/Inc/speed_torq_ctrl.h ****   else
 168:MCSDK_v6.3.0-Full/MotorControl/MCSDK/MCLib/Any/Inc/speed_torq_ctrl.h ****   {
 169:MCSDK_v6.3.0-Full/MotorControl/MCSDK/MCLib/Any/Inc/speed_torq_ctrl.h **** #endif
 170:MCSDK_v6.3.0-Full/MotorControl/MCSDK/MCLib/Any/Inc/speed_torq_ctrl.h ****     pHandle->RampRemainingStep = 0U;
 171:MCSDK_v6.3.0-Full/MotorControl/MCSDK/MCLib/Any/Inc/speed_torq_ctrl.h ****     pHandle->IncDecAmount = 0;
 172:MCSDK_v6.3.0-Full/MotorControl/MCSDK/MCLib/Any/Inc/speed_torq_ctrl.h **** #ifdef NULL_PTR_CHECK_SPD_TRQ_CTL
 173:MCSDK_v6.3.0-Full/MotorControl/MCSDK/MCLib/Any/Inc/speed_torq_ctrl.h ****   }
 174:MCSDK_v6.3.0-Full/MotorControl/MCSDK/MCLib/Any/Inc/speed_torq_ctrl.h **** #endif
 175:MCSDK_v6.3.0-Full/MotorControl/MCSDK/MCLib/Any/Inc/speed_torq_ctrl.h **** }
 176:MCSDK_v6.3.0-Full/MotorControl/MCSDK/MCLib/Any/Inc/speed_torq_ctrl.h **** 
 177:MCSDK_v6.3.0-Full/MotorControl/MCSDK/MCLib/Any/Inc/speed_torq_ctrl.h **** /**
ARM GAS  /tmp/cc00LnFH.s 			page 53


 178:MCSDK_v6.3.0-Full/MotorControl/MCSDK/MCLib/Any/Inc/speed_torq_ctrl.h ****   * @brief  Checks if the settled speed or torque ramp has been completed by checking zero value of
 179:MCSDK_v6.3.0-Full/MotorControl/MCSDK/MCLib/Any/Inc/speed_torq_ctrl.h ****   *           @ref SpeednTorqCtrl_Handle_t::RampRemainingStep "RampRemainingStep".
 180:MCSDK_v6.3.0-Full/MotorControl/MCSDK/MCLib/Any/Inc/speed_torq_ctrl.h ****   * @param  pHandle: handler of the current instance of the SpeednTorqCtrl component.
 181:MCSDK_v6.3.0-Full/MotorControl/MCSDK/MCLib/Any/Inc/speed_torq_ctrl.h ****   * @retval bool returning true if the ramp is completed, false otherwise.
 182:MCSDK_v6.3.0-Full/MotorControl/MCSDK/MCLib/Any/Inc/speed_torq_ctrl.h ****   *
 183:MCSDK_v6.3.0-Full/MotorControl/MCSDK/MCLib/Any/Inc/speed_torq_ctrl.h ****   * - Called during motor profiler tuning of HALL sensor.
 184:MCSDK_v6.3.0-Full/MotorControl/MCSDK/MCLib/Any/Inc/speed_torq_ctrl.h ****   */
 185:MCSDK_v6.3.0-Full/MotorControl/MCSDK/MCLib/Any/Inc/speed_torq_ctrl.h **** static inline bool STC_RampCompleted(SpeednTorqCtrl_Handle_t *pHandle)
 1499              		.loc 2 185 20 view .LVU403
 1500              	.LBB45:
 186:MCSDK_v6.3.0-Full/MotorControl/MCSDK/MCLib/Any/Inc/speed_torq_ctrl.h **** {
 187:MCSDK_v6.3.0-Full/MotorControl/MCSDK/MCLib/Any/Inc/speed_torq_ctrl.h ****   bool retVal = false;
 1501              		.loc 2 187 3 view .LVU404
 188:MCSDK_v6.3.0-Full/MotorControl/MCSDK/MCLib/Any/Inc/speed_torq_ctrl.h **** #ifdef NULL_PTR_CHECK_SPD_TRQ_CTL
 189:MCSDK_v6.3.0-Full/MotorControl/MCSDK/MCLib/Any/Inc/speed_torq_ctrl.h ****   if (MC_NULL == pHandle)
 190:MCSDK_v6.3.0-Full/MotorControl/MCSDK/MCLib/Any/Inc/speed_torq_ctrl.h ****   {
 191:MCSDK_v6.3.0-Full/MotorControl/MCSDK/MCLib/Any/Inc/speed_torq_ctrl.h ****     /* Nothing to do */
 192:MCSDK_v6.3.0-Full/MotorControl/MCSDK/MCLib/Any/Inc/speed_torq_ctrl.h ****   }
 193:MCSDK_v6.3.0-Full/MotorControl/MCSDK/MCLib/Any/Inc/speed_torq_ctrl.h ****   else
 194:MCSDK_v6.3.0-Full/MotorControl/MCSDK/MCLib/Any/Inc/speed_torq_ctrl.h ****   {
 195:MCSDK_v6.3.0-Full/MotorControl/MCSDK/MCLib/Any/Inc/speed_torq_ctrl.h **** #endif
 196:MCSDK_v6.3.0-Full/MotorControl/MCSDK/MCLib/Any/Inc/speed_torq_ctrl.h ****     if (0U == pHandle->RampRemainingStep)
 1502              		.loc 2 196 5 view .LVU405
 1503              	.LBE45:
 1504              	.LBE44:
1090:Src/mc_interface.c ****     }
 1505              		.loc 1 1090 16 is_stmt 0 view .LVU406
 1506 0010 2368     		ldr	r3, [r4]
 1507              	.LBB47:
 1508              	.LBB46:
 1509              		.loc 2 196 8 view .LVU407
 1510 0012 D868     		ldr	r0, [r3, #12]
 1511 0014 B0FA80F0 		clz	r0, r0
 1512 0018 4009     		lsrs	r0, r0, #5
 1513              	.LVL124:
 1514              		.loc 2 196 8 view .LVU408
 1515              	.LBE46:
 1516              	.LBE47:
1095:Src/mc_interface.c **** #ifdef NULL_PTR_CHECK_MC_INT
 1517              		.loc 1 1095 5 is_stmt 1 view .LVU409
1099:Src/mc_interface.c **** }
 1518              		.loc 1 1099 3 view .LVU410
 1519              		.loc 1 1100 1 is_stmt 0 view .LVU411
 1520 001a 10BD     		pop	{r4, pc}
 1521              		.loc 1 1100 1 view .LVU412
 1522              		.cfi_endproc
 1523              	.LFE1493:
 1525              		.section	.text.MCI_StopSpeedRamp,"ax",%progbits
 1526              		.align	1
 1527              		.p2align 2,,3
 1528              		.weak	MCI_StopSpeedRamp
 1529              		.syntax unified
 1530              		.thumb
 1531              		.thumb_func
 1532              		.fpu fpv4-sp-d16
 1534              	MCI_StopSpeedRamp:
 1535              	.LVL125:
ARM GAS  /tmp/cc00LnFH.s 			page 54


 1536              	.LFB1494:
1101:Src/mc_interface.c **** 
1102:Src/mc_interface.c **** /**
1103:Src/mc_interface.c ****   * @brief  Stop the execution of speed ramp.
1104:Src/mc_interface.c ****   * @param  pHandle Pointer on the component instance to work on.
1105:Src/mc_interface.c ****   * @retval bool It returns true if the command is executed, false otherwise.
1106:Src/mc_interface.c ****   *
1107:Src/mc_interface.c ****   * @deprecated This function is deprecated and should not be used anymore. It will be
1108:Src/mc_interface.c ****   *             removed in a future version of the MCSDK. Use MCI_StopRamp() instead.
1109:Src/mc_interface.c ****   */
1110:Src/mc_interface.c **** __weak bool MCI_StopSpeedRamp(MCI_Handle_t *pHandle)
1111:Src/mc_interface.c **** {
 1537              		.loc 1 1111 1 is_stmt 1 view -0
 1538              		.cfi_startproc
 1539              		@ args = 0, pretend = 0, frame = 0
 1540              		@ frame_needed = 0, uses_anonymous_args = 0
 1541              		@ link register save eliminated.
1112:Src/mc_interface.c **** #ifdef NULL_PTR_CHECK_MC_INT
1113:Src/mc_interface.c ****   return ((MC_NULL == pHandle) ? false : STC_StopSpeedRamp(pHandle->pSTC));
1114:Src/mc_interface.c **** #else
1115:Src/mc_interface.c ****   return (STC_StopSpeedRamp(pHandle->pSTC));
 1542              		.loc 1 1115 3 view .LVU414
 1543              		.loc 1 1115 11 is_stmt 0 view .LVU415
 1544 0000 0068     		ldr	r0, [r0]
 1545              	.LVL126:
 1546              		.loc 1 1115 11 view .LVU416
 1547 0002 FFF7FEBF 		b	STC_StopSpeedRamp
 1548              	.LVL127:
 1549              		.cfi_endproc
 1550              	.LFE1494:
 1552 0006 00BF     		.section	.text.MCI_StopRamp,"ax",%progbits
 1553              		.align	1
 1554              		.p2align 2,,3
 1555              		.weak	MCI_StopRamp
 1556              		.syntax unified
 1557              		.thumb
 1558              		.thumb_func
 1559              		.fpu fpv4-sp-d16
 1561              	MCI_StopRamp:
 1562              	.LVL128:
 1563              	.LFB1495:
1116:Src/mc_interface.c **** #endif
1117:Src/mc_interface.c **** }
1118:Src/mc_interface.c **** 
1119:Src/mc_interface.c **** /**
1120:Src/mc_interface.c ****   * @brief  Stop the execution of ongoing ramp.
1121:Src/mc_interface.c ****   * @param  pHandle Pointer on the component instance to work on.
1122:Src/mc_interface.c ****   */
1123:Src/mc_interface.c **** __weak void MCI_StopRamp(MCI_Handle_t *pHandle)
1124:Src/mc_interface.c **** {
 1564              		.loc 1 1124 1 is_stmt 1 view -0
 1565              		.cfi_startproc
 1566              		@ args = 0, pretend = 0, frame = 0
 1567              		@ frame_needed = 0, uses_anonymous_args = 0
 1568              		@ link register save eliminated.
1125:Src/mc_interface.c **** #ifdef NULL_PTR_CHECK_MC_INT
1126:Src/mc_interface.c ****   if (MC_NULL == pHandle)
ARM GAS  /tmp/cc00LnFH.s 			page 55


1127:Src/mc_interface.c ****   {
1128:Src/mc_interface.c ****     /* Nothing to do */
1129:Src/mc_interface.c ****   }
1130:Src/mc_interface.c ****   else
1131:Src/mc_interface.c ****   {
1132:Src/mc_interface.c **** #endif
1133:Src/mc_interface.c ****     STC_StopRamp(pHandle->pSTC);
 1569              		.loc 1 1133 5 view .LVU418
 1570 0000 0368     		ldr	r3, [r0]
 1571              	.LBB48:
 1572              	.LBI48:
 160:MCSDK_v6.3.0-Full/MotorControl/MCSDK/MCLib/Any/Inc/speed_torq_ctrl.h **** {
 1573              		.loc 2 160 20 view .LVU419
 1574              	.LVL129:
 1575              	.LBB49:
 170:MCSDK_v6.3.0-Full/MotorControl/MCSDK/MCLib/Any/Inc/speed_torq_ctrl.h ****     pHandle->IncDecAmount = 0;
 1576              		.loc 2 170 5 view .LVU420
 170:MCSDK_v6.3.0-Full/MotorControl/MCSDK/MCLib/Any/Inc/speed_torq_ctrl.h ****     pHandle->IncDecAmount = 0;
 1577              		.loc 2 170 32 is_stmt 0 view .LVU421
 1578 0002 0022     		movs	r2, #0
 1579 0004 DA60     		str	r2, [r3, #12]
 171:MCSDK_v6.3.0-Full/MotorControl/MCSDK/MCLib/Any/Inc/speed_torq_ctrl.h **** #ifdef NULL_PTR_CHECK_SPD_TRQ_CTL
 1580              		.loc 2 171 5 is_stmt 1 view .LVU422
 171:MCSDK_v6.3.0-Full/MotorControl/MCSDK/MCLib/Any/Inc/speed_torq_ctrl.h **** #ifdef NULL_PTR_CHECK_SPD_TRQ_CTL
 1581              		.loc 2 171 27 is_stmt 0 view .LVU423
 1582 0006 9A61     		str	r2, [r3, #24]
 1583              	.LBE49:
 1584              	.LBE48:
1134:Src/mc_interface.c **** #ifdef NULL_PTR_CHECK_MC_INT
1135:Src/mc_interface.c ****   }
1136:Src/mc_interface.c **** #endif
1137:Src/mc_interface.c **** }
 1585              		.loc 1 1137 1 view .LVU424
 1586 0008 7047     		bx	lr
 1587              		.cfi_endproc
 1588              	.LFE1495:
 1590 000a 00BF     		.section	.text.MCI_GetSpdSensorReliability,"ax",%progbits
 1591              		.align	1
 1592              		.p2align 2,,3
 1593              		.weak	MCI_GetSpdSensorReliability
 1594              		.syntax unified
 1595              		.thumb
 1596              		.thumb_func
 1597              		.fpu fpv4-sp-d16
 1599              	MCI_GetSpdSensorReliability:
 1600              	.LVL130:
 1601              	.LFB1496:
1138:Src/mc_interface.c **** 
1139:Src/mc_interface.c **** /**
1140:Src/mc_interface.c ****   * @brief  It returns speed sensor reliability with reference to the sensor
1141:Src/mc_interface.c ****   *         actually used for reference frame transformation
1142:Src/mc_interface.c ****   * @param  pHandle Pointer on the component instance to work on.
1143:Src/mc_interface.c ****   * @retval bool It returns true if the speed sensor utilized for reference
1144:Src/mc_interface.c ****   *         frame transformation and (in speed control mode) for speed
1145:Src/mc_interface.c ****   *         regulation is reliable, false otherwise
1146:Src/mc_interface.c ****   */
1147:Src/mc_interface.c **** __weak bool MCI_GetSpdSensorReliability(MCI_Handle_t *pHandle)
ARM GAS  /tmp/cc00LnFH.s 			page 56


1148:Src/mc_interface.c **** {
 1602              		.loc 1 1148 1 is_stmt 1 view -0
 1603              		.cfi_startproc
 1604              		@ args = 0, pretend = 0, frame = 0
 1605              		@ frame_needed = 0, uses_anonymous_args = 0
 1606              		@ link register save eliminated.
1149:Src/mc_interface.c ****   bool status;
 1607              		.loc 1 1149 3 view .LVU426
1150:Src/mc_interface.c **** #ifdef NULL_PTR_CHECK_MC_INT
1151:Src/mc_interface.c ****   if (MC_NULL == pHandle)
1152:Src/mc_interface.c ****   {
1153:Src/mc_interface.c ****     status = false;
1154:Src/mc_interface.c ****   }
1155:Src/mc_interface.c ****   else
1156:Src/mc_interface.c ****   {
1157:Src/mc_interface.c **** #endif
1158:Src/mc_interface.c ****     SpeednPosFdbk_Handle_t *SpeedSensor = STC_GetSpeedSensor(pHandle->pSTC);
 1608              		.loc 1 1158 5 view .LVU427
 1609              		.loc 1 1158 43 is_stmt 0 view .LVU428
 1610 0000 0368     		ldr	r3, [r0]
 1611 0002 5B69     		ldr	r3, [r3, #20]
 1612              	.LVL131:
 197:MCSDK_v6.3.0-Full/MotorControl/MCSDK/MCLib/Any/Inc/speed_torq_ctrl.h ****     {
 198:MCSDK_v6.3.0-Full/MotorControl/MCSDK/MCLib/Any/Inc/speed_torq_ctrl.h ****       retVal = true;
 199:MCSDK_v6.3.0-Full/MotorControl/MCSDK/MCLib/Any/Inc/speed_torq_ctrl.h ****     }
 200:MCSDK_v6.3.0-Full/MotorControl/MCSDK/MCLib/Any/Inc/speed_torq_ctrl.h **** #ifdef NULL_PTR_CHECK_SPD_TRQ_CTL
 201:MCSDK_v6.3.0-Full/MotorControl/MCSDK/MCLib/Any/Inc/speed_torq_ctrl.h ****   }
 202:MCSDK_v6.3.0-Full/MotorControl/MCSDK/MCLib/Any/Inc/speed_torq_ctrl.h **** #endif
 203:MCSDK_v6.3.0-Full/MotorControl/MCSDK/MCLib/Any/Inc/speed_torq_ctrl.h ****   return (retVal);
 204:MCSDK_v6.3.0-Full/MotorControl/MCSDK/MCLib/Any/Inc/speed_torq_ctrl.h **** }
 205:MCSDK_v6.3.0-Full/MotorControl/MCSDK/MCLib/Any/Inc/speed_torq_ctrl.h **** 
 206:MCSDK_v6.3.0-Full/MotorControl/MCSDK/MCLib/Any/Inc/speed_torq_ctrl.h **** /**
 207:MCSDK_v6.3.0-Full/MotorControl/MCSDK/MCLib/Any/Inc/speed_torq_ctrl.h ****   * @brief  Changes the nominal current by setting new values of
 208:MCSDK_v6.3.0-Full/MotorControl/MCSDK/MCLib/Any/Inc/speed_torq_ctrl.h ****   *         @ref SpeednTorqCtrl_Handle_t::MaxPositiveTorque "MaxPositiveTorque" and
 209:MCSDK_v6.3.0-Full/MotorControl/MCSDK/MCLib/Any/Inc/speed_torq_ctrl.h ****   *         @ref SpeednTorqCtrl_Handle_t::MinNegativeTorque "MinNegativeTorque".
 210:MCSDK_v6.3.0-Full/MotorControl/MCSDK/MCLib/Any/Inc/speed_torq_ctrl.h ****   * @param  pHandle: handler of the current instance of the SpeednTorqCtrl component.
 211:MCSDK_v6.3.0-Full/MotorControl/MCSDK/MCLib/Any/Inc/speed_torq_ctrl.h ****   * @param  hNominalCurrent: represents actually the maximum Iq current expressed in digit.
 212:MCSDK_v6.3.0-Full/MotorControl/MCSDK/MCLib/Any/Inc/speed_torq_ctrl.h ****   * @retval none
 213:MCSDK_v6.3.0-Full/MotorControl/MCSDK/MCLib/Any/Inc/speed_torq_ctrl.h ****   *
 214:MCSDK_v6.3.0-Full/MotorControl/MCSDK/MCLib/Any/Inc/speed_torq_ctrl.h ****   * - Not used into current implementation.
 215:MCSDK_v6.3.0-Full/MotorControl/MCSDK/MCLib/Any/Inc/speed_torq_ctrl.h ****   */
 216:MCSDK_v6.3.0-Full/MotorControl/MCSDK/MCLib/Any/Inc/speed_torq_ctrl.h **** static inline void STC_SetNominalCurrent(SpeednTorqCtrl_Handle_t *pHandle, uint16_t hNominalCurrent
 217:MCSDK_v6.3.0-Full/MotorControl/MCSDK/MCLib/Any/Inc/speed_torq_ctrl.h **** {
 218:MCSDK_v6.3.0-Full/MotorControl/MCSDK/MCLib/Any/Inc/speed_torq_ctrl.h **** #ifdef NULL_PTR_CHECK_SPD_TRQ_CTL
 219:MCSDK_v6.3.0-Full/MotorControl/MCSDK/MCLib/Any/Inc/speed_torq_ctrl.h ****   if (MC_NULL == pHandle)
 220:MCSDK_v6.3.0-Full/MotorControl/MCSDK/MCLib/Any/Inc/speed_torq_ctrl.h ****   {
 221:MCSDK_v6.3.0-Full/MotorControl/MCSDK/MCLib/Any/Inc/speed_torq_ctrl.h ****     /* Nothing to do */
 222:MCSDK_v6.3.0-Full/MotorControl/MCSDK/MCLib/Any/Inc/speed_torq_ctrl.h ****   }
 223:MCSDK_v6.3.0-Full/MotorControl/MCSDK/MCLib/Any/Inc/speed_torq_ctrl.h ****   else
 224:MCSDK_v6.3.0-Full/MotorControl/MCSDK/MCLib/Any/Inc/speed_torq_ctrl.h ****   {
 225:MCSDK_v6.3.0-Full/MotorControl/MCSDK/MCLib/Any/Inc/speed_torq_ctrl.h **** #endif
 226:MCSDK_v6.3.0-Full/MotorControl/MCSDK/MCLib/Any/Inc/speed_torq_ctrl.h ****     pHandle->MaxPositiveTorque = hNominalCurrent;
 227:MCSDK_v6.3.0-Full/MotorControl/MCSDK/MCLib/Any/Inc/speed_torq_ctrl.h ****     pHandle->MinNegativeTorque = -(int16_t)hNominalCurrent;
 228:MCSDK_v6.3.0-Full/MotorControl/MCSDK/MCLib/Any/Inc/speed_torq_ctrl.h **** #ifdef NULL_PTR_CHECK_SPD_TRQ_CTL
 229:MCSDK_v6.3.0-Full/MotorControl/MCSDK/MCLib/Any/Inc/speed_torq_ctrl.h ****   }
 230:MCSDK_v6.3.0-Full/MotorControl/MCSDK/MCLib/Any/Inc/speed_torq_ctrl.h **** #endif
 231:MCSDK_v6.3.0-Full/MotorControl/MCSDK/MCLib/Any/Inc/speed_torq_ctrl.h **** }
ARM GAS  /tmp/cc00LnFH.s 			page 57


 232:MCSDK_v6.3.0-Full/MotorControl/MCSDK/MCLib/Any/Inc/speed_torq_ctrl.h **** 
 233:MCSDK_v6.3.0-Full/MotorControl/MCSDK/MCLib/Any/Inc/speed_torq_ctrl.h **** /**
 234:MCSDK_v6.3.0-Full/MotorControl/MCSDK/MCLib/Any/Inc/speed_torq_ctrl.h ****   * @brief Returns the speed sensor utilized by the FOC.
 235:MCSDK_v6.3.0-Full/MotorControl/MCSDK/MCLib/Any/Inc/speed_torq_ctrl.h ****   * @param pHandle: handler of the current instance of the SpeednTorqCtrl component.
 236:MCSDK_v6.3.0-Full/MotorControl/MCSDK/MCLib/Any/Inc/speed_torq_ctrl.h ****   * @retval SpeednPosFdbk_Handle_t speed sensor utilized by the FOC.
 237:MCSDK_v6.3.0-Full/MotorControl/MCSDK/MCLib/Any/Inc/speed_torq_ctrl.h ****   *
 238:MCSDK_v6.3.0-Full/MotorControl/MCSDK/MCLib/Any/Inc/speed_torq_ctrl.h ****   * - Called as soon as component parameters are required by MC FW.
 239:MCSDK_v6.3.0-Full/MotorControl/MCSDK/MCLib/Any/Inc/speed_torq_ctrl.h ****   */
 240:MCSDK_v6.3.0-Full/MotorControl/MCSDK/MCLib/Any/Inc/speed_torq_ctrl.h **** static inline SpeednPosFdbk_Handle_t *STC_GetSpeedSensor(SpeednTorqCtrl_Handle_t *pHandle)
 241:MCSDK_v6.3.0-Full/MotorControl/MCSDK/MCLib/Any/Inc/speed_torq_ctrl.h **** {
 242:MCSDK_v6.3.0-Full/MotorControl/MCSDK/MCLib/Any/Inc/speed_torq_ctrl.h **** #ifdef NULL_PTR_CHECK_SPD_TRQ_CTL
 243:MCSDK_v6.3.0-Full/MotorControl/MCSDK/MCLib/Any/Inc/speed_torq_ctrl.h ****   return ((MC_NULL ==  pHandle) ? MC_NULL : pHandle->SPD);
 244:MCSDK_v6.3.0-Full/MotorControl/MCSDK/MCLib/Any/Inc/speed_torq_ctrl.h **** #else
 245:MCSDK_v6.3.0-Full/MotorControl/MCSDK/MCLib/Any/Inc/speed_torq_ctrl.h ****   return (pHandle->SPD);
 1613              		.loc 2 245 3 is_stmt 1 view .LVU429
1159:Src/mc_interface.c ****     status = SPD_Check(SpeedSensor);
 1614              		.loc 1 1159 5 view .LVU430
 1615              	.LBB50:
 1616              	.LBI50:
 1617              		.file 3 "MCSDK_v6.3.0-Full/MotorControl/MCSDK/MCLib/Any/Inc/speed_pos_fdbk.h"
   1:MCSDK_v6.3.0-Full/MotorControl/MCSDK/MCLib/Any/Inc/speed_pos_fdbk.h **** /**
   2:MCSDK_v6.3.0-Full/MotorControl/MCSDK/MCLib/Any/Inc/speed_pos_fdbk.h ****   ******************************************************************************
   3:MCSDK_v6.3.0-Full/MotorControl/MCSDK/MCLib/Any/Inc/speed_pos_fdbk.h ****   * @file    speed_pos_fdbk.h
   4:MCSDK_v6.3.0-Full/MotorControl/MCSDK/MCLib/Any/Inc/speed_pos_fdbk.h ****   * @author  Motor Control SDK Team, ST Microelectronics
   5:MCSDK_v6.3.0-Full/MotorControl/MCSDK/MCLib/Any/Inc/speed_pos_fdbk.h ****   * @brief   This file provides all definitions and functions prototypes
   6:MCSDK_v6.3.0-Full/MotorControl/MCSDK/MCLib/Any/Inc/speed_pos_fdbk.h ****   *          of the Speed & Position Feedback component of the Motor Control SDK.
   7:MCSDK_v6.3.0-Full/MotorControl/MCSDK/MCLib/Any/Inc/speed_pos_fdbk.h ****   *
   8:MCSDK_v6.3.0-Full/MotorControl/MCSDK/MCLib/Any/Inc/speed_pos_fdbk.h ****   ******************************************************************************
   9:MCSDK_v6.3.0-Full/MotorControl/MCSDK/MCLib/Any/Inc/speed_pos_fdbk.h ****   * @attention
  10:MCSDK_v6.3.0-Full/MotorControl/MCSDK/MCLib/Any/Inc/speed_pos_fdbk.h ****   *
  11:MCSDK_v6.3.0-Full/MotorControl/MCSDK/MCLib/Any/Inc/speed_pos_fdbk.h ****   * <h2><center>&copy; Copyright (c) 2024 STMicroelectronics.
  12:MCSDK_v6.3.0-Full/MotorControl/MCSDK/MCLib/Any/Inc/speed_pos_fdbk.h ****   * All rights reserved.</center></h2>
  13:MCSDK_v6.3.0-Full/MotorControl/MCSDK/MCLib/Any/Inc/speed_pos_fdbk.h ****   *
  14:MCSDK_v6.3.0-Full/MotorControl/MCSDK/MCLib/Any/Inc/speed_pos_fdbk.h ****   * This software component is licensed by ST under Ultimate Liberty license
  15:MCSDK_v6.3.0-Full/MotorControl/MCSDK/MCLib/Any/Inc/speed_pos_fdbk.h ****   * SLA0044, the "License"; You may not use this file except in compliance with
  16:MCSDK_v6.3.0-Full/MotorControl/MCSDK/MCLib/Any/Inc/speed_pos_fdbk.h ****   * the License. You may obtain a copy of the License at:
  17:MCSDK_v6.3.0-Full/MotorControl/MCSDK/MCLib/Any/Inc/speed_pos_fdbk.h ****   *                             www.st.com/SLA0044
  18:MCSDK_v6.3.0-Full/MotorControl/MCSDK/MCLib/Any/Inc/speed_pos_fdbk.h ****   *
  19:MCSDK_v6.3.0-Full/MotorControl/MCSDK/MCLib/Any/Inc/speed_pos_fdbk.h ****   ******************************************************************************
  20:MCSDK_v6.3.0-Full/MotorControl/MCSDK/MCLib/Any/Inc/speed_pos_fdbk.h ****   * @ingroup SpeednPosFdbk
  21:MCSDK_v6.3.0-Full/MotorControl/MCSDK/MCLib/Any/Inc/speed_pos_fdbk.h ****   */
  22:MCSDK_v6.3.0-Full/MotorControl/MCSDK/MCLib/Any/Inc/speed_pos_fdbk.h **** 
  23:MCSDK_v6.3.0-Full/MotorControl/MCSDK/MCLib/Any/Inc/speed_pos_fdbk.h **** /* Define to prevent recursive inclusion -------------------------------------*/
  24:MCSDK_v6.3.0-Full/MotorControl/MCSDK/MCLib/Any/Inc/speed_pos_fdbk.h **** #ifndef SPEEDNPOSFDBK_H
  25:MCSDK_v6.3.0-Full/MotorControl/MCSDK/MCLib/Any/Inc/speed_pos_fdbk.h **** #define SPEEDNPOSFDBK_H
  26:MCSDK_v6.3.0-Full/MotorControl/MCSDK/MCLib/Any/Inc/speed_pos_fdbk.h **** 
  27:MCSDK_v6.3.0-Full/MotorControl/MCSDK/MCLib/Any/Inc/speed_pos_fdbk.h **** #ifdef __cplusplus
  28:MCSDK_v6.3.0-Full/MotorControl/MCSDK/MCLib/Any/Inc/speed_pos_fdbk.h **** extern "C" {
  29:MCSDK_v6.3.0-Full/MotorControl/MCSDK/MCLib/Any/Inc/speed_pos_fdbk.h **** #endif /* __cplusplus */
  30:MCSDK_v6.3.0-Full/MotorControl/MCSDK/MCLib/Any/Inc/speed_pos_fdbk.h **** 
  31:MCSDK_v6.3.0-Full/MotorControl/MCSDK/MCLib/Any/Inc/speed_pos_fdbk.h **** /* Includes ------------------------------------------------------------------*/
  32:MCSDK_v6.3.0-Full/MotorControl/MCSDK/MCLib/Any/Inc/speed_pos_fdbk.h **** /* Already into mc_type.h */
  33:MCSDK_v6.3.0-Full/MotorControl/MCSDK/MCLib/Any/Inc/speed_pos_fdbk.h **** /* #include "stdint.h" */
  34:MCSDK_v6.3.0-Full/MotorControl/MCSDK/MCLib/Any/Inc/speed_pos_fdbk.h **** #include "mc_type.h"
  35:MCSDK_v6.3.0-Full/MotorControl/MCSDK/MCLib/Any/Inc/speed_pos_fdbk.h **** 
  36:MCSDK_v6.3.0-Full/MotorControl/MCSDK/MCLib/Any/Inc/speed_pos_fdbk.h **** /** @addtogroup MCSDK
  37:MCSDK_v6.3.0-Full/MotorControl/MCSDK/MCLib/Any/Inc/speed_pos_fdbk.h ****   * @{
ARM GAS  /tmp/cc00LnFH.s 			page 58


  38:MCSDK_v6.3.0-Full/MotorControl/MCSDK/MCLib/Any/Inc/speed_pos_fdbk.h ****   */
  39:MCSDK_v6.3.0-Full/MotorControl/MCSDK/MCLib/Any/Inc/speed_pos_fdbk.h **** 
  40:MCSDK_v6.3.0-Full/MotorControl/MCSDK/MCLib/Any/Inc/speed_pos_fdbk.h **** /** @addtogroup SpeednPosFdbk
  41:MCSDK_v6.3.0-Full/MotorControl/MCSDK/MCLib/Any/Inc/speed_pos_fdbk.h ****   * @{
  42:MCSDK_v6.3.0-Full/MotorControl/MCSDK/MCLib/Any/Inc/speed_pos_fdbk.h ****   */
  43:MCSDK_v6.3.0-Full/MotorControl/MCSDK/MCLib/Any/Inc/speed_pos_fdbk.h **** 
  44:MCSDK_v6.3.0-Full/MotorControl/MCSDK/MCLib/Any/Inc/speed_pos_fdbk.h **** /* Exported types ------------------------------------------------------------*/
  45:MCSDK_v6.3.0-Full/MotorControl/MCSDK/MCLib/Any/Inc/speed_pos_fdbk.h **** /**
  46:MCSDK_v6.3.0-Full/MotorControl/MCSDK/MCLib/Any/Inc/speed_pos_fdbk.h ****   * @brief  SpeednPosFdbk  handles definitions of mechanical and electrical speed, mechanical accel
  47:MCSDK_v6.3.0-Full/MotorControl/MCSDK/MCLib/Any/Inc/speed_pos_fdbk.h ****   *                        and electrical angle and all constants and scale values for a reliable m
  48:MCSDK_v6.3.0-Full/MotorControl/MCSDK/MCLib/Any/Inc/speed_pos_fdbk.h ****   *                        computation in appropriated unit.
  49:MCSDK_v6.3.0-Full/MotorControl/MCSDK/MCLib/Any/Inc/speed_pos_fdbk.h ****   */
  50:MCSDK_v6.3.0-Full/MotorControl/MCSDK/MCLib/Any/Inc/speed_pos_fdbk.h **** typedef struct
  51:MCSDK_v6.3.0-Full/MotorControl/MCSDK/MCLib/Any/Inc/speed_pos_fdbk.h **** {
  52:MCSDK_v6.3.0-Full/MotorControl/MCSDK/MCLib/Any/Inc/speed_pos_fdbk.h **** 
  53:MCSDK_v6.3.0-Full/MotorControl/MCSDK/MCLib/Any/Inc/speed_pos_fdbk.h ****   uint8_t bSpeedErrorNumber;          /*!< Number of time the average mechanical speed is not valid
  54:MCSDK_v6.3.0-Full/MotorControl/MCSDK/MCLib/Any/Inc/speed_pos_fdbk.h ****   uint8_t bElToMecRatio;              /*!< Coefficient used to transform electrical to mechanical q
  55:MCSDK_v6.3.0-Full/MotorControl/MCSDK/MCLib/Any/Inc/speed_pos_fdbk.h ****                                            viceversa. It usually coincides with motor pole pairs nu
  56:MCSDK_v6.3.0-Full/MotorControl/MCSDK/MCLib/Any/Inc/speed_pos_fdbk.h ****   uint8_t SpeedUnit;                  /*!< The speed unit value is defined into mc_stm_types.h by
  57:MCSDK_v6.3.0-Full/MotorControl/MCSDK/MCLib/Any/Inc/speed_pos_fdbk.h ****                                            [SPEED_UNIT](measurement_units.md) in tenth of Hertz.*/
  58:MCSDK_v6.3.0-Full/MotorControl/MCSDK/MCLib/Any/Inc/speed_pos_fdbk.h ****   uint8_t bMaximumSpeedErrorsNumber;  /*!< Maximum value of not valid speed measurements before an 
  59:MCSDK_v6.3.0-Full/MotorControl/MCSDK/MCLib/Any/Inc/speed_pos_fdbk.h ****   int16_t hElAngle;                   /*!< Estimated electrical angle reported by the implemented s
  60:MCSDK_v6.3.0-Full/MotorControl/MCSDK/MCLib/Any/Inc/speed_pos_fdbk.h ****                                            method. */
  61:MCSDK_v6.3.0-Full/MotorControl/MCSDK/MCLib/Any/Inc/speed_pos_fdbk.h ****   int16_t hMecAngle;                  /*!< Instantaneous measure of rotor mechanical angle. */
  62:MCSDK_v6.3.0-Full/MotorControl/MCSDK/MCLib/Any/Inc/speed_pos_fdbk.h ****   int32_t wMecAngle;                  /*!< Mechanical angle frame based on coefficient #bElToMecRat
  63:MCSDK_v6.3.0-Full/MotorControl/MCSDK/MCLib/Any/Inc/speed_pos_fdbk.h ****   int16_t hAvrMecSpeedUnit;           /*!< Average mechanical speed expressed in the unit defined b
  64:MCSDK_v6.3.0-Full/MotorControl/MCSDK/MCLib/Any/Inc/speed_pos_fdbk.h ****                                            [SPEED_UNIT](measurement_units.md). */
  65:MCSDK_v6.3.0-Full/MotorControl/MCSDK/MCLib/Any/Inc/speed_pos_fdbk.h ****   int16_t hElSpeedDpp;                /*!< Instantaneous electrical speed expressed in Digit Per co
  66:MCSDK_v6.3.0-Full/MotorControl/MCSDK/MCLib/Any/Inc/speed_pos_fdbk.h ****                                            ([dpp](measurement_units.md)),
  67:MCSDK_v6.3.0-Full/MotorControl/MCSDK/MCLib/Any/Inc/speed_pos_fdbk.h ****                                            expresses the angular speed as the variation of the elec
  68:MCSDK_v6.3.0-Full/MotorControl/MCSDK/MCLib/Any/Inc/speed_pos_fdbk.h ****   int16_t InstantaneousElSpeedDpp;    /*!< Instantaneous computed electrical speed, expressed in
  69:MCSDK_v6.3.0-Full/MotorControl/MCSDK/MCLib/Any/Inc/speed_pos_fdbk.h ****                                            [dpp](measurement_units.md). */
  70:MCSDK_v6.3.0-Full/MotorControl/MCSDK/MCLib/Any/Inc/speed_pos_fdbk.h ****   int16_t hMecAccelUnitP;             /*!< Average mechanical acceleration expressed in the unit de
  71:MCSDK_v6.3.0-Full/MotorControl/MCSDK/MCLib/Any/Inc/speed_pos_fdbk.h ****                                            only reported with encoder implementation */
  72:MCSDK_v6.3.0-Full/MotorControl/MCSDK/MCLib/Any/Inc/speed_pos_fdbk.h ****   uint16_t hMaxReliableMecSpeedUnit;  /*!< Maximum value of measured mechanical speed that is consi
  73:MCSDK_v6.3.0-Full/MotorControl/MCSDK/MCLib/Any/Inc/speed_pos_fdbk.h ****                                            Expressed in the unit defined by [SPEED_UNIT](measuremen
  74:MCSDK_v6.3.0-Full/MotorControl/MCSDK/MCLib/Any/Inc/speed_pos_fdbk.h ****   uint16_t hMinReliableMecSpeedUnit;  /*!< Minimum value of measured mechanical speed that is consi
  75:MCSDK_v6.3.0-Full/MotorControl/MCSDK/MCLib/Any/Inc/speed_pos_fdbk.h ****                                            Expressed in the unit defined by [SPEED_UNIT](measuremen
  76:MCSDK_v6.3.0-Full/MotorControl/MCSDK/MCLib/Any/Inc/speed_pos_fdbk.h ****   uint16_t hMaxReliableMecAccelUnitP; /*!< Maximum value of measured acceleration that is considere
  77:MCSDK_v6.3.0-Full/MotorControl/MCSDK/MCLib/Any/Inc/speed_pos_fdbk.h ****                                            Constant value equal to 65535, expressed in the unit def
  78:MCSDK_v6.3.0-Full/MotorControl/MCSDK/MCLib/Any/Inc/speed_pos_fdbk.h ****                                            [SPEED_UNIT](measurement_units.md). */
  79:MCSDK_v6.3.0-Full/MotorControl/MCSDK/MCLib/Any/Inc/speed_pos_fdbk.h ****   uint16_t hMeasurementFrequency;     /*!< Frequency at which the user will request a measurement o
  80:MCSDK_v6.3.0-Full/MotorControl/MCSDK/MCLib/Any/Inc/speed_pos_fdbk.h ****                                            electrical angle. Expressed in PWM_FREQ_SCALING * Hz. */
  81:MCSDK_v6.3.0-Full/MotorControl/MCSDK/MCLib/Any/Inc/speed_pos_fdbk.h ****   uint32_t DPPConvFactor;             /*!< Conversion factor (65536/#PWM_FREQ_SCALING) used to conv
  82:MCSDK_v6.3.0-Full/MotorControl/MCSDK/MCLib/Any/Inc/speed_pos_fdbk.h ****                                            from the unit defined by [SPEED_UNIT](measurement_units.
  83:MCSDK_v6.3.0-Full/MotorControl/MCSDK/MCLib/Any/Inc/speed_pos_fdbk.h ****                                            [dpp](measurement_units.md). */
  84:MCSDK_v6.3.0-Full/MotorControl/MCSDK/MCLib/Any/Inc/speed_pos_fdbk.h **** 
  85:MCSDK_v6.3.0-Full/MotorControl/MCSDK/MCLib/Any/Inc/speed_pos_fdbk.h **** 
  86:MCSDK_v6.3.0-Full/MotorControl/MCSDK/MCLib/Any/Inc/speed_pos_fdbk.h **** } SpeednPosFdbk_Handle_t;
  87:MCSDK_v6.3.0-Full/MotorControl/MCSDK/MCLib/Any/Inc/speed_pos_fdbk.h **** 
  88:MCSDK_v6.3.0-Full/MotorControl/MCSDK/MCLib/Any/Inc/speed_pos_fdbk.h **** /**
  89:MCSDK_v6.3.0-Full/MotorControl/MCSDK/MCLib/Any/Inc/speed_pos_fdbk.h ****   * @brief input structure type definition for SPD_CalcAngle
  90:MCSDK_v6.3.0-Full/MotorControl/MCSDK/MCLib/Any/Inc/speed_pos_fdbk.h ****   */
  91:MCSDK_v6.3.0-Full/MotorControl/MCSDK/MCLib/Any/Inc/speed_pos_fdbk.h **** typedef struct
  92:MCSDK_v6.3.0-Full/MotorControl/MCSDK/MCLib/Any/Inc/speed_pos_fdbk.h **** {
  93:MCSDK_v6.3.0-Full/MotorControl/MCSDK/MCLib/Any/Inc/speed_pos_fdbk.h ****   alphabeta_t  Valfa_beta;            /*!< Voltage Components in alfa beta reference frame */
  94:MCSDK_v6.3.0-Full/MotorControl/MCSDK/MCLib/Any/Inc/speed_pos_fdbk.h ****   alphabeta_t  Ialfa_beta;            /*!< Current Components in alfa beta reference frame */
ARM GAS  /tmp/cc00LnFH.s 			page 59


  95:MCSDK_v6.3.0-Full/MotorControl/MCSDK/MCLib/Any/Inc/speed_pos_fdbk.h ****   uint16_t     Vbus;                  /*!< Virtual Bus Voltage information */
  96:MCSDK_v6.3.0-Full/MotorControl/MCSDK/MCLib/Any/Inc/speed_pos_fdbk.h **** } Observer_Inputs_t;
  97:MCSDK_v6.3.0-Full/MotorControl/MCSDK/MCLib/Any/Inc/speed_pos_fdbk.h **** 
  98:MCSDK_v6.3.0-Full/MotorControl/MCSDK/MCLib/Any/Inc/speed_pos_fdbk.h **** 
  99:MCSDK_v6.3.0-Full/MotorControl/MCSDK/MCLib/Any/Inc/speed_pos_fdbk.h **** int32_t SPD_GetMecAngle(const SpeednPosFdbk_Handle_t *pHandle);
 100:MCSDK_v6.3.0-Full/MotorControl/MCSDK/MCLib/Any/Inc/speed_pos_fdbk.h **** 
 101:MCSDK_v6.3.0-Full/MotorControl/MCSDK/MCLib/Any/Inc/speed_pos_fdbk.h **** int16_t SPD_GetAvrgMecSpeedUnit(const SpeednPosFdbk_Handle_t *pHandle);
 102:MCSDK_v6.3.0-Full/MotorControl/MCSDK/MCLib/Any/Inc/speed_pos_fdbk.h **** 
 103:MCSDK_v6.3.0-Full/MotorControl/MCSDK/MCLib/Any/Inc/speed_pos_fdbk.h **** int16_t SPD_GetElSpeedDpp(const SpeednPosFdbk_Handle_t *pHandle);
 104:MCSDK_v6.3.0-Full/MotorControl/MCSDK/MCLib/Any/Inc/speed_pos_fdbk.h **** 
 105:MCSDK_v6.3.0-Full/MotorControl/MCSDK/MCLib/Any/Inc/speed_pos_fdbk.h **** bool SPD_IsMecSpeedReliable(SpeednPosFdbk_Handle_t *pHandle, const int16_t *pMecSpeedUnit);
 106:MCSDK_v6.3.0-Full/MotorControl/MCSDK/MCLib/Any/Inc/speed_pos_fdbk.h **** 
 107:MCSDK_v6.3.0-Full/MotorControl/MCSDK/MCLib/Any/Inc/speed_pos_fdbk.h **** int16_t SPD_GetS16Speed(const SpeednPosFdbk_Handle_t *pHandle);
 108:MCSDK_v6.3.0-Full/MotorControl/MCSDK/MCLib/Any/Inc/speed_pos_fdbk.h **** 
 109:MCSDK_v6.3.0-Full/MotorControl/MCSDK/MCLib/Any/Inc/speed_pos_fdbk.h **** uint8_t SPD_GetElToMecRatio(const SpeednPosFdbk_Handle_t *pHandle);
 110:MCSDK_v6.3.0-Full/MotorControl/MCSDK/MCLib/Any/Inc/speed_pos_fdbk.h **** 
 111:MCSDK_v6.3.0-Full/MotorControl/MCSDK/MCLib/Any/Inc/speed_pos_fdbk.h **** void SPD_SetElToMecRatio(SpeednPosFdbk_Handle_t *pHandle, uint8_t bPP);
 112:MCSDK_v6.3.0-Full/MotorControl/MCSDK/MCLib/Any/Inc/speed_pos_fdbk.h **** 
 113:MCSDK_v6.3.0-Full/MotorControl/MCSDK/MCLib/Any/Inc/speed_pos_fdbk.h **** /**
 114:MCSDK_v6.3.0-Full/MotorControl/MCSDK/MCLib/Any/Inc/speed_pos_fdbk.h ****   * @brief  Returns the last computed rotor electrical angle, expressed in [s16degrees](measurement
 115:MCSDK_v6.3.0-Full/MotorControl/MCSDK/MCLib/Any/Inc/speed_pos_fdbk.h ****   * @param  pHandle: handler of the current instance of the SpeednPosFdbk component.
 116:MCSDK_v6.3.0-Full/MotorControl/MCSDK/MCLib/Any/Inc/speed_pos_fdbk.h ****   * @retval int16_t rotor electrical angle.
 117:MCSDK_v6.3.0-Full/MotorControl/MCSDK/MCLib/Any/Inc/speed_pos_fdbk.h ****   */
 118:MCSDK_v6.3.0-Full/MotorControl/MCSDK/MCLib/Any/Inc/speed_pos_fdbk.h **** static inline int16_t SPD_GetElAngle(const SpeednPosFdbk_Handle_t *pHandle)
 119:MCSDK_v6.3.0-Full/MotorControl/MCSDK/MCLib/Any/Inc/speed_pos_fdbk.h **** {
 120:MCSDK_v6.3.0-Full/MotorControl/MCSDK/MCLib/Any/Inc/speed_pos_fdbk.h **** #ifdef NULL_PTR_CHECK_SPD_POS_FBK
 121:MCSDK_v6.3.0-Full/MotorControl/MCSDK/MCLib/Any/Inc/speed_pos_fdbk.h ****   return ((MC_NULL == pHandle) ? 0 : pHandle->hElAngle);
 122:MCSDK_v6.3.0-Full/MotorControl/MCSDK/MCLib/Any/Inc/speed_pos_fdbk.h **** #else
 123:MCSDK_v6.3.0-Full/MotorControl/MCSDK/MCLib/Any/Inc/speed_pos_fdbk.h ****   return (pHandle->hElAngle);
 124:MCSDK_v6.3.0-Full/MotorControl/MCSDK/MCLib/Any/Inc/speed_pos_fdbk.h **** #endif
 125:MCSDK_v6.3.0-Full/MotorControl/MCSDK/MCLib/Any/Inc/speed_pos_fdbk.h **** }
 126:MCSDK_v6.3.0-Full/MotorControl/MCSDK/MCLib/Any/Inc/speed_pos_fdbk.h **** 
 127:MCSDK_v6.3.0-Full/MotorControl/MCSDK/MCLib/Any/Inc/speed_pos_fdbk.h **** /**
 128:MCSDK_v6.3.0-Full/MotorControl/MCSDK/MCLib/Any/Inc/speed_pos_fdbk.h ****   * @brief  Returns the last instantaneous computed electrical speed, expressed in [dpp](measuremen
 129:MCSDK_v6.3.0-Full/MotorControl/MCSDK/MCLib/Any/Inc/speed_pos_fdbk.h ****   * @param  pHandle: handler of the current instance of the SpeednPosFdbk component.
 130:MCSDK_v6.3.0-Full/MotorControl/MCSDK/MCLib/Any/Inc/speed_pos_fdbk.h ****   * @retval int16_t rotor instantaneous electrical speed ([dpp](measurement_units.md)).
 131:MCSDK_v6.3.0-Full/MotorControl/MCSDK/MCLib/Any/Inc/speed_pos_fdbk.h ****   *
 132:MCSDK_v6.3.0-Full/MotorControl/MCSDK/MCLib/Any/Inc/speed_pos_fdbk.h ****   * - The control period is the period on which the rotor electrical angle is computed thanks to HA
 133:MCSDK_v6.3.0-Full/MotorControl/MCSDK/MCLib/Any/Inc/speed_pos_fdbk.h ****   *   functions.
 134:MCSDK_v6.3.0-Full/MotorControl/MCSDK/MCLib/Any/Inc/speed_pos_fdbk.h ****   * - Called during FOC drive control for Iqd currents regulation.
 135:MCSDK_v6.3.0-Full/MotorControl/MCSDK/MCLib/Any/Inc/speed_pos_fdbk.h ****   */
 136:MCSDK_v6.3.0-Full/MotorControl/MCSDK/MCLib/Any/Inc/speed_pos_fdbk.h **** static inline int16_t SPD_GetInstElSpeedDpp(const SpeednPosFdbk_Handle_t *pHandle)
 137:MCSDK_v6.3.0-Full/MotorControl/MCSDK/MCLib/Any/Inc/speed_pos_fdbk.h **** {
 138:MCSDK_v6.3.0-Full/MotorControl/MCSDK/MCLib/Any/Inc/speed_pos_fdbk.h **** #ifdef NULL_PTR_CHECK_SPD_POS_FBK
 139:MCSDK_v6.3.0-Full/MotorControl/MCSDK/MCLib/Any/Inc/speed_pos_fdbk.h ****   return ((MC_NULL == pHandle) ? 0 : pHandle->InstantaneousElSpeedDpp);
 140:MCSDK_v6.3.0-Full/MotorControl/MCSDK/MCLib/Any/Inc/speed_pos_fdbk.h **** #else
 141:MCSDK_v6.3.0-Full/MotorControl/MCSDK/MCLib/Any/Inc/speed_pos_fdbk.h ****   return (pHandle->InstantaneousElSpeedDpp);
 142:MCSDK_v6.3.0-Full/MotorControl/MCSDK/MCLib/Any/Inc/speed_pos_fdbk.h **** #endif
 143:MCSDK_v6.3.0-Full/MotorControl/MCSDK/MCLib/Any/Inc/speed_pos_fdbk.h **** }
 144:MCSDK_v6.3.0-Full/MotorControl/MCSDK/MCLib/Any/Inc/speed_pos_fdbk.h **** 
 145:MCSDK_v6.3.0-Full/MotorControl/MCSDK/MCLib/Any/Inc/speed_pos_fdbk.h **** /**
 146:MCSDK_v6.3.0-Full/MotorControl/MCSDK/MCLib/Any/Inc/speed_pos_fdbk.h ****   * @brief  Returns the result of the last reliability check performed.
 147:MCSDK_v6.3.0-Full/MotorControl/MCSDK/MCLib/Any/Inc/speed_pos_fdbk.h ****   * @param  pHandle: handler of the current instance of the SpeednPosFdbk component.
 148:MCSDK_v6.3.0-Full/MotorControl/MCSDK/MCLib/Any/Inc/speed_pos_fdbk.h ****   * @retval bool sensor reliability state.
 149:MCSDK_v6.3.0-Full/MotorControl/MCSDK/MCLib/Any/Inc/speed_pos_fdbk.h ****   *
 150:MCSDK_v6.3.0-Full/MotorControl/MCSDK/MCLib/Any/Inc/speed_pos_fdbk.h ****   * - Reliability is measured with reference to parameters
 151:MCSDK_v6.3.0-Full/MotorControl/MCSDK/MCLib/Any/Inc/speed_pos_fdbk.h ****   * @ref SpeednPosFdbk_Handle_t::hMaxReliableMecSpeedUnit "hMaxReliableMecSpeedUnit",
ARM GAS  /tmp/cc00LnFH.s 			page 60


 152:MCSDK_v6.3.0-Full/MotorControl/MCSDK/MCLib/Any/Inc/speed_pos_fdbk.h ****   * @ref SpeednPosFdbk_Handle_t::hMinReliableMecSpeedUnit "hMaxReliableMecSpeedUnit",
 153:MCSDK_v6.3.0-Full/MotorControl/MCSDK/MCLib/Any/Inc/speed_pos_fdbk.h ****   * @ref SpeednPosFdbk_Handle_t::bMaximumSpeedErrorsNumber "bMaximumSpeedErrorsNumber".
 154:MCSDK_v6.3.0-Full/MotorControl/MCSDK/MCLib/Any/Inc/speed_pos_fdbk.h ****   * - If the number of time the average mechanical speed is not valid matches the
 155:MCSDK_v6.3.0-Full/MotorControl/MCSDK/MCLib/Any/Inc/speed_pos_fdbk.h ****   *  maximum value of not valid speed measurements, sensor information is not reliable.
 156:MCSDK_v6.3.0-Full/MotorControl/MCSDK/MCLib/Any/Inc/speed_pos_fdbk.h ****   * - Embedded into construction of the MC_GetSpeedSensorReliabilityMotor API.
 157:MCSDK_v6.3.0-Full/MotorControl/MCSDK/MCLib/Any/Inc/speed_pos_fdbk.h ****   * - The return value is a boolean that expresses:\n
 158:MCSDK_v6.3.0-Full/MotorControl/MCSDK/MCLib/Any/Inc/speed_pos_fdbk.h ****   * -- true  = sensor information is reliable.\n
 159:MCSDK_v6.3.0-Full/MotorControl/MCSDK/MCLib/Any/Inc/speed_pos_fdbk.h ****   * -- false = sensor information is not reliable.
 160:MCSDK_v6.3.0-Full/MotorControl/MCSDK/MCLib/Any/Inc/speed_pos_fdbk.h ****   */
 161:MCSDK_v6.3.0-Full/MotorControl/MCSDK/MCLib/Any/Inc/speed_pos_fdbk.h **** static inline bool SPD_Check(const SpeednPosFdbk_Handle_t *pHandle)
 1618              		.loc 3 161 20 view .LVU431
 1619              	.LBB51:
 162:MCSDK_v6.3.0-Full/MotorControl/MCSDK/MCLib/Any/Inc/speed_pos_fdbk.h **** {
 163:MCSDK_v6.3.0-Full/MotorControl/MCSDK/MCLib/Any/Inc/speed_pos_fdbk.h ****   bool SpeedSensorReliability = true;
 1620              		.loc 3 163 3 view .LVU432
 164:MCSDK_v6.3.0-Full/MotorControl/MCSDK/MCLib/Any/Inc/speed_pos_fdbk.h **** #ifdef NULL_PTR_CHECK_SPD_POS_FBK
 165:MCSDK_v6.3.0-Full/MotorControl/MCSDK/MCLib/Any/Inc/speed_pos_fdbk.h ****   if ((MC_NULL == pHandle) || (pHandle->bSpeedErrorNumber == pHandle->bMaximumSpeedErrorsNumber))
 166:MCSDK_v6.3.0-Full/MotorControl/MCSDK/MCLib/Any/Inc/speed_pos_fdbk.h **** #else
 167:MCSDK_v6.3.0-Full/MotorControl/MCSDK/MCLib/Any/Inc/speed_pos_fdbk.h ****   if (pHandle->bSpeedErrorNumber == pHandle->bMaximumSpeedErrorsNumber)
 1621              		.loc 3 167 3 view .LVU433
 168:MCSDK_v6.3.0-Full/MotorControl/MCSDK/MCLib/Any/Inc/speed_pos_fdbk.h **** #endif
 169:MCSDK_v6.3.0-Full/MotorControl/MCSDK/MCLib/Any/Inc/speed_pos_fdbk.h ****   {
 170:MCSDK_v6.3.0-Full/MotorControl/MCSDK/MCLib/Any/Inc/speed_pos_fdbk.h ****     SpeedSensorReliability = false;
 171:MCSDK_v6.3.0-Full/MotorControl/MCSDK/MCLib/Any/Inc/speed_pos_fdbk.h ****   }
 172:MCSDK_v6.3.0-Full/MotorControl/MCSDK/MCLib/Any/Inc/speed_pos_fdbk.h ****   else
 173:MCSDK_v6.3.0-Full/MotorControl/MCSDK/MCLib/Any/Inc/speed_pos_fdbk.h ****   {
 174:MCSDK_v6.3.0-Full/MotorControl/MCSDK/MCLib/Any/Inc/speed_pos_fdbk.h ****     /* Nothing to do */
 175:MCSDK_v6.3.0-Full/MotorControl/MCSDK/MCLib/Any/Inc/speed_pos_fdbk.h ****   }
 1622              		.loc 3 175 3 view .LVU434
 176:MCSDK_v6.3.0-Full/MotorControl/MCSDK/MCLib/Any/Inc/speed_pos_fdbk.h ****   return (SpeedSensorReliability);
 1623              		.loc 3 176 3 view .LVU435
 1624              		.loc 3 176 3 is_stmt 0 view .LVU436
 1625              	.LBE51:
 1626              	.LBE50:
1160:Src/mc_interface.c **** #ifdef NULL_PTR_CHECK_MC_INT
1161:Src/mc_interface.c ****   }
1162:Src/mc_interface.c **** #endif
1163:Src/mc_interface.c **** 
1164:Src/mc_interface.c ****   return (status);
 1627              		.loc 1 1164 3 is_stmt 1 view .LVU437
 1628              	.LBB53:
 1629              	.LBB52:
 167:MCSDK_v6.3.0-Full/MotorControl/MCSDK/MCLib/Any/Inc/speed_pos_fdbk.h **** #endif
 1630              		.loc 3 167 6 is_stmt 0 view .LVU438
 1631 0004 1878     		ldrb	r0, [r3]	@ zero_extendqisi2
 1632              	.LVL132:
 167:MCSDK_v6.3.0-Full/MotorControl/MCSDK/MCLib/Any/Inc/speed_pos_fdbk.h **** #endif
 1633              		.loc 3 167 6 view .LVU439
 1634 0006 DB78     		ldrb	r3, [r3, #3]	@ zero_extendqisi2
 1635              	.LVL133:
 167:MCSDK_v6.3.0-Full/MotorControl/MCSDK/MCLib/Any/Inc/speed_pos_fdbk.h **** #endif
 1636              		.loc 3 167 6 view .LVU440
 1637              	.LBE52:
 1638              	.LBE53:
1165:Src/mc_interface.c **** }
 1639              		.loc 1 1165 1 view .LVU441
 1640 0008 C01A     		subs	r0, r0, r3
ARM GAS  /tmp/cc00LnFH.s 			page 61


 1641              	.LVL134:
 1642              		.loc 1 1165 1 view .LVU442
 1643 000a 18BF     		it	ne
 1644 000c 0120     		movne	r0, #1
 1645 000e 7047     		bx	lr
 1646              		.cfi_endproc
 1647              	.LFE1496:
 1649              		.section	.text.MCI_GetAvrgMecSpeedUnit,"ax",%progbits
 1650              		.align	1
 1651              		.p2align 2,,3
 1652              		.weak	MCI_GetAvrgMecSpeedUnit
 1653              		.syntax unified
 1654              		.thumb
 1655              		.thumb_func
 1656              		.fpu fpv4-sp-d16
 1658              	MCI_GetAvrgMecSpeedUnit:
 1659              	.LVL135:
 1660              	.LFB1497:
1166:Src/mc_interface.c **** 
1167:Src/mc_interface.c **** /**
1168:Src/mc_interface.c ****   * @brief  Returns the last computed average mechanical speed, expressed in
1169:Src/mc_interface.c ****   *         the unit defined by #SPEED_UNIT and related to the sensor actually
1170:Src/mc_interface.c ****   *         used by FOC algorithm
1171:Src/mc_interface.c ****   * @param  pHandle Pointer on the component instance to work on.
1172:Src/mc_interface.c ****   */
1173:Src/mc_interface.c **** __weak int16_t MCI_GetAvrgMecSpeedUnit(MCI_Handle_t *pHandle)
1174:Src/mc_interface.c **** {
 1661              		.loc 1 1174 1 is_stmt 1 view -0
 1662              		.cfi_startproc
 1663              		@ args = 0, pretend = 0, frame = 0
 1664              		@ frame_needed = 0, uses_anonymous_args = 0
 1665              		@ link register save eliminated.
1175:Src/mc_interface.c ****   int16_t temp_speed;
 1666              		.loc 1 1175 3 view .LVU444
1176:Src/mc_interface.c **** #ifdef NULL_PTR_CHECK_MC_INT
1177:Src/mc_interface.c ****   if (MC_NULL == pHandle)
1178:Src/mc_interface.c ****   {
1179:Src/mc_interface.c ****     temp_speed = 0;
1180:Src/mc_interface.c ****   }
1181:Src/mc_interface.c ****   else
1182:Src/mc_interface.c ****   {
1183:Src/mc_interface.c **** #endif
1184:Src/mc_interface.c ****     SpeednPosFdbk_Handle_t * SpeedSensor = STC_GetSpeedSensor(pHandle->pSTC);
 1667              		.loc 1 1184 5 view .LVU445
 1668              		.loc 2 245 3 view .LVU446
1185:Src/mc_interface.c ****     temp_speed = SPD_GetAvrgMecSpeedUnit(SpeedSensor);
 1669              		.loc 1 1185 5 view .LVU447
1184:Src/mc_interface.c ****     temp_speed = SPD_GetAvrgMecSpeedUnit(SpeedSensor);
 1670              		.loc 1 1184 44 is_stmt 0 view .LVU448
 1671 0000 0368     		ldr	r3, [r0]
 1672              		.loc 1 1185 18 view .LVU449
 1673 0002 5869     		ldr	r0, [r3, #20]
 1674              	.LVL136:
 1675              		.loc 1 1185 18 view .LVU450
 1676 0004 FFF7FEBF 		b	SPD_GetAvrgMecSpeedUnit
 1677              	.LVL137:
 1678              		.loc 1 1185 18 view .LVU451
ARM GAS  /tmp/cc00LnFH.s 			page 62


 1679              		.cfi_endproc
 1680              	.LFE1497:
 1682              		.section	.text.MCI_GetAvrgMecSpeed_F,"ax",%progbits
 1683              		.align	1
 1684              		.p2align 2,,3
 1685              		.weak	MCI_GetAvrgMecSpeed_F
 1686              		.syntax unified
 1687              		.thumb
 1688              		.thumb_func
 1689              		.fpu fpv4-sp-d16
 1691              	MCI_GetAvrgMecSpeed_F:
 1692              	.LVL138:
 1693              	.LFB1498:
1186:Src/mc_interface.c **** #ifdef NULL_PTR_CHECK_MC_INT
1187:Src/mc_interface.c ****   }
1188:Src/mc_interface.c **** #endif
1189:Src/mc_interface.c ****   return (temp_speed);
1190:Src/mc_interface.c **** }
1191:Src/mc_interface.c **** 
1192:Src/mc_interface.c **** /**
1193:Src/mc_interface.c ****   * @brief  Returns the last computed average mechanical speed, expressed in rpm
1194:Src/mc_interface.c ****   *         and related to the sensor actually used by FOC algorithm.
1195:Src/mc_interface.c ****   * @param  pHandle Pointer on the component instance to work on.
1196:Src/mc_interface.c ****   */
1197:Src/mc_interface.c **** __weak float_t MCI_GetAvrgMecSpeed_F(MCI_Handle_t *pHandle)
1198:Src/mc_interface.c **** {
 1694              		.loc 1 1198 1 is_stmt 1 view -0
 1695              		.cfi_startproc
 1696              		@ args = 0, pretend = 0, frame = 0
 1697              		@ frame_needed = 0, uses_anonymous_args = 0
1199:Src/mc_interface.c ****   float_t returnAvrgSpeed;
 1698              		.loc 1 1199 3 view .LVU453
1200:Src/mc_interface.c **** #ifdef NULL_PTR_CHECK_MC_INT
1201:Src/mc_interface.c ****   if (MC_NULL == pHandle)
1202:Src/mc_interface.c ****   {
1203:Src/mc_interface.c ****     returnAvrgSpeed = 0.0f;
1204:Src/mc_interface.c ****   }
1205:Src/mc_interface.c ****   else
1206:Src/mc_interface.c ****   {
1207:Src/mc_interface.c **** #endif
1208:Src/mc_interface.c ****     SpeednPosFdbk_Handle_t *SpeedSensor = STC_GetSpeedSensor(pHandle->pSTC);
 1699              		.loc 1 1208 5 view .LVU454
 1700              		.loc 2 245 3 view .LVU455
1209:Src/mc_interface.c ****     returnAvrgSpeed = (((float_t)SPD_GetAvrgMecSpeedUnit(SpeedSensor) * (float_t)U_RPM) / (float_t)
 1701              		.loc 1 1209 5 view .LVU456
1198:Src/mc_interface.c ****   float_t returnAvrgSpeed;
 1702              		.loc 1 1198 1 is_stmt 0 view .LVU457
 1703 0000 08B5     		push	{r3, lr}
 1704              	.LCFI22:
 1705              		.cfi_def_cfa_offset 8
 1706              		.cfi_offset 3, -8
 1707              		.cfi_offset 14, -4
1208:Src/mc_interface.c ****     returnAvrgSpeed = (((float_t)SPD_GetAvrgMecSpeedUnit(SpeedSensor) * (float_t)U_RPM) / (float_t)
 1708              		.loc 1 1208 43 view .LVU458
 1709 0002 0368     		ldr	r3, [r0]
 1710              		.loc 1 1209 34 view .LVU459
 1711 0004 5869     		ldr	r0, [r3, #20]
ARM GAS  /tmp/cc00LnFH.s 			page 63


 1712              	.LVL139:
 1713              		.loc 1 1209 34 view .LVU460
 1714 0006 FFF7FEFF 		bl	SPD_GetAvrgMecSpeedUnit
 1715              	.LVL140:
1210:Src/mc_interface.c **** #ifdef NULL_PTR_CHECK_MC_INT
1211:Src/mc_interface.c ****   }
1212:Src/mc_interface.c **** #endif
1213:Src/mc_interface.c ****   return (returnAvrgSpeed);
 1716              		.loc 1 1213 3 is_stmt 1 view .LVU461
1209:Src/mc_interface.c **** #ifdef NULL_PTR_CHECK_MC_INT
 1717              		.loc 1 1209 25 is_stmt 0 view .LVU462
 1718 000a 07EE900A 		vmov	s15, r0	@ int
1209:Src/mc_interface.c **** #ifdef NULL_PTR_CHECK_MC_INT
 1719              		.loc 1 1209 71 view .LVU463
 1720 000e 9FED057A 		vldr.32	s14, .L116
1209:Src/mc_interface.c **** #ifdef NULL_PTR_CHECK_MC_INT
 1721              		.loc 1 1209 25 view .LVU464
 1722 0012 F8EEE77A 		vcvt.f32.s32	s15, s15
1209:Src/mc_interface.c **** #ifdef NULL_PTR_CHECK_MC_INT
 1723              		.loc 1 1209 21 view .LVU465
 1724 0016 B2EE040A 		vmov.f32	s0, #1.0e+1
1209:Src/mc_interface.c **** #ifdef NULL_PTR_CHECK_MC_INT
 1725              		.loc 1 1209 71 view .LVU466
 1726 001a 67EE877A 		vmul.f32	s15, s15, s14
1214:Src/mc_interface.c **** }
 1727              		.loc 1 1214 1 view .LVU467
 1728 001e 87EE800A 		vdiv.f32	s0, s15, s0
 1729 0022 08BD     		pop	{r3, pc}
 1730              	.L117:
 1731              		.align	2
 1732              	.L116:
 1733 0024 00007042 		.word	1114636288
 1734              		.cfi_endproc
 1735              	.LFE1498:
 1737              		.section	.text.MCI_GetMecSpeedRefUnit,"ax",%progbits
 1738              		.align	1
 1739              		.p2align 2,,3
 1740              		.weak	MCI_GetMecSpeedRefUnit
 1741              		.syntax unified
 1742              		.thumb
 1743              		.thumb_func
 1744              		.fpu fpv4-sp-d16
 1746              	MCI_GetMecSpeedRefUnit:
 1747              	.LVL141:
 1748              	.LFB1499:
1215:Src/mc_interface.c **** 
1216:Src/mc_interface.c **** /**
1217:Src/mc_interface.c ****   * @brief  Returns the current mechanical rotor speed reference expressed in the unit defined by #
1218:Src/mc_interface.c ****   *
1219:Src/mc_interface.c ****   * @param  pHandle Pointer on the component instance to work on.
1220:Src/mc_interface.c ****   *
1221:Src/mc_interface.c ****   */
1222:Src/mc_interface.c **** __weak int16_t MCI_GetMecSpeedRefUnit(MCI_Handle_t *pHandle)
1223:Src/mc_interface.c **** {
 1749              		.loc 1 1223 1 is_stmt 1 view -0
 1750              		.cfi_startproc
 1751              		@ args = 0, pretend = 0, frame = 0
ARM GAS  /tmp/cc00LnFH.s 			page 64


 1752              		@ frame_needed = 0, uses_anonymous_args = 0
 1753              		@ link register save eliminated.
1224:Src/mc_interface.c **** #ifdef NULL_PTR_CHECK_MC_INT
1225:Src/mc_interface.c ****   return ((MC_NULL == pHandle) ? 0 : STC_GetMecSpeedRefUnit(pHandle->pSTC));
1226:Src/mc_interface.c **** #else
1227:Src/mc_interface.c ****   return (STC_GetMecSpeedRefUnit(pHandle->pSTC));
 1754              		.loc 1 1227 3 view .LVU469
 1755              		.loc 1 1227 11 is_stmt 0 view .LVU470
 1756 0000 0068     		ldr	r0, [r0]
 1757              	.LVL142:
 1758              		.loc 1 1227 11 view .LVU471
 1759 0002 FFF7FEBF 		b	STC_GetMecSpeedRefUnit
 1760              	.LVL143:
 1761              		.cfi_endproc
 1762              	.LFE1499:
 1764 0006 00BF     		.section	.text.MCI_GetMecSpeedRef_F,"ax",%progbits
 1765              		.align	1
 1766              		.p2align 2,,3
 1767              		.weak	MCI_GetMecSpeedRef_F
 1768              		.syntax unified
 1769              		.thumb
 1770              		.thumb_func
 1771              		.fpu fpv4-sp-d16
 1773              	MCI_GetMecSpeedRef_F:
 1774              	.LVL144:
 1775              	.LFB1500:
1228:Src/mc_interface.c **** #endif
1229:Src/mc_interface.c **** }
1230:Src/mc_interface.c **** 
1231:Src/mc_interface.c **** /**
1232:Src/mc_interface.c ****   * @brief  Returns the current mechanical rotor speed reference expressed in rpm.
1233:Src/mc_interface.c ****   *
1234:Src/mc_interface.c ****   * @param  pHandle Pointer on the component instance to work on.
1235:Src/mc_interface.c ****   *
1236:Src/mc_interface.c ****   */
1237:Src/mc_interface.c **** __weak float_t MCI_GetMecSpeedRef_F(MCI_Handle_t *pHandle)
1238:Src/mc_interface.c **** {
 1776              		.loc 1 1238 1 is_stmt 1 view -0
 1777              		.cfi_startproc
 1778              		@ args = 0, pretend = 0, frame = 0
 1779              		@ frame_needed = 0, uses_anonymous_args = 0
1239:Src/mc_interface.c **** #ifdef NULL_PTR_CHECK_MC_INT
1240:Src/mc_interface.c ****   return ((MC_NULL == pHandle) ? 0.0f :
1241:Src/mc_interface.c ****           (((float_t)STC_GetMecSpeedRefUnit(pHandle->pSTC) * (float_t)U_RPM) / (float_t)SPEED_UNIT)
1242:Src/mc_interface.c **** #else
1243:Src/mc_interface.c ****   return ((((float_t)STC_GetMecSpeedRefUnit(pHandle->pSTC) * (float_t)U_RPM) / (float_t)SPEED_UNIT)
 1780              		.loc 1 1243 3 view .LVU473
1238:Src/mc_interface.c **** #ifdef NULL_PTR_CHECK_MC_INT
 1781              		.loc 1 1238 1 is_stmt 0 view .LVU474
 1782 0000 08B5     		push	{r3, lr}
 1783              	.LCFI23:
 1784              		.cfi_def_cfa_offset 8
 1785              		.cfi_offset 3, -8
 1786              		.cfi_offset 14, -4
 1787              		.loc 1 1243 22 view .LVU475
 1788 0002 0068     		ldr	r0, [r0]
 1789              	.LVL145:
ARM GAS  /tmp/cc00LnFH.s 			page 65


 1790              		.loc 1 1243 22 view .LVU476
 1791 0004 FFF7FEFF 		bl	STC_GetMecSpeedRefUnit
 1792              	.LVL146:
 1793              		.loc 1 1243 13 view .LVU477
 1794 0008 07EE900A 		vmov	s15, r0	@ int
 1795              		.loc 1 1243 60 view .LVU478
 1796 000c 9FED057A 		vldr.32	s14, .L121
 1797              		.loc 1 1243 13 view .LVU479
 1798 0010 F8EEE77A 		vcvt.f32.s32	s15, s15
 1799              		.loc 1 1243 78 view .LVU480
 1800 0014 B2EE040A 		vmov.f32	s0, #1.0e+1
 1801              		.loc 1 1243 60 view .LVU481
 1802 0018 67EE877A 		vmul.f32	s15, s15, s14
1244:Src/mc_interface.c **** #endif
1245:Src/mc_interface.c **** }
 1803              		.loc 1 1245 1 view .LVU482
 1804 001c 87EE800A 		vdiv.f32	s0, s15, s0
 1805 0020 08BD     		pop	{r3, pc}
 1806              	.L122:
 1807 0022 00BF     		.align	2
 1808              	.L121:
 1809 0024 00007042 		.word	1114636288
 1810              		.cfi_endproc
 1811              	.LFE1500:
 1813              		.section	.text.MCI_GetIab,"ax",%progbits
 1814              		.align	1
 1815              		.p2align 2,,3
 1816              		.weak	MCI_GetIab
 1817              		.syntax unified
 1818              		.thumb
 1819              		.thumb_func
 1820              		.fpu fpv4-sp-d16
 1822              	MCI_GetIab:
 1823              	.LVL147:
 1824              	.LFB1501:
1246:Src/mc_interface.c **** 
1247:Src/mc_interface.c **** /**
1248:Src/mc_interface.c ****   * @brief  It returns stator current Iab in ab_t format
1249:Src/mc_interface.c ****   * @param  pHandle Pointer on the component instance to work on.
1250:Src/mc_interface.c ****   * @retval ab_t Stator current Iab
1251:Src/mc_interface.c ****   */
1252:Src/mc_interface.c **** __weak ab_t MCI_GetIab(MCI_Handle_t *pHandle) //cstat !MISRAC2012-Rule-8.13
1253:Src/mc_interface.c **** {
 1825              		.loc 1 1253 1 is_stmt 1 view -0
 1826              		.cfi_startproc
 1827              		@ args = 0, pretend = 0, frame = 8
 1828              		@ frame_needed = 0, uses_anonymous_args = 0
 1829              		@ link register save eliminated.
1254:Src/mc_interface.c **** #ifdef NULL_PTR_CHECK_MC_INT
1255:Src/mc_interface.c ****   ab_t tempVal;
1256:Src/mc_interface.c **** 
1257:Src/mc_interface.c ****   if (MC_NULL == pHandle)
1258:Src/mc_interface.c ****   {
1259:Src/mc_interface.c ****     tempVal.a = 0;
1260:Src/mc_interface.c ****     tempVal.b = 0;
1261:Src/mc_interface.c ****   }
1262:Src/mc_interface.c ****   else
ARM GAS  /tmp/cc00LnFH.s 			page 66


1263:Src/mc_interface.c ****   {
1264:Src/mc_interface.c ****     tempVal = pHandle->pFOCVars->Iab;
1265:Src/mc_interface.c ****   }
1266:Src/mc_interface.c ****   return (tempVal);
1267:Src/mc_interface.c **** #else
1268:Src/mc_interface.c ****   return (pHandle->pFOCVars->Iab);
 1830              		.loc 1 1268 3 view .LVU484
 1831              		.loc 1 1268 28 is_stmt 0 view .LVU485
 1832 0000 4368     		ldr	r3, [r0, #4]
 1833 0002 1868     		ldr	r0, [r3]	@ unaligned
 1834              	.LVL148:
 1835              		.loc 1 1268 28 view .LVU486
 1836 0004 83B2     		uxth	r3, r0
1253:Src/mc_interface.c **** #ifdef NULL_PTR_CHECK_MC_INT
 1837              		.loc 1 1253 1 view .LVU487
 1838 0006 82B0     		sub	sp, sp, #8
 1839              	.LCFI24:
 1840              		.cfi_def_cfa_offset 8
1269:Src/mc_interface.c **** #endif
1270:Src/mc_interface.c **** }
 1841              		.loc 1 1270 1 view .LVU488
 1842 0008 63F30F00 		bfi	r0, r3, #0, #16
 1843 000c 02B0     		add	sp, sp, #8
 1844              	.LCFI25:
 1845              		.cfi_def_cfa_offset 0
 1846              		@ sp needed
 1847 000e 7047     		bx	lr
 1848              		.cfi_endproc
 1849              	.LFE1501:
 1851              		.section	.text.MCI_GetIab_F,"ax",%progbits
 1852              		.align	1
 1853              		.p2align 2,,3
 1854              		.weak	MCI_GetIab_F
 1855              		.syntax unified
 1856              		.thumb
 1857              		.thumb_func
 1858              		.fpu fpv4-sp-d16
 1860              	MCI_GetIab_F:
 1861              	.LVL149:
 1862              	.LFB1502:
1271:Src/mc_interface.c **** 
1272:Src/mc_interface.c **** __weak ab_f_t MCI_GetIab_F(MCI_Handle_t *pHandle) //cstat !MISRAC2012-Rule-8.13
1273:Src/mc_interface.c **** {
 1863              		.loc 1 1273 1 is_stmt 1 view -0
 1864              		.cfi_startproc
 1865              		@ args = 0, pretend = 0, frame = 16
 1866              		@ frame_needed = 0, uses_anonymous_args = 0
 1867              		@ link register save eliminated.
1274:Src/mc_interface.c **** 
1275:Src/mc_interface.c ****   ab_f_t iab;
 1868              		.loc 1 1275 3 view .LVU490
1276:Src/mc_interface.c **** #ifdef NULL_PTR_CHECK_MC_INT
1277:Src/mc_interface.c ****   if (MC_NULL == pHandle)
1278:Src/mc_interface.c ****   {
1279:Src/mc_interface.c ****     iab.a = 0.0f;
1280:Src/mc_interface.c ****     iab.b = 0.0f;
1281:Src/mc_interface.c ****   }
ARM GAS  /tmp/cc00LnFH.s 			page 67


1282:Src/mc_interface.c ****   else
1283:Src/mc_interface.c ****   {
1284:Src/mc_interface.c **** #endif
1285:Src/mc_interface.c ****     iab.a = (float_t)((float_t)pHandle->pFOCVars->Iab.a * pHandle->pScale->current);
 1869              		.loc 1 1285 5 view .LVU491
 1870              		.loc 1 1285 39 is_stmt 0 view .LVU492
 1871 0000 4368     		ldr	r3, [r0, #4]
 1872              		.loc 1 1285 74 view .LVU493
 1873 0002 8269     		ldr	r2, [r0, #24]
1286:Src/mc_interface.c ****     iab.b = (float_t)((float_t)pHandle->pFOCVars->Iab.b * pHandle->pScale->current);
 1874              		.loc 1 1286 23 view .LVU494
 1875 0004 B3F90210 		ldrsh	r1, [r3, #2]
1285:Src/mc_interface.c ****     iab.b = (float_t)((float_t)pHandle->pFOCVars->Iab.b * pHandle->pScale->current);
 1876              		.loc 1 1285 23 view .LVU495
 1877 0008 B3F90030 		ldrsh	r3, [r3]
 1878              		.loc 1 1286 23 view .LVU496
 1879 000c 00EE901A 		vmov	s1, r1	@ int
1285:Src/mc_interface.c ****     iab.b = (float_t)((float_t)pHandle->pFOCVars->Iab.b * pHandle->pScale->current);
 1880              		.loc 1 1285 23 view .LVU497
 1881 0010 00EE103A 		vmov	s0, r3	@ int
1285:Src/mc_interface.c ****     iab.b = (float_t)((float_t)pHandle->pFOCVars->Iab.b * pHandle->pScale->current);
 1882              		.loc 1 1285 74 view .LVU498
 1883 0014 5368     		ldr	r3, [r2, #4]	@ unaligned
 1884              		.loc 1 1286 23 view .LVU499
 1885 0016 F8EEE00A 		vcvt.f32.s32	s1, s1
1285:Src/mc_interface.c ****     iab.b = (float_t)((float_t)pHandle->pFOCVars->Iab.b * pHandle->pScale->current);
 1886              		.loc 1 1285 74 view .LVU500
 1887 001a 07EE903A 		vmov	s15, r3	@ int
 1888              	.LVL150:
 1889              		.loc 1 1286 5 is_stmt 1 view .LVU501
1287:Src/mc_interface.c **** #ifdef NULL_PTR_CHECK_MC_INT
1288:Src/mc_interface.c ****   }
1289:Src/mc_interface.c **** #endif
1290:Src/mc_interface.c ****   return (iab);
 1890              		.loc 1 1290 3 view .LVU502
1285:Src/mc_interface.c ****     iab.b = (float_t)((float_t)pHandle->pFOCVars->Iab.b * pHandle->pScale->current);
 1891              		.loc 1 1285 23 is_stmt 0 view .LVU503
 1892 001e B8EEC00A 		vcvt.f32.s32	s0, s0
1291:Src/mc_interface.c **** 
1292:Src/mc_interface.c **** }
 1893              		.loc 1 1292 1 view .LVU504
 1894 0022 60EEA70A 		vmul.f32	s1, s1, s15
 1895 0026 20EE270A 		vmul.f32	s0, s0, s15
1273:Src/mc_interface.c **** 
 1896              		.loc 1 1273 1 view .LVU505
 1897 002a 84B0     		sub	sp, sp, #16
 1898              	.LCFI26:
 1899              		.cfi_def_cfa_offset 16
 1900              		.loc 1 1292 1 view .LVU506
 1901 002c 04B0     		add	sp, sp, #16
 1902              	.LCFI27:
 1903              		.cfi_def_cfa_offset 0
 1904              		@ sp needed
 1905 002e 7047     		bx	lr
 1906              		.cfi_endproc
 1907              	.LFE1502:
 1909              		.section	.text.MCI_GetIalphabeta,"ax",%progbits
ARM GAS  /tmp/cc00LnFH.s 			page 68


 1910              		.align	1
 1911              		.p2align 2,,3
 1912              		.weak	MCI_GetIalphabeta
 1913              		.syntax unified
 1914              		.thumb
 1915              		.thumb_func
 1916              		.fpu fpv4-sp-d16
 1918              	MCI_GetIalphabeta:
 1919              	.LVL151:
 1920              	.LFB1503:
1293:Src/mc_interface.c **** 
1294:Src/mc_interface.c **** /**
1295:Src/mc_interface.c ****   * @brief  It returns stator current Ialphabeta in alphabeta_t format
1296:Src/mc_interface.c ****   * @param  pHandle Pointer on the component instance to work on.
1297:Src/mc_interface.c ****   * @retval alphabeta_t Stator current Ialphabeta
1298:Src/mc_interface.c ****   */
1299:Src/mc_interface.c **** __weak alphabeta_t MCI_GetIalphabeta(MCI_Handle_t *pHandle) //cstat !MISRAC2012-Rule-8.13
1300:Src/mc_interface.c **** {
 1921              		.loc 1 1300 1 is_stmt 1 view -0
 1922              		.cfi_startproc
 1923              		@ args = 0, pretend = 0, frame = 8
 1924              		@ frame_needed = 0, uses_anonymous_args = 0
 1925              		@ link register save eliminated.
1301:Src/mc_interface.c **** #ifdef NULL_PTR_CHECK_MC_INT
1302:Src/mc_interface.c ****   alphabeta_t tempVal;
1303:Src/mc_interface.c **** 
1304:Src/mc_interface.c ****   if (MC_NULL == pHandle)
1305:Src/mc_interface.c ****   {
1306:Src/mc_interface.c ****     tempVal.alpha = 0;
1307:Src/mc_interface.c ****     tempVal.beta = 0;
1308:Src/mc_interface.c ****   }
1309:Src/mc_interface.c ****   else
1310:Src/mc_interface.c ****   {
1311:Src/mc_interface.c ****     tempVal = pHandle->pFOCVars->Ialphabeta;
1312:Src/mc_interface.c ****   }
1313:Src/mc_interface.c ****   return (tempVal);
1314:Src/mc_interface.c **** #else
1315:Src/mc_interface.c ****   return (pHandle->pFOCVars->Ialphabeta);
 1926              		.loc 1 1315 3 view .LVU508
 1927              		.loc 1 1315 28 is_stmt 0 view .LVU509
 1928 0000 4368     		ldr	r3, [r0, #4]
 1929 0002 5868     		ldr	r0, [r3, #4]	@ unaligned
 1930              	.LVL152:
 1931              		.loc 1 1315 28 view .LVU510
 1932 0004 83B2     		uxth	r3, r0
1300:Src/mc_interface.c **** #ifdef NULL_PTR_CHECK_MC_INT
 1933              		.loc 1 1300 1 view .LVU511
 1934 0006 82B0     		sub	sp, sp, #8
 1935              	.LCFI28:
 1936              		.cfi_def_cfa_offset 8
1316:Src/mc_interface.c **** #endif
1317:Src/mc_interface.c **** }
 1937              		.loc 1 1317 1 view .LVU512
 1938 0008 63F30F00 		bfi	r0, r3, #0, #16
 1939 000c 02B0     		add	sp, sp, #8
 1940              	.LCFI29:
 1941              		.cfi_def_cfa_offset 0
ARM GAS  /tmp/cc00LnFH.s 			page 69


 1942              		@ sp needed
 1943 000e 7047     		bx	lr
 1944              		.cfi_endproc
 1945              	.LFE1503:
 1947              		.section	.text.MCI_GetIqd,"ax",%progbits
 1948              		.align	1
 1949              		.p2align 2,,3
 1950              		.weak	MCI_GetIqd
 1951              		.syntax unified
 1952              		.thumb
 1953              		.thumb_func
 1954              		.fpu fpv4-sp-d16
 1956              	MCI_GetIqd:
 1957              	.LVL153:
 1958              	.LFB1504:
1318:Src/mc_interface.c **** 
1319:Src/mc_interface.c **** /**
1320:Src/mc_interface.c ****   * @brief  It returns stator current Iqd in qd_t format
1321:Src/mc_interface.c ****   * @param  pHandle Pointer on the component instance to work on.
1322:Src/mc_interface.c ****   * @retval qd_t Stator current Iqd
1323:Src/mc_interface.c ****   */
1324:Src/mc_interface.c **** __weak qd_t MCI_GetIqd(MCI_Handle_t *pHandle) //cstat !MISRAC2012-Rule-8.13
1325:Src/mc_interface.c **** {
 1959              		.loc 1 1325 1 is_stmt 1 view -0
 1960              		.cfi_startproc
 1961              		@ args = 0, pretend = 0, frame = 8
 1962              		@ frame_needed = 0, uses_anonymous_args = 0
 1963              		@ link register save eliminated.
1326:Src/mc_interface.c **** #ifdef NULL_PTR_CHECK_MC_INT
1327:Src/mc_interface.c ****   qd_t tempVal;
1328:Src/mc_interface.c **** 
1329:Src/mc_interface.c ****   if (MC_NULL == pHandle)
1330:Src/mc_interface.c ****   {
1331:Src/mc_interface.c ****     tempVal.q = 0;
1332:Src/mc_interface.c ****     tempVal.d = 0;
1333:Src/mc_interface.c ****   }
1334:Src/mc_interface.c ****   else
1335:Src/mc_interface.c ****   {
1336:Src/mc_interface.c ****     tempVal = pHandle->pFOCVars->Iqd;
1337:Src/mc_interface.c ****   }
1338:Src/mc_interface.c ****   return (tempVal);
1339:Src/mc_interface.c **** #else
1340:Src/mc_interface.c ****   return (pHandle->pFOCVars->Iqd);
 1964              		.loc 1 1340 3 view .LVU514
 1965              		.loc 1 1340 28 is_stmt 0 view .LVU515
 1966 0000 4368     		ldr	r3, [r0, #4]
 1967 0002 D868     		ldr	r0, [r3, #12]	@ unaligned
 1968              	.LVL154:
 1969              		.loc 1 1340 28 view .LVU516
 1970 0004 83B2     		uxth	r3, r0
1325:Src/mc_interface.c **** #ifdef NULL_PTR_CHECK_MC_INT
 1971              		.loc 1 1325 1 view .LVU517
 1972 0006 82B0     		sub	sp, sp, #8
 1973              	.LCFI30:
 1974              		.cfi_def_cfa_offset 8
1341:Src/mc_interface.c **** #endif
1342:Src/mc_interface.c **** }
ARM GAS  /tmp/cc00LnFH.s 			page 70


 1975              		.loc 1 1342 1 view .LVU518
 1976 0008 63F30F00 		bfi	r0, r3, #0, #16
 1977 000c 02B0     		add	sp, sp, #8
 1978              	.LCFI31:
 1979              		.cfi_def_cfa_offset 0
 1980              		@ sp needed
 1981 000e 7047     		bx	lr
 1982              		.cfi_endproc
 1983              	.LFE1504:
 1985              		.section	.text.MCI_GetIqd_F,"ax",%progbits
 1986              		.align	1
 1987              		.p2align 2,,3
 1988              		.weak	MCI_GetIqd_F
 1989              		.syntax unified
 1990              		.thumb
 1991              		.thumb_func
 1992              		.fpu fpv4-sp-d16
 1994              	MCI_GetIqd_F:
 1995              	.LVL155:
 1996              	.LFB1505:
1343:Src/mc_interface.c **** 
1344:Src/mc_interface.c **** /**
1345:Src/mc_interface.c ****   * @brief  It returns stator current Iqd in float_t format
1346:Src/mc_interface.c ****   * @param  pHandle Pointer on the component instance to work on.
1347:Src/mc_interface.c ****   * @retval qd_f_t Stator current Iqd (in Ampere)
1348:Src/mc_interface.c ****   */
1349:Src/mc_interface.c **** __weak qd_f_t MCI_GetIqd_F(MCI_Handle_t *pHandle) //cstat !MISRAC2012-Rule-8.13
1350:Src/mc_interface.c **** {
 1997              		.loc 1 1350 1 is_stmt 1 view -0
 1998              		.cfi_startproc
 1999              		@ args = 0, pretend = 0, frame = 16
 2000              		@ frame_needed = 0, uses_anonymous_args = 0
 2001              		@ link register save eliminated.
1351:Src/mc_interface.c ****   qd_f_t iqd;
 2002              		.loc 1 1351 3 view .LVU520
1352:Src/mc_interface.c **** #ifdef NULL_PTR_CHECK_MC_INT
1353:Src/mc_interface.c ****   if (MC_NULL == pHandle)
1354:Src/mc_interface.c ****   {
1355:Src/mc_interface.c ****     iqd.d = 0.0f;
1356:Src/mc_interface.c ****     iqd.q = 0.0f;
1357:Src/mc_interface.c ****   }
1358:Src/mc_interface.c ****   else
1359:Src/mc_interface.c ****   {
1360:Src/mc_interface.c **** #endif
1361:Src/mc_interface.c ****   iqd.d = (float_t)((float_t)pHandle->pFOCVars->Iqd.d * pHandle->pScale->current);
 2003              		.loc 1 1361 3 view .LVU521
 2004              		.loc 1 1361 37 is_stmt 0 view .LVU522
 2005 0000 4368     		ldr	r3, [r0, #4]
 2006              		.loc 1 1361 72 view .LVU523
 2007 0002 8269     		ldr	r2, [r0, #24]
 2008              		.loc 1 1361 21 view .LVU524
 2009 0004 B3F90E10 		ldrsh	r1, [r3, #14]
1362:Src/mc_interface.c ****   iqd.q = (float_t)((float_t)pHandle->pFOCVars->Iqd.q * pHandle->pScale->current);
 2010              		.loc 1 1362 21 view .LVU525
 2011 0008 B3F90C30 		ldrsh	r3, [r3, #12]
1361:Src/mc_interface.c ****   iqd.q = (float_t)((float_t)pHandle->pFOCVars->Iqd.q * pHandle->pScale->current);
 2012              		.loc 1 1361 21 view .LVU526
ARM GAS  /tmp/cc00LnFH.s 			page 71


 2013 000c 00EE901A 		vmov	s1, r1	@ int
 2014              		.loc 1 1362 21 view .LVU527
 2015 0010 00EE103A 		vmov	s0, r3	@ int
1361:Src/mc_interface.c ****   iqd.q = (float_t)((float_t)pHandle->pFOCVars->Iqd.q * pHandle->pScale->current);
 2016              		.loc 1 1361 72 view .LVU528
 2017 0014 5368     		ldr	r3, [r2, #4]	@ unaligned
1361:Src/mc_interface.c ****   iqd.q = (float_t)((float_t)pHandle->pFOCVars->Iqd.q * pHandle->pScale->current);
 2018              		.loc 1 1361 21 view .LVU529
 2019 0016 F8EEE00A 		vcvt.f32.s32	s1, s1
1361:Src/mc_interface.c ****   iqd.q = (float_t)((float_t)pHandle->pFOCVars->Iqd.q * pHandle->pScale->current);
 2020              		.loc 1 1361 72 view .LVU530
 2021 001a 07EE903A 		vmov	s15, r3	@ int
 2022              	.LVL156:
 2023              		.loc 1 1362 3 is_stmt 1 view .LVU531
1363:Src/mc_interface.c **** #ifdef NULL_PTR_CHECK_MC_INT
1364:Src/mc_interface.c ****   }
1365:Src/mc_interface.c **** #endif
1366:Src/mc_interface.c ****   return (iqd);
 2024              		.loc 1 1366 3 view .LVU532
1362:Src/mc_interface.c **** #ifdef NULL_PTR_CHECK_MC_INT
 2025              		.loc 1 1362 21 is_stmt 0 view .LVU533
 2026 001e B8EEC00A 		vcvt.f32.s32	s0, s0
1367:Src/mc_interface.c **** }
 2027              		.loc 1 1367 1 view .LVU534
 2028 0022 60EEA70A 		vmul.f32	s1, s1, s15
 2029 0026 20EE270A 		vmul.f32	s0, s0, s15
1350:Src/mc_interface.c ****   qd_f_t iqd;
 2030              		.loc 1 1350 1 view .LVU535
 2031 002a 84B0     		sub	sp, sp, #16
 2032              	.LCFI32:
 2033              		.cfi_def_cfa_offset 16
 2034              		.loc 1 1367 1 view .LVU536
 2035 002c 04B0     		add	sp, sp, #16
 2036              	.LCFI33:
 2037              		.cfi_def_cfa_offset 0
 2038              		@ sp needed
 2039 002e 7047     		bx	lr
 2040              		.cfi_endproc
 2041              	.LFE1505:
 2043              		.section	.text.MCI_GetIqdHF,"ax",%progbits
 2044              		.align	1
 2045              		.p2align 2,,3
 2046              		.weak	MCI_GetIqdHF
 2047              		.syntax unified
 2048              		.thumb
 2049              		.thumb_func
 2050              		.fpu fpv4-sp-d16
 2052              	MCI_GetIqdHF:
 2053              	.LVL157:
 2054              	.LFB1506:
1368:Src/mc_interface.c **** 
1369:Src/mc_interface.c **** /**
1370:Src/mc_interface.c ****   * @brief  It returns stator current IqdHF in qd_t format
1371:Src/mc_interface.c ****   * @param  pHandle Pointer on the component instance to work on.
1372:Src/mc_interface.c ****   * @retval qd_t Stator current IqdHF if HFI is selected as main
1373:Src/mc_interface.c ****   *         sensor. Otherwise it returns { 0, 0}.
1374:Src/mc_interface.c ****   */
ARM GAS  /tmp/cc00LnFH.s 			page 72


1375:Src/mc_interface.c **** __weak qd_t MCI_GetIqdHF(MCI_Handle_t *pHandle) //cstat !MISRAC2012-Rule-8.13
1376:Src/mc_interface.c **** {
 2055              		.loc 1 1376 1 is_stmt 1 view -0
 2056              		.cfi_startproc
 2057              		@ args = 0, pretend = 0, frame = 8
 2058              		@ frame_needed = 0, uses_anonymous_args = 0
 2059              		@ link register save eliminated.
1377:Src/mc_interface.c **** #ifdef NULL_PTR_CHECK_MC_INT
1378:Src/mc_interface.c ****   qd_t tempVal;
1379:Src/mc_interface.c **** 
1380:Src/mc_interface.c ****   if (MC_NULL == pHandle)
1381:Src/mc_interface.c ****   {
1382:Src/mc_interface.c ****     tempVal.q = 0;
1383:Src/mc_interface.c ****     tempVal.d = 0;
1384:Src/mc_interface.c ****   }
1385:Src/mc_interface.c ****   else
1386:Src/mc_interface.c ****   {
1387:Src/mc_interface.c ****     tempVal = pHandle->pFOCVars->IqdHF;
1388:Src/mc_interface.c ****   }
1389:Src/mc_interface.c ****   return (tempVal);
1390:Src/mc_interface.c **** #else
1391:Src/mc_interface.c ****   return (pHandle->pFOCVars->IqdHF);
 2060              		.loc 1 1391 3 view .LVU538
 2061              		.loc 1 1391 28 is_stmt 0 view .LVU539
 2062 0000 4368     		ldr	r3, [r0, #4]
 2063 0002 9868     		ldr	r0, [r3, #8]	@ unaligned
 2064              	.LVL158:
 2065              		.loc 1 1391 28 view .LVU540
 2066 0004 83B2     		uxth	r3, r0
1376:Src/mc_interface.c **** #ifdef NULL_PTR_CHECK_MC_INT
 2067              		.loc 1 1376 1 view .LVU541
 2068 0006 82B0     		sub	sp, sp, #8
 2069              	.LCFI34:
 2070              		.cfi_def_cfa_offset 8
1392:Src/mc_interface.c **** #endif
1393:Src/mc_interface.c **** }
 2071              		.loc 1 1393 1 view .LVU542
 2072 0008 63F30F00 		bfi	r0, r3, #0, #16
 2073 000c 02B0     		add	sp, sp, #8
 2074              	.LCFI35:
 2075              		.cfi_def_cfa_offset 0
 2076              		@ sp needed
 2077 000e 7047     		bx	lr
 2078              		.cfi_endproc
 2079              	.LFE1506:
 2081              		.section	.text.MCI_GetIqdref,"ax",%progbits
 2082              		.align	1
 2083              		.p2align 2,,3
 2084              		.weak	MCI_GetIqdref
 2085              		.syntax unified
 2086              		.thumb
 2087              		.thumb_func
 2088              		.fpu fpv4-sp-d16
 2090              	MCI_GetIqdref:
 2091              	.LVL159:
 2092              	.LFB1507:
1394:Src/mc_interface.c **** 
ARM GAS  /tmp/cc00LnFH.s 			page 73


1395:Src/mc_interface.c **** /**
1396:Src/mc_interface.c ****   * @brief  It returns stator current Iqdref in qd_t format
1397:Src/mc_interface.c ****   * @param  pHandle Pointer on the component instance to work on.
1398:Src/mc_interface.c ****   * @retval qd_t Stator current Iqdref
1399:Src/mc_interface.c ****   */
1400:Src/mc_interface.c **** __weak qd_t MCI_GetIqdref(MCI_Handle_t *pHandle) //cstat !MISRAC2012-Rule-8.13
1401:Src/mc_interface.c **** {
 2093              		.loc 1 1401 1 is_stmt 1 view -0
 2094              		.cfi_startproc
 2095              		@ args = 0, pretend = 0, frame = 8
 2096              		@ frame_needed = 0, uses_anonymous_args = 0
 2097              		@ link register save eliminated.
1402:Src/mc_interface.c **** #ifdef NULL_PTR_CHECK_MC_INT
1403:Src/mc_interface.c ****   qd_t tempVal;
1404:Src/mc_interface.c **** 
1405:Src/mc_interface.c ****   if (MC_NULL == pHandle)
1406:Src/mc_interface.c ****   {
1407:Src/mc_interface.c ****     tempVal.q = 0;
1408:Src/mc_interface.c ****     tempVal.d = 0;
1409:Src/mc_interface.c ****   }
1410:Src/mc_interface.c ****   else
1411:Src/mc_interface.c ****   {
1412:Src/mc_interface.c ****     tempVal = pHandle->pFOCVars->Iqdref;
1413:Src/mc_interface.c ****   }
1414:Src/mc_interface.c ****   return (tempVal);
1415:Src/mc_interface.c **** #else
1416:Src/mc_interface.c ****   return (pHandle->pFOCVars->Iqdref);
 2098              		.loc 1 1416 3 view .LVU544
 2099              		.loc 1 1416 28 is_stmt 0 view .LVU545
 2100 0000 4368     		ldr	r3, [r0, #4]
 2101 0002 1869     		ldr	r0, [r3, #16]	@ unaligned
 2102              	.LVL160:
 2103              		.loc 1 1416 28 view .LVU546
 2104 0004 83B2     		uxth	r3, r0
1401:Src/mc_interface.c **** #ifdef NULL_PTR_CHECK_MC_INT
 2105              		.loc 1 1401 1 view .LVU547
 2106 0006 82B0     		sub	sp, sp, #8
 2107              	.LCFI36:
 2108              		.cfi_def_cfa_offset 8
1417:Src/mc_interface.c **** #endif
1418:Src/mc_interface.c **** }
 2109              		.loc 1 1418 1 view .LVU548
 2110 0008 63F30F00 		bfi	r0, r3, #0, #16
 2111 000c 02B0     		add	sp, sp, #8
 2112              	.LCFI37:
 2113              		.cfi_def_cfa_offset 0
 2114              		@ sp needed
 2115 000e 7047     		bx	lr
 2116              		.cfi_endproc
 2117              	.LFE1507:
 2119              		.section	.text.MCI_GetIqdref_F,"ax",%progbits
 2120              		.align	1
 2121              		.p2align 2,,3
 2122              		.weak	MCI_GetIqdref_F
 2123              		.syntax unified
 2124              		.thumb
 2125              		.thumb_func
ARM GAS  /tmp/cc00LnFH.s 			page 74


 2126              		.fpu fpv4-sp-d16
 2128              	MCI_GetIqdref_F:
 2129              	.LVL161:
 2130              	.LFB1508:
1419:Src/mc_interface.c **** 
1420:Src/mc_interface.c **** /**
1421:Src/mc_interface.c ****   * @brief  It returns stator current Iqdref in float_t format
1422:Src/mc_interface.c ****   * @param  pHandle Pointer on the component instance to work on.
1423:Src/mc_interface.c ****   * @retval qd_f_t Stator current Iqdref (in Ampere)
1424:Src/mc_interface.c ****   */
1425:Src/mc_interface.c **** __weak qd_f_t MCI_GetIqdref_F(MCI_Handle_t *pHandle) //cstat !MISRAC2012-Rule-8.13
1426:Src/mc_interface.c **** {
 2131              		.loc 1 1426 1 is_stmt 1 view -0
 2132              		.cfi_startproc
 2133              		@ args = 0, pretend = 0, frame = 16
 2134              		@ frame_needed = 0, uses_anonymous_args = 0
 2135              		@ link register save eliminated.
1427:Src/mc_interface.c ****   qd_f_t iqdref;
 2136              		.loc 1 1427 3 view .LVU550
1428:Src/mc_interface.c **** #ifdef NULL_PTR_CHECK_MC_INT
1429:Src/mc_interface.c ****   if (MC_NULL == pHandle)
1430:Src/mc_interface.c ****   {
1431:Src/mc_interface.c ****     iqdref.d = 0.0f;
1432:Src/mc_interface.c ****     iqdref.q = 0.0f;
1433:Src/mc_interface.c ****   }
1434:Src/mc_interface.c ****   else
1435:Src/mc_interface.c ****   {
1436:Src/mc_interface.c **** #endif
1437:Src/mc_interface.c ****     iqdref.d = (float_t)((float_t)pHandle->pFOCVars->Iqdref.d * pHandle->pScale->current);
 2137              		.loc 1 1437 5 view .LVU551
 2138              		.loc 1 1437 42 is_stmt 0 view .LVU552
 2139 0000 4368     		ldr	r3, [r0, #4]
 2140              		.loc 1 1437 80 view .LVU553
 2141 0002 8269     		ldr	r2, [r0, #24]
 2142              		.loc 1 1437 26 view .LVU554
 2143 0004 B3F91210 		ldrsh	r1, [r3, #18]
1438:Src/mc_interface.c ****     iqdref.q = (float_t)((float_t)pHandle->pFOCVars->Iqdref.q * pHandle->pScale->current);
 2144              		.loc 1 1438 26 view .LVU555
 2145 0008 B3F91030 		ldrsh	r3, [r3, #16]
1437:Src/mc_interface.c ****     iqdref.q = (float_t)((float_t)pHandle->pFOCVars->Iqdref.q * pHandle->pScale->current);
 2146              		.loc 1 1437 26 view .LVU556
 2147 000c 00EE901A 		vmov	s1, r1	@ int
 2148              		.loc 1 1438 26 view .LVU557
 2149 0010 00EE103A 		vmov	s0, r3	@ int
1437:Src/mc_interface.c ****     iqdref.q = (float_t)((float_t)pHandle->pFOCVars->Iqdref.q * pHandle->pScale->current);
 2150              		.loc 1 1437 80 view .LVU558
 2151 0014 5368     		ldr	r3, [r2, #4]	@ unaligned
1437:Src/mc_interface.c ****     iqdref.q = (float_t)((float_t)pHandle->pFOCVars->Iqdref.q * pHandle->pScale->current);
 2152              		.loc 1 1437 26 view .LVU559
 2153 0016 F8EEE00A 		vcvt.f32.s32	s1, s1
1437:Src/mc_interface.c ****     iqdref.q = (float_t)((float_t)pHandle->pFOCVars->Iqdref.q * pHandle->pScale->current);
 2154              		.loc 1 1437 80 view .LVU560
 2155 001a 07EE903A 		vmov	s15, r3	@ int
 2156              	.LVL162:
 2157              		.loc 1 1438 5 is_stmt 1 view .LVU561
1439:Src/mc_interface.c ****  #ifdef NULL_PTR_CHECK_MC_INT
1440:Src/mc_interface.c ****   }
ARM GAS  /tmp/cc00LnFH.s 			page 75


1441:Src/mc_interface.c **** #endif
1442:Src/mc_interface.c ****   return (iqdref);
 2158              		.loc 1 1442 3 view .LVU562
1438:Src/mc_interface.c ****  #ifdef NULL_PTR_CHECK_MC_INT
 2159              		.loc 1 1438 26 is_stmt 0 view .LVU563
 2160 001e B8EEC00A 		vcvt.f32.s32	s0, s0
1443:Src/mc_interface.c **** }
 2161              		.loc 1 1443 1 view .LVU564
 2162 0022 60EEA70A 		vmul.f32	s1, s1, s15
 2163 0026 20EE270A 		vmul.f32	s0, s0, s15
1426:Src/mc_interface.c ****   qd_f_t iqdref;
 2164              		.loc 1 1426 1 view .LVU565
 2165 002a 84B0     		sub	sp, sp, #16
 2166              	.LCFI38:
 2167              		.cfi_def_cfa_offset 16
 2168              		.loc 1 1443 1 view .LVU566
 2169 002c 04B0     		add	sp, sp, #16
 2170              	.LCFI39:
 2171              		.cfi_def_cfa_offset 0
 2172              		@ sp needed
 2173 002e 7047     		bx	lr
 2174              		.cfi_endproc
 2175              	.LFE1508:
 2177              		.section	.text.MCI_GetVqd,"ax",%progbits
 2178              		.align	1
 2179              		.p2align 2,,3
 2180              		.weak	MCI_GetVqd
 2181              		.syntax unified
 2182              		.thumb
 2183              		.thumb_func
 2184              		.fpu fpv4-sp-d16
 2186              	MCI_GetVqd:
 2187              	.LVL163:
 2188              	.LFB1509:
1444:Src/mc_interface.c **** 
1445:Src/mc_interface.c **** /**
1446:Src/mc_interface.c ****   * @brief  It returns stator current Vqd in qd_t format
1447:Src/mc_interface.c ****   * @param  pHandle Pointer on the component instance to work on.
1448:Src/mc_interface.c ****   * @retval qd_t Stator current Vqd
1449:Src/mc_interface.c ****   */
1450:Src/mc_interface.c **** __weak qd_t MCI_GetVqd(MCI_Handle_t *pHandle) //cstat !MISRAC2012-Rule-8.13
1451:Src/mc_interface.c **** {
 2189              		.loc 1 1451 1 is_stmt 1 view -0
 2190              		.cfi_startproc
 2191              		@ args = 0, pretend = 0, frame = 8
 2192              		@ frame_needed = 0, uses_anonymous_args = 0
 2193              		@ link register save eliminated.
1452:Src/mc_interface.c **** #ifdef NULL_PTR_CHECK_MC_INT
1453:Src/mc_interface.c ****   qd_t tempVal;
1454:Src/mc_interface.c **** 
1455:Src/mc_interface.c ****   if (MC_NULL == pHandle)
1456:Src/mc_interface.c ****   {
1457:Src/mc_interface.c ****     tempVal.q = 0;
1458:Src/mc_interface.c ****     tempVal.d = 0;
1459:Src/mc_interface.c ****   }
1460:Src/mc_interface.c ****   else
1461:Src/mc_interface.c ****   {
ARM GAS  /tmp/cc00LnFH.s 			page 76


1462:Src/mc_interface.c ****     tempVal = pHandle->pFOCVars->Vqd;
1463:Src/mc_interface.c ****   }
1464:Src/mc_interface.c ****   return (tempVal);
1465:Src/mc_interface.c **** #else
1466:Src/mc_interface.c ****   return (pHandle->pFOCVars->Vqd);
 2194              		.loc 1 1466 3 view .LVU568
 2195              		.loc 1 1466 28 is_stmt 0 view .LVU569
 2196 0000 4368     		ldr	r3, [r0, #4]
 2197 0002 D3F81600 		ldr	r0, [r3, #22]	@ unaligned
 2198              	.LVL164:
 2199              		.loc 1 1466 28 view .LVU570
 2200 0006 83B2     		uxth	r3, r0
1451:Src/mc_interface.c **** #ifdef NULL_PTR_CHECK_MC_INT
 2201              		.loc 1 1451 1 view .LVU571
 2202 0008 82B0     		sub	sp, sp, #8
 2203              	.LCFI40:
 2204              		.cfi_def_cfa_offset 8
1467:Src/mc_interface.c **** #endif
1468:Src/mc_interface.c **** }
 2205              		.loc 1 1468 1 view .LVU572
 2206 000a 63F30F00 		bfi	r0, r3, #0, #16
 2207 000e 02B0     		add	sp, sp, #8
 2208              	.LCFI41:
 2209              		.cfi_def_cfa_offset 0
 2210              		@ sp needed
 2211 0010 7047     		bx	lr
 2212              		.cfi_endproc
 2213              	.LFE1509:
 2215 0012 00BF     		.section	.text.MCI_GetValphabeta,"ax",%progbits
 2216              		.align	1
 2217              		.p2align 2,,3
 2218              		.weak	MCI_GetValphabeta
 2219              		.syntax unified
 2220              		.thumb
 2221              		.thumb_func
 2222              		.fpu fpv4-sp-d16
 2224              	MCI_GetValphabeta:
 2225              	.LVL165:
 2226              	.LFB1510:
1469:Src/mc_interface.c **** 
1470:Src/mc_interface.c **** /**
1471:Src/mc_interface.c ****   * @brief  It returns stator current Valphabeta in alphabeta_t format
1472:Src/mc_interface.c ****   * @param  pHandle Pointer on the component instance to work on.
1473:Src/mc_interface.c ****   * @retval alphabeta_t Stator current Valphabeta
1474:Src/mc_interface.c ****   */
1475:Src/mc_interface.c **** __weak alphabeta_t MCI_GetValphabeta(MCI_Handle_t *pHandle) //cstat !MISRAC2012-Rule-8.13
1476:Src/mc_interface.c **** {
 2227              		.loc 1 1476 1 is_stmt 1 view -0
 2228              		.cfi_startproc
 2229              		@ args = 0, pretend = 0, frame = 8
 2230              		@ frame_needed = 0, uses_anonymous_args = 0
 2231              		@ link register save eliminated.
1477:Src/mc_interface.c **** #ifdef NULL_PTR_CHECK_MC_INT
1478:Src/mc_interface.c ****   alphabeta_t tempVal;
1479:Src/mc_interface.c **** 
1480:Src/mc_interface.c ****   if (MC_NULL == pHandle)
1481:Src/mc_interface.c ****   {
ARM GAS  /tmp/cc00LnFH.s 			page 77


1482:Src/mc_interface.c ****     tempVal.alpha = 0;
1483:Src/mc_interface.c ****     tempVal.beta = 0;
1484:Src/mc_interface.c ****   }
1485:Src/mc_interface.c ****   else
1486:Src/mc_interface.c ****   {
1487:Src/mc_interface.c ****     tempVal = pHandle->pFOCVars->Valphabeta;
1488:Src/mc_interface.c ****   }
1489:Src/mc_interface.c ****   return (tempVal);
1490:Src/mc_interface.c **** #else
1491:Src/mc_interface.c ****   return (pHandle->pFOCVars->Valphabeta);
 2232              		.loc 1 1491 3 view .LVU574
 2233              		.loc 1 1491 28 is_stmt 0 view .LVU575
 2234 0000 4368     		ldr	r3, [r0, #4]
 2235 0002 D3F81A00 		ldr	r0, [r3, #26]	@ unaligned
 2236              	.LVL166:
 2237              		.loc 1 1491 28 view .LVU576
 2238 0006 83B2     		uxth	r3, r0
1476:Src/mc_interface.c **** #ifdef NULL_PTR_CHECK_MC_INT
 2239              		.loc 1 1476 1 view .LVU577
 2240 0008 82B0     		sub	sp, sp, #8
 2241              	.LCFI42:
 2242              		.cfi_def_cfa_offset 8
1492:Src/mc_interface.c **** #endif
1493:Src/mc_interface.c **** }
 2243              		.loc 1 1493 1 view .LVU578
 2244 000a 63F30F00 		bfi	r0, r3, #0, #16
 2245 000e 02B0     		add	sp, sp, #8
 2246              	.LCFI43:
 2247              		.cfi_def_cfa_offset 0
 2248              		@ sp needed
 2249 0010 7047     		bx	lr
 2250              		.cfi_endproc
 2251              	.LFE1510:
 2253 0012 00BF     		.section	.text.MCI_GetElAngledpp,"ax",%progbits
 2254              		.align	1
 2255              		.p2align 2,,3
 2256              		.weak	MCI_GetElAngledpp
 2257              		.syntax unified
 2258              		.thumb
 2259              		.thumb_func
 2260              		.fpu fpv4-sp-d16
 2262              	MCI_GetElAngledpp:
 2263              	.LVL167:
 2264              	.LFB1511:
1494:Src/mc_interface.c **** 
1495:Src/mc_interface.c **** /**
1496:Src/mc_interface.c ****   * @brief  It returns the rotor electrical angle actually used for reference
1497:Src/mc_interface.c ****   *         frame transformation
1498:Src/mc_interface.c ****   * @param  pHandle Pointer on the component instance to work on.
1499:Src/mc_interface.c ****   * @retval int16_t Rotor electrical angle in dpp format
1500:Src/mc_interface.c ****   */
1501:Src/mc_interface.c **** __weak int16_t MCI_GetElAngledpp(MCI_Handle_t *pHandle) //cstat !MISRAC2012-Rule-8.13
1502:Src/mc_interface.c **** {
 2265              		.loc 1 1502 1 is_stmt 1 view -0
 2266              		.cfi_startproc
 2267              		@ args = 0, pretend = 0, frame = 0
 2268              		@ frame_needed = 0, uses_anonymous_args = 0
ARM GAS  /tmp/cc00LnFH.s 			page 78


 2269              		@ link register save eliminated.
1503:Src/mc_interface.c **** #ifdef NULL_PTR_CHECK_MC_INT
1504:Src/mc_interface.c ****   return ((MC_NULL == pHandle) ? 0 : pHandle->pFOCVars->hElAngle);
1505:Src/mc_interface.c **** #else
1506:Src/mc_interface.c ****   return (pHandle->pFOCVars->hElAngle);
 2270              		.loc 1 1506 3 view .LVU580
 2271              		.loc 1 1506 28 is_stmt 0 view .LVU581
 2272 0000 4368     		ldr	r3, [r0, #4]
1507:Src/mc_interface.c **** #endif
1508:Src/mc_interface.c **** }
 2273              		.loc 1 1508 1 view .LVU582
 2274 0002 B3F92000 		ldrsh	r0, [r3, #32]
 2275              	.LVL168:
 2276              		.loc 1 1508 1 view .LVU583
 2277 0006 7047     		bx	lr
