ARM GAS  /tmp/ccdSbTAn.s 			page 1


   1              		.cpu cortex-m4
   2              		.eabi_attribute 27, 1
   3              		.eabi_attribute 28, 1
   4              		.eabi_attribute 20, 1
   5              		.eabi_attribute 21, 1
   6              		.eabi_attribute 23, 3
   7              		.eabi_attribute 24, 1
   8              		.eabi_attribute 25, 1
   9              		.eabi_attribute 26, 1
  10              		.eabi_attribute 30, 2
  11              		.eabi_attribute 34, 1
  12              		.eabi_attribute 18, 4
  13              		.file	"mc_perf.c"
  14              		.text
  15              	.Ltext0:
  16              		.cfi_sections	.debug_frame
  17              		.section	.text.MC_Perf_Measure_Init,"ax",%progbits
  18              		.align	1
  19              		.p2align 2,,3
  20              		.global	MC_Perf_Measure_Init
  21              		.arch armv7e-m
  22              		.syntax unified
  23              		.thumb
  24              		.thumb_func
  25              		.fpu fpv4-sp-d16
  27              	MC_Perf_Measure_Init:
  28              	.LVL0:
  29              	.LFB1438:
  30              		.file 1 "Src/mc_perf.c"
   1:Src/mc_perf.c **** /**
   2:Src/mc_perf.c ****   ******************************************************************************
   3:Src/mc_perf.c ****   * @file    mc_perf.c
   4:Src/mc_perf.c ****   * @author  Motor Control SDK Team, ST Microelectronics
   5:Src/mc_perf.c ****   * @brief   Execution time measurement
   6:Src/mc_perf.c ****   ******************************************************************************
   7:Src/mc_perf.c ****   * @attention
   8:Src/mc_perf.c ****   *
   9:Src/mc_perf.c ****   * <h2><center>&copy; Copyright (c) 2024 STMicroelectronics.
  10:Src/mc_perf.c ****   * All rights reserved.</center></h2>
  11:Src/mc_perf.c ****   *
  12:Src/mc_perf.c ****   * This software component is licensed by ST under Ultimate Liberty license
  13:Src/mc_perf.c ****   * SLA0044, the "License"; You may not use this file except in compliance with
  14:Src/mc_perf.c ****   * the License. You may obtain a copy of the License at:
  15:Src/mc_perf.c ****   *                             www.st.com/SLA0044
  16:Src/mc_perf.c ****   *
  17:Src/mc_perf.c ****   ******************************************************************************
  18:Src/mc_perf.c ****   */
  19:Src/mc_perf.c **** 
  20:Src/mc_perf.c **** #include "parameters_conversion.h"
  21:Src/mc_perf.c **** #include "mc_perf.h"
  22:Src/mc_perf.c **** 
  23:Src/mc_perf.c **** void MC_Perf_Measure_Init(MC_Perf_Handle_t *pHandle)
  24:Src/mc_perf.c **** {
  31              		.loc 1 24 1 view -0
  32              		.cfi_startproc
  33              		@ args = 0, pretend = 0, frame = 0
  34              		@ frame_needed = 0, uses_anonymous_args = 0
ARM GAS  /tmp/ccdSbTAn.s 			page 2


  35              		@ link register save eliminated.
  25:Src/mc_perf.c **** #ifdef NULL_PTR_CHECK_MC_PERF
  26:Src/mc_perf.c ****   if (MC_NULL == pHandle)
  27:Src/mc_perf.c ****   {
  28:Src/mc_perf.c ****     /* Nothing to do */
  29:Src/mc_perf.c ****   }
  30:Src/mc_perf.c ****   else
  31:Src/mc_perf.c ****   {
  32:Src/mc_perf.c **** #endif
  33:Src/mc_perf.c ****   uint8_t  i;
  36              		.loc 1 33 3 view .LVU1
  34:Src/mc_perf.c ****   Perf_Handle_t  *pHdl;
  37              		.loc 1 34 3 view .LVU2
  35:Src/mc_perf.c **** 
  36:Src/mc_perf.c ****   /* Set Debug mod for DWT IP Enabling */
  37:Src/mc_perf.c ****   CoreDebug->DEMCR |= CoreDebug_DEMCR_TRCENA_Msk;
  38              		.loc 1 37 3 view .LVU3
  39              		.loc 1 37 20 is_stmt 0 view .LVU4
  40 0000 0D49     		ldr	r1, .L7
  38:Src/mc_perf.c **** 
  39:Src/mc_perf.c ****   if (DWT->CTRL != 0U)
  41              		.loc 1 39 10 view .LVU5
  42 0002 0E4A     		ldr	r2, .L7+4
  37:Src/mc_perf.c **** 
  43              		.loc 1 37 20 view .LVU6
  44 0004 CB68     		ldr	r3, [r1, #12]
  45 0006 43F08073 		orr	r3, r3, #16777216
  46 000a CB60     		str	r3, [r1, #12]
  47              		.loc 1 39 3 is_stmt 1 view .LVU7
  48              		.loc 1 39 10 is_stmt 0 view .LVU8
  49 000c 1368     		ldr	r3, [r2]
  50              		.loc 1 39 6 view .LVU9
  51 000e 2BB1     		cbz	r3, .L2
  40:Src/mc_perf.c ****   {                                        /* Check if DWT is present. */
  41:Src/mc_perf.c ****     DWT->CYCCNT  = 0;
  52              		.loc 1 41 5 is_stmt 1 view .LVU10
  53              		.loc 1 41 18 is_stmt 0 view .LVU11
  54 0010 0023     		movs	r3, #0
  55 0012 5360     		str	r3, [r2, #4]
  42:Src/mc_perf.c ****     DWT->CTRL   |= DWT_CTRL_CYCCNTENA_Msk; /* Enable Cycle Counter. */
  56              		.loc 1 42 5 is_stmt 1 view .LVU12
  57              		.loc 1 42 17 is_stmt 0 view .LVU13
  58 0014 1368     		ldr	r3, [r2]
  59 0016 43F00103 		orr	r3, r3, #1
  60 001a 1360     		str	r3, [r2]
  61              	.L2:
  62              	.LVL1:
  43:Src/mc_perf.c ****   }
  44:Src/mc_perf.c ****   else
  45:Src/mc_perf.c ****   {
  46:Src/mc_perf.c ****     /* Nothing to do */
  47:Src/mc_perf.c ****   }
  48:Src/mc_perf.c **** 
  49:Src/mc_perf.c ****     for (i = 0U; i < MC_PERF_NB_TRACES; i++)
  50:Src/mc_perf.c ****     {
  51:Src/mc_perf.c ****       pHdl = &pHandle->MC_Perf_TraceLog[i];
  63              		.loc 1 51 7 is_stmt 1 discriminator 1 view .LVU14
ARM GAS  /tmp/ccdSbTAn.s 			page 3


  52:Src/mc_perf.c ****       pHdl->StartMeasure = 0;
  64              		.loc 1 52 7 discriminator 1 view .LVU15
  65              		.loc 1 52 26 is_stmt 0 discriminator 1 view .LVU16
  66 001c 0023     		movs	r3, #0
  53:Src/mc_perf.c ****       pHdl->DeltaTimeInCycle = 0;
  54:Src/mc_perf.c ****       pHdl->min = UINT32_MAX;
  67              		.loc 1 54 17 discriminator 1 view .LVU17
  68 001e 4FF0FF32 		mov	r2, #-1
  53:Src/mc_perf.c ****       pHdl->DeltaTimeInCycle = 0;
  69              		.loc 1 53 30 discriminator 1 view .LVU18
  70 0022 C0E90233 		strd	r3, r3, [r0, #8]
  71              		.loc 1 54 7 is_stmt 1 discriminator 1 view .LVU19
  52:Src/mc_perf.c ****       pHdl->StartMeasure = 0;
  72              		.loc 1 52 26 is_stmt 0 discriminator 1 view .LVU20
  73 0026 C0E90533 		strd	r3, r3, [r0, #20]
  53:Src/mc_perf.c ****       pHdl->DeltaTimeInCycle = 0;
  74              		.loc 1 53 30 discriminator 1 view .LVU21
  75 002a C361     		str	r3, [r0, #28]
  55:Src/mc_perf.c ****       pHdl->max = 0;
  76              		.loc 1 55 17 discriminator 1 view .LVU22
  77 002c 4362     		str	r3, [r0, #36]
  56:Src/mc_perf.c ****     }
  57:Src/mc_perf.c ****     pHandle->BG_Task_OnGoing = false;
  78              		.loc 1 57 30 discriminator 1 view .LVU23
  79 002e 0370     		strb	r3, [r0]
  58:Src/mc_perf.c ****     pHandle->AccHighFreqTasksCnt = 0;
  80              		.loc 1 58 34 discriminator 1 view .LVU24
  81 0030 4360     		str	r3, [r0, #4]
  54:Src/mc_perf.c ****       pHdl->max = 0;
  82              		.loc 1 54 17 discriminator 1 view .LVU25
  83 0032 0261     		str	r2, [r0, #16]
  55:Src/mc_perf.c ****     }
  84              		.loc 1 55 7 is_stmt 1 discriminator 1 view .LVU26
  85              	.LVL2:
  51:Src/mc_perf.c ****       pHdl->StartMeasure = 0;
  86              		.loc 1 51 7 discriminator 1 view .LVU27
  52:Src/mc_perf.c ****       pHdl->DeltaTimeInCycle = 0;
  87              		.loc 1 52 7 discriminator 1 view .LVU28
  53:Src/mc_perf.c ****       pHdl->min = UINT32_MAX;
  88              		.loc 1 53 7 discriminator 1 view .LVU29
  54:Src/mc_perf.c ****       pHdl->max = 0;
  89              		.loc 1 54 7 discriminator 1 view .LVU30
  54:Src/mc_perf.c ****       pHdl->max = 0;
  90              		.loc 1 54 17 is_stmt 0 discriminator 1 view .LVU31
  91 0034 0262     		str	r2, [r0, #32]
  55:Src/mc_perf.c ****     }
  92              		.loc 1 55 7 is_stmt 1 discriminator 1 view .LVU32
  93              	.LVL3:
  57:Src/mc_perf.c ****     pHandle->AccHighFreqTasksCnt = 0;
  94              		.loc 1 57 5 discriminator 1 view .LVU33
  95              		.loc 1 58 5 discriminator 1 view .LVU34
  59:Src/mc_perf.c **** #ifdef NULL_PTR_CHECK_MC_PERF
  60:Src/mc_perf.c ****   }
  61:Src/mc_perf.c **** #endif
  62:Src/mc_perf.c **** }
  96              		.loc 1 62 1 is_stmt 0 discriminator 1 view .LVU35
  97 0036 7047     		bx	lr
ARM GAS  /tmp/ccdSbTAn.s 			page 4


  98              	.L8:
  99              		.align	2
 100              	.L7:
 101 0038 F0ED00E0 		.word	-536810000
 102 003c 001000E0 		.word	-536866816
 103              		.cfi_endproc
 104              	.LFE1438:
 106              		.section	.text.MC_Perf_Clear,"ax",%progbits
 107              		.align	1
 108              		.p2align 2,,3
 109              		.global	MC_Perf_Clear
 110              		.syntax unified
 111              		.thumb
 112              		.thumb_func
 113              		.fpu fpv4-sp-d16
 115              	MC_Perf_Clear:
 116              	.LVL4:
 117              	.LFB1439:
  63:Src/mc_perf.c **** 
  64:Src/mc_perf.c **** void MC_Perf_Clear(MC_Perf_Handle_t *pHandle,uint8_t bMotor)
  65:Src/mc_perf.c **** {
 118              		.loc 1 65 1 is_stmt 1 view -0
 119              		.cfi_startproc
 120              		@ args = 0, pretend = 0, frame = 0
 121              		@ frame_needed = 0, uses_anonymous_args = 0
 122              		@ link register save eliminated.
  66:Src/mc_perf.c **** #ifdef NULL_PTR_CHECK_MC_PERF
  67:Src/mc_perf.c ****   if (MC_NULL == pHandle)
  68:Src/mc_perf.c ****   {
  69:Src/mc_perf.c ****     /* Nothing to do */
  70:Src/mc_perf.c ****   }
  71:Src/mc_perf.c ****   else
  72:Src/mc_perf.c ****   {
  73:Src/mc_perf.c **** #endif
  74:Src/mc_perf.c ****     uint8_t  i;
 123              		.loc 1 74 5 view .LVU37
  75:Src/mc_perf.c ****     Perf_Handle_t  *pHdl;
 124              		.loc 1 75 5 view .LVU38
  76:Src/mc_perf.c **** 
  77:Src/mc_perf.c ****     for (i = 0U; i < 2; i++)
 125              		.loc 1 77 5 view .LVU39
  78:Src/mc_perf.c ****     {
  79:Src/mc_perf.c ****       pHdl = &pHandle->MC_Perf_TraceLog[2*bMotor+i];
 126              		.loc 1 79 7 view .LVU40
  80:Src/mc_perf.c ****       pHdl->DeltaTimeInCycle = 0;
 127              		.loc 1 80 7 view .LVU41
 128              		.loc 1 80 30 is_stmt 0 view .LVU42
 129 0000 00EB4112 		add	r2, r0, r1, lsl #5
 130 0004 0023     		movs	r3, #0
  81:Src/mc_perf.c ****       pHdl->min = UINT32_MAX;
 131              		.loc 1 81 17 view .LVU43
 132 0006 4FF0FF30 		mov	r0, #-1
 133              	.LVL5:
  80:Src/mc_perf.c ****       pHdl->DeltaTimeInCycle = 0;
 134              		.loc 1 80 30 view .LVU44
 135 000a D360     		str	r3, [r2, #12]
 136              		.loc 1 81 7 is_stmt 1 view .LVU45
ARM GAS  /tmp/ccdSbTAn.s 			page 5


 137              		.loc 1 81 17 is_stmt 0 view .LVU46
 138 000c C2E90403 		strd	r0, r3, [r2, #16]
  82:Src/mc_perf.c ****       pHdl->max = 0;
 139              		.loc 1 82 7 is_stmt 1 view .LVU47
 140              	.LVL6:
  79:Src/mc_perf.c ****       pHdl->DeltaTimeInCycle = 0;
 141              		.loc 1 79 7 view .LVU48
  80:Src/mc_perf.c ****       pHdl->min = UINT32_MAX;
 142              		.loc 1 80 7 view .LVU49
  80:Src/mc_perf.c ****       pHdl->min = UINT32_MAX;
 143              		.loc 1 80 30 is_stmt 0 view .LVU50
 144 0010 D361     		str	r3, [r2, #28]
  81:Src/mc_perf.c ****       pHdl->max = 0;
 145              		.loc 1 81 7 is_stmt 1 view .LVU51
 146              		.loc 1 82 17 is_stmt 0 view .LVU52
 147 0012 C2E90803 		strd	r0, r3, [r2, #32]
 148              	.LVL7:
  83:Src/mc_perf.c ****     }
  84:Src/mc_perf.c **** #ifdef NULL_PTR_CHECK_MC_PERF
  85:Src/mc_perf.c ****   }
  86:Src/mc_perf.c **** #endif
  87:Src/mc_perf.c **** }
 149              		.loc 1 87 1 view .LVU53
 150 0016 7047     		bx	lr
 151              		.cfi_endproc
 152              	.LFE1439:
 154              		.section	.text.MC_BG_Perf_Measure_Start,"ax",%progbits
 155              		.align	1
 156              		.p2align 2,,3
 157              		.global	MC_BG_Perf_Measure_Start
 158              		.syntax unified
 159              		.thumb
 160              		.thumb_func
 161              		.fpu fpv4-sp-d16
 163              	MC_BG_Perf_Measure_Start:
 164              	.LVL8:
 165              	.LFB1440:
  88:Src/mc_perf.c **** 
  89:Src/mc_perf.c **** /**
  90:Src/mc_perf.c ****  * @brief  Start the measure of a code section called in background.
  91:Src/mc_perf.c ****  * @param  pHandle: handler of the performance measurement component.
  92:Src/mc_perf.c ****  * @param  CodeSection: code section to measure.
  93:Src/mc_perf.c ****  */
  94:Src/mc_perf.c **** void MC_BG_Perf_Measure_Start(MC_Perf_Handle_t *pHandle, uint8_t  CodeSection)
  95:Src/mc_perf.c **** {
 166              		.loc 1 95 1 is_stmt 1 view -0
 167              		.cfi_startproc
 168              		@ args = 0, pretend = 0, frame = 0
 169              		@ frame_needed = 0, uses_anonymous_args = 0
 170              		@ link register save eliminated.
  96:Src/mc_perf.c **** #ifdef NULL_PTR_CHECK_MC_PERF
  97:Src/mc_perf.c ****   if (MC_NULL == pHandle)
  98:Src/mc_perf.c ****   {
  99:Src/mc_perf.c ****     /* Nothing to do */
 100:Src/mc_perf.c ****   }
 101:Src/mc_perf.c ****   else
 102:Src/mc_perf.c ****   {
ARM GAS  /tmp/ccdSbTAn.s 			page 6


 103:Src/mc_perf.c **** #endif
 104:Src/mc_perf.c ****     pHandle->BG_Task_OnGoing = true;
 171              		.loc 1 104 5 view .LVU55
 105:Src/mc_perf.c ****     pHandle->AccHighFreqTasksCnt = 0;
 172              		.loc 1 105 34 is_stmt 0 view .LVU56
 173 0000 0022     		movs	r2, #0
 106:Src/mc_perf.c ****     uint32_t StartMeasure = DWT->CYCCNT;
 174              		.loc 1 106 14 view .LVU57
 175 0002 044B     		ldr	r3, .L11
 105:Src/mc_perf.c ****     pHandle->AccHighFreqTasksCnt = 0;
 176              		.loc 1 105 34 view .LVU58
 177 0004 4260     		str	r2, [r0, #4]
 107:Src/mc_perf.c ****     pHandle->MC_Perf_TraceLog[CodeSection].StartMeasure = StartMeasure;
 178              		.loc 1 107 57 view .LVU59
 179 0006 00EB0111 		add	r1, r0, r1, lsl #4
 180              	.LVL9:
 106:Src/mc_perf.c ****     uint32_t StartMeasure = DWT->CYCCNT;
 181              		.loc 1 106 14 view .LVU60
 182 000a 5B68     		ldr	r3, [r3, #4]
 104:Src/mc_perf.c ****     pHandle->AccHighFreqTasksCnt = 0;
 183              		.loc 1 104 30 view .LVU61
 184 000c 0122     		movs	r2, #1
 185 000e 0270     		strb	r2, [r0]
 105:Src/mc_perf.c ****     uint32_t StartMeasure = DWT->CYCCNT;
 186              		.loc 1 105 5 is_stmt 1 view .LVU62
 106:Src/mc_perf.c ****     pHandle->MC_Perf_TraceLog[CodeSection].StartMeasure = StartMeasure;
 187              		.loc 1 106 5 view .LVU63
 188              	.LVL10:
 189              		.loc 1 107 5 view .LVU64
 190              		.loc 1 107 57 is_stmt 0 view .LVU65
 191 0010 8B60     		str	r3, [r1, #8]
 108:Src/mc_perf.c **** #ifdef NULL_PTR_CHECK_MC_PERF
 109:Src/mc_perf.c ****   }
 110:Src/mc_perf.c **** #endif
 111:Src/mc_perf.c **** }
 192              		.loc 1 111 1 view .LVU66
 193 0012 7047     		bx	lr
 194              	.L12:
 195              		.align	2
 196              	.L11:
 197 0014 001000E0 		.word	-536866816
 198              		.cfi_endproc
 199              	.LFE1440:
 201              		.section	.text.MC_Perf_Measure_Stop,"ax",%progbits
 202              		.align	1
 203              		.p2align 2,,3
 204              		.global	MC_Perf_Measure_Stop
 205              		.syntax unified
 206              		.thumb
 207              		.thumb_func
 208              		.fpu fpv4-sp-d16
 210              	MC_Perf_Measure_Stop:
 211              	.LVL11:
 212              	.LFB1441:
 112:Src/mc_perf.c **** 
 113:Src/mc_perf.c **** /**
 114:Src/mc_perf.c ****  * @brief  Stop the measurement of a code section and compute elapse time.
ARM GAS  /tmp/ccdSbTAn.s 			page 7


 115:Src/mc_perf.c ****  * @param  pHandle: handler of the performance measurement component.
 116:Src/mc_perf.c ****  * @param  CodeSection: code section to measure.
 117:Src/mc_perf.c ****  */
 118:Src/mc_perf.c **** void MC_Perf_Measure_Stop(MC_Perf_Handle_t *pHandle, uint8_t  CodeSection)
 119:Src/mc_perf.c **** {
 213              		.loc 1 119 1 is_stmt 1 view -0
 214              		.cfi_startproc
 215              		@ args = 0, pretend = 0, frame = 0
 216              		@ frame_needed = 0, uses_anonymous_args = 0
 217              		@ link register save eliminated.
 120:Src/mc_perf.c **** #ifdef NULL_PTR_CHECK_MC_PERF
 121:Src/mc_perf.c ****   if (MC_NULL == pHandle)
 122:Src/mc_perf.c ****   {
 123:Src/mc_perf.c ****     /* Nothing to do */
 124:Src/mc_perf.c ****   }
 125:Src/mc_perf.c ****   else
 126:Src/mc_perf.c ****   {
 127:Src/mc_perf.c **** #endif
 128:Src/mc_perf.c ****     uint32_t StopMeasure;
 218              		.loc 1 128 5 view .LVU68
 129:Src/mc_perf.c ****     Perf_Handle_t *pHdl;
 219              		.loc 1 129 5 view .LVU69
 130:Src/mc_perf.c **** 
 131:Src/mc_perf.c ****     StopMeasure = DWT->CYCCNT;
 220              		.loc 1 131 5 view .LVU70
 119:Src/mc_perf.c **** #ifdef NULL_PTR_CHECK_MC_PERF
 221              		.loc 1 119 1 is_stmt 0 view .LVU71
 222 0000 30B4     		push	{r4, r5}
 223              	.LCFI0:
 224              		.cfi_def_cfa_offset 8
 225              		.cfi_offset 4, -8
 226              		.cfi_offset 5, -4
 132:Src/mc_perf.c ****     pHdl = &pHandle->MC_Perf_TraceLog[CodeSection];
 133:Src/mc_perf.c **** 
 134:Src/mc_perf.c ****     /* Check Overflow cases */
 135:Src/mc_perf.c ****     if (StopMeasure < pHdl->StartMeasure)
 227              		.loc 1 135 27 view .LVU72
 228 0002 0C01     		lsls	r4, r1, #4
 229 0004 0319     		adds	r3, r0, r4
 131:Src/mc_perf.c ****     pHdl = &pHandle->MC_Perf_TraceLog[CodeSection];
 230              		.loc 1 131 17 view .LVU73
 231 0006 0E4A     		ldr	r2, .L23
 232              		.loc 1 135 27 view .LVU74
 233 0008 9B68     		ldr	r3, [r3, #8]
 131:Src/mc_perf.c ****     pHdl = &pHandle->MC_Perf_TraceLog[CodeSection];
 234              		.loc 1 131 17 view .LVU75
 235 000a 5268     		ldr	r2, [r2, #4]
 236              	.LVL12:
 132:Src/mc_perf.c ****     pHdl = &pHandle->MC_Perf_TraceLog[CodeSection];
 237              		.loc 1 132 5 is_stmt 1 view .LVU76
 238              		.loc 1 135 5 view .LVU77
 136:Src/mc_perf.c ****     {
 137:Src/mc_perf.c ****       pHdl->DeltaTimeInCycle = (UINT32_MAX - pHdl->StartMeasure) + StopMeasure;
 138:Src/mc_perf.c ****     }
 139:Src/mc_perf.c ****     else
 140:Src/mc_perf.c ****     {
 141:Src/mc_perf.c ****       pHdl->DeltaTimeInCycle = StopMeasure - pHdl->StartMeasure;
ARM GAS  /tmp/ccdSbTAn.s 			page 8


 142:Src/mc_perf.c ****     }
 143:Src/mc_perf.c **** 
 144:Src/mc_perf.c ****     if(pHandle->BG_Task_OnGoing)
 239              		.loc 1 144 7 is_stmt 0 view .LVU78
 240 000c 0578     		ldrb	r5, [r0]	@ zero_extendqisi2
 135:Src/mc_perf.c ****     {
 241              		.loc 1 135 8 view .LVU79
 242 000e 9342     		cmp	r3, r2
 137:Src/mc_perf.c ****     }
 243              		.loc 1 137 7 is_stmt 1 view .LVU80
 137:Src/mc_perf.c ****     }
 244              		.loc 1 137 66 is_stmt 0 view .LVU81
 245 0010 88BF     		it	hi
 246 0012 02F1FF32 		addhi	r2, r2, #-1
 247              	.LVL13:
 141:Src/mc_perf.c ****     }
 248              		.loc 1 141 7 is_stmt 1 view .LVU82
 141:Src/mc_perf.c ****     }
 249              		.loc 1 141 44 is_stmt 0 view .LVU83
 250 0016 D31A     		subs	r3, r2, r3
 251 0018 0219     		adds	r2, r0, r4
 252              	.LVL14:
 141:Src/mc_perf.c ****     }
 253              		.loc 1 141 44 view .LVU84
 254 001a D360     		str	r3, [r2, #12]
 255              		.loc 1 144 5 is_stmt 1 view .LVU85
 256              		.loc 1 144 7 is_stmt 0 view .LVU86
 257 001c 15B1     		cbz	r5, .L16
 145:Src/mc_perf.c ****     {
 146:Src/mc_perf.c ****       pHandle->AccHighFreqTasksCnt += pHdl->DeltaTimeInCycle;
 258              		.loc 1 146 7 is_stmt 1 view .LVU87
 259              		.loc 1 146 36 is_stmt 0 view .LVU88
 260 001e 4268     		ldr	r2, [r0, #4]
 261              	.LVL15:
 262              		.loc 1 146 36 view .LVU89
 263 0020 1A44     		add	r2, r2, r3
 264 0022 4260     		str	r2, [r0, #4]
 265              	.L16:
 147:Src/mc_perf.c ****     }
 148:Src/mc_perf.c ****     else
 149:Src/mc_perf.c ****     {
 150:Src/mc_perf.c ****       /* Nothing to do */
 151:Src/mc_perf.c ****     }
 266              		.loc 1 151 5 is_stmt 1 view .LVU90
 152:Src/mc_perf.c **** 
 153:Src/mc_perf.c ****     if (pHdl->max < pHdl->DeltaTimeInCycle)
 267              		.loc 1 153 5 view .LVU91
 268 0024 00EB0111 		add	r1, r0, r1, lsl #4
 269              	.LVL16:
 270              		.loc 1 153 8 is_stmt 0 view .LVU92
 271 0028 4A69     		ldr	r2, [r1, #20]
 272 002a 9A42     		cmp	r2, r3
 273 002c 02D2     		bcs	.L17
 154:Src/mc_perf.c ****     {
 155:Src/mc_perf.c ****       pHdl->max = pHdl->DeltaTimeInCycle;
 274              		.loc 1 155 7 is_stmt 1 view .LVU93
 275 002e 2044     		add	r0, r0, r4
ARM GAS  /tmp/ccdSbTAn.s 			page 9


 276              	.LVL17:
 277              		.loc 1 155 17 is_stmt 0 view .LVU94
 278 0030 4B61     		str	r3, [r1, #20]
 279 0032 C368     		ldr	r3, [r0, #12]
 280              	.L17:
 156:Src/mc_perf.c ****     }
 157:Src/mc_perf.c ****     else
 158:Src/mc_perf.c ****     {
 159:Src/mc_perf.c ****       /* Nothing to do */
 160:Src/mc_perf.c ****     }
 281              		.loc 1 160 5 is_stmt 1 view .LVU95
 161:Src/mc_perf.c **** 
 162:Src/mc_perf.c ****     if (pHdl->min > pHdl->DeltaTimeInCycle)
 282              		.loc 1 162 5 view .LVU96
 283              		.loc 1 162 8 is_stmt 0 view .LVU97
 284 0034 0A69     		ldr	r2, [r1, #16]
 285 0036 9342     		cmp	r3, r2
 163:Src/mc_perf.c ****     {
 164:Src/mc_perf.c ****       pHdl->min = pHdl->DeltaTimeInCycle;
 286              		.loc 1 164 7 is_stmt 1 view .LVU98
 287              		.loc 1 164 17 is_stmt 0 view .LVU99
 288 0038 38BF     		it	cc
 289 003a 0B61     		strcc	r3, [r1, #16]
 165:Src/mc_perf.c ****     }
 166:Src/mc_perf.c ****     else
 167:Src/mc_perf.c ****     {
 168:Src/mc_perf.c ****       /* Nothing to do */
 169:Src/mc_perf.c ****     }
 290              		.loc 1 169 5 is_stmt 1 view .LVU100
 170:Src/mc_perf.c **** #ifdef NULL_PTR_CHECK_MC_PERF
 171:Src/mc_perf.c ****   }
 172:Src/mc_perf.c **** #endif
 173:Src/mc_perf.c **** }
 291              		.loc 1 173 1 is_stmt 0 view .LVU101
 292 003c 30BC     		pop	{r4, r5}
 293              	.LCFI1:
 294              		.cfi_restore 5
 295              		.cfi_restore 4
 296              		.cfi_def_cfa_offset 0
 297              	.LVL18:
 298              		.loc 1 173 1 view .LVU102
 299 003e 7047     		bx	lr
 300              	.L24:
 301              		.align	2
 302              	.L23:
 303 0040 001000E0 		.word	-536866816
 304              		.cfi_endproc
 305              	.LFE1441:
 307              		.section	.text.MC_BG_Perf_Measure_Stop,"ax",%progbits
 308              		.align	1
 309              		.p2align 2,,3
 310              		.global	MC_BG_Perf_Measure_Stop
 311              		.syntax unified
 312              		.thumb
 313              		.thumb_func
 314              		.fpu fpv4-sp-d16
 316              	MC_BG_Perf_Measure_Stop:
ARM GAS  /tmp/ccdSbTAn.s 			page 10


 317              	.LVL19:
 318              	.LFB1442:
 174:Src/mc_perf.c **** 
 175:Src/mc_perf.c **** /**
 176:Src/mc_perf.c ****  * @brief  Stop the measurement of a code section in BG and compute elapse time.
 177:Src/mc_perf.c ****  * @param  pHandle: handler of the performance measurement component.
 178:Src/mc_perf.c ****  * @param  CodeSection: code section to measure.
 179:Src/mc_perf.c ****  */
 180:Src/mc_perf.c **** void MC_BG_Perf_Measure_Stop(MC_Perf_Handle_t *pHandle, uint8_t CodeSection)
 181:Src/mc_perf.c **** {
 319              		.loc 1 181 1 is_stmt 1 view -0
 320              		.cfi_startproc
 321              		@ args = 0, pretend = 0, frame = 0
 322              		@ frame_needed = 0, uses_anonymous_args = 0
 323              		@ link register save eliminated.
 182:Src/mc_perf.c **** #ifdef NULL_PTR_CHECK_MC_PERF
 183:Src/mc_perf.c ****   if (MC_NULL == pHandle)
 184:Src/mc_perf.c ****   {
 185:Src/mc_perf.c ****     /* Nothing to do */
 186:Src/mc_perf.c ****   }
 187:Src/mc_perf.c ****   else
 188:Src/mc_perf.c ****   {
 189:Src/mc_perf.c **** #endif
 190:Src/mc_perf.c ****     Perf_Handle_t *pHdl;
 324              		.loc 1 190 5 view .LVU104
 191:Src/mc_perf.c ****     uint32_t StopMeasure = DWT->CYCCNT;
 325              		.loc 1 191 5 view .LVU105
 181:Src/mc_perf.c **** #ifdef NULL_PTR_CHECK_MC_PERF
 326              		.loc 1 181 1 is_stmt 0 view .LVU106
 327 0000 30B4     		push	{r4, r5}
 328              	.LCFI2:
 329              		.cfi_def_cfa_offset 8
 330              		.cfi_offset 4, -8
 331              		.cfi_offset 5, -4
 192:Src/mc_perf.c ****     pHandle->BG_Task_OnGoing = false;
 193:Src/mc_perf.c **** 
 194:Src/mc_perf.c ****     pHdl  = &pHandle->MC_Perf_TraceLog[CodeSection];
 195:Src/mc_perf.c **** 
 196:Src/mc_perf.c ****     /* Check Overflow cases */
 197:Src/mc_perf.c ****     if (StopMeasure < pHdl->StartMeasure)
 332              		.loc 1 197 27 view .LVU107
 333 0002 0C01     		lsls	r4, r1, #4
 191:Src/mc_perf.c ****     pHandle->BG_Task_OnGoing = false;
 334              		.loc 1 191 14 view .LVU108
 335 0004 104A     		ldr	r2, .L32
 336              		.loc 1 197 27 view .LVU109
 337 0006 0319     		adds	r3, r0, r4
 191:Src/mc_perf.c ****     pHandle->BG_Task_OnGoing = false;
 338              		.loc 1 191 14 view .LVU110
 339 0008 5268     		ldr	r2, [r2, #4]
 340              	.LVL20:
 192:Src/mc_perf.c ****     pHandle->BG_Task_OnGoing = false;
 341              		.loc 1 192 5 is_stmt 1 view .LVU111
 342              		.loc 1 197 27 is_stmt 0 view .LVU112
 343 000a 9B68     		ldr	r3, [r3, #8]
 344              		.loc 1 197 8 view .LVU113
 345 000c 9342     		cmp	r3, r2
ARM GAS  /tmp/ccdSbTAn.s 			page 11


 198:Src/mc_perf.c ****     {
 199:Src/mc_perf.c ****       pHdl->DeltaTimeInCycle = (UINT32_MAX - pHdl->StartMeasure) + StopMeasure;
 346              		.loc 1 199 66 view .LVU114
 347 000e 88BF     		it	hi
 348 0010 02F1FF32 		addhi	r2, r2, #-1
 349              	.LVL21:
 200:Src/mc_perf.c ****     }
 201:Src/mc_perf.c ****     else
 202:Src/mc_perf.c ****     {
 203:Src/mc_perf.c ****       pHdl->DeltaTimeInCycle = StopMeasure - pHdl->StartMeasure;
 350              		.loc 1 203 44 view .LVU115
 351 0014 D31A     		subs	r3, r2, r3
 352 0016 0219     		adds	r2, r0, r4
 192:Src/mc_perf.c **** 
 353              		.loc 1 192 30 view .LVU116
 354 0018 0025     		movs	r5, #0
 355 001a 0570     		strb	r5, [r0]
 194:Src/mc_perf.c **** 
 356              		.loc 1 194 5 is_stmt 1 view .LVU117
 357              	.LVL22:
 197:Src/mc_perf.c ****     {
 358              		.loc 1 197 5 view .LVU118
 199:Src/mc_perf.c ****     }
 359              		.loc 1 199 7 view .LVU119
 360              		.loc 1 203 7 view .LVU120
 361 001c D360     		str	r3, [r2, #12]
 204:Src/mc_perf.c ****     }
 205:Src/mc_perf.c **** 
 206:Src/mc_perf.c ****     if (pHdl->DeltaTimeInCycle > pHandle->AccHighFreqTasksCnt)
 362              		.loc 1 206 5 view .LVU121
 363              		.loc 1 206 41 is_stmt 0 view .LVU122
 364 001e 4568     		ldr	r5, [r0, #4]
 365              		.loc 1 206 8 view .LVU123
 366 0020 9D42     		cmp	r5, r3
 207:Src/mc_perf.c ****     {
 208:Src/mc_perf.c ****       pHdl->DeltaTimeInCycle -= pHandle->AccHighFreqTasksCnt;
 367              		.loc 1 208 7 is_stmt 1 view .LVU124
 209:Src/mc_perf.c ****     }
 210:Src/mc_perf.c ****     else
 211:Src/mc_perf.c ****     {
 212:Src/mc_perf.c ****       /* Nothing to do */
 213:Src/mc_perf.c ****     }
 368              		.loc 1 213 5 view .LVU125
 214:Src/mc_perf.c ****     if (pHdl->max < pHdl->DeltaTimeInCycle)
 369              		.loc 1 214 5 view .LVU126
 208:Src/mc_perf.c ****     }
 370              		.loc 1 208 30 is_stmt 0 view .LVU127
 371 0022 38BF     		it	cc
 372 0024 5B1B     		subcc	r3, r3, r5
 373 0026 00EB0111 		add	r1, r0, r1, lsl #4
 374              	.LVL23:
 208:Src/mc_perf.c ****     }
 375              		.loc 1 208 30 view .LVU128
 376 002a 38BF     		it	cc
 377 002c D360     		strcc	r3, [r2, #12]
 378              		.loc 1 214 8 view .LVU129
 379 002e 4A69     		ldr	r2, [r1, #20]
ARM GAS  /tmp/ccdSbTAn.s 			page 12


 380              	.LVL24:
 381              		.loc 1 214 8 view .LVU130
 382 0030 9342     		cmp	r3, r2
 383 0032 02D9     		bls	.L29
 215:Src/mc_perf.c ****     {
 216:Src/mc_perf.c ****       pHdl->max = pHdl->DeltaTimeInCycle;
 384              		.loc 1 216 7 is_stmt 1 view .LVU131
 385 0034 2044     		add	r0, r0, r4
 386              	.LVL25:
 387              		.loc 1 216 17 is_stmt 0 view .LVU132
 388 0036 4B61     		str	r3, [r1, #20]
 389 0038 C368     		ldr	r3, [r0, #12]
 390              	.L29:
 217:Src/mc_perf.c ****     }
 218:Src/mc_perf.c ****     else
 219:Src/mc_perf.c ****     {
 220:Src/mc_perf.c ****       /* Nothing to do */
 221:Src/mc_perf.c ****     }
 391              		.loc 1 221 5 is_stmt 1 view .LVU133
 222:Src/mc_perf.c **** 
 223:Src/mc_perf.c ****     if (pHdl->min > pHdl->DeltaTimeInCycle)
 392              		.loc 1 223 5 view .LVU134
 393              		.loc 1 223 8 is_stmt 0 view .LVU135
 394 003a 0A69     		ldr	r2, [r1, #16]
 395 003c 9342     		cmp	r3, r2
 224:Src/mc_perf.c ****     {
 225:Src/mc_perf.c ****       pHdl->min = pHdl->DeltaTimeInCycle;
 396              		.loc 1 225 7 is_stmt 1 view .LVU136
 397              		.loc 1 225 17 is_stmt 0 view .LVU137
 398 003e 38BF     		it	cc
 399 0040 0B61     		strcc	r3, [r1, #16]
 226:Src/mc_perf.c ****     }
 227:Src/mc_perf.c ****     else
 228:Src/mc_perf.c ****     {
 229:Src/mc_perf.c ****       /* Nothing to do */
 230:Src/mc_perf.c ****     }
 400              		.loc 1 230 5 is_stmt 1 view .LVU138
 231:Src/mc_perf.c **** #ifdef NULL_PTR_CHECK_MC_PERF
 232:Src/mc_perf.c ****   }
 233:Src/mc_perf.c **** #endif
 234:Src/mc_perf.c **** }
 401              		.loc 1 234 1 is_stmt 0 view .LVU139
 402 0042 30BC     		pop	{r4, r5}
 403              	.LCFI3:
 404              		.cfi_restore 5
 405              		.cfi_restore 4
 406              		.cfi_def_cfa_offset 0
 407 0044 7047     		bx	lr
 408              	.L33:
 409 0046 00BF     		.align	2
 410              	.L32:
 411 0048 001000E0 		.word	-536866816
 412              		.cfi_endproc
 413              	.LFE1442:
 415              		.section	.text.MC_Perf_GetCPU_Load,"ax",%progbits
 416              		.align	1
 417              		.p2align 2,,3
ARM GAS  /tmp/ccdSbTAn.s 			page 13


 418              		.global	MC_Perf_GetCPU_Load
 419              		.syntax unified
 420              		.thumb
 421              		.thumb_func
 422              		.fpu fpv4-sp-d16
 424              	MC_Perf_GetCPU_Load:
 425              	.LVL26:
 426              	.LFB1443:
 235:Src/mc_perf.c **** 
 236:Src/mc_perf.c **** /**
 237:Src/mc_perf.c ****  * @brief  It returns the current CPU load of both High and Medium frequency tasks.
 238:Src/mc_perf.c ****  * @param  pHandle: handler of the performance measurement component.
 239:Src/mc_perf.c ****  * @retval CPU load.
 240:Src/mc_perf.c ****  */
 241:Src/mc_perf.c **** float_t MC_Perf_GetCPU_Load(const MC_Perf_Handle_t *pHandle)
 242:Src/mc_perf.c **** {
 427              		.loc 1 242 1 is_stmt 1 view -0
 428              		.cfi_startproc
 429              		@ args = 0, pretend = 0, frame = 0
 430              		@ frame_needed = 0, uses_anonymous_args = 0
 431              		@ link register save eliminated.
 243:Src/mc_perf.c ****   float_t cpuLoad = 0.0f;
 432              		.loc 1 243 3 view .LVU141
 244:Src/mc_perf.c **** #ifdef NULL_PTR_CHECK_MC_PERF
 245:Src/mc_perf.c ****   if (MC_NULL == pHandle)
 246:Src/mc_perf.c ****   {
 247:Src/mc_perf.c ****     /* Nothing to do */
 248:Src/mc_perf.c ****   }
 249:Src/mc_perf.c ****   else
 250:Src/mc_perf.c ****   {
 251:Src/mc_perf.c **** #endif
 252:Src/mc_perf.c ****     float_t MFT_cpu_loadM1;
 433              		.loc 1 252 5 view .LVU142
 253:Src/mc_perf.c ****     float_t HFT_cpu_loadM1;
 434              		.loc 1 253 5 view .LVU143
 254:Src/mc_perf.c **** 
 255:Src/mc_perf.c ****     MFT_cpu_loadM1 = (((float_t)pHandle->MC_Perf_TraceLog[MEASURE_TSK_MediumFrequencyTaskM1].DeltaT
 435              		.loc 1 255 5 view .LVU144
 256:Src/mc_perf.c ****                    / (float_t)SYSCLK_FREQ ) * (float_t)MEDIUM_FREQUENCY_TASK_RATE);
 257:Src/mc_perf.c ****     HFT_cpu_loadM1 = (((float_t)pHandle->MC_Perf_TraceLog[MEASURE_TSK_HighFrequencyTaskM1].DeltaTim
 436              		.loc 1 257 5 view .LVU145
 258:Src/mc_perf.c ****                    / (float_t)SYSCLK_FREQ ) * (float_t)(PWM_FREQUENCY/REGULATION_EXECUTION_RATE));
 259:Src/mc_perf.c **** 
 260:Src/mc_perf.c ****     cpuLoad = MFT_cpu_loadM1 + HFT_cpu_loadM1;
 437              		.loc 1 260 5 view .LVU146
 257:Src/mc_perf.c ****                    / (float_t)SYSCLK_FREQ ) * (float_t)(PWM_FREQUENCY/REGULATION_EXECUTION_RATE));
 438              		.loc 1 257 24 is_stmt 0 view .LVU147
 439 0000 90ED037A 		vldr.32	s14, [r0, #12]	@ int
 256:Src/mc_perf.c ****                    / (float_t)SYSCLK_FREQ ) * (float_t)MEDIUM_FREQUENCY_TASK_RATE);
 440              		.loc 1 256 20 view .LVU148
 441 0004 DFED106A 		vldr.32	s13, .L37
 255:Src/mc_perf.c ****                    / (float_t)SYSCLK_FREQ ) * (float_t)MEDIUM_FREQUENCY_TASK_RATE);
 442              		.loc 1 255 24 view .LVU149
 443 0008 D0ED077A 		vldr.32	s15, [r0, #28]	@ int
 257:Src/mc_perf.c ****                    / (float_t)SYSCLK_FREQ ) * (float_t)(PWM_FREQUENCY/REGULATION_EXECUTION_RATE));
 444              		.loc 1 257 20 view .LVU150
 445 000c DFED0F5A 		vldr.32	s11, .L37+4
ARM GAS  /tmp/ccdSbTAn.s 			page 14


 446              		.loc 1 260 13 view .LVU151
 447 0010 9FED0F6A 		vldr.32	s12, .L37+8
 257:Src/mc_perf.c ****                    / (float_t)SYSCLK_FREQ ) * (float_t)(PWM_FREQUENCY/REGULATION_EXECUTION_RATE));
 448              		.loc 1 257 24 view .LVU152
 449 0014 B8EE477A 		vcvt.f32.u32	s14, s14
 255:Src/mc_perf.c ****                    / (float_t)SYSCLK_FREQ ) * (float_t)MEDIUM_FREQUENCY_TASK_RATE);
 450              		.loc 1 255 24 view .LVU153
 451 0018 F8EE677A 		vcvt.f32.u32	s15, s15
 258:Src/mc_perf.c ****                    / (float_t)SYSCLK_FREQ ) * (float_t)(PWM_FREQUENCY/REGULATION_EXECUTION_RATE));
 452              		.loc 1 258 20 view .LVU154
 453 001c 87EE260A 		vdiv.f32	s0, s14, s13
 256:Src/mc_perf.c ****     HFT_cpu_loadM1 = (((float_t)pHandle->MC_Perf_TraceLog[MEASURE_TSK_HighFrequencyTaskM1].DeltaTim
 454              		.loc 1 256 20 view .LVU155
 455 0020 87EEA67A 		vdiv.f32	s14, s15, s13
 257:Src/mc_perf.c ****                    / (float_t)SYSCLK_FREQ ) * (float_t)(PWM_FREQUENCY/REGULATION_EXECUTION_RATE));
 456              		.loc 1 257 20 view .LVU156
 457 0024 20EE250A 		vmul.f32	s0, s0, s11
 261:Src/mc_perf.c **** 
 262:Src/mc_perf.c ****     cpuLoad = (cpuLoad > 1.0f) ? 1.0f : cpuLoad;
 458              		.loc 1 262 39 view .LVU157
 459 0028 F7EE007A 		vmov.f32	s15, #1.0e+0
 260:Src/mc_perf.c **** 
 460              		.loc 1 260 13 view .LVU158
 461 002c A7EE060A 		vfma.f32	s0, s14, s12
 462              	.LVL27:
 463              		.loc 1 262 5 is_stmt 1 view .LVU159
 464              		.loc 1 262 39 is_stmt 0 view .LVU160
 465 0030 B4EEE70A 		vcmpe.f32	s0, s15
 466 0034 F1EE10FA 		vmrs	APSR_nzcv, FPSCR
 467 0038 DABF     		itte	le
 468 003a DFED067A 		vldrle.32	s15, .L37+12
 469 003e 20EE270A 		vmulle.f32	s0, s0, s15
 470              	.LVL28:
 471              		.loc 1 262 39 view .LVU161
 472 0042 9FED040A 		vldrgt.32	s0, .L37+12
 473              	.LVL29:
 263:Src/mc_perf.c ****     cpuLoad *= 100.0f;
 474              		.loc 1 263 5 is_stmt 1 view .LVU162
 264:Src/mc_perf.c **** #ifdef NULL_PTR_CHECK_MC_PERF
 265:Src/mc_perf.c ****   }
 266:Src/mc_perf.c **** #endif
 267:Src/mc_perf.c ****   return (cpuLoad);
 475              		.loc 1 267 3 view .LVU163
 268:Src/mc_perf.c **** }
 476              		.loc 1 268 1 is_stmt 0 view .LVU164
 477 0046 7047     		bx	lr
 478              	.L38:
 479              		.align	2
 480              	.L37:
 481 0048 E81F224D 		.word	1294082024
 482 004c 00409C46 		.word	1184645120
 483 0050 00007A44 		.word	1148846080
 484 0054 0000C842 		.word	1120403456
 485              		.cfi_endproc
 486              	.LFE1443:
 488              		.section	.text.MC_Perf_GetMaxCPU_Load,"ax",%progbits
 489              		.align	1
ARM GAS  /tmp/ccdSbTAn.s 			page 15


 490              		.p2align 2,,3
 491              		.global	MC_Perf_GetMaxCPU_Load
 492              		.syntax unified
 493              		.thumb
 494              		.thumb_func
 495              		.fpu fpv4-sp-d16
 497              	MC_Perf_GetMaxCPU_Load:
 498              	.LVL30:
 499              	.LFB1444:
 269:Src/mc_perf.c **** 
 270:Src/mc_perf.c **** /**
 271:Src/mc_perf.c ****  * @brief  It returns the maximum CPU load of both High and Medium frequency tasks.
 272:Src/mc_perf.c ****  * @param  pHandle: handler of the performance measurement component.
 273:Src/mc_perf.c ****  * @retval Max CPU load measured.
 274:Src/mc_perf.c ****  */
 275:Src/mc_perf.c **** float_t MC_Perf_GetMaxCPU_Load(const MC_Perf_Handle_t *pHandle)
 276:Src/mc_perf.c **** {
 500              		.loc 1 276 1 is_stmt 1 view -0
 501              		.cfi_startproc
 502              		@ args = 0, pretend = 0, frame = 0
 503              		@ frame_needed = 0, uses_anonymous_args = 0
 504              		@ link register save eliminated.
 277:Src/mc_perf.c ****   float_t cpuLoad = 0.0f;
 505              		.loc 1 277 3 view .LVU166
 278:Src/mc_perf.c **** #ifdef NULL_PTR_CHECK_MC_PERF
 279:Src/mc_perf.c ****   if (MC_NULL == pHandle)
 280:Src/mc_perf.c ****   {
 281:Src/mc_perf.c ****     /* Nothing to do */
 282:Src/mc_perf.c ****   }
 283:Src/mc_perf.c ****   else
 284:Src/mc_perf.c ****   {
 285:Src/mc_perf.c **** #endif
 286:Src/mc_perf.c ****     cpuLoad += (((float_t)pHandle->MC_Perf_TraceLog[MEASURE_TSK_MediumFrequencyTaskM1].max / (float
 506              		.loc 1 286 5 view .LVU167
 507              		.loc 1 286 18 is_stmt 0 view .LVU168
 508 0000 90ED097A 		vldr.32	s14, [r0, #36]	@ int
 509              		.loc 1 286 92 view .LVU169
 510 0004 DFED116A 		vldr.32	s13, .L42
 287:Src/mc_perf.c ****                    * (float_t)MEDIUM_FREQUENCY_TASK_RATE);
 288:Src/mc_perf.c ****     cpuLoad += (((float_t)pHandle->MC_Perf_TraceLog[MEASURE_TSK_HighFrequencyTaskM1].max / (float_t
 511              		.loc 1 288 18 view .LVU170
 512 0008 D0ED057A 		vldr.32	s15, [r0, #20]	@ int
 286:Src/mc_perf.c ****                    * (float_t)MEDIUM_FREQUENCY_TASK_RATE);
 513              		.loc 1 286 13 view .LVU171
 514 000c DFED105A 		vldr.32	s11, .L42+4
 515 0010 9FED100A 		vldr.32	s0, .L42+8
 516              		.loc 1 288 13 view .LVU172
 517 0014 9FED106A 		vldr.32	s12, .L42+12
 286:Src/mc_perf.c ****                    * (float_t)MEDIUM_FREQUENCY_TASK_RATE);
 518              		.loc 1 286 18 view .LVU173
 519 0018 B8EE477A 		vcvt.f32.u32	s14, s14
 520              		.loc 1 288 18 view .LVU174
 521 001c F8EE677A 		vcvt.f32.u32	s15, s15
 286:Src/mc_perf.c ****                    * (float_t)MEDIUM_FREQUENCY_TASK_RATE);
 522              		.loc 1 286 92 view .LVU175
 523 0020 87EE265A 		vdiv.f32	s10, s14, s13
 524              		.loc 1 288 90 view .LVU176
ARM GAS  /tmp/ccdSbTAn.s 			page 16


 525 0024 87EEA67A 		vdiv.f32	s14, s15, s13
 286:Src/mc_perf.c ****                    * (float_t)MEDIUM_FREQUENCY_TASK_RATE);
 526              		.loc 1 286 13 view .LVU177
 527 0028 A5EE250A 		vfma.f32	s0, s10, s11
 528              	.LVL31:
 529              		.loc 1 288 5 is_stmt 1 view .LVU178
 289:Src/mc_perf.c ****                    * (float_t)(PWM_FREQUENCY/REGULATION_EXECUTION_RATE));
 290:Src/mc_perf.c **** 
 291:Src/mc_perf.c ****     cpuLoad = (cpuLoad > 1.0f) ? 1.0f : cpuLoad;
 530              		.loc 1 291 39 is_stmt 0 view .LVU179
 531 002c F7EE007A 		vmov.f32	s15, #1.0e+0
 288:Src/mc_perf.c ****                    * (float_t)(PWM_FREQUENCY/REGULATION_EXECUTION_RATE));
 532              		.loc 1 288 13 view .LVU180
 533 0030 A7EE060A 		vfma.f32	s0, s14, s12
 534              	.LVL32:
 535              		.loc 1 291 5 is_stmt 1 view .LVU181
 536              		.loc 1 291 39 is_stmt 0 view .LVU182
 537 0034 B4EEE70A 		vcmpe.f32	s0, s15
 538 0038 F1EE10FA 		vmrs	APSR_nzcv, FPSCR
 539 003c DABF     		itte	le
 540 003e DFED077A 		vldrle.32	s15, .L42+16
 541 0042 20EE270A 		vmulle.f32	s0, s0, s15
 542              	.LVL33:
 543              		.loc 1 291 39 view .LVU183
 544 0046 9FED050A 		vldrgt.32	s0, .L42+16
 545              	.LVL34:
 292:Src/mc_perf.c ****     cpuLoad *= 100.0f;
 546              		.loc 1 292 5 is_stmt 1 view .LVU184
 293:Src/mc_perf.c **** #ifdef NULL_PTR_CHECK_MC_PERF
 294:Src/mc_perf.c ****   }
 295:Src/mc_perf.c **** #endif
 296:Src/mc_perf.c ****   return (cpuLoad);
 547              		.loc 1 296 3 view .LVU185
 297:Src/mc_perf.c **** }
 548              		.loc 1 297 1 is_stmt 0 view .LVU186
 549 004a 7047     		bx	lr
 550              	.L43:
 551              		.align	2
 552              	.L42:
 553 004c E81F224D 		.word	1294082024
 554 0050 00007A44 		.word	1148846080
 555 0054 00000000 		.word	0
 556 0058 00409C46 		.word	1184645120
 557 005c 0000C842 		.word	1120403456
 558              		.cfi_endproc
 559              	.LFE1444:
 561              		.section	.text.MC_Perf_GetMinCPU_Load,"ax",%progbits
 562              		.align	1
 563              		.p2align 2,,3
 564              		.global	MC_Perf_GetMinCPU_Load
 565              		.syntax unified
 566              		.thumb
 567              		.thumb_func
 568              		.fpu fpv4-sp-d16
 570              	MC_Perf_GetMinCPU_Load:
 571              	.LVL35:
 572              	.LFB1445:
ARM GAS  /tmp/ccdSbTAn.s 			page 17


 298:Src/mc_perf.c **** 
 299:Src/mc_perf.c **** /**
 300:Src/mc_perf.c ****  * @brief  It returns the minimum CPU load of both High and Medium frequency tasks.
 301:Src/mc_perf.c ****  * @param  pHandle: handler of the performance measurement component.
 302:Src/mc_perf.c ****  * @retval Min CPU load measured.
 303:Src/mc_perf.c ****  */
 304:Src/mc_perf.c **** float_t MC_Perf_GetMinCPU_Load(const MC_Perf_Handle_t *pHandle)
 305:Src/mc_perf.c **** {
 573              		.loc 1 305 1 is_stmt 1 view -0
 574              		.cfi_startproc
 575              		@ args = 0, pretend = 0, frame = 0
 576              		@ frame_needed = 0, uses_anonymous_args = 0
 577              		@ link register save eliminated.
 306:Src/mc_perf.c ****   float_t cpu_load_acc = 0.0f;
 578              		.loc 1 306 3 view .LVU188
 307:Src/mc_perf.c **** #ifdef NULL_PTR_CHECK_MC_PERF
 308:Src/mc_perf.c ****   if (MC_NULL == pHandle)
 309:Src/mc_perf.c ****   {
 310:Src/mc_perf.c ****     /* Nothing to do */
 311:Src/mc_perf.c ****   }
 312:Src/mc_perf.c ****   else
 313:Src/mc_perf.c ****   {
 314:Src/mc_perf.c **** #endif
 315:Src/mc_perf.c ****     if (pHandle->MC_Perf_TraceLog[MEASURE_TSK_MediumFrequencyTaskM1].min != UINT32_MAX)
 579              		.loc 1 315 5 view .LVU189
 580              		.loc 1 315 69 is_stmt 0 view .LVU190
 581 0000 026A     		ldr	r2, [r0, #32]
 582 0002 0369     		ldr	r3, [r0, #16]
 583              		.loc 1 315 8 view .LVU191
 584 0004 501C     		adds	r0, r2, #1
 585              	.LVL36:
 586              		.loc 1 315 8 view .LVU192
 587 0006 29D0     		beq	.L45
 316:Src/mc_perf.c ****     {
 317:Src/mc_perf.c ****       cpu_load_acc += (((float_t)pHandle->MC_Perf_TraceLog[MEASURE_TSK_MediumFrequencyTaskM1].min /
 588              		.loc 1 317 7 is_stmt 1 view .LVU193
 589              		.loc 1 317 25 is_stmt 0 view .LVU194
 590 0008 07EE902A 		vmov	s15, r2	@ int
 591              		.loc 1 317 99 view .LVU195
 592 000c 9FED166A 		vldr.32	s12, .L54
 593              		.loc 1 317 20 view .LVU196
 594 0010 9FED167A 		vldr.32	s14, .L54+4
 595 0014 9FED160A 		vldr.32	s0, .L54+8
 596              		.loc 1 317 25 view .LVU197
 597 0018 F8EE677A 		vcvt.f32.u32	s15, s15
 318:Src/mc_perf.c ****                      * (float_t)MEDIUM_FREQUENCY_TASK_RATE);
 319:Src/mc_perf.c ****     }
 320:Src/mc_perf.c ****     if (pHandle->MC_Perf_TraceLog[MEASURE_TSK_HighFrequencyTaskM1].min != UINT32_MAX)
 598              		.loc 1 320 8 view .LVU198
 599 001c 591C     		adds	r1, r3, #1
 317:Src/mc_perf.c ****                      * (float_t)MEDIUM_FREQUENCY_TASK_RATE);
 600              		.loc 1 317 99 view .LVU199
 601 001e C7EE866A 		vdiv.f32	s13, s15, s12
 317:Src/mc_perf.c ****                      * (float_t)MEDIUM_FREQUENCY_TASK_RATE);
 602              		.loc 1 317 20 view .LVU200
 603 0022 A6EE870A 		vfma.f32	s0, s13, s14
 604              	.LVL37:
ARM GAS  /tmp/ccdSbTAn.s 			page 18


 605              		.loc 1 320 5 is_stmt 1 view .LVU201
 606              		.loc 1 320 8 is_stmt 0 view .LVU202
 607 0026 0BD0     		beq	.L46
 608              	.LVL38:
 609              	.L48:
 321:Src/mc_perf.c ****     {
 322:Src/mc_perf.c ****       cpu_load_acc += (((float_t)pHandle->MC_Perf_TraceLog[MEASURE_TSK_HighFrequencyTaskM1].min / (
 610              		.loc 1 322 7 is_stmt 1 view .LVU203
 611              		.loc 1 322 25 is_stmt 0 view .LVU204
 612 0028 07EE903A 		vmov	s15, r3	@ int
 613              		.loc 1 322 97 view .LVU205
 614 002c 9FED0E6A 		vldr.32	s12, .L54
 615              		.loc 1 322 20 view .LVU206
 616 0030 9FED107A 		vldr.32	s14, .L54+12
 617              		.loc 1 322 25 view .LVU207
 618 0034 F8EE677A 		vcvt.f32.u32	s15, s15
 619              		.loc 1 322 97 view .LVU208
 620 0038 C7EE866A 		vdiv.f32	s13, s15, s12
 621              		.loc 1 322 20 view .LVU209
 622 003c A6EE870A 		vfma.f32	s0, s13, s14
 623              	.LVL39:
 624              	.L46:
 323:Src/mc_perf.c ****                    * (float_t)(PWM_FREQUENCY/REGULATION_EXECUTION_RATE));
 324:Src/mc_perf.c ****     }
 325:Src/mc_perf.c ****     cpu_load_acc = (cpu_load_acc > 1.0f) ? 1.0f : cpu_load_acc;
 625              		.loc 1 325 5 is_stmt 1 view .LVU210
 626              		.loc 1 325 49 is_stmt 0 view .LVU211
 627 0040 F7EE007A 		vmov.f32	s15, #1.0e+0
 628 0044 B4EEE70A 		vcmpe.f32	s0, s15
 629 0048 F1EE10FA 		vmrs	APSR_nzcv, FPSCR
 630 004c DABF     		itte	le
 631 004e DFED0A7A 		vldrle.32	s15, .L54+16
 632 0052 20EE270A 		vmulle.f32	s0, s0, s15
 633              	.LVL40:
 634              		.loc 1 325 49 view .LVU212
 635 0056 9FED080A 		vldrgt.32	s0, .L54+16
 326:Src/mc_perf.c ****     cpu_load_acc *= 100.0f;
 636              		.loc 1 326 5 is_stmt 1 view .LVU213
 327:Src/mc_perf.c **** #ifdef NULL_PTR_CHECK_MC_PERF
 328:Src/mc_perf.c ****   }
 329:Src/mc_perf.c **** #endif
 330:Src/mc_perf.c ****   return (cpu_load_acc);
 637              		.loc 1 330 3 view .LVU214
 638              		.loc 1 330 10 is_stmt 0 view .LVU215
 639 005a 7047     		bx	lr
 640              	.LVL41:
 641              	.L45:
 320:Src/mc_perf.c ****     {
 642              		.loc 1 320 5 is_stmt 1 view .LVU216
 320:Src/mc_perf.c ****     {
 643              		.loc 1 320 8 is_stmt 0 view .LVU217
 644 005c 5A1C     		adds	r2, r3, #1
 306:Src/mc_perf.c **** #ifdef NULL_PTR_CHECK_MC_PERF
 645              		.loc 1 306 11 view .LVU218
 646 005e 9FED040A 		vldr.32	s0, .L54+8
 320:Src/mc_perf.c ****     {
 647              		.loc 1 320 8 view .LVU219
ARM GAS  /tmp/ccdSbTAn.s 			page 19


 648 0062 E1D1     		bne	.L48
 331:Src/mc_perf.c **** }
 649              		.loc 1 331 1 view .LVU220
 650 0064 7047     		bx	lr
 651              	.L55:
 652 0066 00BF     		.align	2
 653              	.L54:
 654 0068 E81F224D 		.word	1294082024
 655 006c 00007A44 		.word	1148846080
 656 0070 00000000 		.word	0
 657 0074 00409C46 		.word	1184645120
 658 0078 0000C842 		.word	1120403456
 659              		.cfi_endproc
 660              	.LFE1445:
 662              		.text
 663              	.Letext0:
 664              		.file 2 "/usr/lib/gcc/arm-none-eabi/8.3.1/include/stdint.h"
 665              		.file 3 "Drivers/CMSIS/Include/core_cm4.h"
 666              		.file 4 "Drivers/CMSIS/Device/ST/STM32G4xx/Include/system_stm32g4xx.h"
 667              		.file 5 "Drivers/STM32G4xx_HAL_Driver/Inc/stm32g4xx_hal_def.h"
 668              		.file 6 "Drivers/STM32G4xx_HAL_Driver/Inc/stm32g4xx_hal_flash.h"
 669              		.file 7 "Drivers/STM32G4xx_HAL_Driver/Inc/stm32g4xx_hal_uart.h"
 670              		.file 8 "Drivers/STM32G4xx_HAL_Driver/Inc/stm32g4xx_hal.h"
 671              		.file 9 "Drivers/STM32G4xx_HAL_Driver/Inc/stm32g4xx_ll_tim.h"
 672              		.file 10 "Drivers/STM32G4xx_HAL_Driver/Inc/stm32g4xx_ll_usart.h"
 673              		.file 11 "Drivers/STM32G4xx_HAL_Driver/Inc/stm32g4xx_ll_dma.h"
 674              		.file 12 "Inc/mc_type.h"
 675              		.file 13 "Inc/mc_perf.h"
ARM GAS  /tmp/ccdSbTAn.s 			page 20

