ARM GAS  /tmp/cc1UKUxP.s 			page 1


   1              		.cpu cortex-m4
   2              		.eabi_attribute 27, 1
   3              		.eabi_attribute 28, 1
   4              		.eabi_attribute 20, 1
   5              		.eabi_attribute 21, 1
   6              		.eabi_attribute 23, 3
   7              		.eabi_attribute 24, 1
   8              		.eabi_attribute 25, 1
   9              		.eabi_attribute 26, 1
  10              		.eabi_attribute 30, 2
  11              		.eabi_attribute 34, 1
  12              		.eabi_attribute 18, 4
  13              		.file	"pwm_curr_fdbk.c"
  14              		.text
  15              	.Ltext0:
  16              		.cfi_sections	.debug_frame
  17              		.section	.text.PWMC_Clear,"ax",%progbits
  18              		.align	1
  19              		.p2align 2,,3
  20              		.global	PWMC_Clear
  21              		.arch armv7e-m
  22              		.syntax unified
  23              		.thumb
  24              		.thumb_func
  25              		.fpu fpv4-sp-d16
  27              	PWMC_Clear:
  28              	.LVL0:
  29              	.LFB1440:
  30              		.file 1 "Src/pwm_curr_fdbk.c"
   1:Src/pwm_curr_fdbk.c **** /**
   2:Src/pwm_curr_fdbk.c ****   ******************************************************************************
   3:Src/pwm_curr_fdbk.c ****   * @file    pwm_curr_fdbk.c
   4:Src/pwm_curr_fdbk.c ****   * @author  Motor Control SDK Team, ST Microelectronics
   5:Src/pwm_curr_fdbk.c ****   * @brief   This file provides firmware functions that implement the following features
   6:Src/pwm_curr_fdbk.c ****   *          of the PWM & Current Feedback component of the Motor Control SDK:
   7:Src/pwm_curr_fdbk.c ****   *
   8:Src/pwm_curr_fdbk.c ****   *           * current sensing
   9:Src/pwm_curr_fdbk.c ****   *           * regular ADC conversion execution
  10:Src/pwm_curr_fdbk.c ****   *           * space vector modulation
  11:Src/pwm_curr_fdbk.c ****   *
  12:Src/pwm_curr_fdbk.c ****   ******************************************************************************
  13:Src/pwm_curr_fdbk.c ****   * @attention
  14:Src/pwm_curr_fdbk.c ****   *
  15:Src/pwm_curr_fdbk.c ****   * <h2><center>&copy; Copyright (c) 2024 STMicroelectronics.
  16:Src/pwm_curr_fdbk.c ****   * All rights reserved.</center></h2>
  17:Src/pwm_curr_fdbk.c ****   *
  18:Src/pwm_curr_fdbk.c ****   * This software component is licensed by ST under Ultimate Liberty license
  19:Src/pwm_curr_fdbk.c ****   * SLA0044, the "License"; You may not use this file except in compliance with
  20:Src/pwm_curr_fdbk.c ****   * the License. You may obtain a copy of the License at:
  21:Src/pwm_curr_fdbk.c ****   *                             www.st.com/SLA0044
  22:Src/pwm_curr_fdbk.c ****   *
  23:Src/pwm_curr_fdbk.c ****   ******************************************************************************
  24:Src/pwm_curr_fdbk.c ****   * @ingroup pwm_curr_fdbk
  25:Src/pwm_curr_fdbk.c ****   */
  26:Src/pwm_curr_fdbk.c **** 
  27:Src/pwm_curr_fdbk.c **** /* Includes ------------------------------------------------------------------*/
  28:Src/pwm_curr_fdbk.c **** #include "pwm_curr_fdbk.h"
ARM GAS  /tmp/cc1UKUxP.s 			page 2


  29:Src/pwm_curr_fdbk.c **** #include "mc_math.h"
  30:Src/pwm_curr_fdbk.c **** #include "mc_type.h"
  31:Src/pwm_curr_fdbk.c **** 
  32:Src/pwm_curr_fdbk.c **** /** @addtogroup MCSDK
  33:Src/pwm_curr_fdbk.c ****   * @{
  34:Src/pwm_curr_fdbk.c ****   */
  35:Src/pwm_curr_fdbk.c **** 
  36:Src/pwm_curr_fdbk.c **** /** @defgroup pwm_curr_fdbk PWM & Current Feedback
  37:Src/pwm_curr_fdbk.c ****   *
  38:Src/pwm_curr_fdbk.c ****   * @brief PWM & Current Feedback components of the Motor Control SDK.
  39:Src/pwm_curr_fdbk.c ****   *
  40:Src/pwm_curr_fdbk.c ****   * These components fulfill two functions in a Motor Control subsystem:
  41:Src/pwm_curr_fdbk.c ****   *
  42:Src/pwm_curr_fdbk.c ****   * - The generation of the Space Vector Pulse Width Modulation on the motor's phases
  43:Src/pwm_curr_fdbk.c ****   * - The sampling of the actual motor's phases current
  44:Src/pwm_curr_fdbk.c ****   *
  45:Src/pwm_curr_fdbk.c ****   * Both these features are closely related as the instants when the values of the phase currents
  46:Src/pwm_curr_fdbk.c ****   * should be sampled by the ADC channels are basically triggered by the timers used to generate
  47:Src/pwm_curr_fdbk.c ****   * the duty cycles for the PWM.
  48:Src/pwm_curr_fdbk.c ****   *
  49:Src/pwm_curr_fdbk.c ****   * Several implementation of PWM and Current Feedback components are provided by the Motor Control
  50:Src/pwm_curr_fdbk.c ****   * SDK to account for the specificities of the application:
  51:Src/pwm_curr_fdbk.c ****   *
  52:Src/pwm_curr_fdbk.c ****   * - The selected MCU: the number of ADCs available on a given MCU, the presence of internal
  53:Src/pwm_curr_fdbk.c ****   * comparators or OpAmps, for instance, lead to different implementation of this feature
  54:Src/pwm_curr_fdbk.c ****   * - The Current sensing topology also has an impact on the firmware: implementations are provided
  55:Src/pwm_curr_fdbk.c ****   * for Insulated Current Sensors, Single Shunt and Three Shunt resistors current sensing topologie
  56:Src/pwm_curr_fdbk.c ****   *
  57:Src/pwm_curr_fdbk.c ****   * The choice of the implementation mostly depend on these two factors and is performed by the
  58:Src/pwm_curr_fdbk.c ****   * Motor Control Workbench tool.
  59:Src/pwm_curr_fdbk.c ****   *
  60:Src/pwm_curr_fdbk.c ****   * All these implementations are built on a base PWM & Current Feedback component that they extend
  61:Src/pwm_curr_fdbk.c ****   * and that provides the functions and data that are common to all of them. This base component is
  62:Src/pwm_curr_fdbk.c ****   * never used directly as it does not provide a complete implementation of the features. Rather,
  63:Src/pwm_curr_fdbk.c ****   * its handle structure (PWMC_Handle) is reused by all the PWM & Current Feedback specific
  64:Src/pwm_curr_fdbk.c ****   * implementations and the functions it provides form the API of the PWM and Current feedback feat
  65:Src/pwm_curr_fdbk.c ****   * Calling them results in calling functions of the component that actually implement the feature.
  66:Src/pwm_curr_fdbk.c ****   * See PWMC_Handle for more details on this mechanism.
  67:Src/pwm_curr_fdbk.c ****   * @{
  68:Src/pwm_curr_fdbk.c ****   */
  69:Src/pwm_curr_fdbk.c **** 
  70:Src/pwm_curr_fdbk.c **** /**
  71:Src/pwm_curr_fdbk.c ****   * @brief  Used to clear variables in CPWMC.
  72:Src/pwm_curr_fdbk.c ****   *
  73:Src/pwm_curr_fdbk.c ****   * @param pHandle: Handler of the current instance of the PWM component.
  74:Src/pwm_curr_fdbk.c ****   */
  75:Src/pwm_curr_fdbk.c **** void PWMC_Clear(PWMC_Handle_t *pHandle)
  76:Src/pwm_curr_fdbk.c **** {
  31              		.loc 1 76 1 view -0
  32              		.cfi_startproc
  33              		@ args = 0, pretend = 0, frame = 0
  34              		@ frame_needed = 0, uses_anonymous_args = 0
  35              		@ link register save eliminated.
  77:Src/pwm_curr_fdbk.c **** #ifdef NULL_PTR_CHECK_PWR_CUR_FDB
  78:Src/pwm_curr_fdbk.c ****   if (MC_NULL == pHandle)
  79:Src/pwm_curr_fdbk.c ****   {
  80:Src/pwm_curr_fdbk.c ****     /* Nothing to do */
ARM GAS  /tmp/cc1UKUxP.s 			page 3


  81:Src/pwm_curr_fdbk.c ****   }
  82:Src/pwm_curr_fdbk.c ****   else
  83:Src/pwm_curr_fdbk.c ****   {
  84:Src/pwm_curr_fdbk.c **** #endif
  85:Src/pwm_curr_fdbk.c ****     pHandle->IaEst = 0;
  36              		.loc 1 85 5 view .LVU1
  86:Src/pwm_curr_fdbk.c ****     pHandle->IbEst = 0;
  37              		.loc 1 86 5 view .LVU2
  87:Src/pwm_curr_fdbk.c ****     pHandle->IcEst = 0;
  38              		.loc 1 87 5 view .LVU3
  85:Src/pwm_curr_fdbk.c ****     pHandle->IbEst = 0;
  39              		.loc 1 85 20 is_stmt 0 view .LVU4
  40 0000 0023     		movs	r3, #0
  41 0002 8366     		str	r3, [r0, #104]
  42              		.loc 1 87 20 view .LVU5
  43 0004 A0F86C30 		strh	r3, [r0, #108]	@ movhi
  88:Src/pwm_curr_fdbk.c ****     pHandle->LPFIdBuf = 0;
  44              		.loc 1 88 5 is_stmt 1 view .LVU6
  89:Src/pwm_curr_fdbk.c ****     pHandle->LPFIqBuf = 0;
  45              		.loc 1 89 23 is_stmt 0 view .LVU7
  46 0008 C0E90D33 		strd	r3, r3, [r0, #52]
  90:Src/pwm_curr_fdbk.c **** #ifdef NULL_PTR_CHECK_PWR_CUR_FDB
  91:Src/pwm_curr_fdbk.c ****   }
  92:Src/pwm_curr_fdbk.c **** #endif
  93:Src/pwm_curr_fdbk.c **** }
  47              		.loc 1 93 1 view .LVU8
  48 000c 7047     		bx	lr
  49              		.cfi_endproc
  50              	.LFE1440:
  52 000e 00BF     		.section	.text.PWMC_SetOffsetCalib,"ax",%progbits
  53              		.align	1
  54              		.p2align 2,,3
  55              		.weak	PWMC_SetOffsetCalib
  56              		.syntax unified
  57              		.thumb
  58              		.thumb_func
  59              		.fpu fpv4-sp-d16
  61              	PWMC_SetOffsetCalib:
  62              	.LVL1:
  63              	.LFB1441:
  94:Src/pwm_curr_fdbk.c **** 
  95:Src/pwm_curr_fdbk.c **** /**
  96:Src/pwm_curr_fdbk.c ****   * @brief  Sets the calibrated @p offsets for each of the phases in the @p pHandle handler. In cas
  97:Src/pwm_curr_fdbk.c ****   *
  98:Src/pwm_curr_fdbk.c ****   */
  99:Src/pwm_curr_fdbk.c **** //cstat !MISRAC2012-Rule-8.13 !RED-func-no-effect
 100:Src/pwm_curr_fdbk.c **** __weak void PWMC_SetOffsetCalib(PWMC_Handle_t *pHandle, PolarizationOffsets_t *offsets)
 101:Src/pwm_curr_fdbk.c **** {
  64              		.loc 1 101 1 is_stmt 1 view -0
  65              		.cfi_startproc
  66              		@ args = 0, pretend = 0, frame = 0
  67              		@ frame_needed = 0, uses_anonymous_args = 0
  68              		@ link register save eliminated.
 102:Src/pwm_curr_fdbk.c ****   if (MC_NULL == pHandle)
  69              		.loc 1 102 3 view .LVU10
  70              		.loc 1 102 6 is_stmt 0 view .LVU11
  71 0000 08B1     		cbz	r0, .L3
ARM GAS  /tmp/cc1UKUxP.s 			page 4


 103:Src/pwm_curr_fdbk.c ****   {
 104:Src/pwm_curr_fdbk.c ****     /* Nothing to do */
 105:Src/pwm_curr_fdbk.c ****   }
 106:Src/pwm_curr_fdbk.c ****   else
 107:Src/pwm_curr_fdbk.c ****   {
 108:Src/pwm_curr_fdbk.c ****     pHandle->pFctSetOffsetCalib(pHandle, offsets);
  72              		.loc 1 108 5 is_stmt 1 view .LVU12
  73 0002 C36A     		ldr	r3, [r0, #44]
  74 0004 1847     		bx	r3	@ indirect register sibling call
  75              	.LVL2:
  76              	.L3:
 109:Src/pwm_curr_fdbk.c ****   }
 110:Src/pwm_curr_fdbk.c **** }
  77              		.loc 1 110 1 is_stmt 0 view .LVU13
  78 0006 7047     		bx	lr
  79              		.cfi_endproc
  80              	.LFE1441:
  82              		.section	.text.PWMC_GetOffsetCalib,"ax",%progbits
  83              		.align	1
  84              		.p2align 2,,3
  85              		.weak	PWMC_GetOffsetCalib
  86              		.syntax unified
  87              		.thumb
  88              		.thumb_func
  89              		.fpu fpv4-sp-d16
  91              	PWMC_GetOffsetCalib:
  92              	.LVL3:
  93              	.LFB1442:
 111:Src/pwm_curr_fdbk.c **** 
 112:Src/pwm_curr_fdbk.c **** /**
 113:Src/pwm_curr_fdbk.c ****   * @brief  Gets the calibrated @p offsets for each of the phases in the @p pHandle handler. In cas
 114:Src/pwm_curr_fdbk.c ****   *
 115:Src/pwm_curr_fdbk.c ****   */
 116:Src/pwm_curr_fdbk.c **** //cstat !MISRAC2012-Rule-8.13 !RED-func-no-effect
 117:Src/pwm_curr_fdbk.c **** __weak void PWMC_GetOffsetCalib(PWMC_Handle_t *pHandle, PolarizationOffsets_t *offsets)
 118:Src/pwm_curr_fdbk.c **** {
  94              		.loc 1 118 1 is_stmt 1 view -0
  95              		.cfi_startproc
  96              		@ args = 0, pretend = 0, frame = 0
  97              		@ frame_needed = 0, uses_anonymous_args = 0
  98              		@ link register save eliminated.
 119:Src/pwm_curr_fdbk.c ****   if (MC_NULL == pHandle)
  99              		.loc 1 119 3 view .LVU15
 100              		.loc 1 119 6 is_stmt 0 view .LVU16
 101 0000 08B1     		cbz	r0, .L5
 120:Src/pwm_curr_fdbk.c ****   {
 121:Src/pwm_curr_fdbk.c ****     /* Nothing to do */
 122:Src/pwm_curr_fdbk.c ****   }
 123:Src/pwm_curr_fdbk.c ****   else
 124:Src/pwm_curr_fdbk.c ****   {
 125:Src/pwm_curr_fdbk.c ****     pHandle->pFctGetOffsetCalib(pHandle, offsets);
 102              		.loc 1 125 5 is_stmt 1 view .LVU17
 103 0002 036B     		ldr	r3, [r0, #48]
 104 0004 1847     		bx	r3	@ indirect register sibling call
 105              	.LVL4:
 106              	.L5:
 126:Src/pwm_curr_fdbk.c ****   }
ARM GAS  /tmp/cc1UKUxP.s 			page 5


 127:Src/pwm_curr_fdbk.c **** }
 107              		.loc 1 127 1 is_stmt 0 view .LVU18
 108 0006 7047     		bx	lr
 109              		.cfi_endproc
 110              	.LFE1442:
 112              		.section	.text.PWMC_SetPhaseVoltage,"ax",%progbits
 113              		.align	1
 114              		.p2align 2,,3
 115              		.weak	PWMC_SetPhaseVoltage
 116              		.syntax unified
 117              		.thumb
 118              		.thumb_func
 119              		.fpu fpv4-sp-d16
 121              	PWMC_SetPhaseVoltage:
 122              	.LVL5:
 123              	.LFB1443:
 128:Src/pwm_curr_fdbk.c **** 
 129:Src/pwm_curr_fdbk.c **** #if defined (CCMRAM)
 130:Src/pwm_curr_fdbk.c **** #if defined (__ICCARM__)
 131:Src/pwm_curr_fdbk.c **** #pragma location = ".ccmram"
 132:Src/pwm_curr_fdbk.c **** #elif defined (__CC_ARM) || defined(__GNUC__)
 133:Src/pwm_curr_fdbk.c **** __attribute__( ( section ( ".ccmram" ) ) )
 134:Src/pwm_curr_fdbk.c **** #endif
 135:Src/pwm_curr_fdbk.c **** #endif
 136:Src/pwm_curr_fdbk.c **** 
 137:Src/pwm_curr_fdbk.c **** /**
 138:Src/pwm_curr_fdbk.c ****   * @brief  Converts input voltages @f$ V_{\alpha} @f$ and @f$ V_{\beta} @f$ into PWM duty cycles
 139:Src/pwm_curr_fdbk.c ****   *         and feed them to the inverter.
 140:Src/pwm_curr_fdbk.c ****   *
 141:Src/pwm_curr_fdbk.c ****   * This function computes the time during which the transistors of each phase are to be switched o
 142:Src/pwm_curr_fdbk.c ****   * a PWM cycle in order to achieve the reference phase voltage set by @p Valfa_beta. The function 
 143:Src/pwm_curr_fdbk.c ****   * programs the resulting duty cycles in the related timer channels. It also sets the phase curren
 144:Src/pwm_curr_fdbk.c ****   * sampling point for the next PWM cycle accordingly.
 145:Src/pwm_curr_fdbk.c ****   *
 146:Src/pwm_curr_fdbk.c ****   * This function is used in the FOC frequency loop and needs to complete itself before the next PW
 147:Src/pwm_curr_fdbk.c ****   * in order for the duty cycles it computes to be taken into account. Failing to do so (for instan
 148:Src/pwm_curr_fdbk.c ****   * the PWM Frequency is too high) results in the function returning #MC_DURATION which entails a
 149:Src/pwm_curr_fdbk.c ****   * Motor Control Fault that stops the motor.
 150:Src/pwm_curr_fdbk.c ****   *
 151:Src/pwm_curr_fdbk.c ****   * @param  pHandle: Handler of the current instance of the PWM component.
 152:Src/pwm_curr_fdbk.c ****   * @param  Valfa_beta: Voltage Components expressed in the @f$(\alpha, \beta)@f$ reference frame.
 153:Src/pwm_curr_fdbk.c ****   * @retval #MC_NO_ERROR if no error occurred or #MC_DURATION if the duty cycles were
 154:Src/pwm_curr_fdbk.c ****   *         set too late for being taken into account in the next PWM cycle.
 155:Src/pwm_curr_fdbk.c ****   */
 156:Src/pwm_curr_fdbk.c **** __weak uint16_t PWMC_SetPhaseVoltage(PWMC_Handle_t *pHandle, alphabeta_t Valfa_beta)
 157:Src/pwm_curr_fdbk.c **** {
 124              		.loc 1 157 1 is_stmt 1 view -0
 125              		.cfi_startproc
 126              		@ args = 0, pretend = 0, frame = 8
 127              		@ frame_needed = 0, uses_anonymous_args = 0
 128              		@ link register save eliminated.
 158:Src/pwm_curr_fdbk.c ****   uint16_t returnValue;
 129              		.loc 1 158 3 view .LVU20
 159:Src/pwm_curr_fdbk.c **** #ifdef NULL_PTR_CHECK_PWR_CUR_FDB
 160:Src/pwm_curr_fdbk.c ****   if (MC_NULL == pHandle)
 161:Src/pwm_curr_fdbk.c ****   {
 162:Src/pwm_curr_fdbk.c ****     returnValue = 0U;
ARM GAS  /tmp/cc1UKUxP.s 			page 6


 163:Src/pwm_curr_fdbk.c ****   }
 164:Src/pwm_curr_fdbk.c ****   else
 165:Src/pwm_curr_fdbk.c ****   {
 166:Src/pwm_curr_fdbk.c **** #endif
 167:Src/pwm_curr_fdbk.c ****     int32_t wX;
 130              		.loc 1 167 5 view .LVU21
 168:Src/pwm_curr_fdbk.c ****     int32_t wY;
 131              		.loc 1 168 5 view .LVU22
 169:Src/pwm_curr_fdbk.c ****     int32_t wZ;
 132              		.loc 1 169 5 view .LVU23
 170:Src/pwm_curr_fdbk.c ****     int32_t wUAlpha;
 133              		.loc 1 170 5 view .LVU24
 171:Src/pwm_curr_fdbk.c ****     int32_t wUBeta;
 134              		.loc 1 171 5 view .LVU25
 172:Src/pwm_curr_fdbk.c ****     int32_t wTimePhA;
 135              		.loc 1 172 5 view .LVU26
 173:Src/pwm_curr_fdbk.c ****     int32_t wTimePhB;
 136              		.loc 1 173 5 view .LVU27
 174:Src/pwm_curr_fdbk.c ****     int32_t wTimePhC;
 137              		.loc 1 174 5 view .LVU28
 175:Src/pwm_curr_fdbk.c **** 
 176:Src/pwm_curr_fdbk.c ****     wUAlpha = Valfa_beta.alpha * (int32_t)pHandle->hT_Sqrt3;
 138              		.loc 1 176 5 view .LVU29
 157:Src/pwm_curr_fdbk.c ****   uint16_t returnValue;
 139              		.loc 1 157 1 is_stmt 0 view .LVU30
 140 0000 F0B4     		push	{r4, r5, r6, r7}
 141              	.LCFI0:
 142              		.cfi_def_cfa_offset 16
 143              		.cfi_offset 4, -16
 144              		.cfi_offset 5, -12
 145              		.cfi_offset 6, -8
 146              		.cfi_offset 7, -4
 177:Src/pwm_curr_fdbk.c ****     wUBeta = -(Valfa_beta.beta * ((int32_t)pHandle->PWMperiod)) * 2;
 147              		.loc 1 177 51 view .LVU31
 148 0002 B0F87070 		ldrh	r7, [r0, #112]
 176:Src/pwm_curr_fdbk.c ****     wUBeta = -(Valfa_beta.beta * ((int32_t)pHandle->PWMperiod)) * 2;
 149              		.loc 1 176 34 view .LVU32
 150 0006 B0F84E40 		ldrh	r4, [r0, #78]
 151              		.loc 1 177 26 view .LVU33
 152 000a 0B14     		asrs	r3, r1, #16
 157:Src/pwm_curr_fdbk.c ****   uint16_t returnValue;
 153              		.loc 1 157 1 view .LVU34
 154 000c 82B0     		sub	sp, sp, #8
 155              	.LCFI1:
 156              		.cfi_def_cfa_offset 24
 157              		.loc 1 177 32 view .LVU35
 158 000e 07FB03F3 		mul	r3, r7, r3
 159              		.loc 1 177 12 view .LVU36
 160 0012 C3EBC373 		rsb	r3, r3, r3, lsl #31
 157:Src/pwm_curr_fdbk.c ****   uint16_t returnValue;
 161              		.loc 1 157 1 view .LVU37
 162 0016 0191     		str	r1, [sp, #4]
 176:Src/pwm_curr_fdbk.c ****     wUBeta = -(Valfa_beta.beta * ((int32_t)pHandle->PWMperiod)) * 2;
 163              		.loc 1 176 25 view .LVU38
 164 0018 09B2     		sxth	r1, r1
 176:Src/pwm_curr_fdbk.c ****     wUBeta = -(Valfa_beta.beta * ((int32_t)pHandle->PWMperiod)) * 2;
 165              		.loc 1 176 13 view .LVU39
ARM GAS  /tmp/cc1UKUxP.s 			page 7


 166 001a 04FB01F1 		mul	r1, r4, r1
 167              	.LVL6:
 168              		.loc 1 177 5 is_stmt 1 view .LVU40
 169              		.loc 1 177 12 is_stmt 0 view .LVU41
 170 001e 5D00     		lsls	r5, r3, #1
 171              	.LVL7:
 178:Src/pwm_curr_fdbk.c **** 
 179:Src/pwm_curr_fdbk.c ****     wX = wUBeta;
 172              		.loc 1 179 5 is_stmt 1 view .LVU42
 180:Src/pwm_curr_fdbk.c ****     wY = (wUBeta + wUAlpha) / 2;
 173              		.loc 1 180 5 view .LVU43
 174              		.loc 1 180 18 is_stmt 0 view .LVU44
 175 0020 4B19     		adds	r3, r1, r5
 181:Src/pwm_curr_fdbk.c ****     wZ = (wUBeta - wUAlpha) / 2;
 176              		.loc 1 181 18 view .LVU45
 177 0022 691A     		subs	r1, r5, r1
 178              	.LVL8:
 180:Src/pwm_curr_fdbk.c ****     wY = (wUBeta + wUAlpha) / 2;
 179              		.loc 1 180 8 view .LVU46
 180 0024 03EBD372 		add	r2, r3, r3, lsr #31
 181              		.loc 1 181 8 view .LVU47
 182 0028 01EBD176 		add	r6, r1, r1, lsr #31
 182:Src/pwm_curr_fdbk.c **** 
 183:Src/pwm_curr_fdbk.c ****     /* Sector calculation from wX, wY, wZ */
 184:Src/pwm_curr_fdbk.c ****     if (wY < 0)
 183              		.loc 1 184 8 view .LVU48
 184 002c 5C1C     		adds	r4, r3, #1
 185              	.LVL9:
 186              		.loc 1 184 8 view .LVU49
 187 002e 4FEA9707 		lsr	r7, r7, #2
 180:Src/pwm_curr_fdbk.c ****     wZ = (wUBeta - wUAlpha) / 2;
 188              		.loc 1 180 8 view .LVU50
 189 0032 4FEA6202 		asr	r2, r2, #1
 190              	.LVL10:
 181:Src/pwm_curr_fdbk.c ****     wZ = (wUBeta - wUAlpha) / 2;
 191              		.loc 1 181 5 is_stmt 1 view .LVU51
 181:Src/pwm_curr_fdbk.c ****     wZ = (wUBeta - wUAlpha) / 2;
 192              		.loc 1 181 8 is_stmt 0 view .LVU52
 193 0036 4FEA6606 		asr	r6, r6, #1
 194              	.LVL11:
 195              		.loc 1 184 5 is_stmt 1 view .LVU53
 196              		.loc 1 184 8 is_stmt 0 view .LVU54
 197 003a 67DB     		blt	.L39
 185:Src/pwm_curr_fdbk.c ****     {
 186:Src/pwm_curr_fdbk.c ****       if (wZ < 0)
 187:Src/pwm_curr_fdbk.c ****       {
 188:Src/pwm_curr_fdbk.c ****         pHandle->Sector = SECTOR_5;
 189:Src/pwm_curr_fdbk.c ****         wTimePhA = (((int32_t)pHandle->PWMperiod) / 4) + ((wY - wZ) / (int32_t)262144);
 190:Src/pwm_curr_fdbk.c ****         wTimePhB = wTimePhA + (wZ / 131072);
 191:Src/pwm_curr_fdbk.c ****         wTimePhC = wTimePhA - (wY / 131072) ;
 192:Src/pwm_curr_fdbk.c **** 
 193:Src/pwm_curr_fdbk.c ****         if(true == pHandle->SingleShuntTopology)
 194:Src/pwm_curr_fdbk.c ****         {
 195:Src/pwm_curr_fdbk.c ****           pHandle->lowDuty = 1U;
 196:Src/pwm_curr_fdbk.c ****           pHandle->midDuty = 0U;
 197:Src/pwm_curr_fdbk.c ****           pHandle->highDuty = 2U;
 198:Src/pwm_curr_fdbk.c ****         }
ARM GAS  /tmp/cc1UKUxP.s 			page 8


 199:Src/pwm_curr_fdbk.c ****         else
 200:Src/pwm_curr_fdbk.c ****         {
 201:Src/pwm_curr_fdbk.c ****           pHandle->lowDuty = (uint16_t)wTimePhC;
 202:Src/pwm_curr_fdbk.c ****           pHandle->midDuty = (uint16_t)wTimePhA;
 203:Src/pwm_curr_fdbk.c ****           pHandle->highDuty = (uint16_t)wTimePhB;
 204:Src/pwm_curr_fdbk.c ****         }
 205:Src/pwm_curr_fdbk.c ****       }
 206:Src/pwm_curr_fdbk.c ****       else /* wZ >= 0 */
 207:Src/pwm_curr_fdbk.c ****         if (wX <= 0)
 208:Src/pwm_curr_fdbk.c ****         {
 209:Src/pwm_curr_fdbk.c ****           pHandle->Sector = SECTOR_4;
 210:Src/pwm_curr_fdbk.c ****           wTimePhA = (((int32_t)pHandle->PWMperiod) / 4) + ((wX - wZ) / (int32_t)262144);
 211:Src/pwm_curr_fdbk.c ****           wTimePhB = wTimePhA + (wZ / 131072);
 212:Src/pwm_curr_fdbk.c ****           wTimePhC = wTimePhB - (wX / 131072);
 213:Src/pwm_curr_fdbk.c **** 
 214:Src/pwm_curr_fdbk.c ****           if(true == pHandle->SingleShuntTopology)
 215:Src/pwm_curr_fdbk.c ****           {
 216:Src/pwm_curr_fdbk.c ****             pHandle->lowDuty = 0U;
 217:Src/pwm_curr_fdbk.c ****             pHandle->midDuty = 1U;
 218:Src/pwm_curr_fdbk.c ****             pHandle->highDuty = 2U;
 219:Src/pwm_curr_fdbk.c ****           }
 220:Src/pwm_curr_fdbk.c ****           else
 221:Src/pwm_curr_fdbk.c ****           {
 222:Src/pwm_curr_fdbk.c ****           pHandle->lowDuty = (uint16_t)wTimePhC;
 223:Src/pwm_curr_fdbk.c ****           pHandle->midDuty = (uint16_t)wTimePhB;
 224:Src/pwm_curr_fdbk.c ****           pHandle->highDuty = (uint16_t)wTimePhA;
 225:Src/pwm_curr_fdbk.c ****         }
 226:Src/pwm_curr_fdbk.c ****         }
 227:Src/pwm_curr_fdbk.c ****         else /* wX > 0 */
 228:Src/pwm_curr_fdbk.c ****         {
 229:Src/pwm_curr_fdbk.c ****           pHandle->Sector = SECTOR_3;
 230:Src/pwm_curr_fdbk.c ****           wTimePhA = (((int32_t )pHandle->PWMperiod) / 4)+ ((wY - wX) / (int32_t)262144);
 231:Src/pwm_curr_fdbk.c ****           wTimePhC = wTimePhA - (wY / 131072);
 232:Src/pwm_curr_fdbk.c ****           wTimePhB = wTimePhC + (wX / 131072);
 233:Src/pwm_curr_fdbk.c **** 
 234:Src/pwm_curr_fdbk.c ****           if(true == pHandle->SingleShuntTopology)
 235:Src/pwm_curr_fdbk.c ****           {
 236:Src/pwm_curr_fdbk.c ****             pHandle->lowDuty = 0U;
 237:Src/pwm_curr_fdbk.c ****             pHandle->midDuty = 2U;
 238:Src/pwm_curr_fdbk.c ****             pHandle->highDuty = 1U;
 239:Src/pwm_curr_fdbk.c ****           }
 240:Src/pwm_curr_fdbk.c ****           else
 241:Src/pwm_curr_fdbk.c ****           {
 242:Src/pwm_curr_fdbk.c ****           pHandle->lowDuty = (uint16_t)wTimePhB;
 243:Src/pwm_curr_fdbk.c ****           pHandle->midDuty = (uint16_t)wTimePhC;
 244:Src/pwm_curr_fdbk.c ****           pHandle->highDuty = (uint16_t)wTimePhA;
 245:Src/pwm_curr_fdbk.c ****         }
 246:Src/pwm_curr_fdbk.c ****         }
 247:Src/pwm_curr_fdbk.c ****     }
 248:Src/pwm_curr_fdbk.c ****     else /* wY > 0 */
 249:Src/pwm_curr_fdbk.c ****     {
 250:Src/pwm_curr_fdbk.c ****       if (wZ >= 0)
 198              		.loc 1 250 7 is_stmt 1 view .LVU55
 199              		.loc 1 250 10 is_stmt 0 view .LVU56
 200 003c 4C1C     		adds	r4, r1, #1
 201 003e 37DB     		blt	.L23
 251:Src/pwm_curr_fdbk.c ****       {
ARM GAS  /tmp/cc1UKUxP.s 			page 9


 252:Src/pwm_curr_fdbk.c ****         pHandle->Sector = SECTOR_2;
 202              		.loc 1 252 9 is_stmt 1 view .LVU57
 253:Src/pwm_curr_fdbk.c ****         wTimePhA = (((int32_t)pHandle->PWMperiod) / 4) + ((wY - wZ) / (int32_t)262144);
 203              		.loc 1 253 69 is_stmt 0 view .LVU58
 204 0040 921B     		subs	r2, r2, r6
 205              	.LVL12:
 206              		.loc 1 253 69 view .LVU59
 207 0042 44BF     		itt	mi
 208 0044 02F57F32 		addmi	r2, r2, #261120
 209 0048 02F2FF32 		addwmi	r2, r2, #1023
 254:Src/pwm_curr_fdbk.c ****         wTimePhB = wTimePhA + (wZ / 131072);
 210              		.loc 1 254 35 view .LVU60
 211 004c 0029     		cmp	r1, #0
 212 004e B8BF     		it	lt
 213 0050 01F57F31 		addlt	r1, r1, #261120
 252:Src/pwm_curr_fdbk.c ****         wTimePhA = (((int32_t)pHandle->PWMperiod) / 4) + ((wY - wZ) / (int32_t)262144);
 214              		.loc 1 252 25 view .LVU61
 215 0054 4FF00104 		mov	r4, #1
 216              		.loc 1 254 35 view .LVU62
 217 0058 B8BF     		it	lt
 218 005a 01F2FF31 		addwlt	r1, r1, #1023
 255:Src/pwm_curr_fdbk.c ****         wTimePhC = wTimePhA - (wY / 131072);
 219              		.loc 1 255 35 view .LVU63
 220 005e 002B     		cmp	r3, #0
 221              		.loc 1 255 35 view .LVU64
 222 0060 B8BF     		it	lt
 223 0062 03F57F33 		addlt	r3, r3, #261120
 224              	.LVL13:
 252:Src/pwm_curr_fdbk.c ****         wTimePhA = (((int32_t)pHandle->PWMperiod) / 4) + ((wY - wZ) / (int32_t)262144);
 225              		.loc 1 252 25 view .LVU65
 226 0066 80F87A40 		strb	r4, [r0, #122]
 253:Src/pwm_curr_fdbk.c ****         wTimePhB = wTimePhA + (wZ / 131072);
 227              		.loc 1 253 9 is_stmt 1 view .LVU66
 256:Src/pwm_curr_fdbk.c **** 
 257:Src/pwm_curr_fdbk.c ****         if(true == pHandle->SingleShuntTopology)
 228              		.loc 1 257 11 is_stmt 0 view .LVU67
 229 006a 90F88540 		ldrb	r4, [r0, #133]	@ zero_extendqisi2
 253:Src/pwm_curr_fdbk.c ****         wTimePhB = wTimePhA + (wZ / 131072);
 230              		.loc 1 253 18 view .LVU68
 231 006e 07EBA242 		add	r2, r7, r2, asr #18
 232              	.LVL14:
 254:Src/pwm_curr_fdbk.c ****         wTimePhC = wTimePhA - (wY / 131072);
 233              		.loc 1 254 9 is_stmt 1 view .LVU69
 255:Src/pwm_curr_fdbk.c **** 
 234              		.loc 1 255 35 is_stmt 0 view .LVU70
 235 0072 B8BF     		it	lt
 236 0074 03F2FF33 		addwlt	r3, r3, #1023
 254:Src/pwm_curr_fdbk.c ****         wTimePhC = wTimePhA - (wY / 131072);
 237              		.loc 1 254 18 view .LVU71
 238 0078 02EBA141 		add	r1, r2, r1, asr #18
 239              	.LVL15:
 255:Src/pwm_curr_fdbk.c **** 
 240              		.loc 1 255 9 is_stmt 1 view .LVU72
 255:Src/pwm_curr_fdbk.c **** 
 241              		.loc 1 255 18 is_stmt 0 view .LVU73
 242 007c A2EBA343 		sub	r3, r2, r3, asr #18
 243              	.LVL16:
ARM GAS  /tmp/cc1UKUxP.s 			page 10


 244              		.loc 1 257 9 is_stmt 1 view .LVU74
 245              		.loc 1 257 11 is_stmt 0 view .LVU75
 246 0080 002C     		cmp	r4, #0
 247 0082 6AD1     		bne	.L40
 258:Src/pwm_curr_fdbk.c ****         {
 259:Src/pwm_curr_fdbk.c ****           pHandle->lowDuty = 2U;
 260:Src/pwm_curr_fdbk.c ****           pHandle->midDuty = 0U;
 261:Src/pwm_curr_fdbk.c ****           pHandle->highDuty = 1U;
 262:Src/pwm_curr_fdbk.c ****         }
 263:Src/pwm_curr_fdbk.c ****         else
 264:Src/pwm_curr_fdbk.c ****         {
 265:Src/pwm_curr_fdbk.c ****         pHandle->lowDuty = (uint16_t)wTimePhB;
 248              		.loc 1 265 9 is_stmt 1 view .LVU76
 249              		.loc 1 265 28 is_stmt 0 view .LVU77
 250 0084 A0F85810 		strh	r1, [r0, #88]	@ movhi
 266:Src/pwm_curr_fdbk.c ****         pHandle->midDuty = (uint16_t)wTimePhA;
 251              		.loc 1 266 9 is_stmt 1 view .LVU78
 252              		.loc 1 266 28 is_stmt 0 view .LVU79
 253 0088 A0F85A20 		strh	r2, [r0, #90]	@ movhi
 267:Src/pwm_curr_fdbk.c ****         pHandle->highDuty = (uint16_t)wTimePhC;
 254              		.loc 1 267 9 is_stmt 1 view .LVU80
 255              		.loc 1 267 29 is_stmt 0 view .LVU81
 256 008c A0F85C30 		strh	r3, [r0, #92]	@ movhi
 257              	.LVL17:
 258              	.L14:
 268:Src/pwm_curr_fdbk.c ****         }
 269:Src/pwm_curr_fdbk.c ****       }
 270:Src/pwm_curr_fdbk.c ****       else /* wZ < 0 */
 271:Src/pwm_curr_fdbk.c ****         if ( wX <= 0 )
 272:Src/pwm_curr_fdbk.c ****         {
 273:Src/pwm_curr_fdbk.c ****           pHandle->Sector = SECTOR_6;
 274:Src/pwm_curr_fdbk.c ****           wTimePhA = (((int32_t )pHandle->PWMperiod) / 4) + ((wY - wX) / (int32_t)262144);
 275:Src/pwm_curr_fdbk.c ****           wTimePhC = wTimePhA - (wY / 131072);
 276:Src/pwm_curr_fdbk.c ****           wTimePhB = wTimePhC + (wX / 131072);
 277:Src/pwm_curr_fdbk.c **** 
 278:Src/pwm_curr_fdbk.c ****           if(true == pHandle->SingleShuntTopology)
 279:Src/pwm_curr_fdbk.c ****           {
 280:Src/pwm_curr_fdbk.c ****             pHandle->lowDuty = 1U;
 281:Src/pwm_curr_fdbk.c ****             pHandle->midDuty = 2U;
 282:Src/pwm_curr_fdbk.c ****             pHandle->highDuty = 0U;
 283:Src/pwm_curr_fdbk.c ****           }
 284:Src/pwm_curr_fdbk.c ****           else
 285:Src/pwm_curr_fdbk.c ****           {
 286:Src/pwm_curr_fdbk.c ****             pHandle->lowDuty = (uint16_t)wTimePhA;
 287:Src/pwm_curr_fdbk.c ****             pHandle->midDuty = (uint16_t)wTimePhC;
 288:Src/pwm_curr_fdbk.c ****             pHandle->highDuty = (uint16_t)wTimePhB;
 289:Src/pwm_curr_fdbk.c ****         }
 290:Src/pwm_curr_fdbk.c ****         }
 291:Src/pwm_curr_fdbk.c ****         else /* wX > 0 */
 292:Src/pwm_curr_fdbk.c ****         {
 293:Src/pwm_curr_fdbk.c ****           pHandle->Sector = SECTOR_1;
 294:Src/pwm_curr_fdbk.c ****           wTimePhA = (((int32_t)pHandle->PWMperiod) / 4)+ ((wX - wZ) / (int32_t)262144);
 295:Src/pwm_curr_fdbk.c ****           wTimePhB = wTimePhA + (wZ / 131072);
 296:Src/pwm_curr_fdbk.c ****           wTimePhC = wTimePhB - (wX / 131072);
 297:Src/pwm_curr_fdbk.c **** 
 298:Src/pwm_curr_fdbk.c ****           if((pHandle->DPWM_Mode == true) || (pHandle->SingleShuntTopology == true))
 299:Src/pwm_curr_fdbk.c ****           {
ARM GAS  /tmp/cc1UKUxP.s 			page 11


 300:Src/pwm_curr_fdbk.c ****             pHandle->lowDuty = 2U;
 301:Src/pwm_curr_fdbk.c ****             pHandle->midDuty = 1U;
 302:Src/pwm_curr_fdbk.c ****             pHandle->highDuty = 0U;
 303:Src/pwm_curr_fdbk.c ****           }
 304:Src/pwm_curr_fdbk.c ****           else
 305:Src/pwm_curr_fdbk.c ****           {
 306:Src/pwm_curr_fdbk.c ****             pHandle->lowDuty = (uint16_t)wTimePhA;
 307:Src/pwm_curr_fdbk.c ****             pHandle->midDuty = (uint16_t)wTimePhB;
 308:Src/pwm_curr_fdbk.c ****             pHandle->highDuty = (uint16_t)wTimePhC;
 309:Src/pwm_curr_fdbk.c ****         }
 310:Src/pwm_curr_fdbk.c ****         }
 311:Src/pwm_curr_fdbk.c ****     }
 312:Src/pwm_curr_fdbk.c **** 
 313:Src/pwm_curr_fdbk.c ****     pHandle->CntPhA = (uint16_t)(MAX(wTimePhA, 0));
 259              		.loc 1 313 5 is_stmt 1 view .LVU82
 314:Src/pwm_curr_fdbk.c ****     pHandle->CntPhB = (uint16_t)(MAX(wTimePhB, 0));
 315:Src/pwm_curr_fdbk.c ****     pHandle->CntPhC = (uint16_t)(MAX(wTimePhC, 0));
 260              		.loc 1 315 21 is_stmt 0 view .LVU83
 261 0090 23EAE373 		bic	r3, r3, r3, asr #31
 262              	.LVL18:
 263              		.loc 1 315 21 view .LVU84
 264 0094 A0F85430 		strh	r3, [r0, #84]	@ movhi
 316:Src/pwm_curr_fdbk.c **** 
 317:Src/pwm_curr_fdbk.c ****     returnValue = pHandle->pFctSetADCSampPointSectX(pHandle);
 265              		.loc 1 317 19 view .LVU85
 266 0098 4369     		ldr	r3, [r0, #20]
 313:Src/pwm_curr_fdbk.c ****     pHandle->CntPhB = (uint16_t)(MAX(wTimePhB, 0));
 267              		.loc 1 313 21 view .LVU86
 268 009a 22EAE272 		bic	r2, r2, r2, asr #31
 269              	.LVL19:
 314:Src/pwm_curr_fdbk.c ****     pHandle->CntPhB = (uint16_t)(MAX(wTimePhB, 0));
 270              		.loc 1 314 21 view .LVU87
 271 009e 21EAE171 		bic	r1, r1, r1, asr #31
 272              	.LVL20:
 313:Src/pwm_curr_fdbk.c ****     pHandle->CntPhB = (uint16_t)(MAX(wTimePhB, 0));
 273              		.loc 1 313 21 view .LVU88
 274 00a2 A0F85020 		strh	r2, [r0, #80]	@ movhi
 314:Src/pwm_curr_fdbk.c ****     pHandle->CntPhB = (uint16_t)(MAX(wTimePhB, 0));
 275              		.loc 1 314 5 is_stmt 1 view .LVU89
 314:Src/pwm_curr_fdbk.c ****     pHandle->CntPhB = (uint16_t)(MAX(wTimePhB, 0));
 276              		.loc 1 314 21 is_stmt 0 view .LVU90
 277 00a6 A0F85210 		strh	r1, [r0, #82]	@ movhi
 315:Src/pwm_curr_fdbk.c **** 
 278              		.loc 1 315 5 is_stmt 1 view .LVU91
 279              		.loc 1 317 5 view .LVU92
 318:Src/pwm_curr_fdbk.c **** #ifdef NULL_PTR_CHECK_PWR_CUR_FDB
 319:Src/pwm_curr_fdbk.c ****   }
 320:Src/pwm_curr_fdbk.c **** #endif
 321:Src/pwm_curr_fdbk.c ****   return (returnValue);
 322:Src/pwm_curr_fdbk.c **** }
 280              		.loc 1 322 1 is_stmt 0 view .LVU93
 281 00aa 02B0     		add	sp, sp, #8
 282              	.LCFI2:
 283              		.cfi_remember_state
 284              		.cfi_def_cfa_offset 16
 285              		@ sp needed
 286 00ac F0BC     		pop	{r4, r5, r6, r7}
ARM GAS  /tmp/cc1UKUxP.s 			page 12


 287              	.LCFI3:
 288              		.cfi_restore 7
 289              		.cfi_restore 6
 290              		.cfi_restore 5
 291              		.cfi_restore 4
 292              		.cfi_def_cfa_offset 0
 317:Src/pwm_curr_fdbk.c **** #ifdef NULL_PTR_CHECK_PWR_CUR_FDB
 293              		.loc 1 317 19 view .LVU94
 294 00ae 1847     		bx	r3
 295              	.LVL21:
 296              	.L23:
 297              	.LCFI4:
 298              		.cfi_restore_state
 271:Src/pwm_curr_fdbk.c ****         {
 299              		.loc 1 271 9 is_stmt 1 view .LVU95
 271:Src/pwm_curr_fdbk.c ****         {
 300              		.loc 1 271 12 is_stmt 0 view .LVU96
 301 00b0 002D     		cmp	r5, #0
 302 00b2 7FDD     		ble	.L41
 293:Src/pwm_curr_fdbk.c ****           wTimePhA = (((int32_t)pHandle->PWMperiod) / 4)+ ((wX - wZ) / (int32_t)262144);
 303              		.loc 1 293 11 is_stmt 1 view .LVU97
 294:Src/pwm_curr_fdbk.c ****           wTimePhB = wTimePhA + (wZ / 131072);
 304              		.loc 1 294 70 is_stmt 0 view .LVU98
 305 00b4 AA1B     		subs	r2, r5, r6
 306              	.LVL22:
 294:Src/pwm_curr_fdbk.c ****           wTimePhB = wTimePhA + (wZ / 131072);
 307              		.loc 1 294 70 view .LVU99
 308 00b6 44BF     		itt	mi
 309 00b8 02F57F32 		addmi	r2, r2, #261120
 310 00bc 02F2FF32 		addwmi	r2, r2, #1023
 295:Src/pwm_curr_fdbk.c ****           wTimePhC = wTimePhB - (wX / 131072);
 311              		.loc 1 295 37 view .LVU100
 312 00c0 0029     		cmp	r1, #0
 313 00c2 B8BF     		it	lt
 314 00c4 01F57F31 		addlt	r1, r1, #261120
 293:Src/pwm_curr_fdbk.c ****           wTimePhA = (((int32_t)pHandle->PWMperiod) / 4)+ ((wX - wZ) / (int32_t)262144);
 315              		.loc 1 293 27 view .LVU101
 316 00c8 4FF00003 		mov	r3, #0
 317              	.LVL23:
 295:Src/pwm_curr_fdbk.c ****           wTimePhC = wTimePhB - (wX / 131072);
 318              		.loc 1 295 37 view .LVU102
 319 00cc B8BF     		it	lt
 320 00ce 01F2FF31 		addwlt	r1, r1, #1023
 293:Src/pwm_curr_fdbk.c ****           wTimePhA = (((int32_t)pHandle->PWMperiod) / 4)+ ((wX - wZ) / (int32_t)262144);
 321              		.loc 1 293 27 view .LVU103
 322 00d2 80F87A30 		strb	r3, [r0, #122]
 294:Src/pwm_curr_fdbk.c ****           wTimePhB = wTimePhA + (wZ / 131072);
 323              		.loc 1 294 11 is_stmt 1 view .LVU104
 296:Src/pwm_curr_fdbk.c **** 
 324              		.loc 1 296 37 is_stmt 0 view .LVU105
 325 00d6 2B1E     		subs	r3, r5, #0
 326 00d8 B8BF     		it	lt
 327 00da 03F5FF33 		addlt	r3, r3, #130560
 294:Src/pwm_curr_fdbk.c ****           wTimePhB = wTimePhA + (wZ / 131072);
 328              		.loc 1 294 20 view .LVU106
 329 00de 07EBA242 		add	r2, r7, r2, asr #18
 330              	.LVL24:
ARM GAS  /tmp/cc1UKUxP.s 			page 13


 295:Src/pwm_curr_fdbk.c ****           wTimePhC = wTimePhB - (wX / 131072);
 331              		.loc 1 295 11 is_stmt 1 view .LVU107
 298:Src/pwm_curr_fdbk.c ****           {
 332              		.loc 1 298 13 is_stmt 0 view .LVU108
 333 00e2 90F87D40 		ldrb	r4, [r0, #125]	@ zero_extendqisi2
 295:Src/pwm_curr_fdbk.c ****           wTimePhC = wTimePhB - (wX / 131072);
 334              		.loc 1 295 20 view .LVU109
 335 00e6 02EBA141 		add	r1, r2, r1, asr #18
 336              	.LVL25:
 296:Src/pwm_curr_fdbk.c **** 
 337              		.loc 1 296 11 is_stmt 1 view .LVU110
 296:Src/pwm_curr_fdbk.c **** 
 338              		.loc 1 296 37 is_stmt 0 view .LVU111
 339 00ea B8BF     		it	lt
 340 00ec 03F2FF13 		addwlt	r3, r3, #511
 296:Src/pwm_curr_fdbk.c **** 
 341              		.loc 1 296 20 view .LVU112
 342 00f0 A1EB6343 		sub	r3, r1, r3, asr #17
 343              	.LVL26:
 298:Src/pwm_curr_fdbk.c ****           {
 344              		.loc 1 298 11 is_stmt 1 view .LVU113
 298:Src/pwm_curr_fdbk.c ****           {
 345              		.loc 1 298 13 is_stmt 0 view .LVU114
 346 00f4 24B9     		cbnz	r4, .L36
 298:Src/pwm_curr_fdbk.c ****           {
 347              		.loc 1 298 43 discriminator 1 view .LVU115
 348 00f6 90F88540 		ldrb	r4, [r0, #133]	@ zero_extendqisi2
 349 00fa 002C     		cmp	r4, #0
 350 00fc 00F0BF80 		beq	.L37
 351              	.L36:
 300:Src/pwm_curr_fdbk.c ****             pHandle->midDuty = 1U;
 352              		.loc 1 300 13 is_stmt 1 view .LVU116
 301:Src/pwm_curr_fdbk.c ****             pHandle->highDuty = 0U;
 353              		.loc 1 301 13 view .LVU117
 300:Src/pwm_curr_fdbk.c ****             pHandle->midDuty = 1U;
 354              		.loc 1 300 30 is_stmt 0 view .LVU118
 355 0100 624C     		ldr	r4, .L44
 356 0102 8465     		str	r4, [r0, #88]
 302:Src/pwm_curr_fdbk.c ****           }
 357              		.loc 1 302 13 is_stmt 1 view .LVU119
 302:Src/pwm_curr_fdbk.c ****           }
 358              		.loc 1 302 31 is_stmt 0 view .LVU120
 359 0104 0024     		movs	r4, #0
 360 0106 A0F85C40 		strh	r4, [r0, #92]	@ movhi
 361 010a C1E7     		b	.L14
 362              	.LVL27:
 363              	.L39:
 186:Src/pwm_curr_fdbk.c ****       {
 364              		.loc 1 186 7 is_stmt 1 view .LVU121
 186:Src/pwm_curr_fdbk.c ****       {
 365              		.loc 1 186 10 is_stmt 0 view .LVU122
 366 010c B1F1FF3F 		cmp	r1, #-1
 367 0110 90F88540 		ldrb	r4, [r0, #133]	@ zero_extendqisi2
 368 0114 73DB     		blt	.L42
 207:Src/pwm_curr_fdbk.c ****         {
 369              		.loc 1 207 9 is_stmt 1 view .LVU123
 207:Src/pwm_curr_fdbk.c ****         {
ARM GAS  /tmp/cc1UKUxP.s 			page 14


 370              		.loc 1 207 12 is_stmt 0 view .LVU124
 371 0116 002D     		cmp	r5, #0
 372 0118 25DD     		ble	.L43
 229:Src/pwm_curr_fdbk.c ****           wTimePhA = (((int32_t )pHandle->PWMperiod) / 4)+ ((wY - wX) / (int32_t)262144);
 373              		.loc 1 229 11 is_stmt 1 view .LVU125
 230:Src/pwm_curr_fdbk.c ****           wTimePhC = wTimePhA - (wY / 131072);
 374              		.loc 1 230 71 is_stmt 0 view .LVU126
 375 011a 521B     		subs	r2, r2, r5
 376              	.LVL28:
 230:Src/pwm_curr_fdbk.c ****           wTimePhC = wTimePhA - (wY / 131072);
 377              		.loc 1 230 71 view .LVU127
 378 011c 44BF     		itt	mi
 379 011e 02F57F32 		addmi	r2, r2, #261120
 380 0122 02F2FF32 		addwmi	r2, r2, #1023
 231:Src/pwm_curr_fdbk.c ****           wTimePhB = wTimePhC + (wX / 131072);
 381              		.loc 1 231 37 view .LVU128
 382 0126 002B     		cmp	r3, #0
 231:Src/pwm_curr_fdbk.c ****           wTimePhB = wTimePhC + (wX / 131072);
 383              		.loc 1 231 37 view .LVU129
 384 0128 B8BF     		it	lt
 385 012a 03F57F33 		addlt	r3, r3, #261120
 386              	.LVL29:
 230:Src/pwm_curr_fdbk.c ****           wTimePhC = wTimePhA - (wY / 131072);
 387              		.loc 1 230 20 view .LVU130
 388 012e 07EBA242 		add	r2, r7, r2, asr #18
 231:Src/pwm_curr_fdbk.c ****           wTimePhB = wTimePhC + (wX / 131072);
 389              		.loc 1 231 37 view .LVU131
 390 0132 B8BF     		it	lt
 391 0134 03F2FF33 		addwlt	r3, r3, #1023
 229:Src/pwm_curr_fdbk.c ****           wTimePhA = (((int32_t )pHandle->PWMperiod) / 4)+ ((wY - wX) / (int32_t)262144);
 392              		.loc 1 229 27 view .LVU132
 393 0138 0221     		movs	r1, #2
 231:Src/pwm_curr_fdbk.c ****           wTimePhB = wTimePhC + (wX / 131072);
 394              		.loc 1 231 20 view .LVU133
 395 013a A2EBA343 		sub	r3, r2, r3, asr #18
 229:Src/pwm_curr_fdbk.c ****           wTimePhA = (((int32_t )pHandle->PWMperiod) / 4)+ ((wY - wX) / (int32_t)262144);
 396              		.loc 1 229 27 view .LVU134
 397 013e 80F87A10 		strb	r1, [r0, #122]
 230:Src/pwm_curr_fdbk.c ****           wTimePhC = wTimePhA - (wY / 131072);
 398              		.loc 1 230 11 is_stmt 1 view .LVU135
 399              	.LVL30:
 231:Src/pwm_curr_fdbk.c ****           wTimePhB = wTimePhC + (wX / 131072);
 400              		.loc 1 231 11 view .LVU136
 232:Src/pwm_curr_fdbk.c **** 
 401              		.loc 1 232 11 view .LVU137
 232:Src/pwm_curr_fdbk.c **** 
 402              		.loc 1 232 20 is_stmt 0 view .LVU138
 403 0142 03EB6541 		add	r1, r3, r5, asr #17
 404              	.LVL31:
 234:Src/pwm_curr_fdbk.c ****           {
 405              		.loc 1 234 11 is_stmt 1 view .LVU139
 234:Src/pwm_curr_fdbk.c ****           {
 406              		.loc 1 234 13 is_stmt 0 view .LVU140
 407 0146 002C     		cmp	r4, #0
 408 0148 00F08480 		beq	.L22
 236:Src/pwm_curr_fdbk.c ****             pHandle->midDuty = 2U;
 409              		.loc 1 236 13 is_stmt 1 view .LVU141
ARM GAS  /tmp/cc1UKUxP.s 			page 15


 237:Src/pwm_curr_fdbk.c ****             pHandle->highDuty = 1U;
 410              		.loc 1 237 13 view .LVU142
 236:Src/pwm_curr_fdbk.c ****             pHandle->midDuty = 2U;
 411              		.loc 1 236 30 is_stmt 0 view .LVU143
 412 014c 4FF40035 		mov	r5, #131072
 413              	.LVL32:
 238:Src/pwm_curr_fdbk.c ****           }
 414              		.loc 1 238 31 view .LVU144
 415 0150 0124     		movs	r4, #1
 236:Src/pwm_curr_fdbk.c ****             pHandle->midDuty = 2U;
 416              		.loc 1 236 30 view .LVU145
 417 0152 8565     		str	r5, [r0, #88]
 238:Src/pwm_curr_fdbk.c ****           }
 418              		.loc 1 238 13 is_stmt 1 view .LVU146
 238:Src/pwm_curr_fdbk.c ****           }
 419              		.loc 1 238 31 is_stmt 0 view .LVU147
 420 0154 A0F85C40 		strh	r4, [r0, #92]	@ movhi
 421 0158 9AE7     		b	.L14
 422              	.LVL33:
 423              	.L40:
 259:Src/pwm_curr_fdbk.c ****           pHandle->midDuty = 0U;
 424              		.loc 1 259 11 is_stmt 1 view .LVU148
 260:Src/pwm_curr_fdbk.c ****           pHandle->highDuty = 1U;
 425              		.loc 1 260 11 view .LVU149
 259:Src/pwm_curr_fdbk.c ****           pHandle->midDuty = 0U;
 426              		.loc 1 259 28 is_stmt 0 view .LVU150
 427 015a 0225     		movs	r5, #2
 428              	.LVL34:
 261:Src/pwm_curr_fdbk.c ****         }
 429              		.loc 1 261 29 view .LVU151
 430 015c 0124     		movs	r4, #1
 259:Src/pwm_curr_fdbk.c ****           pHandle->midDuty = 0U;
 431              		.loc 1 259 28 view .LVU152
 432 015e 8565     		str	r5, [r0, #88]
 261:Src/pwm_curr_fdbk.c ****         }
 433              		.loc 1 261 11 is_stmt 1 view .LVU153
 261:Src/pwm_curr_fdbk.c ****         }
 434              		.loc 1 261 29 is_stmt 0 view .LVU154
 435 0160 A0F85C40 		strh	r4, [r0, #92]	@ movhi
 436 0164 94E7     		b	.L14
 437              	.LVL35:
 438              	.L43:
 209:Src/pwm_curr_fdbk.c ****           wTimePhA = (((int32_t)pHandle->PWMperiod) / 4) + ((wX - wZ) / (int32_t)262144);
 439              		.loc 1 209 11 is_stmt 1 view .LVU155
 210:Src/pwm_curr_fdbk.c ****           wTimePhB = wTimePhA + (wZ / 131072);
 440              		.loc 1 210 71 is_stmt 0 view .LVU156
 441 0166 AE1B     		subs	r6, r5, r6
 442              	.LVL36:
 210:Src/pwm_curr_fdbk.c ****           wTimePhB = wTimePhA + (wZ / 131072);
 443              		.loc 1 210 71 view .LVU157
 444 0168 44BF     		itt	mi
 445 016a 06F57F36 		addmi	r6, r6, #261120
 446 016e 06F2FF36 		addwmi	r6, r6, #1023
 211:Src/pwm_curr_fdbk.c ****           wTimePhC = wTimePhB - (wX / 131072);
 447              		.loc 1 211 37 view .LVU158
 448 0172 0029     		cmp	r1, #0
 211:Src/pwm_curr_fdbk.c ****           wTimePhC = wTimePhB - (wX / 131072);
ARM GAS  /tmp/cc1UKUxP.s 			page 16


 449              		.loc 1 211 37 view .LVU159
 450 0174 B8BF     		it	lt
 451 0176 01F57F31 		addlt	r1, r1, #261120
 452              	.LVL37:
 209:Src/pwm_curr_fdbk.c ****           wTimePhA = (((int32_t)pHandle->PWMperiod) / 4) + ((wX - wZ) / (int32_t)262144);
 453              		.loc 1 209 27 view .LVU160
 454 017a 4FF00303 		mov	r3, #3
 211:Src/pwm_curr_fdbk.c ****           wTimePhC = wTimePhB - (wX / 131072);
 455              		.loc 1 211 37 view .LVU161
 456 017e B8BF     		it	lt
 457 0180 01F2FF31 		addwlt	r1, r1, #1023
 209:Src/pwm_curr_fdbk.c ****           wTimePhA = (((int32_t)pHandle->PWMperiod) / 4) + ((wX - wZ) / (int32_t)262144);
 458              		.loc 1 209 27 view .LVU162
 459 0184 80F87A30 		strb	r3, [r0, #122]
 210:Src/pwm_curr_fdbk.c ****           wTimePhB = wTimePhA + (wZ / 131072);
 460              		.loc 1 210 11 is_stmt 1 view .LVU163
 212:Src/pwm_curr_fdbk.c **** 
 461              		.loc 1 212 37 is_stmt 0 view .LVU164
 462 0188 2B1E     		subs	r3, r5, #0
 463 018a B8BF     		it	lt
 464 018c 03F5FF33 		addlt	r3, r3, #130560
 210:Src/pwm_curr_fdbk.c ****           wTimePhB = wTimePhA + (wZ / 131072);
 465              		.loc 1 210 20 view .LVU165
 466 0190 07EBA642 		add	r2, r7, r6, asr #18
 467              	.LVL38:
 211:Src/pwm_curr_fdbk.c ****           wTimePhC = wTimePhB - (wX / 131072);
 468              		.loc 1 211 11 is_stmt 1 view .LVU166
 211:Src/pwm_curr_fdbk.c ****           wTimePhC = wTimePhB - (wX / 131072);
 469              		.loc 1 211 20 is_stmt 0 view .LVU167
 470 0194 02EBA141 		add	r1, r2, r1, asr #18
 471              	.LVL39:
 212:Src/pwm_curr_fdbk.c **** 
 472              		.loc 1 212 11 is_stmt 1 view .LVU168
 212:Src/pwm_curr_fdbk.c **** 
 473              		.loc 1 212 37 is_stmt 0 view .LVU169
 474 0198 B8BF     		it	lt
 475 019a 03F2FF13 		addwlt	r3, r3, #511
 212:Src/pwm_curr_fdbk.c **** 
 476              		.loc 1 212 20 view .LVU170
 477 019e A1EB6343 		sub	r3, r1, r3, asr #17
 478              	.LVL40:
 214:Src/pwm_curr_fdbk.c ****           {
 479              		.loc 1 214 11 is_stmt 1 view .LVU171
 214:Src/pwm_curr_fdbk.c ****           {
 480              		.loc 1 214 13 is_stmt 0 view .LVU172
 481 01a2 002C     		cmp	r4, #0
 482 01a4 64D0     		beq	.L19
 216:Src/pwm_curr_fdbk.c ****             pHandle->midDuty = 1U;
 483              		.loc 1 216 13 is_stmt 1 view .LVU173
 217:Src/pwm_curr_fdbk.c ****             pHandle->highDuty = 2U;
 484              		.loc 1 217 13 view .LVU174
 216:Src/pwm_curr_fdbk.c ****             pHandle->midDuty = 1U;
 485              		.loc 1 216 30 is_stmt 0 view .LVU175
 486 01a6 4FF48035 		mov	r5, #65536
 487              	.LVL41:
 218:Src/pwm_curr_fdbk.c ****           }
 488              		.loc 1 218 31 view .LVU176
ARM GAS  /tmp/cc1UKUxP.s 			page 17


 489 01aa 0224     		movs	r4, #2
 216:Src/pwm_curr_fdbk.c ****             pHandle->midDuty = 1U;
 490              		.loc 1 216 30 view .LVU177
 491 01ac 8565     		str	r5, [r0, #88]
 218:Src/pwm_curr_fdbk.c ****           }
 492              		.loc 1 218 13 is_stmt 1 view .LVU178
 218:Src/pwm_curr_fdbk.c ****           }
 493              		.loc 1 218 31 is_stmt 0 view .LVU179
 494 01ae A0F85C40 		strh	r4, [r0, #92]	@ movhi
 495 01b2 6DE7     		b	.L14
 496              	.LVL42:
 497              	.L41:
 273:Src/pwm_curr_fdbk.c ****           wTimePhA = (((int32_t )pHandle->PWMperiod) / 4) + ((wY - wX) / (int32_t)262144);
 498              		.loc 1 273 11 is_stmt 1 view .LVU180
 273:Src/pwm_curr_fdbk.c ****           wTimePhA = (((int32_t )pHandle->PWMperiod) / 4) + ((wY - wX) / (int32_t)262144);
 499              		.loc 1 273 27 is_stmt 0 view .LVU181
 500 01b4 0521     		movs	r1, #5
 501 01b6 80F87A10 		strb	r1, [r0, #122]
 274:Src/pwm_curr_fdbk.c ****           wTimePhC = wTimePhA - (wY / 131072);
 502              		.loc 1 274 11 is_stmt 1 view .LVU182
 274:Src/pwm_curr_fdbk.c ****           wTimePhC = wTimePhA - (wY / 131072);
 503              		.loc 1 274 72 is_stmt 0 view .LVU183
 504 01ba 511B     		subs	r1, r2, r5
 505 01bc 44BF     		itt	mi
 506 01be 01F57F31 		addmi	r1, r1, #261120
 507 01c2 01F2FF31 		addwmi	r1, r1, #1023
 275:Src/pwm_curr_fdbk.c ****           wTimePhB = wTimePhC + (wX / 131072);
 508              		.loc 1 275 37 view .LVU184
 509 01c6 1C1E     		subs	r4, r3, #0
 510 01c8 BCBF     		itt	lt
 511 01ca 04F57F34 		addlt	r4, r4, #261120
 512 01ce 04F2FF34 		addwlt	r4, r4, #1023
 274:Src/pwm_curr_fdbk.c ****           wTimePhC = wTimePhA - (wY / 131072);
 513              		.loc 1 274 20 view .LVU185
 514 01d2 07EBA142 		add	r2, r7, r1, asr #18
 515              	.LVL43:
 275:Src/pwm_curr_fdbk.c ****           wTimePhB = wTimePhC + (wX / 131072);
 516              		.loc 1 275 11 is_stmt 1 view .LVU186
 276:Src/pwm_curr_fdbk.c **** 
 517              		.loc 1 276 37 is_stmt 0 view .LVU187
 518 01d6 291E     		subs	r1, r5, #0
 275:Src/pwm_curr_fdbk.c ****           wTimePhB = wTimePhC + (wX / 131072);
 519              		.loc 1 275 20 view .LVU188
 520 01d8 A2EBA443 		sub	r3, r2, r4, asr #18
 521              	.LVL44:
 276:Src/pwm_curr_fdbk.c **** 
 522              		.loc 1 276 11 is_stmt 1 view .LVU189
 276:Src/pwm_curr_fdbk.c **** 
 523              		.loc 1 276 37 is_stmt 0 view .LVU190
 524 01dc B8BF     		it	lt
 525 01de 01F5FF31 		addlt	r1, r1, #130560
 278:Src/pwm_curr_fdbk.c ****           {
 526              		.loc 1 278 13 view .LVU191
 527 01e2 90F88540 		ldrb	r4, [r0, #133]	@ zero_extendqisi2
 276:Src/pwm_curr_fdbk.c **** 
 528              		.loc 1 276 37 view .LVU192
 529 01e6 B8BF     		it	lt
ARM GAS  /tmp/cc1UKUxP.s 			page 18


 530 01e8 01F2FF11 		addwlt	r1, r1, #511
 276:Src/pwm_curr_fdbk.c **** 
 531              		.loc 1 276 20 view .LVU193
 532 01ec 03EB6141 		add	r1, r3, r1, asr #17
 533              	.LVL45:
 278:Src/pwm_curr_fdbk.c ****           {
 534              		.loc 1 278 11 is_stmt 1 view .LVU194
 278:Src/pwm_curr_fdbk.c ****           {
 535              		.loc 1 278 13 is_stmt 0 view .LVU195
 536 01f0 BCB3     		cbz	r4, .L32
 280:Src/pwm_curr_fdbk.c ****             pHandle->midDuty = 2U;
 537              		.loc 1 280 13 is_stmt 1 view .LVU196
 281:Src/pwm_curr_fdbk.c ****             pHandle->highDuty = 0U;
 538              		.loc 1 281 13 view .LVU197
 280:Src/pwm_curr_fdbk.c ****             pHandle->midDuty = 2U;
 539              		.loc 1 280 30 is_stmt 0 view .LVU198
 540 01f2 274C     		ldr	r4, .L44+4
 541 01f4 8465     		str	r4, [r0, #88]
 282:Src/pwm_curr_fdbk.c ****           }
 542              		.loc 1 282 13 is_stmt 1 view .LVU199
 282:Src/pwm_curr_fdbk.c ****           }
 543              		.loc 1 282 31 is_stmt 0 view .LVU200
 544 01f6 0024     		movs	r4, #0
 545 01f8 A0F85C40 		strh	r4, [r0, #92]	@ movhi
 546 01fc 48E7     		b	.L14
 547              	.LVL46:
 548              	.L42:
 188:Src/pwm_curr_fdbk.c ****         wTimePhA = (((int32_t)pHandle->PWMperiod) / 4) + ((wY - wZ) / (int32_t)262144);
 549              		.loc 1 188 9 is_stmt 1 view .LVU201
 189:Src/pwm_curr_fdbk.c ****         wTimePhB = wTimePhA + (wZ / 131072);
 550              		.loc 1 189 69 is_stmt 0 view .LVU202
 551 01fe 921B     		subs	r2, r2, r6
 552              	.LVL47:
 189:Src/pwm_curr_fdbk.c ****         wTimePhB = wTimePhA + (wZ / 131072);
 553              		.loc 1 189 69 view .LVU203
 554 0200 44BF     		itt	mi
 555 0202 02F57F32 		addmi	r2, r2, #261120
 556 0206 02F2FF32 		addwmi	r2, r2, #1023
 190:Src/pwm_curr_fdbk.c ****         wTimePhC = wTimePhA - (wY / 131072) ;
 557              		.loc 1 190 35 view .LVU204
 558 020a 0029     		cmp	r1, #0
 559 020c BCBF     		itt	lt
 560 020e 01F57F31 		addlt	r1, r1, #261120
 561 0212 01F2FF31 		addwlt	r1, r1, #1023
 191:Src/pwm_curr_fdbk.c **** 
 562              		.loc 1 191 35 view .LVU205
 563 0216 002B     		cmp	r3, #0
 191:Src/pwm_curr_fdbk.c **** 
 564              		.loc 1 191 35 view .LVU206
 565 0218 B8BF     		it	lt
 566 021a 03F57F33 		addlt	r3, r3, #261120
 567              	.LVL48:
 189:Src/pwm_curr_fdbk.c ****         wTimePhB = wTimePhA + (wZ / 131072);
 568              		.loc 1 189 18 view .LVU207
 569 021e 07EBA242 		add	r2, r7, r2, asr #18
 188:Src/pwm_curr_fdbk.c ****         wTimePhA = (((int32_t)pHandle->PWMperiod) / 4) + ((wY - wZ) / (int32_t)262144);
 570              		.loc 1 188 25 view .LVU208
ARM GAS  /tmp/cc1UKUxP.s 			page 19


 571 0222 4FF00405 		mov	r5, #4
 572              	.LVL49:
 191:Src/pwm_curr_fdbk.c **** 
 573              		.loc 1 191 35 view .LVU209
 574 0226 B8BF     		it	lt
 575 0228 03F2FF33 		addwlt	r3, r3, #1023
 188:Src/pwm_curr_fdbk.c ****         wTimePhA = (((int32_t)pHandle->PWMperiod) / 4) + ((wY - wZ) / (int32_t)262144);
 576              		.loc 1 188 25 view .LVU210
 577 022c 80F87A50 		strb	r5, [r0, #122]
 189:Src/pwm_curr_fdbk.c ****         wTimePhB = wTimePhA + (wZ / 131072);
 578              		.loc 1 189 9 is_stmt 1 view .LVU211
 579              	.LVL50:
 190:Src/pwm_curr_fdbk.c ****         wTimePhC = wTimePhA - (wY / 131072) ;
 580              		.loc 1 190 9 view .LVU212
 190:Src/pwm_curr_fdbk.c ****         wTimePhC = wTimePhA - (wY / 131072) ;
 581              		.loc 1 190 18 is_stmt 0 view .LVU213
 582 0230 02EBA141 		add	r1, r2, r1, asr #18
 583              	.LVL51:
 191:Src/pwm_curr_fdbk.c **** 
 584              		.loc 1 191 9 is_stmt 1 view .LVU214
 191:Src/pwm_curr_fdbk.c **** 
 585              		.loc 1 191 18 is_stmt 0 view .LVU215
 586 0234 A2EBA343 		sub	r3, r2, r3, asr #18
 587              	.LVL52:
 193:Src/pwm_curr_fdbk.c ****         {
 588              		.loc 1 193 9 is_stmt 1 view .LVU216
 193:Src/pwm_curr_fdbk.c ****         {
 589              		.loc 1 193 11 is_stmt 0 view .LVU217
 590 0238 2CB1     		cbz	r4, .L13
 195:Src/pwm_curr_fdbk.c ****           pHandle->midDuty = 0U;
 591              		.loc 1 195 11 is_stmt 1 view .LVU218
 196:Src/pwm_curr_fdbk.c ****           pHandle->highDuty = 2U;
 592              		.loc 1 196 11 view .LVU219
 195:Src/pwm_curr_fdbk.c ****           pHandle->midDuty = 0U;
 593              		.loc 1 195 28 is_stmt 0 view .LVU220
 594 023a 0125     		movs	r5, #1
 197:Src/pwm_curr_fdbk.c ****         }
 595              		.loc 1 197 29 view .LVU221
 596 023c 0224     		movs	r4, #2
 195:Src/pwm_curr_fdbk.c ****           pHandle->midDuty = 0U;
 597              		.loc 1 195 28 view .LVU222
 598 023e 8565     		str	r5, [r0, #88]
 197:Src/pwm_curr_fdbk.c ****         }
 599              		.loc 1 197 11 is_stmt 1 view .LVU223
 197:Src/pwm_curr_fdbk.c ****         }
 600              		.loc 1 197 29 is_stmt 0 view .LVU224
 601 0240 A0F85C40 		strh	r4, [r0, #92]	@ movhi
 602 0244 24E7     		b	.L14
 603              	.L13:
 201:Src/pwm_curr_fdbk.c ****           pHandle->midDuty = (uint16_t)wTimePhA;
 604              		.loc 1 201 11 is_stmt 1 view .LVU225
 201:Src/pwm_curr_fdbk.c ****           pHandle->midDuty = (uint16_t)wTimePhA;
 605              		.loc 1 201 30 is_stmt 0 view .LVU226
 606 0246 A0F85830 		strh	r3, [r0, #88]	@ movhi
 202:Src/pwm_curr_fdbk.c ****           pHandle->highDuty = (uint16_t)wTimePhB;
 607              		.loc 1 202 11 is_stmt 1 view .LVU227
 202:Src/pwm_curr_fdbk.c ****           pHandle->highDuty = (uint16_t)wTimePhB;
ARM GAS  /tmp/cc1UKUxP.s 			page 20


 608              		.loc 1 202 30 is_stmt 0 view .LVU228
 609 024a A0F85A20 		strh	r2, [r0, #90]	@ movhi
 203:Src/pwm_curr_fdbk.c ****         }
 610              		.loc 1 203 11 is_stmt 1 view .LVU229
 203:Src/pwm_curr_fdbk.c ****         }
 611              		.loc 1 203 31 is_stmt 0 view .LVU230
 612 024e A0F85C10 		strh	r1, [r0, #92]	@ movhi
 613 0252 1DE7     		b	.L14
 614              	.LVL53:
 615              	.L22:
 242:Src/pwm_curr_fdbk.c ****           pHandle->midDuty = (uint16_t)wTimePhC;
 616              		.loc 1 242 11 is_stmt 1 view .LVU231
 242:Src/pwm_curr_fdbk.c ****           pHandle->midDuty = (uint16_t)wTimePhC;
 617              		.loc 1 242 30 is_stmt 0 view .LVU232
 618 0254 A0F85810 		strh	r1, [r0, #88]	@ movhi
 243:Src/pwm_curr_fdbk.c ****           pHandle->highDuty = (uint16_t)wTimePhA;
 619              		.loc 1 243 11 is_stmt 1 view .LVU233
 243:Src/pwm_curr_fdbk.c ****           pHandle->highDuty = (uint16_t)wTimePhA;
 620              		.loc 1 243 30 is_stmt 0 view .LVU234
 621 0258 A0F85A30 		strh	r3, [r0, #90]	@ movhi
 244:Src/pwm_curr_fdbk.c ****         }
 622              		.loc 1 244 11 is_stmt 1 view .LVU235
 244:Src/pwm_curr_fdbk.c ****         }
 623              		.loc 1 244 31 is_stmt 0 view .LVU236
 624 025c A0F85C20 		strh	r2, [r0, #92]	@ movhi
 625 0260 16E7     		b	.L14
 626              	.L32:
 286:Src/pwm_curr_fdbk.c ****             pHandle->midDuty = (uint16_t)wTimePhC;
 627              		.loc 1 286 13 is_stmt 1 view .LVU237
 286:Src/pwm_curr_fdbk.c ****             pHandle->midDuty = (uint16_t)wTimePhC;
 628              		.loc 1 286 32 is_stmt 0 view .LVU238
 629 0262 A0F85820 		strh	r2, [r0, #88]	@ movhi
 287:Src/pwm_curr_fdbk.c ****             pHandle->highDuty = (uint16_t)wTimePhB;
 630              		.loc 1 287 13 is_stmt 1 view .LVU239
 287:Src/pwm_curr_fdbk.c ****             pHandle->highDuty = (uint16_t)wTimePhB;
 631              		.loc 1 287 32 is_stmt 0 view .LVU240
 632 0266 A0F85A30 		strh	r3, [r0, #90]	@ movhi
 288:Src/pwm_curr_fdbk.c ****         }
 633              		.loc 1 288 13 is_stmt 1 view .LVU241
 288:Src/pwm_curr_fdbk.c ****         }
 634              		.loc 1 288 33 is_stmt 0 view .LVU242
 635 026a A0F85C10 		strh	r1, [r0, #92]	@ movhi
 636 026e 0FE7     		b	.L14
 637              	.LVL54:
 638              	.L19:
 222:Src/pwm_curr_fdbk.c ****           pHandle->midDuty = (uint16_t)wTimePhB;
 639              		.loc 1 222 11 is_stmt 1 view .LVU243
 222:Src/pwm_curr_fdbk.c ****           pHandle->midDuty = (uint16_t)wTimePhB;
 640              		.loc 1 222 30 is_stmt 0 view .LVU244
 641 0270 A0F85830 		strh	r3, [r0, #88]	@ movhi
 223:Src/pwm_curr_fdbk.c ****           pHandle->highDuty = (uint16_t)wTimePhA;
 642              		.loc 1 223 11 is_stmt 1 view .LVU245
 223:Src/pwm_curr_fdbk.c ****           pHandle->highDuty = (uint16_t)wTimePhA;
 643              		.loc 1 223 30 is_stmt 0 view .LVU246
 644 0274 A0F85A10 		strh	r1, [r0, #90]	@ movhi
 224:Src/pwm_curr_fdbk.c ****         }
 645              		.loc 1 224 11 is_stmt 1 view .LVU247
ARM GAS  /tmp/cc1UKUxP.s 			page 21


 224:Src/pwm_curr_fdbk.c ****         }
 646              		.loc 1 224 31 is_stmt 0 view .LVU248
 647 0278 A0F85C20 		strh	r2, [r0, #92]	@ movhi
 648 027c 08E7     		b	.L14
 649              	.LVL55:
 650              	.L37:
 306:Src/pwm_curr_fdbk.c ****             pHandle->midDuty = (uint16_t)wTimePhB;
 651              		.loc 1 306 13 is_stmt 1 view .LVU249
 306:Src/pwm_curr_fdbk.c ****             pHandle->midDuty = (uint16_t)wTimePhB;
 652              		.loc 1 306 32 is_stmt 0 view .LVU250
 653 027e A0F85820 		strh	r2, [r0, #88]	@ movhi
 307:Src/pwm_curr_fdbk.c ****             pHandle->highDuty = (uint16_t)wTimePhC;
 654              		.loc 1 307 13 is_stmt 1 view .LVU251
 307:Src/pwm_curr_fdbk.c ****             pHandle->highDuty = (uint16_t)wTimePhC;
 655              		.loc 1 307 32 is_stmt 0 view .LVU252
 656 0282 A0F85A10 		strh	r1, [r0, #90]	@ movhi
 308:Src/pwm_curr_fdbk.c ****         }
 657              		.loc 1 308 13 is_stmt 1 view .LVU253
 308:Src/pwm_curr_fdbk.c ****         }
 658              		.loc 1 308 33 is_stmt 0 view .LVU254
 659 0286 A0F85C30 		strh	r3, [r0, #92]	@ movhi
 660 028a 01E7     		b	.L14
 661              	.L45:
 662              		.align	2
 663              	.L44:
 664 028c 02000100 		.word	65538
 665 0290 01000200 		.word	131073
 666              		.cfi_endproc
 667              	.LFE1443:
 669              		.section	.text.PWMC_SwitchOffPWM,"ax",%progbits
 670              		.align	1
 671              		.p2align 2,,3
 672              		.weak	PWMC_SwitchOffPWM
 673              		.syntax unified
 674              		.thumb
 675              		.thumb_func
 676              		.fpu fpv4-sp-d16
 678              	PWMC_SwitchOffPWM:
 679              	.LVL56:
 680              	.LFB1444:
 323:Src/pwm_curr_fdbk.c **** 
 324:Src/pwm_curr_fdbk.c **** /**
 325:Src/pwm_curr_fdbk.c ****   * @brief  Switches PWM generation off, inactivating the outputs.
 326:Src/pwm_curr_fdbk.c ****   *
 327:Src/pwm_curr_fdbk.c ****   * @param  pHandle: Handler of the current instance of the PWM component.
 328:Src/pwm_curr_fdbk.c ****   */
 329:Src/pwm_curr_fdbk.c **** //cstat !MISRAC2012-Rule-8.13 !RED-func-no-effect
 330:Src/pwm_curr_fdbk.c **** __weak void PWMC_SwitchOffPWM(PWMC_Handle_t *pHandle)
 331:Src/pwm_curr_fdbk.c **** {
 681              		.loc 1 331 1 is_stmt 1 view -0
 682              		.cfi_startproc
 683              		@ args = 0, pretend = 0, frame = 0
 684              		@ frame_needed = 0, uses_anonymous_args = 0
 685              		@ link register save eliminated.
 332:Src/pwm_curr_fdbk.c **** #ifdef NULL_PTR_CHECK_PWR_CUR_FDB
 333:Src/pwm_curr_fdbk.c ****   if (MC_NULL == pHandle)
 334:Src/pwm_curr_fdbk.c ****   {
ARM GAS  /tmp/cc1UKUxP.s 			page 22


 335:Src/pwm_curr_fdbk.c ****     /* Nothing to do */
 336:Src/pwm_curr_fdbk.c ****   }
 337:Src/pwm_curr_fdbk.c ****   else
 338:Src/pwm_curr_fdbk.c ****   {
 339:Src/pwm_curr_fdbk.c **** #endif
 340:Src/pwm_curr_fdbk.c ****     pHandle->pFctSwitchOffPwm(pHandle);
 686              		.loc 1 340 5 view .LVU256
 687 0000 4368     		ldr	r3, [r0, #4]
 688 0002 1847     		bx	r3	@ indirect register sibling call
 689              	.LVL57:
 690              		.loc 1 340 5 is_stmt 0 view .LVU257
 691              		.cfi_endproc
 692              	.LFE1444:
 694              		.section	.text.PWMC_SwitchOnPWM,"ax",%progbits
 695              		.align	1
 696              		.p2align 2,,3
 697              		.weak	PWMC_SwitchOnPWM
 698              		.syntax unified
 699              		.thumb
 700              		.thumb_func
 701              		.fpu fpv4-sp-d16
 703              	PWMC_SwitchOnPWM:
 704              	.LVL58:
 705              	.LFB1445:
 341:Src/pwm_curr_fdbk.c **** #ifdef NULL_PTR_CHECK_PWR_CUR_FDB
 342:Src/pwm_curr_fdbk.c ****   }
 343:Src/pwm_curr_fdbk.c **** #endif
 344:Src/pwm_curr_fdbk.c **** }
 345:Src/pwm_curr_fdbk.c **** 
 346:Src/pwm_curr_fdbk.c **** /**
 347:Src/pwm_curr_fdbk.c ****   * @brief  Enables PWM generation on the proper Timer peripheral.
 348:Src/pwm_curr_fdbk.c ****   *
 349:Src/pwm_curr_fdbk.c ****   * @param  pHandle: Handler of the current instance of the PWM component.
 350:Src/pwm_curr_fdbk.c ****   */
 351:Src/pwm_curr_fdbk.c **** //cstat !MISRAC2012-Rule-8.13 !RED-func-no-effect
 352:Src/pwm_curr_fdbk.c **** __weak void PWMC_SwitchOnPWM(PWMC_Handle_t *pHandle)
 353:Src/pwm_curr_fdbk.c **** {
 706              		.loc 1 353 1 is_stmt 1 view -0
 707              		.cfi_startproc
 708              		@ args = 0, pretend = 0, frame = 0
 709              		@ frame_needed = 0, uses_anonymous_args = 0
 710              		@ link register save eliminated.
 354:Src/pwm_curr_fdbk.c **** #ifdef NULL_PTR_CHECK_PWR_CUR_FDB
 355:Src/pwm_curr_fdbk.c ****   if (MC_NULL == pHandle)
 356:Src/pwm_curr_fdbk.c ****   {
 357:Src/pwm_curr_fdbk.c ****     /* Nothing to do */
 358:Src/pwm_curr_fdbk.c ****   }
 359:Src/pwm_curr_fdbk.c ****   else
 360:Src/pwm_curr_fdbk.c ****   {
 361:Src/pwm_curr_fdbk.c **** #endif
 362:Src/pwm_curr_fdbk.c ****     pHandle->pFctSwitchOnPwm(pHandle);
 711              		.loc 1 362 5 view .LVU259
 712 0000 8368     		ldr	r3, [r0, #8]
 713 0002 1847     		bx	r3	@ indirect register sibling call
 714              	.LVL59:
 715              		.loc 1 362 5 is_stmt 0 view .LVU260
 716              		.cfi_endproc
ARM GAS  /tmp/cc1UKUxP.s 			page 23


 717              	.LFE1445:
 719              		.section	.text.PWMC_CurrentReadingCalibr,"ax",%progbits
 720              		.align	1
 721              		.p2align 2,,3
 722              		.weak	PWMC_CurrentReadingCalibr
 723              		.syntax unified
 724              		.thumb
 725              		.thumb_func
 726              		.fpu fpv4-sp-d16
 728              	PWMC_CurrentReadingCalibr:
 729              	.LVL60:
 730              	.LFB1446:
 363:Src/pwm_curr_fdbk.c **** #ifdef NULL_PTR_CHECK_PWR_CUR_FDB
 364:Src/pwm_curr_fdbk.c ****   }
 365:Src/pwm_curr_fdbk.c **** #endif
 366:Src/pwm_curr_fdbk.c **** }
 367:Src/pwm_curr_fdbk.c **** 
 368:Src/pwm_curr_fdbk.c **** /**
 369:Src/pwm_curr_fdbk.c ****   * @brief  Calibrates ADC current conversions by reading the offset voltage
 370:Src/pwm_curr_fdbk.c ****   *         present on ADC pins when no motor current is flowing in.
 371:Src/pwm_curr_fdbk.c ****   *
 372:Src/pwm_curr_fdbk.c ****   * This function should be called before each motor start-up.
 373:Src/pwm_curr_fdbk.c ****   *
 374:Src/pwm_curr_fdbk.c ****   * @param  pHandle: Handler of the current instance of the PWM component.
 375:Src/pwm_curr_fdbk.c ****   * @param  action: Can be #CRC_START to initialize the offset calibration or
 376:Src/pwm_curr_fdbk.c ****   *         #CRC_EXEC to execute the offset calibration.
 377:Src/pwm_curr_fdbk.c ****   * @retval true if the current calibration has been completed, **false** if it is
 378:Src/pwm_curr_fdbk.c ****   *         still ongoing.
 379:Src/pwm_curr_fdbk.c ****   */
 380:Src/pwm_curr_fdbk.c **** __weak bool PWMC_CurrentReadingCalibr(PWMC_Handle_t *pHandle, CRCAction_t action)
 381:Src/pwm_curr_fdbk.c **** {
 731              		.loc 1 381 1 is_stmt 1 view -0
 732              		.cfi_startproc
 733              		@ args = 0, pretend = 0, frame = 8
 734              		@ frame_needed = 0, uses_anonymous_args = 0
 382:Src/pwm_curr_fdbk.c ****   bool retVal = false;
 735              		.loc 1 382 3 view .LVU262
 383:Src/pwm_curr_fdbk.c **** #ifdef NULL_PTR_CHECK_PWR_CUR_FDB
 384:Src/pwm_curr_fdbk.c ****   if (MC_NULL == pHandle)
 385:Src/pwm_curr_fdbk.c ****   {
 386:Src/pwm_curr_fdbk.c ****     /* Nothing to do */
 387:Src/pwm_curr_fdbk.c ****   }
 388:Src/pwm_curr_fdbk.c ****   else
 389:Src/pwm_curr_fdbk.c ****   {
 390:Src/pwm_curr_fdbk.c **** #endif
 391:Src/pwm_curr_fdbk.c ****     if (CRC_START == action)
 736              		.loc 1 391 5 view .LVU263
 381:Src/pwm_curr_fdbk.c ****   bool retVal = false;
 737              		.loc 1 381 1 is_stmt 0 view .LVU264
 738 0000 10B5     		push	{r4, lr}
 739              	.LCFI5:
 740              		.cfi_def_cfa_offset 8
 741              		.cfi_offset 4, -8
 742              		.cfi_offset 14, -4
 743 0002 0446     		mov	r4, r0
 744 0004 82B0     		sub	sp, sp, #8
 745              	.LCFI6:
ARM GAS  /tmp/cc1UKUxP.s 			page 24


 746              		.cfi_def_cfa_offset 16
 747              		.loc 1 391 8 view .LVU265
 748 0006 99B1     		cbz	r1, .L55
 392:Src/pwm_curr_fdbk.c ****     {
 393:Src/pwm_curr_fdbk.c ****       PWMC_SwitchOffPWM(pHandle);
 394:Src/pwm_curr_fdbk.c ****       pHandle->pFctCurrReadingCalib(pHandle);
 395:Src/pwm_curr_fdbk.c ****       retVal = true;
 396:Src/pwm_curr_fdbk.c ****     }
 397:Src/pwm_curr_fdbk.c ****     else if (CRC_EXEC == action)
 749              		.loc 1 397 10 is_stmt 1 view .LVU266
 750              		.loc 1 397 13 is_stmt 0 view .LVU267
 751 0008 0129     		cmp	r1, #1
 752 000a 02D0     		beq	.L51
 753              	.L52:
 382:Src/pwm_curr_fdbk.c **** #ifdef NULL_PTR_CHECK_PWR_CUR_FDB
 754              		.loc 1 382 8 view .LVU268
 755 000c 0020     		movs	r0, #0
 756              	.LVL61:
 757              	.L50:
 398:Src/pwm_curr_fdbk.c ****     {
 399:Src/pwm_curr_fdbk.c ****       if (pHandle->OffCalibrWaitTimeCounter > 0u)
 400:Src/pwm_curr_fdbk.c ****       {
 401:Src/pwm_curr_fdbk.c ****         pHandle->OffCalibrWaitTimeCounter--;
 402:Src/pwm_curr_fdbk.c ****         if (0U == pHandle->OffCalibrWaitTimeCounter)
 403:Src/pwm_curr_fdbk.c ****         {
 404:Src/pwm_curr_fdbk.c ****           pHandle->pFctCurrReadingCalib(pHandle);
 405:Src/pwm_curr_fdbk.c ****           retVal = true;
 406:Src/pwm_curr_fdbk.c ****         }
 407:Src/pwm_curr_fdbk.c ****       }
 408:Src/pwm_curr_fdbk.c ****       else
 409:Src/pwm_curr_fdbk.c ****       {
 410:Src/pwm_curr_fdbk.c ****         retVal = true;
 411:Src/pwm_curr_fdbk.c ****       }
 412:Src/pwm_curr_fdbk.c ****     }
 413:Src/pwm_curr_fdbk.c ****     else
 414:Src/pwm_curr_fdbk.c ****     {
 415:Src/pwm_curr_fdbk.c ****       /* Nothing to do */
 416:Src/pwm_curr_fdbk.c ****     }
 758              		.loc 1 416 5 is_stmt 1 view .LVU269
 417:Src/pwm_curr_fdbk.c **** #ifdef NULL_PTR_CHECK_PWR_CUR_FDB
 418:Src/pwm_curr_fdbk.c ****   }
 419:Src/pwm_curr_fdbk.c **** #endif
 420:Src/pwm_curr_fdbk.c ****   return (retVal);
 759              		.loc 1 420 3 view .LVU270
 421:Src/pwm_curr_fdbk.c **** }
 760              		.loc 1 421 1 is_stmt 0 view .LVU271
 761 000e 02B0     		add	sp, sp, #8
 762              	.LCFI7:
 763              		.cfi_remember_state
 764              		.cfi_def_cfa_offset 8
 765              		@ sp needed
 766 0010 10BD     		pop	{r4, pc}
 767              	.LVL62:
 768              	.L51:
 769              	.LCFI8:
 770              		.cfi_restore_state
 399:Src/pwm_curr_fdbk.c ****       {
ARM GAS  /tmp/cc1UKUxP.s 			page 25


 771              		.loc 1 399 7 is_stmt 1 view .LVU272
 399:Src/pwm_curr_fdbk.c ****       {
 772              		.loc 1 399 18 is_stmt 0 view .LVU273
 773 0012 B0F86030 		ldrh	r3, [r0, #96]
 399:Src/pwm_curr_fdbk.c ****       {
 774              		.loc 1 399 10 view .LVU274
 775 0016 9BB1     		cbz	r3, .L53
 401:Src/pwm_curr_fdbk.c ****         if (0U == pHandle->OffCalibrWaitTimeCounter)
 776              		.loc 1 401 9 is_stmt 1 view .LVU275
 401:Src/pwm_curr_fdbk.c ****         if (0U == pHandle->OffCalibrWaitTimeCounter)
 777              		.loc 1 401 42 is_stmt 0 view .LVU276
 778 0018 013B     		subs	r3, r3, #1
 779 001a 9BB2     		uxth	r3, r3
 780 001c 0191     		str	r1, [sp, #4]
 781 001e A0F86030 		strh	r3, [r0, #96]	@ movhi
 402:Src/pwm_curr_fdbk.c ****         {
 782              		.loc 1 402 9 is_stmt 1 view .LVU277
 402:Src/pwm_curr_fdbk.c ****         {
 783              		.loc 1 402 12 is_stmt 0 view .LVU278
 784 0022 002B     		cmp	r3, #0
 785 0024 F2D1     		bne	.L52
 404:Src/pwm_curr_fdbk.c ****           retVal = true;
 786              		.loc 1 404 11 is_stmt 1 view .LVU279
 787 0026 C368     		ldr	r3, [r0, #12]
 788 0028 9847     		blx	r3
 789              	.LVL63:
 405:Src/pwm_curr_fdbk.c ****         }
 790              		.loc 1 405 11 view .LVU280
 405:Src/pwm_curr_fdbk.c ****         }
 791              		.loc 1 405 18 is_stmt 0 view .LVU281
 792 002a 0199     		ldr	r1, [sp, #4]
 793 002c 0846     		mov	r0, r1
 794 002e EEE7     		b	.L50
 795              	.LVL64:
 796              	.L55:
 393:Src/pwm_curr_fdbk.c ****       pHandle->pFctCurrReadingCalib(pHandle);
 797              		.loc 1 393 7 is_stmt 1 view .LVU282
 798 0030 FFF7FEFF 		bl	PWMC_SwitchOffPWM
 799              	.LVL65:
 394:Src/pwm_curr_fdbk.c ****       retVal = true;
 800              		.loc 1 394 7 view .LVU283
 801 0034 2046     		mov	r0, r4
 802 0036 E368     		ldr	r3, [r4, #12]
 803 0038 9847     		blx	r3
 804              	.LVL66:
 395:Src/pwm_curr_fdbk.c ****     }
 805              		.loc 1 395 7 view .LVU284
 395:Src/pwm_curr_fdbk.c ****     }
 806              		.loc 1 395 14 is_stmt 0 view .LVU285
 807 003a 0120     		movs	r0, #1
 808              	.LVL67:
 416:Src/pwm_curr_fdbk.c **** #ifdef NULL_PTR_CHECK_PWR_CUR_FDB
 809              		.loc 1 416 5 is_stmt 1 view .LVU286
 420:Src/pwm_curr_fdbk.c **** }
 810              		.loc 1 420 3 view .LVU287
 811              		.loc 1 421 1 is_stmt 0 view .LVU288
 812 003c 02B0     		add	sp, sp, #8
ARM GAS  /tmp/cc1UKUxP.s 			page 26


 813              	.LCFI9:
 814              		.cfi_remember_state
 815              		.cfi_def_cfa_offset 8
 816              		@ sp needed
 817 003e 10BD     		pop	{r4, pc}
 818              	.LVL68:
 819              	.L53:
 820              	.LCFI10:
 821              		.cfi_restore_state
 410:Src/pwm_curr_fdbk.c ****       }
 822              		.loc 1 410 16 view .LVU289
 823 0040 0846     		mov	r0, r1
 824              	.LVL69:
 416:Src/pwm_curr_fdbk.c **** #ifdef NULL_PTR_CHECK_PWR_CUR_FDB
 825              		.loc 1 416 5 is_stmt 1 view .LVU290
 420:Src/pwm_curr_fdbk.c **** }
 826              		.loc 1 420 3 view .LVU291
 827              		.loc 1 421 1 is_stmt 0 view .LVU292
 828 0042 02B0     		add	sp, sp, #8
 829              	.LCFI11:
 830              		.cfi_def_cfa_offset 8
 831              		@ sp needed
 832 0044 10BD     		pop	{r4, pc}
 833              		.loc 1 421 1 view .LVU293
 834              		.cfi_endproc
 835              	.LFE1446:
 837 0046 00BF     		.section	.text.PWMC_CalcPhaseCurrentsEst,"ax",%progbits
 838              		.align	1
 839              		.p2align 2,,3
 840              		.global	PWMC_CalcPhaseCurrentsEst
 841              		.syntax unified
 842              		.thumb
 843              		.thumb_func
 844              		.fpu fpv4-sp-d16
 846              	PWMC_CalcPhaseCurrentsEst:
 847              	.LVL70:
 848              	.LFB1448:
 422:Src/pwm_curr_fdbk.c **** 
 423:Src/pwm_curr_fdbk.c **** #if defined (CCMRAM)
 424:Src/pwm_curr_fdbk.c **** #if defined (__ICCARM__)
 425:Src/pwm_curr_fdbk.c **** #pragma location = ".ccmram"
 426:Src/pwm_curr_fdbk.c **** #elif defined (__CC_ARM) || defined(__GNUC__)
 427:Src/pwm_curr_fdbk.c **** __attribute__( ( section ( ".ccmram" ) ) )
 428:Src/pwm_curr_fdbk.c **** #endif
 429:Src/pwm_curr_fdbk.c **** #endif
 430:Src/pwm_curr_fdbk.c **** /**
 431:Src/pwm_curr_fdbk.c ****   * @brief  Sets a low pass filter.
 432:Src/pwm_curr_fdbk.c ****   *
 433:Src/pwm_curr_fdbk.c ****   * This function is called for setting low pass filter on Iq and Id, before getting
 434:Src/pwm_curr_fdbk.c ****   * transformed in Ia and Ib by the Reverse Park function.
 435:Src/pwm_curr_fdbk.c ****   *
 436:Src/pwm_curr_fdbk.c ****   * @param in: Value needing to be passed through the filter (Iq and Id).
 437:Src/pwm_curr_fdbk.c ****   * @param out_buf: LPF buffer.
 438:Src/pwm_curr_fdbk.c ****   * @param t: Low pass filter constant.
 439:Src/pwm_curr_fdbk.c ****   * @retval New value after the low pass filter.
 440:Src/pwm_curr_fdbk.c ****   */
 441:Src/pwm_curr_fdbk.c **** static inline int32_t PWMC_LowPassFilter(int32_t in, int32_t *out_buf, int32_t t)
ARM GAS  /tmp/cc1UKUxP.s 			page 27


 442:Src/pwm_curr_fdbk.c **** {
 443:Src/pwm_curr_fdbk.c ****   int32_t x;
 444:Src/pwm_curr_fdbk.c **** #ifdef NULL_PTR_CHECK_PWR_CUR_FDB
 445:Src/pwm_curr_fdbk.c ****   if (MC_NULL == out_buf)
 446:Src/pwm_curr_fdbk.c ****   {
 447:Src/pwm_curr_fdbk.c ****     x = 0;
 448:Src/pwm_curr_fdbk.c ****   }
 449:Src/pwm_curr_fdbk.c ****   else
 450:Src/pwm_curr_fdbk.c ****   {
 451:Src/pwm_curr_fdbk.c **** #endif
 452:Src/pwm_curr_fdbk.c **** #ifndef FULL_MISRA_C_COMPLIANCY_PWM_CURR
 453:Src/pwm_curr_fdbk.c ****     //cstat !MISRAC2012-Rule-1.3_n !ATH-shift-neg !MISRAC2012-Rule-10.1_R6
 454:Src/pwm_curr_fdbk.c ****     *out_buf = (*out_buf) + ((in - ((*out_buf) >> 15)) * t);
 455:Src/pwm_curr_fdbk.c ****     x = (*out_buf) >> 15; //cstat !MISRAC2012-Rule-1.3_n !ATH-shift-neg !MISRAC2012-Rule-10.1_R6
 456:Src/pwm_curr_fdbk.c **** #else
 457:Src/pwm_curr_fdbk.c ****     *out_buf = (*out_buf) + ((in - ((*out_buf) / 32768)) * t);
 458:Src/pwm_curr_fdbk.c ****     x = (*out_buf) / 32768;
 459:Src/pwm_curr_fdbk.c **** 
 460:Src/pwm_curr_fdbk.c **** #endif
 461:Src/pwm_curr_fdbk.c **** #ifdef NULL_PTR_CHECK_PWR_CUR_FDB
 462:Src/pwm_curr_fdbk.c ****   }
 463:Src/pwm_curr_fdbk.c **** #endif
 464:Src/pwm_curr_fdbk.c ****   return (x);
 465:Src/pwm_curr_fdbk.c **** }
 466:Src/pwm_curr_fdbk.c **** 
 467:Src/pwm_curr_fdbk.c **** #if defined (CCMRAM)
 468:Src/pwm_curr_fdbk.c **** #if defined (__ICCARM__)
 469:Src/pwm_curr_fdbk.c **** #pragma location = ".ccmram"
 470:Src/pwm_curr_fdbk.c **** #elif defined (__CC_ARM) || defined(__GNUC__)
 471:Src/pwm_curr_fdbk.c **** __attribute__( ( section ( ".ccmram" ) ) )
 472:Src/pwm_curr_fdbk.c **** #endif
 473:Src/pwm_curr_fdbk.c **** #endif
 474:Src/pwm_curr_fdbk.c **** /**
 475:Src/pwm_curr_fdbk.c ****   * @brief  Converts input currents components Iqd into estimated
 476:Src/pwm_curr_fdbk.c ****   *         currents Ia, Ib and Ic.
 477:Src/pwm_curr_fdbk.c ****   *
 478:Src/pwm_curr_fdbk.c ****   * @param  pHandle: Handler of the current instance of the PWM component.
 479:Src/pwm_curr_fdbk.c ****   * @param  Iqd: Structure that will receive Iq and Id currents.
 480:Src/pwm_curr_fdbk.c ****   * @param  hElAngledpp: Electrical angle.
 481:Src/pwm_curr_fdbk.c ****   */
 482:Src/pwm_curr_fdbk.c **** void PWMC_CalcPhaseCurrentsEst(PWMC_Handle_t *pHandle, qd_t Iqd, int16_t hElAngledpp)
 483:Src/pwm_curr_fdbk.c **** {
 849              		.loc 1 483 1 is_stmt 1 view -0
 850              		.cfi_startproc
 851              		@ args = 0, pretend = 0, frame = 16
 852              		@ frame_needed = 0, uses_anonymous_args = 0
 484:Src/pwm_curr_fdbk.c **** #ifdef NULL_PTR_CHECK_PWR_CUR_FDB
 485:Src/pwm_curr_fdbk.c ****   if (MC_NULL == pHandle)
 486:Src/pwm_curr_fdbk.c ****   {
 487:Src/pwm_curr_fdbk.c ****     /* Nothing to do */
 488:Src/pwm_curr_fdbk.c ****   }
 489:Src/pwm_curr_fdbk.c ****   else
 490:Src/pwm_curr_fdbk.c ****   {
 491:Src/pwm_curr_fdbk.c **** #endif
 492:Src/pwm_curr_fdbk.c ****     qd_t idq_ave;
 853              		.loc 1 492 5 view .LVU295
 493:Src/pwm_curr_fdbk.c ****     alphabeta_t ialpha_beta;
ARM GAS  /tmp/cc1UKUxP.s 			page 28


 854              		.loc 1 493 5 view .LVU296
 494:Src/pwm_curr_fdbk.c ****     int32_t temp1, temp2;
 855              		.loc 1 494 5 view .LVU297
 495:Src/pwm_curr_fdbk.c **** 
 496:Src/pwm_curr_fdbk.c ****     idq_ave.q = (int16_t)PWMC_LowPassFilter(Iqd.q, &(pHandle->LPFIqBuf), pHandle->LPFIqd_const);
 856              		.loc 1 496 5 view .LVU298
 483:Src/pwm_curr_fdbk.c **** #ifdef NULL_PTR_CHECK_PWR_CUR_FDB
 857              		.loc 1 483 1 is_stmt 0 view .LVU299
 858 0000 70B5     		push	{r4, r5, r6, lr}
 859              	.LCFI12:
 860              		.cfi_def_cfa_offset 16
 861              		.cfi_offset 4, -16
 862              		.cfi_offset 5, -12
 863              		.cfi_offset 6, -8
 864              		.cfi_offset 14, -4
 865 0002 0446     		mov	r4, r0
 866              	.LBB18:
 867              	.LBB19:
 454:Src/pwm_curr_fdbk.c ****     x = (*out_buf) >> 15; //cstat !MISRAC2012-Rule-1.3_n !ATH-shift-neg !MISRAC2012-Rule-10.1_R6
 868              		.loc 1 454 17 view .LVU300
 869 0004 D4E90D36 		ldrd	r3, r6, [r4, #52]
 870              	.LBE19:
 871              	.LBE18:
 483:Src/pwm_curr_fdbk.c **** #ifdef NULL_PTR_CHECK_PWR_CUR_FDB
 872              		.loc 1 483 1 view .LVU301
 873 0008 84B0     		sub	sp, sp, #16
 874              	.LCFI13:
 875              		.cfi_def_cfa_offset 32
 876              	.LBB23:
 877              	.LBB24:
 454:Src/pwm_curr_fdbk.c ****     x = (*out_buf) >> 15; //cstat !MISRAC2012-Rule-1.3_n !ATH-shift-neg !MISRAC2012-Rule-10.1_R6
 878              		.loc 1 454 48 view .LVU302
 879 000a F513     		asrs	r5, r6, #15
 880              	.LBE24:
 881              	.LBE23:
 483:Src/pwm_curr_fdbk.c **** #ifdef NULL_PTR_CHECK_PWR_CUR_FDB
 882              		.loc 1 483 1 view .LVU303
 883 000c 0191     		str	r1, [sp, #4]
 884              		.loc 1 496 26 view .LVU304
 885 000e 08B2     		sxth	r0, r1
 886              	.LVL71:
 887              	.LBB28:
 888              	.LBB25:
 454:Src/pwm_curr_fdbk.c ****     x = (*out_buf) >> 15; //cstat !MISRAC2012-Rule-1.3_n !ATH-shift-neg !MISRAC2012-Rule-10.1_R6
 889              		.loc 1 454 34 view .LVU305
 890 0010 C5EB2145 		rsb	r5, r5, r1, asr #16
 891              	.LBE25:
 892              	.LBE28:
 893              		.loc 1 496 26 view .LVU306
 894 0014 B4F96E10 		ldrsh	r1, [r4, #110]
 895              	.LVL72:
 896              	.LBB29:
 897              	.LBI18:
 441:Src/pwm_curr_fdbk.c **** {
 898              		.loc 1 441 23 is_stmt 1 view .LVU307
 899              	.LBB20:
 443:Src/pwm_curr_fdbk.c **** #ifdef NULL_PTR_CHECK_PWR_CUR_FDB
ARM GAS  /tmp/cc1UKUxP.s 			page 29


 900              		.loc 1 443 3 view .LVU308
 454:Src/pwm_curr_fdbk.c ****     x = (*out_buf) >> 15; //cstat !MISRAC2012-Rule-1.3_n !ATH-shift-neg !MISRAC2012-Rule-10.1_R6
 901              		.loc 1 454 5 view .LVU309
 454:Src/pwm_curr_fdbk.c ****     x = (*out_buf) >> 15; //cstat !MISRAC2012-Rule-1.3_n !ATH-shift-neg !MISRAC2012-Rule-10.1_R6
 902              		.loc 1 454 34 is_stmt 0 view .LVU310
 903 0018 A0EBE330 		sub	r0, r0, r3, asr #15
 454:Src/pwm_curr_fdbk.c ****     x = (*out_buf) >> 15; //cstat !MISRAC2012-Rule-1.3_n !ATH-shift-neg !MISRAC2012-Rule-10.1_R6
 904              		.loc 1 454 27 view .LVU311
 905 001c 01FB0033 		mla	r3, r1, r0, r3
 906              	.LBE20:
 907              	.LBE29:
 908              	.LBB30:
 909              	.LBB26:
 910 0020 01FB0565 		mla	r5, r1, r5, r6
 455:Src/pwm_curr_fdbk.c **** #else
 911              		.loc 1 455 7 view .LVU312
 912 0024 E813     		asrs	r0, r5, #15
 913              	.LBE26:
 914              	.LBE30:
 915              	.LBB31:
 916              	.LBB21:
 917 0026 D913     		asrs	r1, r3, #15
 918              	.LVL73:
 455:Src/pwm_curr_fdbk.c **** #else
 919              		.loc 1 455 7 view .LVU313
 920              	.LBE21:
 921              	.LBE31:
 922              		.loc 1 496 17 view .LVU314
 923 0028 ADF80810 		strh	r1, [sp, #8]	@ movhi
 497:Src/pwm_curr_fdbk.c ****     idq_ave.d = (int16_t)PWMC_LowPassFilter(Iqd.d, &(pHandle->LPFIdBuf), pHandle->LPFIqd_const);
 924              		.loc 1 497 17 view .LVU315
 925 002c ADF80A00 		strh	r0, [sp, #10]	@ movhi
 498:Src/pwm_curr_fdbk.c **** 
 499:Src/pwm_curr_fdbk.c ****     ialpha_beta = MCM_Rev_Park(idq_ave, hElAngledpp);
 926              		.loc 1 499 19 view .LVU316
 927 0030 1146     		mov	r1, r2
 928              	.LBB32:
 929              	.LBB22:
 454:Src/pwm_curr_fdbk.c ****     x = (*out_buf) >> 15; //cstat !MISRAC2012-Rule-1.3_n !ATH-shift-neg !MISRAC2012-Rule-10.1_R6
 930              		.loc 1 454 14 view .LVU317
 931 0032 C4E90D35 		strd	r3, r5, [r4, #52]
 455:Src/pwm_curr_fdbk.c **** #else
 932              		.loc 1 455 5 is_stmt 1 view .LVU318
 933              	.LVL74:
 464:Src/pwm_curr_fdbk.c **** }
 934              		.loc 1 464 3 view .LVU319
 464:Src/pwm_curr_fdbk.c **** }
 935              		.loc 1 464 3 is_stmt 0 view .LVU320
 936              	.LBE22:
 937              	.LBE32:
 497:Src/pwm_curr_fdbk.c **** 
 938              		.loc 1 497 5 is_stmt 1 view .LVU321
 939              	.LBB33:
 940              	.LBI23:
 441:Src/pwm_curr_fdbk.c **** {
 941              		.loc 1 441 23 view .LVU322
 942              	.LBB27:
ARM GAS  /tmp/cc1UKUxP.s 			page 30


 443:Src/pwm_curr_fdbk.c **** #ifdef NULL_PTR_CHECK_PWR_CUR_FDB
 943              		.loc 1 443 3 view .LVU323
 454:Src/pwm_curr_fdbk.c ****     x = (*out_buf) >> 15; //cstat !MISRAC2012-Rule-1.3_n !ATH-shift-neg !MISRAC2012-Rule-10.1_R6
 944              		.loc 1 454 5 view .LVU324
 455:Src/pwm_curr_fdbk.c **** #else
 945              		.loc 1 455 5 view .LVU325
 464:Src/pwm_curr_fdbk.c **** }
 946              		.loc 1 464 3 view .LVU326
 464:Src/pwm_curr_fdbk.c **** }
 947              		.loc 1 464 3 is_stmt 0 view .LVU327
 948              	.LBE27:
 949              	.LBE33:
 950              		.loc 1 499 5 is_stmt 1 view .LVU328
 951              		.loc 1 499 19 is_stmt 0 view .LVU329
 952 0036 0298     		ldr	r0, [sp, #8]
 953 0038 FFF7FEFF 		bl	MCM_Rev_Park
 954              	.LVL75:
 955              		.loc 1 499 19 view .LVU330
 956 003c 01B2     		sxth	r1, r0
 957              	.LVL76:
 500:Src/pwm_curr_fdbk.c **** 
 501:Src/pwm_curr_fdbk.c ****     /* Reverse Clarke */
 502:Src/pwm_curr_fdbk.c **** 
 503:Src/pwm_curr_fdbk.c ****     /*Ia*/
 504:Src/pwm_curr_fdbk.c ****     pHandle->IaEst = ialpha_beta.alpha;
 958              		.loc 1 504 5 is_stmt 1 view .LVU331
 505:Src/pwm_curr_fdbk.c **** 
 506:Src/pwm_curr_fdbk.c ****     temp1 = - ialpha_beta.alpha;
 959              		.loc 1 506 11 is_stmt 0 view .LVU332
 960 003e 4B42     		rsbs	r3, r1, #0
 507:Src/pwm_curr_fdbk.c **** #ifndef FULL_MISRA_C_COMPLIANCY_PWM_CURR
 508:Src/pwm_curr_fdbk.c ****     //cstat !MISRAC2012-Rule-1.3_n !ATH-shift-neg !MISRAC2012-Rule-10.1_R6
 509:Src/pwm_curr_fdbk.c ****     temp2 = (int32_t)(ialpha_beta.beta) * ((int32_t)SQRT3FACTOR >> 15);
 510:Src/pwm_curr_fdbk.c **** #else
 511:Src/pwm_curr_fdbk.c ****     temp2 = (int32_t)(ialpha_beta.beta) * (int32_t)SQRT3FACTOR / 32768;
 512:Src/pwm_curr_fdbk.c **** #endif
 513:Src/pwm_curr_fdbk.c **** 
 514:Src/pwm_curr_fdbk.c ****     /* Ib */
 515:Src/pwm_curr_fdbk.c ****     pHandle->IbEst = (int16_t)(temp1 - temp2)/2;
 961              		.loc 1 515 38 view .LVU333
 962 0040 9BB2     		uxth	r3, r3
 963 0042 000C     		lsrs	r0, r0, #16
 964 0044 1A1A     		subs	r2, r3, r0
 516:Src/pwm_curr_fdbk.c **** 
 517:Src/pwm_curr_fdbk.c ****     /* Ic */
 518:Src/pwm_curr_fdbk.c ****     pHandle->IcEst = (int16_t)(temp1 + temp2)/2;
 965              		.loc 1 518 38 view .LVU334
 966 0046 1844     		add	r0, r0, r3
 967              		.loc 1 518 20 view .LVU335
 968 0048 00B2     		sxth	r0, r0
 515:Src/pwm_curr_fdbk.c **** 
 969              		.loc 1 515 20 view .LVU336
 970 004a 13B2     		sxth	r3, r2
 971 004c 03EBD373 		add	r3, r3, r3, lsr #31
 972              		.loc 1 518 20 view .LVU337
 973 0050 00EBD070 		add	r0, r0, r0, lsr #31
 515:Src/pwm_curr_fdbk.c **** 
ARM GAS  /tmp/cc1UKUxP.s 			page 31


 974              		.loc 1 515 20 view .LVU338
 975 0054 5B10     		asrs	r3, r3, #1
 976              		.loc 1 518 20 view .LVU339
 977 0056 4010     		asrs	r0, r0, #1
 504:Src/pwm_curr_fdbk.c **** 
 978              		.loc 1 504 20 view .LVU340
 979 0058 A4F86810 		strh	r1, [r4, #104]	@ movhi
 506:Src/pwm_curr_fdbk.c **** #ifndef FULL_MISRA_C_COMPLIANCY_PWM_CURR
 980              		.loc 1 506 5 is_stmt 1 view .LVU341
 981              	.LVL77:
 509:Src/pwm_curr_fdbk.c **** #else
 982              		.loc 1 509 5 view .LVU342
 515:Src/pwm_curr_fdbk.c **** 
 983              		.loc 1 515 5 view .LVU343
 515:Src/pwm_curr_fdbk.c **** 
 984              		.loc 1 515 20 is_stmt 0 view .LVU344
 985 005c A4F86A30 		strh	r3, [r4, #106]	@ movhi
 986              		.loc 1 518 5 is_stmt 1 view .LVU345
 987              		.loc 1 518 20 is_stmt 0 view .LVU346
 988 0060 A4F86C00 		strh	r0, [r4, #108]	@ movhi
 989              	.LVL78:
 519:Src/pwm_curr_fdbk.c **** #ifdef NULL_PTR_CHECK_PWR_CUR_FDB
 520:Src/pwm_curr_fdbk.c ****   }
 521:Src/pwm_curr_fdbk.c **** #endif
 522:Src/pwm_curr_fdbk.c **** }
 990              		.loc 1 522 1 view .LVU347
 991 0064 04B0     		add	sp, sp, #16
 992              	.LCFI14:
 993              		.cfi_def_cfa_offset 16
 994              		@ sp needed
 995 0066 70BD     		pop	{r4, r5, r6, pc}
 996              		.loc 1 522 1 view .LVU348
 997              		.cfi_endproc
 998              	.LFE1448:
 1000              		.section	.text.PWMC_TurnOnLowSides,"ax",%progbits
 1001              		.align	1
 1002              		.p2align 2,,3
 1003              		.weak	PWMC_TurnOnLowSides
 1004              		.syntax unified
 1005              		.thumb
 1006              		.thumb_func
 1007              		.fpu fpv4-sp-d16
 1009              	PWMC_TurnOnLowSides:
 1010              	.LVL79:
 1011              	.LFB1449:
 523:Src/pwm_curr_fdbk.c **** 
 524:Src/pwm_curr_fdbk.c **** /**
 525:Src/pwm_curr_fdbk.c ****   * @brief  Switches power stage Low Sides transistors on.
 526:Src/pwm_curr_fdbk.c ****   *
 527:Src/pwm_curr_fdbk.c ****   * This function is meant for charging boot capacitors of the driving
 528:Src/pwm_curr_fdbk.c ****   * section. It has to be called on each motor start-up when using high
 529:Src/pwm_curr_fdbk.c ****   * voltage drivers.
 530:Src/pwm_curr_fdbk.c ****   *
 531:Src/pwm_curr_fdbk.c ****   * @param  pHandle: Handler of the current instance of the PWM component.
 532:Src/pwm_curr_fdbk.c ****   * @param  ticks: Timer ticks value to be applied.
 533:Src/pwm_curr_fdbk.c ****   *                Min value: 0 (low sides ON)
 534:Src/pwm_curr_fdbk.c ****   *                Max value: PWM_PERIOD_CYCLES/2 (low sides OFF)
ARM GAS  /tmp/cc1UKUxP.s 			page 32


 535:Src/pwm_curr_fdbk.c ****   */
 536:Src/pwm_curr_fdbk.c **** //cstat !MISRAC2012-Rule-8.13 !RED-func-no-effect
 537:Src/pwm_curr_fdbk.c **** __weak void PWMC_TurnOnLowSides(PWMC_Handle_t *pHandle, uint32_t ticks)
 538:Src/pwm_curr_fdbk.c **** {
 1012              		.loc 1 538 1 is_stmt 1 view -0
 1013              		.cfi_startproc
 1014              		@ args = 0, pretend = 0, frame = 0
 1015              		@ frame_needed = 0, uses_anonymous_args = 0
 1016              		@ link register save eliminated.
 539:Src/pwm_curr_fdbk.c **** #ifdef NULL_PTR_CHECK_PWR_CUR_FDB
 540:Src/pwm_curr_fdbk.c ****   if (MC_NULL == pHandle)
 541:Src/pwm_curr_fdbk.c ****   {
 542:Src/pwm_curr_fdbk.c ****     /* Nothing to do */
 543:Src/pwm_curr_fdbk.c ****   }
 544:Src/pwm_curr_fdbk.c ****   else
 545:Src/pwm_curr_fdbk.c ****   {
 546:Src/pwm_curr_fdbk.c **** #endif
 547:Src/pwm_curr_fdbk.c ****     pHandle->pFctTurnOnLowSides(pHandle, ticks);
 1017              		.loc 1 547 5 view .LVU350
 1018 0000 0369     		ldr	r3, [r0, #16]
 1019 0002 1847     		bx	r3	@ indirect register sibling call
 1020              	.LVL80:
 1021              		.loc 1 547 5 is_stmt 0 view .LVU351
 1022              		.cfi_endproc
 1023              	.LFE1449:
 1025              		.section	.text.PWMC_OCP_Handler,"ax",%progbits
 1026              		.align	1
 1027              		.p2align 2,,3
 1028              		.weak	PWMC_OCP_Handler
 1029              		.syntax unified
 1030              		.thumb
 1031              		.thumb_func
 1032              		.fpu fpv4-sp-d16
 1034              	PWMC_OCP_Handler:
 1035              	.LVL81:
 1036              	.LFB1450:
 548:Src/pwm_curr_fdbk.c **** #ifdef NULL_PTR_CHECK_PWR_CUR_FDB
 549:Src/pwm_curr_fdbk.c ****   }
 550:Src/pwm_curr_fdbk.c **** #endif
 551:Src/pwm_curr_fdbk.c **** }
 552:Src/pwm_curr_fdbk.c **** 
 553:Src/pwm_curr_fdbk.c **** #if defined (CCMRAM)
 554:Src/pwm_curr_fdbk.c **** #if defined (__ICCARM__)
 555:Src/pwm_curr_fdbk.c **** #pragma location = ".ccmram"
 556:Src/pwm_curr_fdbk.c **** #elif defined (__CC_ARM) || defined(__GNUC__)
 557:Src/pwm_curr_fdbk.c **** __attribute__((section(".ccmram")))
 558:Src/pwm_curr_fdbk.c **** #endif
 559:Src/pwm_curr_fdbk.c **** #endif
 560:Src/pwm_curr_fdbk.c **** /*
 561:Src/pwm_curr_fdbk.c ****   * @brief  Manages HW overcurrent protection.
 562:Src/pwm_curr_fdbk.c ****   *
 563:Src/pwm_curr_fdbk.c ****   * @param  pHandle: Handler of the current instance of the PWM component.
 564:Src/pwm_curr_fdbk.c ****   */
 565:Src/pwm_curr_fdbk.c **** __weak void *PWMC_OCP_Handler(PWMC_Handle_t *pHandle)
 566:Src/pwm_curr_fdbk.c **** {
 1037              		.loc 1 566 1 is_stmt 1 view -0
 1038              		.cfi_startproc
ARM GAS  /tmp/cc1UKUxP.s 			page 33


 1039              		@ args = 0, pretend = 0, frame = 0
 1040              		@ frame_needed = 0, uses_anonymous_args = 0
 1041              		@ link register save eliminated.
 567:Src/pwm_curr_fdbk.c ****   void *tempPointer; //cstat !MISRAC2012-Rule-8.13
 1042              		.loc 1 567 3 view .LVU353
 568:Src/pwm_curr_fdbk.c **** #ifdef NULL_PTR_CHECK_PWR_CUR_FDB
 569:Src/pwm_curr_fdbk.c ****   if (MC_NULL == pHandle)
 570:Src/pwm_curr_fdbk.c ****   {
 571:Src/pwm_curr_fdbk.c ****     tempPointer = MC_NULL;
 572:Src/pwm_curr_fdbk.c ****   }
 573:Src/pwm_curr_fdbk.c ****   else
 574:Src/pwm_curr_fdbk.c ****   {
 575:Src/pwm_curr_fdbk.c **** #endif
 576:Src/pwm_curr_fdbk.c ****     if (false == pHandle->BrakeActionLock)
 1043              		.loc 1 576 5 view .LVU354
 1044              		.loc 1 576 8 is_stmt 0 view .LVU355
 1045 0000 90F88330 		ldrb	r3, [r0, #131]	@ zero_extendqisi2
 1046 0004 1BB9     		cbnz	r3, .L62
 577:Src/pwm_curr_fdbk.c ****     {
 578:Src/pwm_curr_fdbk.c ****       if (ES_GPIO == pHandle->LowSideOutputs)
 1047              		.loc 1 578 7 is_stmt 1 view .LVU356
 1048              		.loc 1 578 10 is_stmt 0 view .LVU357
 1049 0006 90F87B30 		ldrb	r3, [r0, #123]	@ zero_extendqisi2
 1050 000a 022B     		cmp	r3, #2
 1051 000c 04D0     		beq	.L65
 1052              	.L62:
 579:Src/pwm_curr_fdbk.c ****       {
 580:Src/pwm_curr_fdbk.c ****         LL_GPIO_ResetOutputPin(pHandle->pwm_en_u_port, pHandle->pwm_en_u_pin);
 581:Src/pwm_curr_fdbk.c ****         LL_GPIO_ResetOutputPin(pHandle->pwm_en_v_port, pHandle->pwm_en_v_pin);
 582:Src/pwm_curr_fdbk.c ****         LL_GPIO_ResetOutputPin(pHandle->pwm_en_w_port, pHandle->pwm_en_w_pin);
 583:Src/pwm_curr_fdbk.c ****       }
 584:Src/pwm_curr_fdbk.c ****       else
 585:Src/pwm_curr_fdbk.c ****       {
 586:Src/pwm_curr_fdbk.c ****         /* Nothing to do */
 587:Src/pwm_curr_fdbk.c ****       }
 588:Src/pwm_curr_fdbk.c ****     }
 589:Src/pwm_curr_fdbk.c ****     else
 590:Src/pwm_curr_fdbk.c ****     {
 591:Src/pwm_curr_fdbk.c ****       /* Nothing to do */
 592:Src/pwm_curr_fdbk.c ****     }
 1053              		.loc 1 592 5 is_stmt 1 view .LVU358
 593:Src/pwm_curr_fdbk.c ****     pHandle->OverCurrentFlag = true;
 1054              		.loc 1 593 5 view .LVU359
 1055              		.loc 1 593 30 is_stmt 0 view .LVU360
 1056 000e 0123     		movs	r3, #1
 1057 0010 80F88030 		strb	r3, [r0, #128]
 594:Src/pwm_curr_fdbk.c ****     tempPointer = &(pHandle->Motor);
 1058              		.loc 1 594 5 is_stmt 1 view .LVU361
 1059              	.LVL82:
 595:Src/pwm_curr_fdbk.c **** #ifdef NULL_PTR_CHECK_PWR_CUR_FDB
 596:Src/pwm_curr_fdbk.c ****   }
 597:Src/pwm_curr_fdbk.c **** #endif
 598:Src/pwm_curr_fdbk.c ****   return (tempPointer);
 1060              		.loc 1 598 3 view .LVU362
 599:Src/pwm_curr_fdbk.c **** }
 1061              		.loc 1 599 1 is_stmt 0 view .LVU363
 1062 0014 7830     		adds	r0, r0, #120
ARM GAS  /tmp/cc1UKUxP.s 			page 34


 1063              	.LVL83:
 1064              		.loc 1 599 1 view .LVU364
 1065 0016 7047     		bx	lr
 1066              	.LVL84:
 1067              	.L65:
 580:Src/pwm_curr_fdbk.c ****         LL_GPIO_ResetOutputPin(pHandle->pwm_en_v_port, pHandle->pwm_en_v_pin);
 1068              		.loc 1 580 9 is_stmt 1 view .LVU365
 566:Src/pwm_curr_fdbk.c ****   void *tempPointer; //cstat !MISRAC2012-Rule-8.13
 1069              		.loc 1 566 1 is_stmt 0 view .LVU366
 1070 0018 30B4     		push	{r4, r5}
 1071              	.LCFI15:
 1072              		.cfi_def_cfa_offset 8
 1073              		.cfi_offset 4, -8
 1074              		.cfi_offset 5, -4
 581:Src/pwm_curr_fdbk.c ****         LL_GPIO_ResetOutputPin(pHandle->pwm_en_w_port, pHandle->pwm_en_w_pin);
 1075              		.loc 1 581 9 view .LVU367
 1076 001a D0E90F21 		ldrd	r2, r1, [r0, #60]
 582:Src/pwm_curr_fdbk.c ****       }
 1077              		.loc 1 582 9 view .LVU368
 1078 001e 436C     		ldr	r3, [r0, #68]
 580:Src/pwm_curr_fdbk.c ****         LL_GPIO_ResetOutputPin(pHandle->pwm_en_v_port, pHandle->pwm_en_v_pin);
 1079              		.loc 1 580 9 view .LVU369
 1080 0020 B0F84850 		ldrh	r5, [r0, #72]
 1081              	.LVL85:
 1082              	.LBB34:
 1083              	.LBI34:
 1084              		.file 2 "Drivers/STM32G4xx_HAL_Driver/Inc/stm32g4xx_ll_gpio.h"
   1:Drivers/STM32G4xx_HAL_Driver/Inc/stm32g4xx_ll_gpio.h **** /**
   2:Drivers/STM32G4xx_HAL_Driver/Inc/stm32g4xx_ll_gpio.h ****   ******************************************************************************
   3:Drivers/STM32G4xx_HAL_Driver/Inc/stm32g4xx_ll_gpio.h ****   * @file    stm32g4xx_ll_gpio.h
   4:Drivers/STM32G4xx_HAL_Driver/Inc/stm32g4xx_ll_gpio.h ****   * @author  MCD Application Team
   5:Drivers/STM32G4xx_HAL_Driver/Inc/stm32g4xx_ll_gpio.h ****   * @brief   Header file of GPIO LL module.
   6:Drivers/STM32G4xx_HAL_Driver/Inc/stm32g4xx_ll_gpio.h ****   ******************************************************************************
   7:Drivers/STM32G4xx_HAL_Driver/Inc/stm32g4xx_ll_gpio.h ****   * @attention
   8:Drivers/STM32G4xx_HAL_Driver/Inc/stm32g4xx_ll_gpio.h ****   *
   9:Drivers/STM32G4xx_HAL_Driver/Inc/stm32g4xx_ll_gpio.h ****   * Copyright (c) 2019 STMicroelectronics.
  10:Drivers/STM32G4xx_HAL_Driver/Inc/stm32g4xx_ll_gpio.h ****   * All rights reserved.
  11:Drivers/STM32G4xx_HAL_Driver/Inc/stm32g4xx_ll_gpio.h ****   *
  12:Drivers/STM32G4xx_HAL_Driver/Inc/stm32g4xx_ll_gpio.h ****   * This software is licensed under terms that can be found in the LICENSE file
  13:Drivers/STM32G4xx_HAL_Driver/Inc/stm32g4xx_ll_gpio.h ****   * in the root directory of this software component.
  14:Drivers/STM32G4xx_HAL_Driver/Inc/stm32g4xx_ll_gpio.h ****   * If no LICENSE file comes with this software, it is provided AS-IS.
  15:Drivers/STM32G4xx_HAL_Driver/Inc/stm32g4xx_ll_gpio.h ****   *
  16:Drivers/STM32G4xx_HAL_Driver/Inc/stm32g4xx_ll_gpio.h ****   ******************************************************************************
  17:Drivers/STM32G4xx_HAL_Driver/Inc/stm32g4xx_ll_gpio.h ****   */
  18:Drivers/STM32G4xx_HAL_Driver/Inc/stm32g4xx_ll_gpio.h **** 
  19:Drivers/STM32G4xx_HAL_Driver/Inc/stm32g4xx_ll_gpio.h **** /* Define to prevent recursive inclusion -------------------------------------*/
  20:Drivers/STM32G4xx_HAL_Driver/Inc/stm32g4xx_ll_gpio.h **** #ifndef STM32G4xx_LL_GPIO_H
  21:Drivers/STM32G4xx_HAL_Driver/Inc/stm32g4xx_ll_gpio.h **** #define STM32G4xx_LL_GPIO_H
  22:Drivers/STM32G4xx_HAL_Driver/Inc/stm32g4xx_ll_gpio.h **** 
  23:Drivers/STM32G4xx_HAL_Driver/Inc/stm32g4xx_ll_gpio.h **** #ifdef __cplusplus
  24:Drivers/STM32G4xx_HAL_Driver/Inc/stm32g4xx_ll_gpio.h **** extern "C" {
  25:Drivers/STM32G4xx_HAL_Driver/Inc/stm32g4xx_ll_gpio.h **** #endif
  26:Drivers/STM32G4xx_HAL_Driver/Inc/stm32g4xx_ll_gpio.h **** 
  27:Drivers/STM32G4xx_HAL_Driver/Inc/stm32g4xx_ll_gpio.h **** /* Includes ------------------------------------------------------------------*/
  28:Drivers/STM32G4xx_HAL_Driver/Inc/stm32g4xx_ll_gpio.h **** #include "stm32g4xx.h"
  29:Drivers/STM32G4xx_HAL_Driver/Inc/stm32g4xx_ll_gpio.h **** 
  30:Drivers/STM32G4xx_HAL_Driver/Inc/stm32g4xx_ll_gpio.h **** /** @addtogroup STM32G4xx_LL_Driver
ARM GAS  /tmp/cc1UKUxP.s 			page 35


  31:Drivers/STM32G4xx_HAL_Driver/Inc/stm32g4xx_ll_gpio.h ****   * @{
  32:Drivers/STM32G4xx_HAL_Driver/Inc/stm32g4xx_ll_gpio.h ****   */
  33:Drivers/STM32G4xx_HAL_Driver/Inc/stm32g4xx_ll_gpio.h **** 
  34:Drivers/STM32G4xx_HAL_Driver/Inc/stm32g4xx_ll_gpio.h **** #if defined (GPIOA) || defined (GPIOB) || defined (GPIOC) || defined (GPIOD) || defined (GPIOE) || 
  35:Drivers/STM32G4xx_HAL_Driver/Inc/stm32g4xx_ll_gpio.h **** 
  36:Drivers/STM32G4xx_HAL_Driver/Inc/stm32g4xx_ll_gpio.h **** /** @defgroup GPIO_LL GPIO
  37:Drivers/STM32G4xx_HAL_Driver/Inc/stm32g4xx_ll_gpio.h ****   * @{
  38:Drivers/STM32G4xx_HAL_Driver/Inc/stm32g4xx_ll_gpio.h ****   */
  39:Drivers/STM32G4xx_HAL_Driver/Inc/stm32g4xx_ll_gpio.h **** /** MISRA C:2012 deviation rule has been granted for following rules:
  40:Drivers/STM32G4xx_HAL_Driver/Inc/stm32g4xx_ll_gpio.h ****   * Rule-18.1_d - Medium: Array pointer `GPIOx' is accessed with index [..,..]
  41:Drivers/STM32G4xx_HAL_Driver/Inc/stm32g4xx_ll_gpio.h ****   * which may be out of array bounds [..,UNKNOWN] in following APIs:
  42:Drivers/STM32G4xx_HAL_Driver/Inc/stm32g4xx_ll_gpio.h ****   * LL_GPIO_GetAFPin_0_7
  43:Drivers/STM32G4xx_HAL_Driver/Inc/stm32g4xx_ll_gpio.h ****   * LL_GPIO_SetAFPin_0_7
  44:Drivers/STM32G4xx_HAL_Driver/Inc/stm32g4xx_ll_gpio.h ****   * LL_GPIO_SetAFPin_8_15
  45:Drivers/STM32G4xx_HAL_Driver/Inc/stm32g4xx_ll_gpio.h ****   * LL_GPIO_GetAFPin_8_15
  46:Drivers/STM32G4xx_HAL_Driver/Inc/stm32g4xx_ll_gpio.h ****   */
  47:Drivers/STM32G4xx_HAL_Driver/Inc/stm32g4xx_ll_gpio.h **** 
  48:Drivers/STM32G4xx_HAL_Driver/Inc/stm32g4xx_ll_gpio.h **** /* Private types -------------------------------------------------------------*/
  49:Drivers/STM32G4xx_HAL_Driver/Inc/stm32g4xx_ll_gpio.h **** /* Private variables ---------------------------------------------------------*/
  50:Drivers/STM32G4xx_HAL_Driver/Inc/stm32g4xx_ll_gpio.h **** /* Private constants ---------------------------------------------------------*/
  51:Drivers/STM32G4xx_HAL_Driver/Inc/stm32g4xx_ll_gpio.h **** /* Private macros ------------------------------------------------------------*/
  52:Drivers/STM32G4xx_HAL_Driver/Inc/stm32g4xx_ll_gpio.h **** #if defined(USE_FULL_LL_DRIVER)
  53:Drivers/STM32G4xx_HAL_Driver/Inc/stm32g4xx_ll_gpio.h **** /** @defgroup GPIO_LL_Private_Macros GPIO Private Macros
  54:Drivers/STM32G4xx_HAL_Driver/Inc/stm32g4xx_ll_gpio.h ****   * @{
  55:Drivers/STM32G4xx_HAL_Driver/Inc/stm32g4xx_ll_gpio.h ****   */
  56:Drivers/STM32G4xx_HAL_Driver/Inc/stm32g4xx_ll_gpio.h **** 
  57:Drivers/STM32G4xx_HAL_Driver/Inc/stm32g4xx_ll_gpio.h **** /**
  58:Drivers/STM32G4xx_HAL_Driver/Inc/stm32g4xx_ll_gpio.h ****   * @}
  59:Drivers/STM32G4xx_HAL_Driver/Inc/stm32g4xx_ll_gpio.h ****   */
  60:Drivers/STM32G4xx_HAL_Driver/Inc/stm32g4xx_ll_gpio.h **** #endif /*USE_FULL_LL_DRIVER*/
  61:Drivers/STM32G4xx_HAL_Driver/Inc/stm32g4xx_ll_gpio.h **** 
  62:Drivers/STM32G4xx_HAL_Driver/Inc/stm32g4xx_ll_gpio.h **** /* Exported types ------------------------------------------------------------*/
  63:Drivers/STM32G4xx_HAL_Driver/Inc/stm32g4xx_ll_gpio.h **** #if defined(USE_FULL_LL_DRIVER)
  64:Drivers/STM32G4xx_HAL_Driver/Inc/stm32g4xx_ll_gpio.h **** /** @defgroup GPIO_LL_ES_INIT GPIO Exported Init structures
  65:Drivers/STM32G4xx_HAL_Driver/Inc/stm32g4xx_ll_gpio.h ****   * @{
  66:Drivers/STM32G4xx_HAL_Driver/Inc/stm32g4xx_ll_gpio.h ****   */
  67:Drivers/STM32G4xx_HAL_Driver/Inc/stm32g4xx_ll_gpio.h **** 
  68:Drivers/STM32G4xx_HAL_Driver/Inc/stm32g4xx_ll_gpio.h **** /**
  69:Drivers/STM32G4xx_HAL_Driver/Inc/stm32g4xx_ll_gpio.h ****   * @brief LL GPIO Init Structure definition
  70:Drivers/STM32G4xx_HAL_Driver/Inc/stm32g4xx_ll_gpio.h ****   */
  71:Drivers/STM32G4xx_HAL_Driver/Inc/stm32g4xx_ll_gpio.h **** typedef struct
  72:Drivers/STM32G4xx_HAL_Driver/Inc/stm32g4xx_ll_gpio.h **** {
  73:Drivers/STM32G4xx_HAL_Driver/Inc/stm32g4xx_ll_gpio.h ****   uint32_t Pin;          /*!< Specifies the GPIO pins to be configured.
  74:Drivers/STM32G4xx_HAL_Driver/Inc/stm32g4xx_ll_gpio.h ****                               This parameter can be any value of @ref GPIO_LL_EC_PIN */
  75:Drivers/STM32G4xx_HAL_Driver/Inc/stm32g4xx_ll_gpio.h **** 
  76:Drivers/STM32G4xx_HAL_Driver/Inc/stm32g4xx_ll_gpio.h ****   uint32_t Mode;         /*!< Specifies the operating mode for the selected pins.
  77:Drivers/STM32G4xx_HAL_Driver/Inc/stm32g4xx_ll_gpio.h ****                               This parameter can be a value of @ref GPIO_LL_EC_MODE.
  78:Drivers/STM32G4xx_HAL_Driver/Inc/stm32g4xx_ll_gpio.h **** 
  79:Drivers/STM32G4xx_HAL_Driver/Inc/stm32g4xx_ll_gpio.h ****                               GPIO HW configuration can be modified afterwards using unitary functi
  80:Drivers/STM32G4xx_HAL_Driver/Inc/stm32g4xx_ll_gpio.h **** 
  81:Drivers/STM32G4xx_HAL_Driver/Inc/stm32g4xx_ll_gpio.h ****   uint32_t Speed;        /*!< Specifies the speed for the selected pins.
  82:Drivers/STM32G4xx_HAL_Driver/Inc/stm32g4xx_ll_gpio.h ****                               This parameter can be a value of @ref GPIO_LL_EC_SPEED.
  83:Drivers/STM32G4xx_HAL_Driver/Inc/stm32g4xx_ll_gpio.h **** 
  84:Drivers/STM32G4xx_HAL_Driver/Inc/stm32g4xx_ll_gpio.h ****                               GPIO HW configuration can be modified afterwards using unitary functi
  85:Drivers/STM32G4xx_HAL_Driver/Inc/stm32g4xx_ll_gpio.h **** 
  86:Drivers/STM32G4xx_HAL_Driver/Inc/stm32g4xx_ll_gpio.h ****   uint32_t OutputType;   /*!< Specifies the operating output type for the selected pins.
  87:Drivers/STM32G4xx_HAL_Driver/Inc/stm32g4xx_ll_gpio.h ****                               This parameter can be a value of @ref GPIO_LL_EC_OUTPUT.
ARM GAS  /tmp/cc1UKUxP.s 			page 36


  88:Drivers/STM32G4xx_HAL_Driver/Inc/stm32g4xx_ll_gpio.h **** 
  89:Drivers/STM32G4xx_HAL_Driver/Inc/stm32g4xx_ll_gpio.h ****                               GPIO HW configuration can be modified afterwards using unitary functi
  90:Drivers/STM32G4xx_HAL_Driver/Inc/stm32g4xx_ll_gpio.h **** 
  91:Drivers/STM32G4xx_HAL_Driver/Inc/stm32g4xx_ll_gpio.h ****   uint32_t Pull;         /*!< Specifies the operating Pull-up/Pull down for the selected pins.
  92:Drivers/STM32G4xx_HAL_Driver/Inc/stm32g4xx_ll_gpio.h ****                               This parameter can be a value of @ref GPIO_LL_EC_PULL.
  93:Drivers/STM32G4xx_HAL_Driver/Inc/stm32g4xx_ll_gpio.h **** 
  94:Drivers/STM32G4xx_HAL_Driver/Inc/stm32g4xx_ll_gpio.h ****                               GPIO HW configuration can be modified afterwards using unitary functi
  95:Drivers/STM32G4xx_HAL_Driver/Inc/stm32g4xx_ll_gpio.h **** 
  96:Drivers/STM32G4xx_HAL_Driver/Inc/stm32g4xx_ll_gpio.h ****   uint32_t Alternate;    /*!< Specifies the Peripheral to be connected to the selected pins.
  97:Drivers/STM32G4xx_HAL_Driver/Inc/stm32g4xx_ll_gpio.h ****                               This parameter can be a value of @ref GPIO_LL_EC_AF.
  98:Drivers/STM32G4xx_HAL_Driver/Inc/stm32g4xx_ll_gpio.h **** 
  99:Drivers/STM32G4xx_HAL_Driver/Inc/stm32g4xx_ll_gpio.h ****                               GPIO HW configuration can be modified afterwards using unitary functi
 100:Drivers/STM32G4xx_HAL_Driver/Inc/stm32g4xx_ll_gpio.h **** } LL_GPIO_InitTypeDef;
 101:Drivers/STM32G4xx_HAL_Driver/Inc/stm32g4xx_ll_gpio.h **** 
 102:Drivers/STM32G4xx_HAL_Driver/Inc/stm32g4xx_ll_gpio.h **** /**
 103:Drivers/STM32G4xx_HAL_Driver/Inc/stm32g4xx_ll_gpio.h ****   * @}
 104:Drivers/STM32G4xx_HAL_Driver/Inc/stm32g4xx_ll_gpio.h ****   */
 105:Drivers/STM32G4xx_HAL_Driver/Inc/stm32g4xx_ll_gpio.h **** #endif /* USE_FULL_LL_DRIVER */
 106:Drivers/STM32G4xx_HAL_Driver/Inc/stm32g4xx_ll_gpio.h **** 
 107:Drivers/STM32G4xx_HAL_Driver/Inc/stm32g4xx_ll_gpio.h **** /* Exported constants --------------------------------------------------------*/
 108:Drivers/STM32G4xx_HAL_Driver/Inc/stm32g4xx_ll_gpio.h **** /** @defgroup GPIO_LL_Exported_Constants GPIO Exported Constants
 109:Drivers/STM32G4xx_HAL_Driver/Inc/stm32g4xx_ll_gpio.h ****   * @{
 110:Drivers/STM32G4xx_HAL_Driver/Inc/stm32g4xx_ll_gpio.h ****   */
 111:Drivers/STM32G4xx_HAL_Driver/Inc/stm32g4xx_ll_gpio.h **** 
 112:Drivers/STM32G4xx_HAL_Driver/Inc/stm32g4xx_ll_gpio.h **** /** @defgroup GPIO_LL_EC_PIN PIN
 113:Drivers/STM32G4xx_HAL_Driver/Inc/stm32g4xx_ll_gpio.h ****   * @{
 114:Drivers/STM32G4xx_HAL_Driver/Inc/stm32g4xx_ll_gpio.h ****   */
 115:Drivers/STM32G4xx_HAL_Driver/Inc/stm32g4xx_ll_gpio.h **** #define LL_GPIO_PIN_0                      GPIO_BSRR_BS0 /*!< Select pin 0 */
 116:Drivers/STM32G4xx_HAL_Driver/Inc/stm32g4xx_ll_gpio.h **** #define LL_GPIO_PIN_1                      GPIO_BSRR_BS1 /*!< Select pin 1 */
 117:Drivers/STM32G4xx_HAL_Driver/Inc/stm32g4xx_ll_gpio.h **** #define LL_GPIO_PIN_2                      GPIO_BSRR_BS2 /*!< Select pin 2 */
 118:Drivers/STM32G4xx_HAL_Driver/Inc/stm32g4xx_ll_gpio.h **** #define LL_GPIO_PIN_3                      GPIO_BSRR_BS3 /*!< Select pin 3 */
 119:Drivers/STM32G4xx_HAL_Driver/Inc/stm32g4xx_ll_gpio.h **** #define LL_GPIO_PIN_4                      GPIO_BSRR_BS4 /*!< Select pin 4 */
 120:Drivers/STM32G4xx_HAL_Driver/Inc/stm32g4xx_ll_gpio.h **** #define LL_GPIO_PIN_5                      GPIO_BSRR_BS5 /*!< Select pin 5 */
 121:Drivers/STM32G4xx_HAL_Driver/Inc/stm32g4xx_ll_gpio.h **** #define LL_GPIO_PIN_6                      GPIO_BSRR_BS6 /*!< Select pin 6 */
 122:Drivers/STM32G4xx_HAL_Driver/Inc/stm32g4xx_ll_gpio.h **** #define LL_GPIO_PIN_7                      GPIO_BSRR_BS7 /*!< Select pin 7 */
 123:Drivers/STM32G4xx_HAL_Driver/Inc/stm32g4xx_ll_gpio.h **** #define LL_GPIO_PIN_8                      GPIO_BSRR_BS8 /*!< Select pin 8 */
 124:Drivers/STM32G4xx_HAL_Driver/Inc/stm32g4xx_ll_gpio.h **** #define LL_GPIO_PIN_9                      GPIO_BSRR_BS9 /*!< Select pin 9 */
 125:Drivers/STM32G4xx_HAL_Driver/Inc/stm32g4xx_ll_gpio.h **** #define LL_GPIO_PIN_10                     GPIO_BSRR_BS10 /*!< Select pin 10 */
 126:Drivers/STM32G4xx_HAL_Driver/Inc/stm32g4xx_ll_gpio.h **** #define LL_GPIO_PIN_11                     GPIO_BSRR_BS11 /*!< Select pin 11 */
 127:Drivers/STM32G4xx_HAL_Driver/Inc/stm32g4xx_ll_gpio.h **** #define LL_GPIO_PIN_12                     GPIO_BSRR_BS12 /*!< Select pin 12 */
 128:Drivers/STM32G4xx_HAL_Driver/Inc/stm32g4xx_ll_gpio.h **** #define LL_GPIO_PIN_13                     GPIO_BSRR_BS13 /*!< Select pin 13 */
 129:Drivers/STM32G4xx_HAL_Driver/Inc/stm32g4xx_ll_gpio.h **** #define LL_GPIO_PIN_14                     GPIO_BSRR_BS14 /*!< Select pin 14 */
 130:Drivers/STM32G4xx_HAL_Driver/Inc/stm32g4xx_ll_gpio.h **** #define LL_GPIO_PIN_15                     GPIO_BSRR_BS15 /*!< Select pin 15 */
 131:Drivers/STM32G4xx_HAL_Driver/Inc/stm32g4xx_ll_gpio.h **** #define LL_GPIO_PIN_ALL                    (GPIO_BSRR_BS0 | GPIO_BSRR_BS1  | GPIO_BSRR_BS2  | \
 132:Drivers/STM32G4xx_HAL_Driver/Inc/stm32g4xx_ll_gpio.h ****                                            GPIO_BSRR_BS3  | GPIO_BSRR_BS4  | GPIO_BSRR_BS5  | \
 133:Drivers/STM32G4xx_HAL_Driver/Inc/stm32g4xx_ll_gpio.h ****                                            GPIO_BSRR_BS6  | GPIO_BSRR_BS7  | GPIO_BSRR_BS8  | \
 134:Drivers/STM32G4xx_HAL_Driver/Inc/stm32g4xx_ll_gpio.h ****                                            GPIO_BSRR_BS9  | GPIO_BSRR_BS10 | GPIO_BSRR_BS11 | \
 135:Drivers/STM32G4xx_HAL_Driver/Inc/stm32g4xx_ll_gpio.h ****                                            GPIO_BSRR_BS12 | GPIO_BSRR_BS13 | GPIO_BSRR_BS14 | \
 136:Drivers/STM32G4xx_HAL_Driver/Inc/stm32g4xx_ll_gpio.h ****                                            GPIO_BSRR_BS15) /*!< Select all pins */
 137:Drivers/STM32G4xx_HAL_Driver/Inc/stm32g4xx_ll_gpio.h **** /**
 138:Drivers/STM32G4xx_HAL_Driver/Inc/stm32g4xx_ll_gpio.h ****   * @}
 139:Drivers/STM32G4xx_HAL_Driver/Inc/stm32g4xx_ll_gpio.h ****   */
 140:Drivers/STM32G4xx_HAL_Driver/Inc/stm32g4xx_ll_gpio.h **** 
 141:Drivers/STM32G4xx_HAL_Driver/Inc/stm32g4xx_ll_gpio.h **** /** @defgroup GPIO_LL_EC_MODE Mode
 142:Drivers/STM32G4xx_HAL_Driver/Inc/stm32g4xx_ll_gpio.h ****   * @{
 143:Drivers/STM32G4xx_HAL_Driver/Inc/stm32g4xx_ll_gpio.h ****   */
 144:Drivers/STM32G4xx_HAL_Driver/Inc/stm32g4xx_ll_gpio.h **** #define LL_GPIO_MODE_INPUT                 (0x00000000U) /*!< Select input mode */
ARM GAS  /tmp/cc1UKUxP.s 			page 37


 145:Drivers/STM32G4xx_HAL_Driver/Inc/stm32g4xx_ll_gpio.h **** #define LL_GPIO_MODE_OUTPUT                GPIO_MODER_MODE0_0  /*!< Select output mode */
 146:Drivers/STM32G4xx_HAL_Driver/Inc/stm32g4xx_ll_gpio.h **** #define LL_GPIO_MODE_ALTERNATE             GPIO_MODER_MODE0_1  /*!< Select alternate function mode 
 147:Drivers/STM32G4xx_HAL_Driver/Inc/stm32g4xx_ll_gpio.h **** #define LL_GPIO_MODE_ANALOG                GPIO_MODER_MODE0    /*!< Select analog mode */
 148:Drivers/STM32G4xx_HAL_Driver/Inc/stm32g4xx_ll_gpio.h **** /**
 149:Drivers/STM32G4xx_HAL_Driver/Inc/stm32g4xx_ll_gpio.h ****   * @}
 150:Drivers/STM32G4xx_HAL_Driver/Inc/stm32g4xx_ll_gpio.h ****   */
 151:Drivers/STM32G4xx_HAL_Driver/Inc/stm32g4xx_ll_gpio.h **** 
 152:Drivers/STM32G4xx_HAL_Driver/Inc/stm32g4xx_ll_gpio.h **** /** @defgroup GPIO_LL_EC_OUTPUT Output Type
 153:Drivers/STM32G4xx_HAL_Driver/Inc/stm32g4xx_ll_gpio.h ****   * @{
 154:Drivers/STM32G4xx_HAL_Driver/Inc/stm32g4xx_ll_gpio.h ****   */
 155:Drivers/STM32G4xx_HAL_Driver/Inc/stm32g4xx_ll_gpio.h **** #define LL_GPIO_OUTPUT_PUSHPULL            (0x00000000U) /*!< Select push-pull as output type */
 156:Drivers/STM32G4xx_HAL_Driver/Inc/stm32g4xx_ll_gpio.h **** #define LL_GPIO_OUTPUT_OPENDRAIN           GPIO_OTYPER_OT0 /*!< Select open-drain as output type */
 157:Drivers/STM32G4xx_HAL_Driver/Inc/stm32g4xx_ll_gpio.h **** /**
 158:Drivers/STM32G4xx_HAL_Driver/Inc/stm32g4xx_ll_gpio.h ****   * @}
 159:Drivers/STM32G4xx_HAL_Driver/Inc/stm32g4xx_ll_gpio.h ****   */
 160:Drivers/STM32G4xx_HAL_Driver/Inc/stm32g4xx_ll_gpio.h **** 
 161:Drivers/STM32G4xx_HAL_Driver/Inc/stm32g4xx_ll_gpio.h **** /** @defgroup GPIO_LL_EC_SPEED Output Speed
 162:Drivers/STM32G4xx_HAL_Driver/Inc/stm32g4xx_ll_gpio.h ****   * @{
 163:Drivers/STM32G4xx_HAL_Driver/Inc/stm32g4xx_ll_gpio.h ****   */
 164:Drivers/STM32G4xx_HAL_Driver/Inc/stm32g4xx_ll_gpio.h **** #define LL_GPIO_SPEED_FREQ_LOW             (0x00000000U) /*!< Select I/O low output speed    */
 165:Drivers/STM32G4xx_HAL_Driver/Inc/stm32g4xx_ll_gpio.h **** #define LL_GPIO_SPEED_FREQ_MEDIUM          GPIO_OSPEEDR_OSPEED0_0 /*!< Select I/O medium output spe
 166:Drivers/STM32G4xx_HAL_Driver/Inc/stm32g4xx_ll_gpio.h **** #define LL_GPIO_SPEED_FREQ_HIGH            GPIO_OSPEEDR_OSPEED0_1 /*!< Select I/O fast output speed
 167:Drivers/STM32G4xx_HAL_Driver/Inc/stm32g4xx_ll_gpio.h **** #define LL_GPIO_SPEED_FREQ_VERY_HIGH       GPIO_OSPEEDR_OSPEED0   /*!< Select I/O high output speed
 168:Drivers/STM32G4xx_HAL_Driver/Inc/stm32g4xx_ll_gpio.h **** /**
 169:Drivers/STM32G4xx_HAL_Driver/Inc/stm32g4xx_ll_gpio.h ****   * @}
 170:Drivers/STM32G4xx_HAL_Driver/Inc/stm32g4xx_ll_gpio.h ****   */
 171:Drivers/STM32G4xx_HAL_Driver/Inc/stm32g4xx_ll_gpio.h **** #define LL_GPIO_SPEED_LOW                  LL_GPIO_SPEED_FREQ_LOW
 172:Drivers/STM32G4xx_HAL_Driver/Inc/stm32g4xx_ll_gpio.h **** #define LL_GPIO_SPEED_MEDIUM               LL_GPIO_SPEED_FREQ_MEDIUM
 173:Drivers/STM32G4xx_HAL_Driver/Inc/stm32g4xx_ll_gpio.h **** #define LL_GPIO_SPEED_FAST                 LL_GPIO_SPEED_FREQ_HIGH
 174:Drivers/STM32G4xx_HAL_Driver/Inc/stm32g4xx_ll_gpio.h **** #define LL_GPIO_SPEED_HIGH                 LL_GPIO_SPEED_FREQ_VERY_HIGH
 175:Drivers/STM32G4xx_HAL_Driver/Inc/stm32g4xx_ll_gpio.h **** 
 176:Drivers/STM32G4xx_HAL_Driver/Inc/stm32g4xx_ll_gpio.h **** /** @defgroup GPIO_LL_EC_PULL Pull Up Pull Down
 177:Drivers/STM32G4xx_HAL_Driver/Inc/stm32g4xx_ll_gpio.h ****   * @{
 178:Drivers/STM32G4xx_HAL_Driver/Inc/stm32g4xx_ll_gpio.h ****   */
 179:Drivers/STM32G4xx_HAL_Driver/Inc/stm32g4xx_ll_gpio.h **** #define LL_GPIO_PULL_NO                    (0x00000000U) /*!< Select I/O no pull */
 180:Drivers/STM32G4xx_HAL_Driver/Inc/stm32g4xx_ll_gpio.h **** #define LL_GPIO_PULL_UP                    GPIO_PUPDR_PUPD0_0 /*!< Select I/O pull up */
 181:Drivers/STM32G4xx_HAL_Driver/Inc/stm32g4xx_ll_gpio.h **** #define LL_GPIO_PULL_DOWN                  GPIO_PUPDR_PUPD0_1 /*!< Select I/O pull down */
 182:Drivers/STM32G4xx_HAL_Driver/Inc/stm32g4xx_ll_gpio.h **** /**
 183:Drivers/STM32G4xx_HAL_Driver/Inc/stm32g4xx_ll_gpio.h ****   * @}
 184:Drivers/STM32G4xx_HAL_Driver/Inc/stm32g4xx_ll_gpio.h ****   */
 185:Drivers/STM32G4xx_HAL_Driver/Inc/stm32g4xx_ll_gpio.h **** 
 186:Drivers/STM32G4xx_HAL_Driver/Inc/stm32g4xx_ll_gpio.h **** /** @defgroup GPIO_LL_EC_AF Alternate Function
 187:Drivers/STM32G4xx_HAL_Driver/Inc/stm32g4xx_ll_gpio.h ****   * @{
 188:Drivers/STM32G4xx_HAL_Driver/Inc/stm32g4xx_ll_gpio.h ****   */
 189:Drivers/STM32G4xx_HAL_Driver/Inc/stm32g4xx_ll_gpio.h **** #define LL_GPIO_AF_0                       (0x0000000U) /*!< Select alternate function 0 */
 190:Drivers/STM32G4xx_HAL_Driver/Inc/stm32g4xx_ll_gpio.h **** #define LL_GPIO_AF_1                       (0x0000001U) /*!< Select alternate function 1 */
 191:Drivers/STM32G4xx_HAL_Driver/Inc/stm32g4xx_ll_gpio.h **** #define LL_GPIO_AF_2                       (0x0000002U) /*!< Select alternate function 2 */
 192:Drivers/STM32G4xx_HAL_Driver/Inc/stm32g4xx_ll_gpio.h **** #define LL_GPIO_AF_3                       (0x0000003U) /*!< Select alternate function 3 */
 193:Drivers/STM32G4xx_HAL_Driver/Inc/stm32g4xx_ll_gpio.h **** #define LL_GPIO_AF_4                       (0x0000004U) /*!< Select alternate function 4 */
 194:Drivers/STM32G4xx_HAL_Driver/Inc/stm32g4xx_ll_gpio.h **** #define LL_GPIO_AF_5                       (0x0000005U) /*!< Select alternate function 5 */
 195:Drivers/STM32G4xx_HAL_Driver/Inc/stm32g4xx_ll_gpio.h **** #define LL_GPIO_AF_6                       (0x0000006U) /*!< Select alternate function 6 */
 196:Drivers/STM32G4xx_HAL_Driver/Inc/stm32g4xx_ll_gpio.h **** #define LL_GPIO_AF_7                       (0x0000007U) /*!< Select alternate function 7 */
 197:Drivers/STM32G4xx_HAL_Driver/Inc/stm32g4xx_ll_gpio.h **** #define LL_GPIO_AF_8                       (0x0000008U) /*!< Select alternate function 8 */
 198:Drivers/STM32G4xx_HAL_Driver/Inc/stm32g4xx_ll_gpio.h **** #define LL_GPIO_AF_9                       (0x0000009U) /*!< Select alternate function 9 */
 199:Drivers/STM32G4xx_HAL_Driver/Inc/stm32g4xx_ll_gpio.h **** #define LL_GPIO_AF_10                      (0x000000AU) /*!< Select alternate function 10 */
 200:Drivers/STM32G4xx_HAL_Driver/Inc/stm32g4xx_ll_gpio.h **** #define LL_GPIO_AF_11                      (0x000000BU) /*!< Select alternate function 11 */
 201:Drivers/STM32G4xx_HAL_Driver/Inc/stm32g4xx_ll_gpio.h **** #define LL_GPIO_AF_12                      (0x000000CU) /*!< Select alternate function 12 */
ARM GAS  /tmp/cc1UKUxP.s 			page 38


 202:Drivers/STM32G4xx_HAL_Driver/Inc/stm32g4xx_ll_gpio.h **** #define LL_GPIO_AF_13                      (0x000000DU) /*!< Select alternate function 13 */
 203:Drivers/STM32G4xx_HAL_Driver/Inc/stm32g4xx_ll_gpio.h **** #define LL_GPIO_AF_14                      (0x000000EU) /*!< Select alternate function 14 */
 204:Drivers/STM32G4xx_HAL_Driver/Inc/stm32g4xx_ll_gpio.h **** #define LL_GPIO_AF_15                      (0x000000FU) /*!< Select alternate function 15 */
 205:Drivers/STM32G4xx_HAL_Driver/Inc/stm32g4xx_ll_gpio.h **** /**
 206:Drivers/STM32G4xx_HAL_Driver/Inc/stm32g4xx_ll_gpio.h ****   * @}
 207:Drivers/STM32G4xx_HAL_Driver/Inc/stm32g4xx_ll_gpio.h ****   */
 208:Drivers/STM32G4xx_HAL_Driver/Inc/stm32g4xx_ll_gpio.h **** 
 209:Drivers/STM32G4xx_HAL_Driver/Inc/stm32g4xx_ll_gpio.h **** /**
 210:Drivers/STM32G4xx_HAL_Driver/Inc/stm32g4xx_ll_gpio.h ****   * @}
 211:Drivers/STM32G4xx_HAL_Driver/Inc/stm32g4xx_ll_gpio.h ****   */
 212:Drivers/STM32G4xx_HAL_Driver/Inc/stm32g4xx_ll_gpio.h **** 
 213:Drivers/STM32G4xx_HAL_Driver/Inc/stm32g4xx_ll_gpio.h **** /* Exported macro ------------------------------------------------------------*/
 214:Drivers/STM32G4xx_HAL_Driver/Inc/stm32g4xx_ll_gpio.h **** /** @defgroup GPIO_LL_Exported_Macros GPIO Exported Macros
 215:Drivers/STM32G4xx_HAL_Driver/Inc/stm32g4xx_ll_gpio.h ****   * @{
 216:Drivers/STM32G4xx_HAL_Driver/Inc/stm32g4xx_ll_gpio.h ****   */
 217:Drivers/STM32G4xx_HAL_Driver/Inc/stm32g4xx_ll_gpio.h **** 
 218:Drivers/STM32G4xx_HAL_Driver/Inc/stm32g4xx_ll_gpio.h **** /** @defgroup GPIO_LL_EM_WRITE_READ Common Write and read registers Macros
 219:Drivers/STM32G4xx_HAL_Driver/Inc/stm32g4xx_ll_gpio.h ****   * @{
 220:Drivers/STM32G4xx_HAL_Driver/Inc/stm32g4xx_ll_gpio.h ****   */
 221:Drivers/STM32G4xx_HAL_Driver/Inc/stm32g4xx_ll_gpio.h **** 
 222:Drivers/STM32G4xx_HAL_Driver/Inc/stm32g4xx_ll_gpio.h **** /**
 223:Drivers/STM32G4xx_HAL_Driver/Inc/stm32g4xx_ll_gpio.h ****   * @brief  Write a value in GPIO register
 224:Drivers/STM32G4xx_HAL_Driver/Inc/stm32g4xx_ll_gpio.h ****   * @param  __INSTANCE__ GPIO Instance
 225:Drivers/STM32G4xx_HAL_Driver/Inc/stm32g4xx_ll_gpio.h ****   * @param  __REG__ Register to be written
 226:Drivers/STM32G4xx_HAL_Driver/Inc/stm32g4xx_ll_gpio.h ****   * @param  __VALUE__ Value to be written in the register
 227:Drivers/STM32G4xx_HAL_Driver/Inc/stm32g4xx_ll_gpio.h ****   * @retval None
 228:Drivers/STM32G4xx_HAL_Driver/Inc/stm32g4xx_ll_gpio.h ****   */
 229:Drivers/STM32G4xx_HAL_Driver/Inc/stm32g4xx_ll_gpio.h **** #define LL_GPIO_WriteReg(__INSTANCE__, __REG__, __VALUE__) WRITE_REG(__INSTANCE__->__REG__, (__VALU
 230:Drivers/STM32G4xx_HAL_Driver/Inc/stm32g4xx_ll_gpio.h **** 
 231:Drivers/STM32G4xx_HAL_Driver/Inc/stm32g4xx_ll_gpio.h **** /**
 232:Drivers/STM32G4xx_HAL_Driver/Inc/stm32g4xx_ll_gpio.h ****   * @brief  Read a value in GPIO register
 233:Drivers/STM32G4xx_HAL_Driver/Inc/stm32g4xx_ll_gpio.h ****   * @param  __INSTANCE__ GPIO Instance
 234:Drivers/STM32G4xx_HAL_Driver/Inc/stm32g4xx_ll_gpio.h ****   * @param  __REG__ Register to be read
 235:Drivers/STM32G4xx_HAL_Driver/Inc/stm32g4xx_ll_gpio.h ****   * @retval Register value
 236:Drivers/STM32G4xx_HAL_Driver/Inc/stm32g4xx_ll_gpio.h ****   */
 237:Drivers/STM32G4xx_HAL_Driver/Inc/stm32g4xx_ll_gpio.h **** #define LL_GPIO_ReadReg(__INSTANCE__, __REG__) READ_REG(__INSTANCE__->__REG__)
 238:Drivers/STM32G4xx_HAL_Driver/Inc/stm32g4xx_ll_gpio.h **** /**
 239:Drivers/STM32G4xx_HAL_Driver/Inc/stm32g4xx_ll_gpio.h ****   * @}
 240:Drivers/STM32G4xx_HAL_Driver/Inc/stm32g4xx_ll_gpio.h ****   */
 241:Drivers/STM32G4xx_HAL_Driver/Inc/stm32g4xx_ll_gpio.h **** 
 242:Drivers/STM32G4xx_HAL_Driver/Inc/stm32g4xx_ll_gpio.h **** /**
 243:Drivers/STM32G4xx_HAL_Driver/Inc/stm32g4xx_ll_gpio.h ****   * @}
 244:Drivers/STM32G4xx_HAL_Driver/Inc/stm32g4xx_ll_gpio.h ****   */
 245:Drivers/STM32G4xx_HAL_Driver/Inc/stm32g4xx_ll_gpio.h **** 
 246:Drivers/STM32G4xx_HAL_Driver/Inc/stm32g4xx_ll_gpio.h **** /* Exported functions --------------------------------------------------------*/
 247:Drivers/STM32G4xx_HAL_Driver/Inc/stm32g4xx_ll_gpio.h **** /** @defgroup GPIO_LL_Exported_Functions GPIO Exported Functions
 248:Drivers/STM32G4xx_HAL_Driver/Inc/stm32g4xx_ll_gpio.h ****   * @{
 249:Drivers/STM32G4xx_HAL_Driver/Inc/stm32g4xx_ll_gpio.h ****   */
 250:Drivers/STM32G4xx_HAL_Driver/Inc/stm32g4xx_ll_gpio.h **** 
 251:Drivers/STM32G4xx_HAL_Driver/Inc/stm32g4xx_ll_gpio.h **** /** @defgroup GPIO_LL_EF_Port_Configuration Port Configuration
 252:Drivers/STM32G4xx_HAL_Driver/Inc/stm32g4xx_ll_gpio.h ****   * @{
 253:Drivers/STM32G4xx_HAL_Driver/Inc/stm32g4xx_ll_gpio.h ****   */
 254:Drivers/STM32G4xx_HAL_Driver/Inc/stm32g4xx_ll_gpio.h **** 
 255:Drivers/STM32G4xx_HAL_Driver/Inc/stm32g4xx_ll_gpio.h **** /**
 256:Drivers/STM32G4xx_HAL_Driver/Inc/stm32g4xx_ll_gpio.h ****   * @brief  Configure gpio mode for a dedicated pin on dedicated port.
 257:Drivers/STM32G4xx_HAL_Driver/Inc/stm32g4xx_ll_gpio.h ****   * @note   I/O mode can be Input mode, General purpose output, Alternate function mode or Analog.
 258:Drivers/STM32G4xx_HAL_Driver/Inc/stm32g4xx_ll_gpio.h ****   * @note   Warning: only one pin can be passed as parameter.
ARM GAS  /tmp/cc1UKUxP.s 			page 39


 259:Drivers/STM32G4xx_HAL_Driver/Inc/stm32g4xx_ll_gpio.h ****   * @rmtoll MODER        MODEy         LL_GPIO_SetPinMode
 260:Drivers/STM32G4xx_HAL_Driver/Inc/stm32g4xx_ll_gpio.h ****   * @param  GPIOx GPIO Port
 261:Drivers/STM32G4xx_HAL_Driver/Inc/stm32g4xx_ll_gpio.h ****   * @param  Pin This parameter can be one of the following values:
 262:Drivers/STM32G4xx_HAL_Driver/Inc/stm32g4xx_ll_gpio.h ****   *         @arg @ref LL_GPIO_PIN_0
 263:Drivers/STM32G4xx_HAL_Driver/Inc/stm32g4xx_ll_gpio.h ****   *         @arg @ref LL_GPIO_PIN_1
 264:Drivers/STM32G4xx_HAL_Driver/Inc/stm32g4xx_ll_gpio.h ****   *         @arg @ref LL_GPIO_PIN_2
 265:Drivers/STM32G4xx_HAL_Driver/Inc/stm32g4xx_ll_gpio.h ****   *         @arg @ref LL_GPIO_PIN_3
 266:Drivers/STM32G4xx_HAL_Driver/Inc/stm32g4xx_ll_gpio.h ****   *         @arg @ref LL_GPIO_PIN_4
 267:Drivers/STM32G4xx_HAL_Driver/Inc/stm32g4xx_ll_gpio.h ****   *         @arg @ref LL_GPIO_PIN_5
 268:Drivers/STM32G4xx_HAL_Driver/Inc/stm32g4xx_ll_gpio.h ****   *         @arg @ref LL_GPIO_PIN_6
 269:Drivers/STM32G4xx_HAL_Driver/Inc/stm32g4xx_ll_gpio.h ****   *         @arg @ref LL_GPIO_PIN_7
 270:Drivers/STM32G4xx_HAL_Driver/Inc/stm32g4xx_ll_gpio.h ****   *         @arg @ref LL_GPIO_PIN_8
 271:Drivers/STM32G4xx_HAL_Driver/Inc/stm32g4xx_ll_gpio.h ****   *         @arg @ref LL_GPIO_PIN_9
 272:Drivers/STM32G4xx_HAL_Driver/Inc/stm32g4xx_ll_gpio.h ****   *         @arg @ref LL_GPIO_PIN_10
 273:Drivers/STM32G4xx_HAL_Driver/Inc/stm32g4xx_ll_gpio.h ****   *         @arg @ref LL_GPIO_PIN_11
 274:Drivers/STM32G4xx_HAL_Driver/Inc/stm32g4xx_ll_gpio.h ****   *         @arg @ref LL_GPIO_PIN_12
 275:Drivers/STM32G4xx_HAL_Driver/Inc/stm32g4xx_ll_gpio.h ****   *         @arg @ref LL_GPIO_PIN_13
 276:Drivers/STM32G4xx_HAL_Driver/Inc/stm32g4xx_ll_gpio.h ****   *         @arg @ref LL_GPIO_PIN_14
 277:Drivers/STM32G4xx_HAL_Driver/Inc/stm32g4xx_ll_gpio.h ****   *         @arg @ref LL_GPIO_PIN_15
 278:Drivers/STM32G4xx_HAL_Driver/Inc/stm32g4xx_ll_gpio.h ****   * @param  Mode This parameter can be one of the following values:
 279:Drivers/STM32G4xx_HAL_Driver/Inc/stm32g4xx_ll_gpio.h ****   *         @arg @ref LL_GPIO_MODE_INPUT
 280:Drivers/STM32G4xx_HAL_Driver/Inc/stm32g4xx_ll_gpio.h ****   *         @arg @ref LL_GPIO_MODE_OUTPUT
 281:Drivers/STM32G4xx_HAL_Driver/Inc/stm32g4xx_ll_gpio.h ****   *         @arg @ref LL_GPIO_MODE_ALTERNATE
 282:Drivers/STM32G4xx_HAL_Driver/Inc/stm32g4xx_ll_gpio.h ****   *         @arg @ref LL_GPIO_MODE_ANALOG
 283:Drivers/STM32G4xx_HAL_Driver/Inc/stm32g4xx_ll_gpio.h ****   * @retval None
 284:Drivers/STM32G4xx_HAL_Driver/Inc/stm32g4xx_ll_gpio.h ****   */
 285:Drivers/STM32G4xx_HAL_Driver/Inc/stm32g4xx_ll_gpio.h **** __STATIC_INLINE void LL_GPIO_SetPinMode(GPIO_TypeDef *GPIOx, uint32_t Pin, uint32_t Mode)
 286:Drivers/STM32G4xx_HAL_Driver/Inc/stm32g4xx_ll_gpio.h **** {
 287:Drivers/STM32G4xx_HAL_Driver/Inc/stm32g4xx_ll_gpio.h ****   MODIFY_REG(GPIOx->MODER, (GPIO_MODER_MODE0 << (POSITION_VAL(Pin) * 2U)), (Mode << (POSITION_VAL(P
 288:Drivers/STM32G4xx_HAL_Driver/Inc/stm32g4xx_ll_gpio.h **** }
 289:Drivers/STM32G4xx_HAL_Driver/Inc/stm32g4xx_ll_gpio.h **** 
 290:Drivers/STM32G4xx_HAL_Driver/Inc/stm32g4xx_ll_gpio.h **** /**
 291:Drivers/STM32G4xx_HAL_Driver/Inc/stm32g4xx_ll_gpio.h ****   * @brief  Return gpio mode for a dedicated pin on dedicated port.
 292:Drivers/STM32G4xx_HAL_Driver/Inc/stm32g4xx_ll_gpio.h ****   * @note   I/O mode can be Input mode, General purpose output, Alternate function mode or Analog.
 293:Drivers/STM32G4xx_HAL_Driver/Inc/stm32g4xx_ll_gpio.h ****   * @note   Warning: only one pin can be passed as parameter.
 294:Drivers/STM32G4xx_HAL_Driver/Inc/stm32g4xx_ll_gpio.h ****   * @rmtoll MODER        MODEy         LL_GPIO_GetPinMode
 295:Drivers/STM32G4xx_HAL_Driver/Inc/stm32g4xx_ll_gpio.h ****   * @param  GPIOx GPIO Port
 296:Drivers/STM32G4xx_HAL_Driver/Inc/stm32g4xx_ll_gpio.h ****   * @param  Pin This parameter can be one of the following values:
 297:Drivers/STM32G4xx_HAL_Driver/Inc/stm32g4xx_ll_gpio.h ****   *         @arg @ref LL_GPIO_PIN_0
 298:Drivers/STM32G4xx_HAL_Driver/Inc/stm32g4xx_ll_gpio.h ****   *         @arg @ref LL_GPIO_PIN_1
 299:Drivers/STM32G4xx_HAL_Driver/Inc/stm32g4xx_ll_gpio.h ****   *         @arg @ref LL_GPIO_PIN_2
 300:Drivers/STM32G4xx_HAL_Driver/Inc/stm32g4xx_ll_gpio.h ****   *         @arg @ref LL_GPIO_PIN_3
 301:Drivers/STM32G4xx_HAL_Driver/Inc/stm32g4xx_ll_gpio.h ****   *         @arg @ref LL_GPIO_PIN_4
 302:Drivers/STM32G4xx_HAL_Driver/Inc/stm32g4xx_ll_gpio.h ****   *         @arg @ref LL_GPIO_PIN_5
 303:Drivers/STM32G4xx_HAL_Driver/Inc/stm32g4xx_ll_gpio.h ****   *         @arg @ref LL_GPIO_PIN_6
 304:Drivers/STM32G4xx_HAL_Driver/Inc/stm32g4xx_ll_gpio.h ****   *         @arg @ref LL_GPIO_PIN_7
 305:Drivers/STM32G4xx_HAL_Driver/Inc/stm32g4xx_ll_gpio.h ****   *         @arg @ref LL_GPIO_PIN_8
 306:Drivers/STM32G4xx_HAL_Driver/Inc/stm32g4xx_ll_gpio.h ****   *         @arg @ref LL_GPIO_PIN_9
 307:Drivers/STM32G4xx_HAL_Driver/Inc/stm32g4xx_ll_gpio.h ****   *         @arg @ref LL_GPIO_PIN_10
 308:Drivers/STM32G4xx_HAL_Driver/Inc/stm32g4xx_ll_gpio.h ****   *         @arg @ref LL_GPIO_PIN_11
 309:Drivers/STM32G4xx_HAL_Driver/Inc/stm32g4xx_ll_gpio.h ****   *         @arg @ref LL_GPIO_PIN_12
 310:Drivers/STM32G4xx_HAL_Driver/Inc/stm32g4xx_ll_gpio.h ****   *         @arg @ref LL_GPIO_PIN_13
 311:Drivers/STM32G4xx_HAL_Driver/Inc/stm32g4xx_ll_gpio.h ****   *         @arg @ref LL_GPIO_PIN_14
 312:Drivers/STM32G4xx_HAL_Driver/Inc/stm32g4xx_ll_gpio.h ****   *         @arg @ref LL_GPIO_PIN_15
 313:Drivers/STM32G4xx_HAL_Driver/Inc/stm32g4xx_ll_gpio.h ****   * @retval Returned value can be one of the following values:
 314:Drivers/STM32G4xx_HAL_Driver/Inc/stm32g4xx_ll_gpio.h ****   *         @arg @ref LL_GPIO_MODE_INPUT
 315:Drivers/STM32G4xx_HAL_Driver/Inc/stm32g4xx_ll_gpio.h ****   *         @arg @ref LL_GPIO_MODE_OUTPUT
ARM GAS  /tmp/cc1UKUxP.s 			page 40


 316:Drivers/STM32G4xx_HAL_Driver/Inc/stm32g4xx_ll_gpio.h ****   *         @arg @ref LL_GPIO_MODE_ALTERNATE
 317:Drivers/STM32G4xx_HAL_Driver/Inc/stm32g4xx_ll_gpio.h ****   *         @arg @ref LL_GPIO_MODE_ANALOG
 318:Drivers/STM32G4xx_HAL_Driver/Inc/stm32g4xx_ll_gpio.h ****   */
 319:Drivers/STM32G4xx_HAL_Driver/Inc/stm32g4xx_ll_gpio.h **** __STATIC_INLINE uint32_t LL_GPIO_GetPinMode(GPIO_TypeDef *GPIOx, uint32_t Pin)
 320:Drivers/STM32G4xx_HAL_Driver/Inc/stm32g4xx_ll_gpio.h **** {
 321:Drivers/STM32G4xx_HAL_Driver/Inc/stm32g4xx_ll_gpio.h ****   return (uint32_t)(READ_BIT(GPIOx->MODER,
 322:Drivers/STM32G4xx_HAL_Driver/Inc/stm32g4xx_ll_gpio.h ****                              (GPIO_MODER_MODE0 << (POSITION_VAL(Pin) * 2U))) >> (POSITION_VAL(Pin) 
 323:Drivers/STM32G4xx_HAL_Driver/Inc/stm32g4xx_ll_gpio.h **** }
 324:Drivers/STM32G4xx_HAL_Driver/Inc/stm32g4xx_ll_gpio.h **** 
 325:Drivers/STM32G4xx_HAL_Driver/Inc/stm32g4xx_ll_gpio.h **** /**
 326:Drivers/STM32G4xx_HAL_Driver/Inc/stm32g4xx_ll_gpio.h ****   * @brief  Configure gpio output type for several pins on dedicated port.
 327:Drivers/STM32G4xx_HAL_Driver/Inc/stm32g4xx_ll_gpio.h ****   * @note   Output type as to be set when gpio pin is in output or
 328:Drivers/STM32G4xx_HAL_Driver/Inc/stm32g4xx_ll_gpio.h ****   *         alternate modes. Possible type are Push-pull or Open-drain.
 329:Drivers/STM32G4xx_HAL_Driver/Inc/stm32g4xx_ll_gpio.h ****   * @rmtoll OTYPER       OTy           LL_GPIO_SetPinOutputType
 330:Drivers/STM32G4xx_HAL_Driver/Inc/stm32g4xx_ll_gpio.h ****   * @param  GPIOx GPIO Port
 331:Drivers/STM32G4xx_HAL_Driver/Inc/stm32g4xx_ll_gpio.h ****   * @param  PinMask This parameter can be a combination of the following values:
 332:Drivers/STM32G4xx_HAL_Driver/Inc/stm32g4xx_ll_gpio.h ****   *         @arg @ref LL_GPIO_PIN_0
 333:Drivers/STM32G4xx_HAL_Driver/Inc/stm32g4xx_ll_gpio.h ****   *         @arg @ref LL_GPIO_PIN_1
 334:Drivers/STM32G4xx_HAL_Driver/Inc/stm32g4xx_ll_gpio.h ****   *         @arg @ref LL_GPIO_PIN_2
 335:Drivers/STM32G4xx_HAL_Driver/Inc/stm32g4xx_ll_gpio.h ****   *         @arg @ref LL_GPIO_PIN_3
 336:Drivers/STM32G4xx_HAL_Driver/Inc/stm32g4xx_ll_gpio.h ****   *         @arg @ref LL_GPIO_PIN_4
 337:Drivers/STM32G4xx_HAL_Driver/Inc/stm32g4xx_ll_gpio.h ****   *         @arg @ref LL_GPIO_PIN_5
 338:Drivers/STM32G4xx_HAL_Driver/Inc/stm32g4xx_ll_gpio.h ****   *         @arg @ref LL_GPIO_PIN_6
 339:Drivers/STM32G4xx_HAL_Driver/Inc/stm32g4xx_ll_gpio.h ****   *         @arg @ref LL_GPIO_PIN_7
 340:Drivers/STM32G4xx_HAL_Driver/Inc/stm32g4xx_ll_gpio.h ****   *         @arg @ref LL_GPIO_PIN_8
 341:Drivers/STM32G4xx_HAL_Driver/Inc/stm32g4xx_ll_gpio.h ****   *         @arg @ref LL_GPIO_PIN_9
 342:Drivers/STM32G4xx_HAL_Driver/Inc/stm32g4xx_ll_gpio.h ****   *         @arg @ref LL_GPIO_PIN_10
 343:Drivers/STM32G4xx_HAL_Driver/Inc/stm32g4xx_ll_gpio.h ****   *         @arg @ref LL_GPIO_PIN_11
 344:Drivers/STM32G4xx_HAL_Driver/Inc/stm32g4xx_ll_gpio.h ****   *         @arg @ref LL_GPIO_PIN_12
 345:Drivers/STM32G4xx_HAL_Driver/Inc/stm32g4xx_ll_gpio.h ****   *         @arg @ref LL_GPIO_PIN_13
 346:Drivers/STM32G4xx_HAL_Driver/Inc/stm32g4xx_ll_gpio.h ****   *         @arg @ref LL_GPIO_PIN_14
 347:Drivers/STM32G4xx_HAL_Driver/Inc/stm32g4xx_ll_gpio.h ****   *         @arg @ref LL_GPIO_PIN_15
 348:Drivers/STM32G4xx_HAL_Driver/Inc/stm32g4xx_ll_gpio.h ****   *         @arg @ref LL_GPIO_PIN_ALL
 349:Drivers/STM32G4xx_HAL_Driver/Inc/stm32g4xx_ll_gpio.h ****   * @param  OutputType This parameter can be one of the following values:
 350:Drivers/STM32G4xx_HAL_Driver/Inc/stm32g4xx_ll_gpio.h ****   *         @arg @ref LL_GPIO_OUTPUT_PUSHPULL
 351:Drivers/STM32G4xx_HAL_Driver/Inc/stm32g4xx_ll_gpio.h ****   *         @arg @ref LL_GPIO_OUTPUT_OPENDRAIN
 352:Drivers/STM32G4xx_HAL_Driver/Inc/stm32g4xx_ll_gpio.h ****   * @retval None
 353:Drivers/STM32G4xx_HAL_Driver/Inc/stm32g4xx_ll_gpio.h ****   */
 354:Drivers/STM32G4xx_HAL_Driver/Inc/stm32g4xx_ll_gpio.h **** __STATIC_INLINE void LL_GPIO_SetPinOutputType(GPIO_TypeDef *GPIOx, uint32_t PinMask, uint32_t Outpu
 355:Drivers/STM32G4xx_HAL_Driver/Inc/stm32g4xx_ll_gpio.h **** {
 356:Drivers/STM32G4xx_HAL_Driver/Inc/stm32g4xx_ll_gpio.h ****   MODIFY_REG(GPIOx->OTYPER, PinMask, (PinMask * OutputType));
 357:Drivers/STM32G4xx_HAL_Driver/Inc/stm32g4xx_ll_gpio.h **** }
 358:Drivers/STM32G4xx_HAL_Driver/Inc/stm32g4xx_ll_gpio.h **** 
 359:Drivers/STM32G4xx_HAL_Driver/Inc/stm32g4xx_ll_gpio.h **** /**
 360:Drivers/STM32G4xx_HAL_Driver/Inc/stm32g4xx_ll_gpio.h ****   * @brief  Return gpio output type for several pins on dedicated port.
 361:Drivers/STM32G4xx_HAL_Driver/Inc/stm32g4xx_ll_gpio.h ****   * @note   Output type as to be set when gpio pin is in output or
 362:Drivers/STM32G4xx_HAL_Driver/Inc/stm32g4xx_ll_gpio.h ****   *         alternate modes. Possible type are Push-pull or Open-drain.
 363:Drivers/STM32G4xx_HAL_Driver/Inc/stm32g4xx_ll_gpio.h ****   * @note   Warning: only one pin can be passed as parameter.
 364:Drivers/STM32G4xx_HAL_Driver/Inc/stm32g4xx_ll_gpio.h ****   * @rmtoll OTYPER       OTy           LL_GPIO_GetPinOutputType
 365:Drivers/STM32G4xx_HAL_Driver/Inc/stm32g4xx_ll_gpio.h ****   * @param  GPIOx GPIO Port
 366:Drivers/STM32G4xx_HAL_Driver/Inc/stm32g4xx_ll_gpio.h ****   * @param  Pin This parameter can be one of the following values:
 367:Drivers/STM32G4xx_HAL_Driver/Inc/stm32g4xx_ll_gpio.h ****   *         @arg @ref LL_GPIO_PIN_0
 368:Drivers/STM32G4xx_HAL_Driver/Inc/stm32g4xx_ll_gpio.h ****   *         @arg @ref LL_GPIO_PIN_1
 369:Drivers/STM32G4xx_HAL_Driver/Inc/stm32g4xx_ll_gpio.h ****   *         @arg @ref LL_GPIO_PIN_2
 370:Drivers/STM32G4xx_HAL_Driver/Inc/stm32g4xx_ll_gpio.h ****   *         @arg @ref LL_GPIO_PIN_3
 371:Drivers/STM32G4xx_HAL_Driver/Inc/stm32g4xx_ll_gpio.h ****   *         @arg @ref LL_GPIO_PIN_4
 372:Drivers/STM32G4xx_HAL_Driver/Inc/stm32g4xx_ll_gpio.h ****   *         @arg @ref LL_GPIO_PIN_5
ARM GAS  /tmp/cc1UKUxP.s 			page 41


 373:Drivers/STM32G4xx_HAL_Driver/Inc/stm32g4xx_ll_gpio.h ****   *         @arg @ref LL_GPIO_PIN_6
 374:Drivers/STM32G4xx_HAL_Driver/Inc/stm32g4xx_ll_gpio.h ****   *         @arg @ref LL_GPIO_PIN_7
 375:Drivers/STM32G4xx_HAL_Driver/Inc/stm32g4xx_ll_gpio.h ****   *         @arg @ref LL_GPIO_PIN_8
 376:Drivers/STM32G4xx_HAL_Driver/Inc/stm32g4xx_ll_gpio.h ****   *         @arg @ref LL_GPIO_PIN_9
 377:Drivers/STM32G4xx_HAL_Driver/Inc/stm32g4xx_ll_gpio.h ****   *         @arg @ref LL_GPIO_PIN_10
 378:Drivers/STM32G4xx_HAL_Driver/Inc/stm32g4xx_ll_gpio.h ****   *         @arg @ref LL_GPIO_PIN_11
 379:Drivers/STM32G4xx_HAL_Driver/Inc/stm32g4xx_ll_gpio.h ****   *         @arg @ref LL_GPIO_PIN_12
 380:Drivers/STM32G4xx_HAL_Driver/Inc/stm32g4xx_ll_gpio.h ****   *         @arg @ref LL_GPIO_PIN_13
 381:Drivers/STM32G4xx_HAL_Driver/Inc/stm32g4xx_ll_gpio.h ****   *         @arg @ref LL_GPIO_PIN_14
 382:Drivers/STM32G4xx_HAL_Driver/Inc/stm32g4xx_ll_gpio.h ****   *         @arg @ref LL_GPIO_PIN_15
 383:Drivers/STM32G4xx_HAL_Driver/Inc/stm32g4xx_ll_gpio.h ****   *         @arg @ref LL_GPIO_PIN_ALL
 384:Drivers/STM32G4xx_HAL_Driver/Inc/stm32g4xx_ll_gpio.h ****   * @retval Returned value can be one of the following values:
 385:Drivers/STM32G4xx_HAL_Driver/Inc/stm32g4xx_ll_gpio.h ****   *         @arg @ref LL_GPIO_OUTPUT_PUSHPULL
 386:Drivers/STM32G4xx_HAL_Driver/Inc/stm32g4xx_ll_gpio.h ****   *         @arg @ref LL_GPIO_OUTPUT_OPENDRAIN
 387:Drivers/STM32G4xx_HAL_Driver/Inc/stm32g4xx_ll_gpio.h ****   */
 388:Drivers/STM32G4xx_HAL_Driver/Inc/stm32g4xx_ll_gpio.h **** __STATIC_INLINE uint32_t LL_GPIO_GetPinOutputType(GPIO_TypeDef *GPIOx, uint32_t Pin)
 389:Drivers/STM32G4xx_HAL_Driver/Inc/stm32g4xx_ll_gpio.h **** {
 390:Drivers/STM32G4xx_HAL_Driver/Inc/stm32g4xx_ll_gpio.h ****   return (uint32_t)(READ_BIT(GPIOx->OTYPER, Pin) >> POSITION_VAL(Pin));
 391:Drivers/STM32G4xx_HAL_Driver/Inc/stm32g4xx_ll_gpio.h **** }
 392:Drivers/STM32G4xx_HAL_Driver/Inc/stm32g4xx_ll_gpio.h **** 
 393:Drivers/STM32G4xx_HAL_Driver/Inc/stm32g4xx_ll_gpio.h **** /**
 394:Drivers/STM32G4xx_HAL_Driver/Inc/stm32g4xx_ll_gpio.h ****   * @brief  Configure gpio speed for a dedicated pin on dedicated port.
 395:Drivers/STM32G4xx_HAL_Driver/Inc/stm32g4xx_ll_gpio.h ****   * @note   I/O speed can be Low, Medium, Fast or High speed.
 396:Drivers/STM32G4xx_HAL_Driver/Inc/stm32g4xx_ll_gpio.h ****   * @note   Warning: only one pin can be passed as parameter.
 397:Drivers/STM32G4xx_HAL_Driver/Inc/stm32g4xx_ll_gpio.h ****   * @note   Refer to datasheet for frequency specifications and the power
 398:Drivers/STM32G4xx_HAL_Driver/Inc/stm32g4xx_ll_gpio.h ****   *         supply and load conditions for each speed.
 399:Drivers/STM32G4xx_HAL_Driver/Inc/stm32g4xx_ll_gpio.h ****   * @rmtoll OSPEEDR      OSPEEDy       LL_GPIO_SetPinSpeed
 400:Drivers/STM32G4xx_HAL_Driver/Inc/stm32g4xx_ll_gpio.h ****   * @param  GPIOx GPIO Port
 401:Drivers/STM32G4xx_HAL_Driver/Inc/stm32g4xx_ll_gpio.h ****   * @param  Pin This parameter can be one of the following values:
 402:Drivers/STM32G4xx_HAL_Driver/Inc/stm32g4xx_ll_gpio.h ****   *         @arg @ref LL_GPIO_PIN_0
 403:Drivers/STM32G4xx_HAL_Driver/Inc/stm32g4xx_ll_gpio.h ****   *         @arg @ref LL_GPIO_PIN_1
 404:Drivers/STM32G4xx_HAL_Driver/Inc/stm32g4xx_ll_gpio.h ****   *         @arg @ref LL_GPIO_PIN_2
 405:Drivers/STM32G4xx_HAL_Driver/Inc/stm32g4xx_ll_gpio.h ****   *         @arg @ref LL_GPIO_PIN_3
 406:Drivers/STM32G4xx_HAL_Driver/Inc/stm32g4xx_ll_gpio.h ****   *         @arg @ref LL_GPIO_PIN_4
 407:Drivers/STM32G4xx_HAL_Driver/Inc/stm32g4xx_ll_gpio.h ****   *         @arg @ref LL_GPIO_PIN_5
 408:Drivers/STM32G4xx_HAL_Driver/Inc/stm32g4xx_ll_gpio.h ****   *         @arg @ref LL_GPIO_PIN_6
 409:Drivers/STM32G4xx_HAL_Driver/Inc/stm32g4xx_ll_gpio.h ****   *         @arg @ref LL_GPIO_PIN_7
 410:Drivers/STM32G4xx_HAL_Driver/Inc/stm32g4xx_ll_gpio.h ****   *         @arg @ref LL_GPIO_PIN_8
 411:Drivers/STM32G4xx_HAL_Driver/Inc/stm32g4xx_ll_gpio.h ****   *         @arg @ref LL_GPIO_PIN_9
 412:Drivers/STM32G4xx_HAL_Driver/Inc/stm32g4xx_ll_gpio.h ****   *         @arg @ref LL_GPIO_PIN_10
 413:Drivers/STM32G4xx_HAL_Driver/Inc/stm32g4xx_ll_gpio.h ****   *         @arg @ref LL_GPIO_PIN_11
 414:Drivers/STM32G4xx_HAL_Driver/Inc/stm32g4xx_ll_gpio.h ****   *         @arg @ref LL_GPIO_PIN_12
 415:Drivers/STM32G4xx_HAL_Driver/Inc/stm32g4xx_ll_gpio.h ****   *         @arg @ref LL_GPIO_PIN_13
 416:Drivers/STM32G4xx_HAL_Driver/Inc/stm32g4xx_ll_gpio.h ****   *         @arg @ref LL_GPIO_PIN_14
 417:Drivers/STM32G4xx_HAL_Driver/Inc/stm32g4xx_ll_gpio.h ****   *         @arg @ref LL_GPIO_PIN_15
 418:Drivers/STM32G4xx_HAL_Driver/Inc/stm32g4xx_ll_gpio.h ****   * @param  Speed This parameter can be one of the following values:
 419:Drivers/STM32G4xx_HAL_Driver/Inc/stm32g4xx_ll_gpio.h ****   *         @arg @ref LL_GPIO_SPEED_FREQ_LOW
 420:Drivers/STM32G4xx_HAL_Driver/Inc/stm32g4xx_ll_gpio.h ****   *         @arg @ref LL_GPIO_SPEED_FREQ_MEDIUM
 421:Drivers/STM32G4xx_HAL_Driver/Inc/stm32g4xx_ll_gpio.h ****   *         @arg @ref LL_GPIO_SPEED_FREQ_HIGH
 422:Drivers/STM32G4xx_HAL_Driver/Inc/stm32g4xx_ll_gpio.h ****   *         @arg @ref LL_GPIO_SPEED_FREQ_VERY_HIGH
 423:Drivers/STM32G4xx_HAL_Driver/Inc/stm32g4xx_ll_gpio.h ****   * @retval None
 424:Drivers/STM32G4xx_HAL_Driver/Inc/stm32g4xx_ll_gpio.h ****   */
 425:Drivers/STM32G4xx_HAL_Driver/Inc/stm32g4xx_ll_gpio.h **** __STATIC_INLINE void LL_GPIO_SetPinSpeed(GPIO_TypeDef *GPIOx, uint32_t Pin, uint32_t  Speed)
 426:Drivers/STM32G4xx_HAL_Driver/Inc/stm32g4xx_ll_gpio.h **** {
 427:Drivers/STM32G4xx_HAL_Driver/Inc/stm32g4xx_ll_gpio.h ****   MODIFY_REG(GPIOx->OSPEEDR, (GPIO_OSPEEDR_OSPEED0 << (POSITION_VAL(Pin) * 2U)),
 428:Drivers/STM32G4xx_HAL_Driver/Inc/stm32g4xx_ll_gpio.h ****              (Speed << (POSITION_VAL(Pin) * 2U)));
 429:Drivers/STM32G4xx_HAL_Driver/Inc/stm32g4xx_ll_gpio.h **** }
ARM GAS  /tmp/cc1UKUxP.s 			page 42


 430:Drivers/STM32G4xx_HAL_Driver/Inc/stm32g4xx_ll_gpio.h **** 
 431:Drivers/STM32G4xx_HAL_Driver/Inc/stm32g4xx_ll_gpio.h **** /**
 432:Drivers/STM32G4xx_HAL_Driver/Inc/stm32g4xx_ll_gpio.h ****   * @brief  Return gpio speed for a dedicated pin on dedicated port.
 433:Drivers/STM32G4xx_HAL_Driver/Inc/stm32g4xx_ll_gpio.h ****   * @note   I/O speed can be Low, Medium, Fast or High speed.
 434:Drivers/STM32G4xx_HAL_Driver/Inc/stm32g4xx_ll_gpio.h ****   * @note   Warning: only one pin can be passed as parameter.
 435:Drivers/STM32G4xx_HAL_Driver/Inc/stm32g4xx_ll_gpio.h ****   * @note   Refer to datasheet for frequency specifications and the power
 436:Drivers/STM32G4xx_HAL_Driver/Inc/stm32g4xx_ll_gpio.h ****   *         supply and load conditions for each speed.
 437:Drivers/STM32G4xx_HAL_Driver/Inc/stm32g4xx_ll_gpio.h ****   * @rmtoll OSPEEDR      OSPEEDy       LL_GPIO_GetPinSpeed
 438:Drivers/STM32G4xx_HAL_Driver/Inc/stm32g4xx_ll_gpio.h ****   * @param  GPIOx GPIO Port
 439:Drivers/STM32G4xx_HAL_Driver/Inc/stm32g4xx_ll_gpio.h ****   * @param  Pin This parameter can be one of the following values:
 440:Drivers/STM32G4xx_HAL_Driver/Inc/stm32g4xx_ll_gpio.h ****   *         @arg @ref LL_GPIO_PIN_0
 441:Drivers/STM32G4xx_HAL_Driver/Inc/stm32g4xx_ll_gpio.h ****   *         @arg @ref LL_GPIO_PIN_1
 442:Drivers/STM32G4xx_HAL_Driver/Inc/stm32g4xx_ll_gpio.h ****   *         @arg @ref LL_GPIO_PIN_2
 443:Drivers/STM32G4xx_HAL_Driver/Inc/stm32g4xx_ll_gpio.h ****   *         @arg @ref LL_GPIO_PIN_3
 444:Drivers/STM32G4xx_HAL_Driver/Inc/stm32g4xx_ll_gpio.h ****   *         @arg @ref LL_GPIO_PIN_4
 445:Drivers/STM32G4xx_HAL_Driver/Inc/stm32g4xx_ll_gpio.h ****   *         @arg @ref LL_GPIO_PIN_5
 446:Drivers/STM32G4xx_HAL_Driver/Inc/stm32g4xx_ll_gpio.h ****   *         @arg @ref LL_GPIO_PIN_6
 447:Drivers/STM32G4xx_HAL_Driver/Inc/stm32g4xx_ll_gpio.h ****   *         @arg @ref LL_GPIO_PIN_7
 448:Drivers/STM32G4xx_HAL_Driver/Inc/stm32g4xx_ll_gpio.h ****   *         @arg @ref LL_GPIO_PIN_8
 449:Drivers/STM32G4xx_HAL_Driver/Inc/stm32g4xx_ll_gpio.h ****   *         @arg @ref LL_GPIO_PIN_9
 450:Drivers/STM32G4xx_HAL_Driver/Inc/stm32g4xx_ll_gpio.h ****   *         @arg @ref LL_GPIO_PIN_10
 451:Drivers/STM32G4xx_HAL_Driver/Inc/stm32g4xx_ll_gpio.h ****   *         @arg @ref LL_GPIO_PIN_11
 452:Drivers/STM32G4xx_HAL_Driver/Inc/stm32g4xx_ll_gpio.h ****   *         @arg @ref LL_GPIO_PIN_12
 453:Drivers/STM32G4xx_HAL_Driver/Inc/stm32g4xx_ll_gpio.h ****   *         @arg @ref LL_GPIO_PIN_13
 454:Drivers/STM32G4xx_HAL_Driver/Inc/stm32g4xx_ll_gpio.h ****   *         @arg @ref LL_GPIO_PIN_14
 455:Drivers/STM32G4xx_HAL_Driver/Inc/stm32g4xx_ll_gpio.h ****   *         @arg @ref LL_GPIO_PIN_15
 456:Drivers/STM32G4xx_HAL_Driver/Inc/stm32g4xx_ll_gpio.h ****   * @retval Returned value can be one of the following values:
 457:Drivers/STM32G4xx_HAL_Driver/Inc/stm32g4xx_ll_gpio.h ****   *         @arg @ref LL_GPIO_SPEED_FREQ_LOW
 458:Drivers/STM32G4xx_HAL_Driver/Inc/stm32g4xx_ll_gpio.h ****   *         @arg @ref LL_GPIO_SPEED_FREQ_MEDIUM
 459:Drivers/STM32G4xx_HAL_Driver/Inc/stm32g4xx_ll_gpio.h ****   *         @arg @ref LL_GPIO_SPEED_FREQ_HIGH
 460:Drivers/STM32G4xx_HAL_Driver/Inc/stm32g4xx_ll_gpio.h ****   *         @arg @ref LL_GPIO_SPEED_FREQ_VERY_HIGH
 461:Drivers/STM32G4xx_HAL_Driver/Inc/stm32g4xx_ll_gpio.h ****   */
 462:Drivers/STM32G4xx_HAL_Driver/Inc/stm32g4xx_ll_gpio.h **** __STATIC_INLINE uint32_t LL_GPIO_GetPinSpeed(GPIO_TypeDef *GPIOx, uint32_t Pin)
 463:Drivers/STM32G4xx_HAL_Driver/Inc/stm32g4xx_ll_gpio.h **** {
 464:Drivers/STM32G4xx_HAL_Driver/Inc/stm32g4xx_ll_gpio.h ****   return (uint32_t)(READ_BIT(GPIOx->OSPEEDR,
 465:Drivers/STM32G4xx_HAL_Driver/Inc/stm32g4xx_ll_gpio.h ****                              (GPIO_OSPEEDR_OSPEED0 << (POSITION_VAL(Pin) * 2U))) >> (POSITION_VAL(P
 466:Drivers/STM32G4xx_HAL_Driver/Inc/stm32g4xx_ll_gpio.h **** }
 467:Drivers/STM32G4xx_HAL_Driver/Inc/stm32g4xx_ll_gpio.h **** 
 468:Drivers/STM32G4xx_HAL_Driver/Inc/stm32g4xx_ll_gpio.h **** /**
 469:Drivers/STM32G4xx_HAL_Driver/Inc/stm32g4xx_ll_gpio.h ****   * @brief  Configure gpio pull-up or pull-down for a dedicated pin on a dedicated port.
 470:Drivers/STM32G4xx_HAL_Driver/Inc/stm32g4xx_ll_gpio.h ****   * @note   Warning: only one pin can be passed as parameter.
 471:Drivers/STM32G4xx_HAL_Driver/Inc/stm32g4xx_ll_gpio.h ****   * @rmtoll PUPDR        PUPDy         LL_GPIO_SetPinPull
 472:Drivers/STM32G4xx_HAL_Driver/Inc/stm32g4xx_ll_gpio.h ****   * @param  GPIOx GPIO Port
 473:Drivers/STM32G4xx_HAL_Driver/Inc/stm32g4xx_ll_gpio.h ****   * @param  Pin This parameter can be one of the following values:
 474:Drivers/STM32G4xx_HAL_Driver/Inc/stm32g4xx_ll_gpio.h ****   *         @arg @ref LL_GPIO_PIN_0
 475:Drivers/STM32G4xx_HAL_Driver/Inc/stm32g4xx_ll_gpio.h ****   *         @arg @ref LL_GPIO_PIN_1
 476:Drivers/STM32G4xx_HAL_Driver/Inc/stm32g4xx_ll_gpio.h ****   *         @arg @ref LL_GPIO_PIN_2
 477:Drivers/STM32G4xx_HAL_Driver/Inc/stm32g4xx_ll_gpio.h ****   *         @arg @ref LL_GPIO_PIN_3
 478:Drivers/STM32G4xx_HAL_Driver/Inc/stm32g4xx_ll_gpio.h ****   *         @arg @ref LL_GPIO_PIN_4
 479:Drivers/STM32G4xx_HAL_Driver/Inc/stm32g4xx_ll_gpio.h ****   *         @arg @ref LL_GPIO_PIN_5
 480:Drivers/STM32G4xx_HAL_Driver/Inc/stm32g4xx_ll_gpio.h ****   *         @arg @ref LL_GPIO_PIN_6
 481:Drivers/STM32G4xx_HAL_Driver/Inc/stm32g4xx_ll_gpio.h ****   *         @arg @ref LL_GPIO_PIN_7
 482:Drivers/STM32G4xx_HAL_Driver/Inc/stm32g4xx_ll_gpio.h ****   *         @arg @ref LL_GPIO_PIN_8
 483:Drivers/STM32G4xx_HAL_Driver/Inc/stm32g4xx_ll_gpio.h ****   *         @arg @ref LL_GPIO_PIN_9
 484:Drivers/STM32G4xx_HAL_Driver/Inc/stm32g4xx_ll_gpio.h ****   *         @arg @ref LL_GPIO_PIN_10
 485:Drivers/STM32G4xx_HAL_Driver/Inc/stm32g4xx_ll_gpio.h ****   *         @arg @ref LL_GPIO_PIN_11
 486:Drivers/STM32G4xx_HAL_Driver/Inc/stm32g4xx_ll_gpio.h ****   *         @arg @ref LL_GPIO_PIN_12
ARM GAS  /tmp/cc1UKUxP.s 			page 43


 487:Drivers/STM32G4xx_HAL_Driver/Inc/stm32g4xx_ll_gpio.h ****   *         @arg @ref LL_GPIO_PIN_13
 488:Drivers/STM32G4xx_HAL_Driver/Inc/stm32g4xx_ll_gpio.h ****   *         @arg @ref LL_GPIO_PIN_14
 489:Drivers/STM32G4xx_HAL_Driver/Inc/stm32g4xx_ll_gpio.h ****   *         @arg @ref LL_GPIO_PIN_15
 490:Drivers/STM32G4xx_HAL_Driver/Inc/stm32g4xx_ll_gpio.h ****   * @param  Pull This parameter can be one of the following values:
 491:Drivers/STM32G4xx_HAL_Driver/Inc/stm32g4xx_ll_gpio.h ****   *         @arg @ref LL_GPIO_PULL_NO
 492:Drivers/STM32G4xx_HAL_Driver/Inc/stm32g4xx_ll_gpio.h ****   *         @arg @ref LL_GPIO_PULL_UP
 493:Drivers/STM32G4xx_HAL_Driver/Inc/stm32g4xx_ll_gpio.h ****   *         @arg @ref LL_GPIO_PULL_DOWN
 494:Drivers/STM32G4xx_HAL_Driver/Inc/stm32g4xx_ll_gpio.h ****   * @retval None
 495:Drivers/STM32G4xx_HAL_Driver/Inc/stm32g4xx_ll_gpio.h ****   */
 496:Drivers/STM32G4xx_HAL_Driver/Inc/stm32g4xx_ll_gpio.h **** __STATIC_INLINE void LL_GPIO_SetPinPull(GPIO_TypeDef *GPIOx, uint32_t Pin, uint32_t Pull)
 497:Drivers/STM32G4xx_HAL_Driver/Inc/stm32g4xx_ll_gpio.h **** {
 498:Drivers/STM32G4xx_HAL_Driver/Inc/stm32g4xx_ll_gpio.h ****   MODIFY_REG(GPIOx->PUPDR, (GPIO_PUPDR_PUPD0 << (POSITION_VAL(Pin) * 2U)), (Pull << (POSITION_VAL(P
 499:Drivers/STM32G4xx_HAL_Driver/Inc/stm32g4xx_ll_gpio.h **** }
 500:Drivers/STM32G4xx_HAL_Driver/Inc/stm32g4xx_ll_gpio.h **** 
 501:Drivers/STM32G4xx_HAL_Driver/Inc/stm32g4xx_ll_gpio.h **** /**
 502:Drivers/STM32G4xx_HAL_Driver/Inc/stm32g4xx_ll_gpio.h ****   * @brief  Return gpio pull-up or pull-down for a dedicated pin on a dedicated port
 503:Drivers/STM32G4xx_HAL_Driver/Inc/stm32g4xx_ll_gpio.h ****   * @note   Warning: only one pin can be passed as parameter.
 504:Drivers/STM32G4xx_HAL_Driver/Inc/stm32g4xx_ll_gpio.h ****   * @rmtoll PUPDR        PUPDy         LL_GPIO_GetPinPull
 505:Drivers/STM32G4xx_HAL_Driver/Inc/stm32g4xx_ll_gpio.h ****   * @param  GPIOx GPIO Port
 506:Drivers/STM32G4xx_HAL_Driver/Inc/stm32g4xx_ll_gpio.h ****   * @param  Pin This parameter can be one of the following values:
 507:Drivers/STM32G4xx_HAL_Driver/Inc/stm32g4xx_ll_gpio.h ****   *         @arg @ref LL_GPIO_PIN_0
 508:Drivers/STM32G4xx_HAL_Driver/Inc/stm32g4xx_ll_gpio.h ****   *         @arg @ref LL_GPIO_PIN_1
 509:Drivers/STM32G4xx_HAL_Driver/Inc/stm32g4xx_ll_gpio.h ****   *         @arg @ref LL_GPIO_PIN_2
 510:Drivers/STM32G4xx_HAL_Driver/Inc/stm32g4xx_ll_gpio.h ****   *         @arg @ref LL_GPIO_PIN_3
 511:Drivers/STM32G4xx_HAL_Driver/Inc/stm32g4xx_ll_gpio.h ****   *         @arg @ref LL_GPIO_PIN_4
 512:Drivers/STM32G4xx_HAL_Driver/Inc/stm32g4xx_ll_gpio.h ****   *         @arg @ref LL_GPIO_PIN_5
 513:Drivers/STM32G4xx_HAL_Driver/Inc/stm32g4xx_ll_gpio.h ****   *         @arg @ref LL_GPIO_PIN_6
 514:Drivers/STM32G4xx_HAL_Driver/Inc/stm32g4xx_ll_gpio.h ****   *         @arg @ref LL_GPIO_PIN_7
 515:Drivers/STM32G4xx_HAL_Driver/Inc/stm32g4xx_ll_gpio.h ****   *         @arg @ref LL_GPIO_PIN_8
 516:Drivers/STM32G4xx_HAL_Driver/Inc/stm32g4xx_ll_gpio.h ****   *         @arg @ref LL_GPIO_PIN_9
 517:Drivers/STM32G4xx_HAL_Driver/Inc/stm32g4xx_ll_gpio.h ****   *         @arg @ref LL_GPIO_PIN_10
 518:Drivers/STM32G4xx_HAL_Driver/Inc/stm32g4xx_ll_gpio.h ****   *         @arg @ref LL_GPIO_PIN_11
 519:Drivers/STM32G4xx_HAL_Driver/Inc/stm32g4xx_ll_gpio.h ****   *         @arg @ref LL_GPIO_PIN_12
 520:Drivers/STM32G4xx_HAL_Driver/Inc/stm32g4xx_ll_gpio.h ****   *         @arg @ref LL_GPIO_PIN_13
 521:Drivers/STM32G4xx_HAL_Driver/Inc/stm32g4xx_ll_gpio.h ****   *         @arg @ref LL_GPIO_PIN_14
 522:Drivers/STM32G4xx_HAL_Driver/Inc/stm32g4xx_ll_gpio.h ****   *         @arg @ref LL_GPIO_PIN_15
 523:Drivers/STM32G4xx_HAL_Driver/Inc/stm32g4xx_ll_gpio.h ****   * @retval Returned value can be one of the following values:
 524:Drivers/STM32G4xx_HAL_Driver/Inc/stm32g4xx_ll_gpio.h ****   *         @arg @ref LL_GPIO_PULL_NO
 525:Drivers/STM32G4xx_HAL_Driver/Inc/stm32g4xx_ll_gpio.h ****   *         @arg @ref LL_GPIO_PULL_UP
 526:Drivers/STM32G4xx_HAL_Driver/Inc/stm32g4xx_ll_gpio.h ****   *         @arg @ref LL_GPIO_PULL_DOWN
 527:Drivers/STM32G4xx_HAL_Driver/Inc/stm32g4xx_ll_gpio.h ****   */
 528:Drivers/STM32G4xx_HAL_Driver/Inc/stm32g4xx_ll_gpio.h **** __STATIC_INLINE uint32_t LL_GPIO_GetPinPull(GPIO_TypeDef *GPIOx, uint32_t Pin)
 529:Drivers/STM32G4xx_HAL_Driver/Inc/stm32g4xx_ll_gpio.h **** {
 530:Drivers/STM32G4xx_HAL_Driver/Inc/stm32g4xx_ll_gpio.h ****   return (uint32_t)(READ_BIT(GPIOx->PUPDR,
 531:Drivers/STM32G4xx_HAL_Driver/Inc/stm32g4xx_ll_gpio.h ****                              (GPIO_PUPDR_PUPD0 << (POSITION_VAL(Pin) * 2U))) >> (POSITION_VAL(Pin) 
 532:Drivers/STM32G4xx_HAL_Driver/Inc/stm32g4xx_ll_gpio.h **** }
 533:Drivers/STM32G4xx_HAL_Driver/Inc/stm32g4xx_ll_gpio.h **** 
 534:Drivers/STM32G4xx_HAL_Driver/Inc/stm32g4xx_ll_gpio.h **** /**
 535:Drivers/STM32G4xx_HAL_Driver/Inc/stm32g4xx_ll_gpio.h ****   * @brief  Configure gpio alternate function of a dedicated pin from 0 to 7 for a dedicated port.
 536:Drivers/STM32G4xx_HAL_Driver/Inc/stm32g4xx_ll_gpio.h ****   * @note   Possible values are from AF0 to AF15 depending on target.
 537:Drivers/STM32G4xx_HAL_Driver/Inc/stm32g4xx_ll_gpio.h ****   * @note   Warning: only one pin can be passed as parameter.
 538:Drivers/STM32G4xx_HAL_Driver/Inc/stm32g4xx_ll_gpio.h ****   * @rmtoll AFRL         AFSELy        LL_GPIO_SetAFPin_0_7
 539:Drivers/STM32G4xx_HAL_Driver/Inc/stm32g4xx_ll_gpio.h ****   * @param  GPIOx GPIO Port
 540:Drivers/STM32G4xx_HAL_Driver/Inc/stm32g4xx_ll_gpio.h ****   * @param  Pin This parameter can be one of the following values:
 541:Drivers/STM32G4xx_HAL_Driver/Inc/stm32g4xx_ll_gpio.h ****   *         @arg @ref LL_GPIO_PIN_0
 542:Drivers/STM32G4xx_HAL_Driver/Inc/stm32g4xx_ll_gpio.h ****   *         @arg @ref LL_GPIO_PIN_1
 543:Drivers/STM32G4xx_HAL_Driver/Inc/stm32g4xx_ll_gpio.h ****   *         @arg @ref LL_GPIO_PIN_2
ARM GAS  /tmp/cc1UKUxP.s 			page 44


 544:Drivers/STM32G4xx_HAL_Driver/Inc/stm32g4xx_ll_gpio.h ****   *         @arg @ref LL_GPIO_PIN_3
 545:Drivers/STM32G4xx_HAL_Driver/Inc/stm32g4xx_ll_gpio.h ****   *         @arg @ref LL_GPIO_PIN_4
 546:Drivers/STM32G4xx_HAL_Driver/Inc/stm32g4xx_ll_gpio.h ****   *         @arg @ref LL_GPIO_PIN_5
 547:Drivers/STM32G4xx_HAL_Driver/Inc/stm32g4xx_ll_gpio.h ****   *         @arg @ref LL_GPIO_PIN_6
 548:Drivers/STM32G4xx_HAL_Driver/Inc/stm32g4xx_ll_gpio.h ****   *         @arg @ref LL_GPIO_PIN_7
 549:Drivers/STM32G4xx_HAL_Driver/Inc/stm32g4xx_ll_gpio.h ****   * @param  Alternate This parameter can be one of the following values:
 550:Drivers/STM32G4xx_HAL_Driver/Inc/stm32g4xx_ll_gpio.h ****   *         @arg @ref LL_GPIO_AF_0
 551:Drivers/STM32G4xx_HAL_Driver/Inc/stm32g4xx_ll_gpio.h ****   *         @arg @ref LL_GPIO_AF_1
 552:Drivers/STM32G4xx_HAL_Driver/Inc/stm32g4xx_ll_gpio.h ****   *         @arg @ref LL_GPIO_AF_2
 553:Drivers/STM32G4xx_HAL_Driver/Inc/stm32g4xx_ll_gpio.h ****   *         @arg @ref LL_GPIO_AF_3
 554:Drivers/STM32G4xx_HAL_Driver/Inc/stm32g4xx_ll_gpio.h ****   *         @arg @ref LL_GPIO_AF_4
 555:Drivers/STM32G4xx_HAL_Driver/Inc/stm32g4xx_ll_gpio.h ****   *         @arg @ref LL_GPIO_AF_5
 556:Drivers/STM32G4xx_HAL_Driver/Inc/stm32g4xx_ll_gpio.h ****   *         @arg @ref LL_GPIO_AF_6
 557:Drivers/STM32G4xx_HAL_Driver/Inc/stm32g4xx_ll_gpio.h ****   *         @arg @ref LL_GPIO_AF_7
 558:Drivers/STM32G4xx_HAL_Driver/Inc/stm32g4xx_ll_gpio.h ****   *         @arg @ref LL_GPIO_AF_8
 559:Drivers/STM32G4xx_HAL_Driver/Inc/stm32g4xx_ll_gpio.h ****   *         @arg @ref LL_GPIO_AF_9
 560:Drivers/STM32G4xx_HAL_Driver/Inc/stm32g4xx_ll_gpio.h ****   *         @arg @ref LL_GPIO_AF_10
 561:Drivers/STM32G4xx_HAL_Driver/Inc/stm32g4xx_ll_gpio.h ****   *         @arg @ref LL_GPIO_AF_11
 562:Drivers/STM32G4xx_HAL_Driver/Inc/stm32g4xx_ll_gpio.h ****   *         @arg @ref LL_GPIO_AF_12
 563:Drivers/STM32G4xx_HAL_Driver/Inc/stm32g4xx_ll_gpio.h ****   *         @arg @ref LL_GPIO_AF_13
 564:Drivers/STM32G4xx_HAL_Driver/Inc/stm32g4xx_ll_gpio.h ****   *         @arg @ref LL_GPIO_AF_14
 565:Drivers/STM32G4xx_HAL_Driver/Inc/stm32g4xx_ll_gpio.h ****   *         @arg @ref LL_GPIO_AF_15
 566:Drivers/STM32G4xx_HAL_Driver/Inc/stm32g4xx_ll_gpio.h ****   * @retval None
 567:Drivers/STM32G4xx_HAL_Driver/Inc/stm32g4xx_ll_gpio.h ****   */
 568:Drivers/STM32G4xx_HAL_Driver/Inc/stm32g4xx_ll_gpio.h **** __STATIC_INLINE void LL_GPIO_SetAFPin_0_7(GPIO_TypeDef *GPIOx, uint32_t Pin, uint32_t Alternate)
 569:Drivers/STM32G4xx_HAL_Driver/Inc/stm32g4xx_ll_gpio.h **** {
 570:Drivers/STM32G4xx_HAL_Driver/Inc/stm32g4xx_ll_gpio.h ****   MODIFY_REG(GPIOx->AFR[0], (GPIO_AFRL_AFSEL0 << (POSITION_VAL(Pin) * 4U)),
 571:Drivers/STM32G4xx_HAL_Driver/Inc/stm32g4xx_ll_gpio.h ****              (Alternate << (POSITION_VAL(Pin) * 4U)));
 572:Drivers/STM32G4xx_HAL_Driver/Inc/stm32g4xx_ll_gpio.h **** }
 573:Drivers/STM32G4xx_HAL_Driver/Inc/stm32g4xx_ll_gpio.h **** 
 574:Drivers/STM32G4xx_HAL_Driver/Inc/stm32g4xx_ll_gpio.h **** /**
 575:Drivers/STM32G4xx_HAL_Driver/Inc/stm32g4xx_ll_gpio.h ****   * @brief  Return gpio alternate function of a dedicated pin from 0 to 7 for a dedicated port.
 576:Drivers/STM32G4xx_HAL_Driver/Inc/stm32g4xx_ll_gpio.h ****   * @rmtoll AFRL         AFSELy        LL_GPIO_GetAFPin_0_7
 577:Drivers/STM32G4xx_HAL_Driver/Inc/stm32g4xx_ll_gpio.h ****   * @param  GPIOx GPIO Port
 578:Drivers/STM32G4xx_HAL_Driver/Inc/stm32g4xx_ll_gpio.h ****   * @param  Pin This parameter can be one of the following values:
 579:Drivers/STM32G4xx_HAL_Driver/Inc/stm32g4xx_ll_gpio.h ****   *         @arg @ref LL_GPIO_PIN_0
 580:Drivers/STM32G4xx_HAL_Driver/Inc/stm32g4xx_ll_gpio.h ****   *         @arg @ref LL_GPIO_PIN_1
 581:Drivers/STM32G4xx_HAL_Driver/Inc/stm32g4xx_ll_gpio.h ****   *         @arg @ref LL_GPIO_PIN_2
 582:Drivers/STM32G4xx_HAL_Driver/Inc/stm32g4xx_ll_gpio.h ****   *         @arg @ref LL_GPIO_PIN_3
 583:Drivers/STM32G4xx_HAL_Driver/Inc/stm32g4xx_ll_gpio.h ****   *         @arg @ref LL_GPIO_PIN_4
 584:Drivers/STM32G4xx_HAL_Driver/Inc/stm32g4xx_ll_gpio.h ****   *         @arg @ref LL_GPIO_PIN_5
 585:Drivers/STM32G4xx_HAL_Driver/Inc/stm32g4xx_ll_gpio.h ****   *         @arg @ref LL_GPIO_PIN_6
 586:Drivers/STM32G4xx_HAL_Driver/Inc/stm32g4xx_ll_gpio.h ****   *         @arg @ref LL_GPIO_PIN_7
 587:Drivers/STM32G4xx_HAL_Driver/Inc/stm32g4xx_ll_gpio.h ****   * @retval Returned value can be one of the following values:
 588:Drivers/STM32G4xx_HAL_Driver/Inc/stm32g4xx_ll_gpio.h ****   *         @arg @ref LL_GPIO_AF_0
 589:Drivers/STM32G4xx_HAL_Driver/Inc/stm32g4xx_ll_gpio.h ****   *         @arg @ref LL_GPIO_AF_1
 590:Drivers/STM32G4xx_HAL_Driver/Inc/stm32g4xx_ll_gpio.h ****   *         @arg @ref LL_GPIO_AF_2
 591:Drivers/STM32G4xx_HAL_Driver/Inc/stm32g4xx_ll_gpio.h ****   *         @arg @ref LL_GPIO_AF_3
 592:Drivers/STM32G4xx_HAL_Driver/Inc/stm32g4xx_ll_gpio.h ****   *         @arg @ref LL_GPIO_AF_4
 593:Drivers/STM32G4xx_HAL_Driver/Inc/stm32g4xx_ll_gpio.h ****   *         @arg @ref LL_GPIO_AF_5
 594:Drivers/STM32G4xx_HAL_Driver/Inc/stm32g4xx_ll_gpio.h ****   *         @arg @ref LL_GPIO_AF_6
 595:Drivers/STM32G4xx_HAL_Driver/Inc/stm32g4xx_ll_gpio.h ****   *         @arg @ref LL_GPIO_AF_7
 596:Drivers/STM32G4xx_HAL_Driver/Inc/stm32g4xx_ll_gpio.h ****   *         @arg @ref LL_GPIO_AF_8
 597:Drivers/STM32G4xx_HAL_Driver/Inc/stm32g4xx_ll_gpio.h ****   *         @arg @ref LL_GPIO_AF_9
 598:Drivers/STM32G4xx_HAL_Driver/Inc/stm32g4xx_ll_gpio.h ****   *         @arg @ref LL_GPIO_AF_10
 599:Drivers/STM32G4xx_HAL_Driver/Inc/stm32g4xx_ll_gpio.h ****   *         @arg @ref LL_GPIO_AF_11
 600:Drivers/STM32G4xx_HAL_Driver/Inc/stm32g4xx_ll_gpio.h ****   *         @arg @ref LL_GPIO_AF_12
ARM GAS  /tmp/cc1UKUxP.s 			page 45


 601:Drivers/STM32G4xx_HAL_Driver/Inc/stm32g4xx_ll_gpio.h ****   *         @arg @ref LL_GPIO_AF_13
 602:Drivers/STM32G4xx_HAL_Driver/Inc/stm32g4xx_ll_gpio.h ****   *         @arg @ref LL_GPIO_AF_14
 603:Drivers/STM32G4xx_HAL_Driver/Inc/stm32g4xx_ll_gpio.h ****   *         @arg @ref LL_GPIO_AF_15
 604:Drivers/STM32G4xx_HAL_Driver/Inc/stm32g4xx_ll_gpio.h ****   */
 605:Drivers/STM32G4xx_HAL_Driver/Inc/stm32g4xx_ll_gpio.h **** __STATIC_INLINE uint32_t LL_GPIO_GetAFPin_0_7(GPIO_TypeDef *GPIOx, uint32_t Pin)
 606:Drivers/STM32G4xx_HAL_Driver/Inc/stm32g4xx_ll_gpio.h **** {
 607:Drivers/STM32G4xx_HAL_Driver/Inc/stm32g4xx_ll_gpio.h ****   return (uint32_t)(READ_BIT(GPIOx->AFR[0],
 608:Drivers/STM32G4xx_HAL_Driver/Inc/stm32g4xx_ll_gpio.h ****                              (GPIO_AFRL_AFSEL0 << (POSITION_VAL(Pin) * 4U))) >> (POSITION_VAL(Pin) 
 609:Drivers/STM32G4xx_HAL_Driver/Inc/stm32g4xx_ll_gpio.h **** }
 610:Drivers/STM32G4xx_HAL_Driver/Inc/stm32g4xx_ll_gpio.h **** 
 611:Drivers/STM32G4xx_HAL_Driver/Inc/stm32g4xx_ll_gpio.h **** /**
 612:Drivers/STM32G4xx_HAL_Driver/Inc/stm32g4xx_ll_gpio.h ****   * @brief  Configure gpio alternate function of a dedicated pin from 8 to 15 for a dedicated port.
 613:Drivers/STM32G4xx_HAL_Driver/Inc/stm32g4xx_ll_gpio.h ****   * @note   Possible values are from AF0 to AF15 depending on target.
 614:Drivers/STM32G4xx_HAL_Driver/Inc/stm32g4xx_ll_gpio.h ****   * @note   Warning: only one pin can be passed as parameter.
 615:Drivers/STM32G4xx_HAL_Driver/Inc/stm32g4xx_ll_gpio.h ****   * @rmtoll AFRH         AFSELy        LL_GPIO_SetAFPin_8_15
 616:Drivers/STM32G4xx_HAL_Driver/Inc/stm32g4xx_ll_gpio.h ****   * @param  GPIOx GPIO Port
 617:Drivers/STM32G4xx_HAL_Driver/Inc/stm32g4xx_ll_gpio.h ****   * @param  Pin This parameter can be one of the following values:
 618:Drivers/STM32G4xx_HAL_Driver/Inc/stm32g4xx_ll_gpio.h ****   *         @arg @ref LL_GPIO_PIN_8
 619:Drivers/STM32G4xx_HAL_Driver/Inc/stm32g4xx_ll_gpio.h ****   *         @arg @ref LL_GPIO_PIN_9
 620:Drivers/STM32G4xx_HAL_Driver/Inc/stm32g4xx_ll_gpio.h ****   *         @arg @ref LL_GPIO_PIN_10
 621:Drivers/STM32G4xx_HAL_Driver/Inc/stm32g4xx_ll_gpio.h ****   *         @arg @ref LL_GPIO_PIN_11
 622:Drivers/STM32G4xx_HAL_Driver/Inc/stm32g4xx_ll_gpio.h ****   *         @arg @ref LL_GPIO_PIN_12
 623:Drivers/STM32G4xx_HAL_Driver/Inc/stm32g4xx_ll_gpio.h ****   *         @arg @ref LL_GPIO_PIN_13
 624:Drivers/STM32G4xx_HAL_Driver/Inc/stm32g4xx_ll_gpio.h ****   *         @arg @ref LL_GPIO_PIN_14
 625:Drivers/STM32G4xx_HAL_Driver/Inc/stm32g4xx_ll_gpio.h ****   *         @arg @ref LL_GPIO_PIN_15
 626:Drivers/STM32G4xx_HAL_Driver/Inc/stm32g4xx_ll_gpio.h ****   * @param  Alternate This parameter can be one of the following values:
 627:Drivers/STM32G4xx_HAL_Driver/Inc/stm32g4xx_ll_gpio.h ****   *         @arg @ref LL_GPIO_AF_0
 628:Drivers/STM32G4xx_HAL_Driver/Inc/stm32g4xx_ll_gpio.h ****   *         @arg @ref LL_GPIO_AF_1
 629:Drivers/STM32G4xx_HAL_Driver/Inc/stm32g4xx_ll_gpio.h ****   *         @arg @ref LL_GPIO_AF_2
 630:Drivers/STM32G4xx_HAL_Driver/Inc/stm32g4xx_ll_gpio.h ****   *         @arg @ref LL_GPIO_AF_3
 631:Drivers/STM32G4xx_HAL_Driver/Inc/stm32g4xx_ll_gpio.h ****   *         @arg @ref LL_GPIO_AF_4
 632:Drivers/STM32G4xx_HAL_Driver/Inc/stm32g4xx_ll_gpio.h ****   *         @arg @ref LL_GPIO_AF_5
 633:Drivers/STM32G4xx_HAL_Driver/Inc/stm32g4xx_ll_gpio.h ****   *         @arg @ref LL_GPIO_AF_6
 634:Drivers/STM32G4xx_HAL_Driver/Inc/stm32g4xx_ll_gpio.h ****   *         @arg @ref LL_GPIO_AF_7
 635:Drivers/STM32G4xx_HAL_Driver/Inc/stm32g4xx_ll_gpio.h ****   *         @arg @ref LL_GPIO_AF_8
 636:Drivers/STM32G4xx_HAL_Driver/Inc/stm32g4xx_ll_gpio.h ****   *         @arg @ref LL_GPIO_AF_9
 637:Drivers/STM32G4xx_HAL_Driver/Inc/stm32g4xx_ll_gpio.h ****   *         @arg @ref LL_GPIO_AF_10
 638:Drivers/STM32G4xx_HAL_Driver/Inc/stm32g4xx_ll_gpio.h ****   *         @arg @ref LL_GPIO_AF_11
 639:Drivers/STM32G4xx_HAL_Driver/Inc/stm32g4xx_ll_gpio.h ****   *         @arg @ref LL_GPIO_AF_12
 640:Drivers/STM32G4xx_HAL_Driver/Inc/stm32g4xx_ll_gpio.h ****   *         @arg @ref LL_GPIO_AF_13
 641:Drivers/STM32G4xx_HAL_Driver/Inc/stm32g4xx_ll_gpio.h ****   *         @arg @ref LL_GPIO_AF_14
 642:Drivers/STM32G4xx_HAL_Driver/Inc/stm32g4xx_ll_gpio.h ****   *         @arg @ref LL_GPIO_AF_15
 643:Drivers/STM32G4xx_HAL_Driver/Inc/stm32g4xx_ll_gpio.h ****   * @retval None
 644:Drivers/STM32G4xx_HAL_Driver/Inc/stm32g4xx_ll_gpio.h ****   */
 645:Drivers/STM32G4xx_HAL_Driver/Inc/stm32g4xx_ll_gpio.h **** __STATIC_INLINE void LL_GPIO_SetAFPin_8_15(GPIO_TypeDef *GPIOx, uint32_t Pin, uint32_t Alternate)
 646:Drivers/STM32G4xx_HAL_Driver/Inc/stm32g4xx_ll_gpio.h **** {
 647:Drivers/STM32G4xx_HAL_Driver/Inc/stm32g4xx_ll_gpio.h ****   MODIFY_REG(GPIOx->AFR[1], (GPIO_AFRH_AFSEL8 << (POSITION_VAL(Pin >> 8U) * 4U)),
 648:Drivers/STM32G4xx_HAL_Driver/Inc/stm32g4xx_ll_gpio.h ****              (Alternate << (POSITION_VAL(Pin >> 8U) * 4U)));
 649:Drivers/STM32G4xx_HAL_Driver/Inc/stm32g4xx_ll_gpio.h **** }
 650:Drivers/STM32G4xx_HAL_Driver/Inc/stm32g4xx_ll_gpio.h **** 
 651:Drivers/STM32G4xx_HAL_Driver/Inc/stm32g4xx_ll_gpio.h **** /**
 652:Drivers/STM32G4xx_HAL_Driver/Inc/stm32g4xx_ll_gpio.h ****   * @brief  Return gpio alternate function of a dedicated pin from 8 to 15 for a dedicated port.
 653:Drivers/STM32G4xx_HAL_Driver/Inc/stm32g4xx_ll_gpio.h ****   * @note   Possible values are from AF0 to AF15 depending on target.
 654:Drivers/STM32G4xx_HAL_Driver/Inc/stm32g4xx_ll_gpio.h ****   * @rmtoll AFRH         AFSELy        LL_GPIO_GetAFPin_8_15
 655:Drivers/STM32G4xx_HAL_Driver/Inc/stm32g4xx_ll_gpio.h ****   * @param  GPIOx GPIO Port
 656:Drivers/STM32G4xx_HAL_Driver/Inc/stm32g4xx_ll_gpio.h ****   * @param  Pin This parameter can be one of the following values:
 657:Drivers/STM32G4xx_HAL_Driver/Inc/stm32g4xx_ll_gpio.h ****   *         @arg @ref LL_GPIO_PIN_8
ARM GAS  /tmp/cc1UKUxP.s 			page 46


 658:Drivers/STM32G4xx_HAL_Driver/Inc/stm32g4xx_ll_gpio.h ****   *         @arg @ref LL_GPIO_PIN_9
 659:Drivers/STM32G4xx_HAL_Driver/Inc/stm32g4xx_ll_gpio.h ****   *         @arg @ref LL_GPIO_PIN_10
 660:Drivers/STM32G4xx_HAL_Driver/Inc/stm32g4xx_ll_gpio.h ****   *         @arg @ref LL_GPIO_PIN_11
 661:Drivers/STM32G4xx_HAL_Driver/Inc/stm32g4xx_ll_gpio.h ****   *         @arg @ref LL_GPIO_PIN_12
 662:Drivers/STM32G4xx_HAL_Driver/Inc/stm32g4xx_ll_gpio.h ****   *         @arg @ref LL_GPIO_PIN_13
 663:Drivers/STM32G4xx_HAL_Driver/Inc/stm32g4xx_ll_gpio.h ****   *         @arg @ref LL_GPIO_PIN_14
 664:Drivers/STM32G4xx_HAL_Driver/Inc/stm32g4xx_ll_gpio.h ****   *         @arg @ref LL_GPIO_PIN_15
 665:Drivers/STM32G4xx_HAL_Driver/Inc/stm32g4xx_ll_gpio.h ****   * @retval Returned value can be one of the following values:
 666:Drivers/STM32G4xx_HAL_Driver/Inc/stm32g4xx_ll_gpio.h ****   *         @arg @ref LL_GPIO_AF_0
 667:Drivers/STM32G4xx_HAL_Driver/Inc/stm32g4xx_ll_gpio.h ****   *         @arg @ref LL_GPIO_AF_1
 668:Drivers/STM32G4xx_HAL_Driver/Inc/stm32g4xx_ll_gpio.h ****   *         @arg @ref LL_GPIO_AF_2
 669:Drivers/STM32G4xx_HAL_Driver/Inc/stm32g4xx_ll_gpio.h ****   *         @arg @ref LL_GPIO_AF_3
 670:Drivers/STM32G4xx_HAL_Driver/Inc/stm32g4xx_ll_gpio.h ****   *         @arg @ref LL_GPIO_AF_4
 671:Drivers/STM32G4xx_HAL_Driver/Inc/stm32g4xx_ll_gpio.h ****   *         @arg @ref LL_GPIO_AF_5
 672:Drivers/STM32G4xx_HAL_Driver/Inc/stm32g4xx_ll_gpio.h ****   *         @arg @ref LL_GPIO_AF_6
 673:Drivers/STM32G4xx_HAL_Driver/Inc/stm32g4xx_ll_gpio.h ****   *         @arg @ref LL_GPIO_AF_7
 674:Drivers/STM32G4xx_HAL_Driver/Inc/stm32g4xx_ll_gpio.h ****   *         @arg @ref LL_GPIO_AF_8
 675:Drivers/STM32G4xx_HAL_Driver/Inc/stm32g4xx_ll_gpio.h ****   *         @arg @ref LL_GPIO_AF_9
 676:Drivers/STM32G4xx_HAL_Driver/Inc/stm32g4xx_ll_gpio.h ****   *         @arg @ref LL_GPIO_AF_10
 677:Drivers/STM32G4xx_HAL_Driver/Inc/stm32g4xx_ll_gpio.h ****   *         @arg @ref LL_GPIO_AF_11
 678:Drivers/STM32G4xx_HAL_Driver/Inc/stm32g4xx_ll_gpio.h ****   *         @arg @ref LL_GPIO_AF_12
 679:Drivers/STM32G4xx_HAL_Driver/Inc/stm32g4xx_ll_gpio.h ****   *         @arg @ref LL_GPIO_AF_13
 680:Drivers/STM32G4xx_HAL_Driver/Inc/stm32g4xx_ll_gpio.h ****   *         @arg @ref LL_GPIO_AF_14
 681:Drivers/STM32G4xx_HAL_Driver/Inc/stm32g4xx_ll_gpio.h ****   *         @arg @ref LL_GPIO_AF_15
 682:Drivers/STM32G4xx_HAL_Driver/Inc/stm32g4xx_ll_gpio.h ****   */
 683:Drivers/STM32G4xx_HAL_Driver/Inc/stm32g4xx_ll_gpio.h **** __STATIC_INLINE uint32_t LL_GPIO_GetAFPin_8_15(GPIO_TypeDef *GPIOx, uint32_t Pin)
 684:Drivers/STM32G4xx_HAL_Driver/Inc/stm32g4xx_ll_gpio.h **** {
 685:Drivers/STM32G4xx_HAL_Driver/Inc/stm32g4xx_ll_gpio.h ****   return (uint32_t)(READ_BIT(GPIOx->AFR[1],
 686:Drivers/STM32G4xx_HAL_Driver/Inc/stm32g4xx_ll_gpio.h ****                              (GPIO_AFRH_AFSEL8 << (POSITION_VAL(Pin >> 8U) * 4U))) >> (POSITION_VAL
 687:Drivers/STM32G4xx_HAL_Driver/Inc/stm32g4xx_ll_gpio.h **** }
 688:Drivers/STM32G4xx_HAL_Driver/Inc/stm32g4xx_ll_gpio.h **** 
 689:Drivers/STM32G4xx_HAL_Driver/Inc/stm32g4xx_ll_gpio.h **** 
 690:Drivers/STM32G4xx_HAL_Driver/Inc/stm32g4xx_ll_gpio.h **** /**
 691:Drivers/STM32G4xx_HAL_Driver/Inc/stm32g4xx_ll_gpio.h ****   * @brief  Lock configuration of several pins for a dedicated port.
 692:Drivers/STM32G4xx_HAL_Driver/Inc/stm32g4xx_ll_gpio.h ****   * @note   When the lock sequence has been applied on a port bit, the
 693:Drivers/STM32G4xx_HAL_Driver/Inc/stm32g4xx_ll_gpio.h ****   *         value of this port bit can no longer be modified until the
 694:Drivers/STM32G4xx_HAL_Driver/Inc/stm32g4xx_ll_gpio.h ****   *         next reset.
 695:Drivers/STM32G4xx_HAL_Driver/Inc/stm32g4xx_ll_gpio.h ****   * @note   Each lock bit freezes a specific configuration register
 696:Drivers/STM32G4xx_HAL_Driver/Inc/stm32g4xx_ll_gpio.h ****   *         (control and alternate function registers).
 697:Drivers/STM32G4xx_HAL_Driver/Inc/stm32g4xx_ll_gpio.h ****   * @rmtoll LCKR         LCKK          LL_GPIO_LockPin
 698:Drivers/STM32G4xx_HAL_Driver/Inc/stm32g4xx_ll_gpio.h ****   * @param  GPIOx GPIO Port
 699:Drivers/STM32G4xx_HAL_Driver/Inc/stm32g4xx_ll_gpio.h ****   * @param  PinMask This parameter can be a combination of the following values:
 700:Drivers/STM32G4xx_HAL_Driver/Inc/stm32g4xx_ll_gpio.h ****   *         @arg @ref LL_GPIO_PIN_0
 701:Drivers/STM32G4xx_HAL_Driver/Inc/stm32g4xx_ll_gpio.h ****   *         @arg @ref LL_GPIO_PIN_1
 702:Drivers/STM32G4xx_HAL_Driver/Inc/stm32g4xx_ll_gpio.h ****   *         @arg @ref LL_GPIO_PIN_2
 703:Drivers/STM32G4xx_HAL_Driver/Inc/stm32g4xx_ll_gpio.h ****   *         @arg @ref LL_GPIO_PIN_3
 704:Drivers/STM32G4xx_HAL_Driver/Inc/stm32g4xx_ll_gpio.h ****   *         @arg @ref LL_GPIO_PIN_4
 705:Drivers/STM32G4xx_HAL_Driver/Inc/stm32g4xx_ll_gpio.h ****   *         @arg @ref LL_GPIO_PIN_5
 706:Drivers/STM32G4xx_HAL_Driver/Inc/stm32g4xx_ll_gpio.h ****   *         @arg @ref LL_GPIO_PIN_6
 707:Drivers/STM32G4xx_HAL_Driver/Inc/stm32g4xx_ll_gpio.h ****   *         @arg @ref LL_GPIO_PIN_7
 708:Drivers/STM32G4xx_HAL_Driver/Inc/stm32g4xx_ll_gpio.h ****   *         @arg @ref LL_GPIO_PIN_8
 709:Drivers/STM32G4xx_HAL_Driver/Inc/stm32g4xx_ll_gpio.h ****   *         @arg @ref LL_GPIO_PIN_9
 710:Drivers/STM32G4xx_HAL_Driver/Inc/stm32g4xx_ll_gpio.h ****   *         @arg @ref LL_GPIO_PIN_10
 711:Drivers/STM32G4xx_HAL_Driver/Inc/stm32g4xx_ll_gpio.h ****   *         @arg @ref LL_GPIO_PIN_11
 712:Drivers/STM32G4xx_HAL_Driver/Inc/stm32g4xx_ll_gpio.h ****   *         @arg @ref LL_GPIO_PIN_12
 713:Drivers/STM32G4xx_HAL_Driver/Inc/stm32g4xx_ll_gpio.h ****   *         @arg @ref LL_GPIO_PIN_13
 714:Drivers/STM32G4xx_HAL_Driver/Inc/stm32g4xx_ll_gpio.h ****   *         @arg @ref LL_GPIO_PIN_14
ARM GAS  /tmp/cc1UKUxP.s 			page 47


 715:Drivers/STM32G4xx_HAL_Driver/Inc/stm32g4xx_ll_gpio.h ****   *         @arg @ref LL_GPIO_PIN_15
 716:Drivers/STM32G4xx_HAL_Driver/Inc/stm32g4xx_ll_gpio.h ****   *         @arg @ref LL_GPIO_PIN_ALL
 717:Drivers/STM32G4xx_HAL_Driver/Inc/stm32g4xx_ll_gpio.h ****   * @retval None
 718:Drivers/STM32G4xx_HAL_Driver/Inc/stm32g4xx_ll_gpio.h ****   */
 719:Drivers/STM32G4xx_HAL_Driver/Inc/stm32g4xx_ll_gpio.h **** __STATIC_INLINE void LL_GPIO_LockPin(GPIO_TypeDef *GPIOx, uint32_t PinMask)
 720:Drivers/STM32G4xx_HAL_Driver/Inc/stm32g4xx_ll_gpio.h **** {
 721:Drivers/STM32G4xx_HAL_Driver/Inc/stm32g4xx_ll_gpio.h ****   __IO uint32_t temp;
 722:Drivers/STM32G4xx_HAL_Driver/Inc/stm32g4xx_ll_gpio.h ****   WRITE_REG(GPIOx->LCKR, GPIO_LCKR_LCKK | PinMask);
 723:Drivers/STM32G4xx_HAL_Driver/Inc/stm32g4xx_ll_gpio.h ****   WRITE_REG(GPIOx->LCKR, PinMask);
 724:Drivers/STM32G4xx_HAL_Driver/Inc/stm32g4xx_ll_gpio.h ****   WRITE_REG(GPIOx->LCKR, GPIO_LCKR_LCKK | PinMask);
 725:Drivers/STM32G4xx_HAL_Driver/Inc/stm32g4xx_ll_gpio.h ****   /* Read LCKR register. This read is mandatory to complete key lock sequence */
 726:Drivers/STM32G4xx_HAL_Driver/Inc/stm32g4xx_ll_gpio.h ****   temp = READ_REG(GPIOx->LCKR);
 727:Drivers/STM32G4xx_HAL_Driver/Inc/stm32g4xx_ll_gpio.h ****   (void) temp;
 728:Drivers/STM32G4xx_HAL_Driver/Inc/stm32g4xx_ll_gpio.h **** }
 729:Drivers/STM32G4xx_HAL_Driver/Inc/stm32g4xx_ll_gpio.h **** 
 730:Drivers/STM32G4xx_HAL_Driver/Inc/stm32g4xx_ll_gpio.h **** /**
 731:Drivers/STM32G4xx_HAL_Driver/Inc/stm32g4xx_ll_gpio.h ****   * @brief  Return 1 if all pins passed as parameter, of a dedicated port, are locked. else Return 
 732:Drivers/STM32G4xx_HAL_Driver/Inc/stm32g4xx_ll_gpio.h ****   * @rmtoll LCKR         LCKy          LL_GPIO_IsPinLocked
 733:Drivers/STM32G4xx_HAL_Driver/Inc/stm32g4xx_ll_gpio.h ****   * @param  GPIOx GPIO Port
 734:Drivers/STM32G4xx_HAL_Driver/Inc/stm32g4xx_ll_gpio.h ****   * @param  PinMask This parameter can be a combination of the following values:
 735:Drivers/STM32G4xx_HAL_Driver/Inc/stm32g4xx_ll_gpio.h ****   *         @arg @ref LL_GPIO_PIN_0
 736:Drivers/STM32G4xx_HAL_Driver/Inc/stm32g4xx_ll_gpio.h ****   *         @arg @ref LL_GPIO_PIN_1
 737:Drivers/STM32G4xx_HAL_Driver/Inc/stm32g4xx_ll_gpio.h ****   *         @arg @ref LL_GPIO_PIN_2
 738:Drivers/STM32G4xx_HAL_Driver/Inc/stm32g4xx_ll_gpio.h ****   *         @arg @ref LL_GPIO_PIN_3
 739:Drivers/STM32G4xx_HAL_Driver/Inc/stm32g4xx_ll_gpio.h ****   *         @arg @ref LL_GPIO_PIN_4
 740:Drivers/STM32G4xx_HAL_Driver/Inc/stm32g4xx_ll_gpio.h ****   *         @arg @ref LL_GPIO_PIN_5
 741:Drivers/STM32G4xx_HAL_Driver/Inc/stm32g4xx_ll_gpio.h ****   *         @arg @ref LL_GPIO_PIN_6
 742:Drivers/STM32G4xx_HAL_Driver/Inc/stm32g4xx_ll_gpio.h ****   *         @arg @ref LL_GPIO_PIN_7
 743:Drivers/STM32G4xx_HAL_Driver/Inc/stm32g4xx_ll_gpio.h ****   *         @arg @ref LL_GPIO_PIN_8
 744:Drivers/STM32G4xx_HAL_Driver/Inc/stm32g4xx_ll_gpio.h ****   *         @arg @ref LL_GPIO_PIN_9
 745:Drivers/STM32G4xx_HAL_Driver/Inc/stm32g4xx_ll_gpio.h ****   *         @arg @ref LL_GPIO_PIN_10
 746:Drivers/STM32G4xx_HAL_Driver/Inc/stm32g4xx_ll_gpio.h ****   *         @arg @ref LL_GPIO_PIN_11
 747:Drivers/STM32G4xx_HAL_Driver/Inc/stm32g4xx_ll_gpio.h ****   *         @arg @ref LL_GPIO_PIN_12
 748:Drivers/STM32G4xx_HAL_Driver/Inc/stm32g4xx_ll_gpio.h ****   *         @arg @ref LL_GPIO_PIN_13
 749:Drivers/STM32G4xx_HAL_Driver/Inc/stm32g4xx_ll_gpio.h ****   *         @arg @ref LL_GPIO_PIN_14
 750:Drivers/STM32G4xx_HAL_Driver/Inc/stm32g4xx_ll_gpio.h ****   *         @arg @ref LL_GPIO_PIN_15
 751:Drivers/STM32G4xx_HAL_Driver/Inc/stm32g4xx_ll_gpio.h ****   *         @arg @ref LL_GPIO_PIN_ALL
 752:Drivers/STM32G4xx_HAL_Driver/Inc/stm32g4xx_ll_gpio.h ****   * @retval State of bit (1 or 0).
 753:Drivers/STM32G4xx_HAL_Driver/Inc/stm32g4xx_ll_gpio.h ****   */
 754:Drivers/STM32G4xx_HAL_Driver/Inc/stm32g4xx_ll_gpio.h **** __STATIC_INLINE uint32_t LL_GPIO_IsPinLocked(GPIO_TypeDef *GPIOx, uint32_t PinMask)
 755:Drivers/STM32G4xx_HAL_Driver/Inc/stm32g4xx_ll_gpio.h **** {
 756:Drivers/STM32G4xx_HAL_Driver/Inc/stm32g4xx_ll_gpio.h ****   return ((READ_BIT(GPIOx->LCKR, PinMask) == (PinMask)) ? 1UL : 0UL);
 757:Drivers/STM32G4xx_HAL_Driver/Inc/stm32g4xx_ll_gpio.h **** }
 758:Drivers/STM32G4xx_HAL_Driver/Inc/stm32g4xx_ll_gpio.h **** 
 759:Drivers/STM32G4xx_HAL_Driver/Inc/stm32g4xx_ll_gpio.h **** /**
 760:Drivers/STM32G4xx_HAL_Driver/Inc/stm32g4xx_ll_gpio.h ****   * @brief  Return 1 if one of the pin of a dedicated port is locked. else return 0.
 761:Drivers/STM32G4xx_HAL_Driver/Inc/stm32g4xx_ll_gpio.h ****   * @rmtoll LCKR         LCKK          LL_GPIO_IsAnyPinLocked
 762:Drivers/STM32G4xx_HAL_Driver/Inc/stm32g4xx_ll_gpio.h ****   * @param  GPIOx GPIO Port
 763:Drivers/STM32G4xx_HAL_Driver/Inc/stm32g4xx_ll_gpio.h ****   * @retval State of bit (1 or 0).
 764:Drivers/STM32G4xx_HAL_Driver/Inc/stm32g4xx_ll_gpio.h ****   */
 765:Drivers/STM32G4xx_HAL_Driver/Inc/stm32g4xx_ll_gpio.h **** __STATIC_INLINE uint32_t LL_GPIO_IsAnyPinLocked(GPIO_TypeDef *GPIOx)
 766:Drivers/STM32G4xx_HAL_Driver/Inc/stm32g4xx_ll_gpio.h **** {
 767:Drivers/STM32G4xx_HAL_Driver/Inc/stm32g4xx_ll_gpio.h ****   return ((READ_BIT(GPIOx->LCKR, GPIO_LCKR_LCKK) == (GPIO_LCKR_LCKK)) ? 1UL : 0UL);
 768:Drivers/STM32G4xx_HAL_Driver/Inc/stm32g4xx_ll_gpio.h **** }
 769:Drivers/STM32G4xx_HAL_Driver/Inc/stm32g4xx_ll_gpio.h **** 
 770:Drivers/STM32G4xx_HAL_Driver/Inc/stm32g4xx_ll_gpio.h **** /**
 771:Drivers/STM32G4xx_HAL_Driver/Inc/stm32g4xx_ll_gpio.h ****   * @}
ARM GAS  /tmp/cc1UKUxP.s 			page 48


 772:Drivers/STM32G4xx_HAL_Driver/Inc/stm32g4xx_ll_gpio.h ****   */
 773:Drivers/STM32G4xx_HAL_Driver/Inc/stm32g4xx_ll_gpio.h **** 
 774:Drivers/STM32G4xx_HAL_Driver/Inc/stm32g4xx_ll_gpio.h **** /** @defgroup GPIO_LL_EF_Data_Access Data Access
 775:Drivers/STM32G4xx_HAL_Driver/Inc/stm32g4xx_ll_gpio.h ****   * @{
 776:Drivers/STM32G4xx_HAL_Driver/Inc/stm32g4xx_ll_gpio.h ****   */
 777:Drivers/STM32G4xx_HAL_Driver/Inc/stm32g4xx_ll_gpio.h **** 
 778:Drivers/STM32G4xx_HAL_Driver/Inc/stm32g4xx_ll_gpio.h **** /**
 779:Drivers/STM32G4xx_HAL_Driver/Inc/stm32g4xx_ll_gpio.h ****   * @brief  Return full input data register value for a dedicated port.
 780:Drivers/STM32G4xx_HAL_Driver/Inc/stm32g4xx_ll_gpio.h ****   * @rmtoll IDR          IDy           LL_GPIO_ReadInputPort
 781:Drivers/STM32G4xx_HAL_Driver/Inc/stm32g4xx_ll_gpio.h ****   * @param  GPIOx GPIO Port
 782:Drivers/STM32G4xx_HAL_Driver/Inc/stm32g4xx_ll_gpio.h ****   * @retval Input data register value of port
 783:Drivers/STM32G4xx_HAL_Driver/Inc/stm32g4xx_ll_gpio.h ****   */
 784:Drivers/STM32G4xx_HAL_Driver/Inc/stm32g4xx_ll_gpio.h **** __STATIC_INLINE uint32_t LL_GPIO_ReadInputPort(GPIO_TypeDef *GPIOx)
 785:Drivers/STM32G4xx_HAL_Driver/Inc/stm32g4xx_ll_gpio.h **** {
 786:Drivers/STM32G4xx_HAL_Driver/Inc/stm32g4xx_ll_gpio.h ****   return (uint32_t)(READ_REG(GPIOx->IDR));
 787:Drivers/STM32G4xx_HAL_Driver/Inc/stm32g4xx_ll_gpio.h **** }
 788:Drivers/STM32G4xx_HAL_Driver/Inc/stm32g4xx_ll_gpio.h **** 
 789:Drivers/STM32G4xx_HAL_Driver/Inc/stm32g4xx_ll_gpio.h **** /**
 790:Drivers/STM32G4xx_HAL_Driver/Inc/stm32g4xx_ll_gpio.h ****   * @brief  Return if input data level for several pins of dedicated port is high or low.
 791:Drivers/STM32G4xx_HAL_Driver/Inc/stm32g4xx_ll_gpio.h ****   * @rmtoll IDR          IDy           LL_GPIO_IsInputPinSet
 792:Drivers/STM32G4xx_HAL_Driver/Inc/stm32g4xx_ll_gpio.h ****   * @param  GPIOx GPIO Port
 793:Drivers/STM32G4xx_HAL_Driver/Inc/stm32g4xx_ll_gpio.h ****   * @param  PinMask This parameter can be a combination of the following values:
 794:Drivers/STM32G4xx_HAL_Driver/Inc/stm32g4xx_ll_gpio.h ****   *         @arg @ref LL_GPIO_PIN_0
 795:Drivers/STM32G4xx_HAL_Driver/Inc/stm32g4xx_ll_gpio.h ****   *         @arg @ref LL_GPIO_PIN_1
 796:Drivers/STM32G4xx_HAL_Driver/Inc/stm32g4xx_ll_gpio.h ****   *         @arg @ref LL_GPIO_PIN_2
 797:Drivers/STM32G4xx_HAL_Driver/Inc/stm32g4xx_ll_gpio.h ****   *         @arg @ref LL_GPIO_PIN_3
 798:Drivers/STM32G4xx_HAL_Driver/Inc/stm32g4xx_ll_gpio.h ****   *         @arg @ref LL_GPIO_PIN_4
 799:Drivers/STM32G4xx_HAL_Driver/Inc/stm32g4xx_ll_gpio.h ****   *         @arg @ref LL_GPIO_PIN_5
 800:Drivers/STM32G4xx_HAL_Driver/Inc/stm32g4xx_ll_gpio.h ****   *         @arg @ref LL_GPIO_PIN_6
 801:Drivers/STM32G4xx_HAL_Driver/Inc/stm32g4xx_ll_gpio.h ****   *         @arg @ref LL_GPIO_PIN_7
 802:Drivers/STM32G4xx_HAL_Driver/Inc/stm32g4xx_ll_gpio.h ****   *         @arg @ref LL_GPIO_PIN_8
 803:Drivers/STM32G4xx_HAL_Driver/Inc/stm32g4xx_ll_gpio.h ****   *         @arg @ref LL_GPIO_PIN_9
 804:Drivers/STM32G4xx_HAL_Driver/Inc/stm32g4xx_ll_gpio.h ****   *         @arg @ref LL_GPIO_PIN_10
 805:Drivers/STM32G4xx_HAL_Driver/Inc/stm32g4xx_ll_gpio.h ****   *         @arg @ref LL_GPIO_PIN_11
 806:Drivers/STM32G4xx_HAL_Driver/Inc/stm32g4xx_ll_gpio.h ****   *         @arg @ref LL_GPIO_PIN_12
 807:Drivers/STM32G4xx_HAL_Driver/Inc/stm32g4xx_ll_gpio.h ****   *         @arg @ref LL_GPIO_PIN_13
 808:Drivers/STM32G4xx_HAL_Driver/Inc/stm32g4xx_ll_gpio.h ****   *         @arg @ref LL_GPIO_PIN_14
 809:Drivers/STM32G4xx_HAL_Driver/Inc/stm32g4xx_ll_gpio.h ****   *         @arg @ref LL_GPIO_PIN_15
 810:Drivers/STM32G4xx_HAL_Driver/Inc/stm32g4xx_ll_gpio.h ****   *         @arg @ref LL_GPIO_PIN_ALL
 811:Drivers/STM32G4xx_HAL_Driver/Inc/stm32g4xx_ll_gpio.h ****   * @retval State of bit (1 or 0).
 812:Drivers/STM32G4xx_HAL_Driver/Inc/stm32g4xx_ll_gpio.h ****   */
 813:Drivers/STM32G4xx_HAL_Driver/Inc/stm32g4xx_ll_gpio.h **** __STATIC_INLINE uint32_t LL_GPIO_IsInputPinSet(GPIO_TypeDef *GPIOx, uint32_t PinMask)
 814:Drivers/STM32G4xx_HAL_Driver/Inc/stm32g4xx_ll_gpio.h **** {
 815:Drivers/STM32G4xx_HAL_Driver/Inc/stm32g4xx_ll_gpio.h ****   return ((READ_BIT(GPIOx->IDR, PinMask) == (PinMask)) ? 1UL : 0UL);
 816:Drivers/STM32G4xx_HAL_Driver/Inc/stm32g4xx_ll_gpio.h **** }
 817:Drivers/STM32G4xx_HAL_Driver/Inc/stm32g4xx_ll_gpio.h **** 
 818:Drivers/STM32G4xx_HAL_Driver/Inc/stm32g4xx_ll_gpio.h **** /**
 819:Drivers/STM32G4xx_HAL_Driver/Inc/stm32g4xx_ll_gpio.h ****   * @brief  Write output data register for the port.
 820:Drivers/STM32G4xx_HAL_Driver/Inc/stm32g4xx_ll_gpio.h ****   * @rmtoll ODR          ODy           LL_GPIO_WriteOutputPort
 821:Drivers/STM32G4xx_HAL_Driver/Inc/stm32g4xx_ll_gpio.h ****   * @param  GPIOx GPIO Port
 822:Drivers/STM32G4xx_HAL_Driver/Inc/stm32g4xx_ll_gpio.h ****   * @param  PortValue Level value for each pin of the port
 823:Drivers/STM32G4xx_HAL_Driver/Inc/stm32g4xx_ll_gpio.h ****   * @retval None
 824:Drivers/STM32G4xx_HAL_Driver/Inc/stm32g4xx_ll_gpio.h ****   */
 825:Drivers/STM32G4xx_HAL_Driver/Inc/stm32g4xx_ll_gpio.h **** __STATIC_INLINE void LL_GPIO_WriteOutputPort(GPIO_TypeDef *GPIOx, uint32_t PortValue)
 826:Drivers/STM32G4xx_HAL_Driver/Inc/stm32g4xx_ll_gpio.h **** {
 827:Drivers/STM32G4xx_HAL_Driver/Inc/stm32g4xx_ll_gpio.h ****   WRITE_REG(GPIOx->ODR, PortValue);
 828:Drivers/STM32G4xx_HAL_Driver/Inc/stm32g4xx_ll_gpio.h **** }
ARM GAS  /tmp/cc1UKUxP.s 			page 49


 829:Drivers/STM32G4xx_HAL_Driver/Inc/stm32g4xx_ll_gpio.h **** 
 830:Drivers/STM32G4xx_HAL_Driver/Inc/stm32g4xx_ll_gpio.h **** /**
 831:Drivers/STM32G4xx_HAL_Driver/Inc/stm32g4xx_ll_gpio.h ****   * @brief  Return full output data register value for a dedicated port.
 832:Drivers/STM32G4xx_HAL_Driver/Inc/stm32g4xx_ll_gpio.h ****   * @rmtoll ODR          ODy           LL_GPIO_ReadOutputPort
 833:Drivers/STM32G4xx_HAL_Driver/Inc/stm32g4xx_ll_gpio.h ****   * @param  GPIOx GPIO Port
 834:Drivers/STM32G4xx_HAL_Driver/Inc/stm32g4xx_ll_gpio.h ****   * @retval Output data register value of port
 835:Drivers/STM32G4xx_HAL_Driver/Inc/stm32g4xx_ll_gpio.h ****   */
 836:Drivers/STM32G4xx_HAL_Driver/Inc/stm32g4xx_ll_gpio.h **** __STATIC_INLINE uint32_t LL_GPIO_ReadOutputPort(GPIO_TypeDef *GPIOx)
 837:Drivers/STM32G4xx_HAL_Driver/Inc/stm32g4xx_ll_gpio.h **** {
 838:Drivers/STM32G4xx_HAL_Driver/Inc/stm32g4xx_ll_gpio.h ****   return (uint32_t)(READ_REG(GPIOx->ODR));
 839:Drivers/STM32G4xx_HAL_Driver/Inc/stm32g4xx_ll_gpio.h **** }
 840:Drivers/STM32G4xx_HAL_Driver/Inc/stm32g4xx_ll_gpio.h **** 
 841:Drivers/STM32G4xx_HAL_Driver/Inc/stm32g4xx_ll_gpio.h **** /**
 842:Drivers/STM32G4xx_HAL_Driver/Inc/stm32g4xx_ll_gpio.h ****   * @brief  Return if input data level for several pins of dedicated port is high or low.
 843:Drivers/STM32G4xx_HAL_Driver/Inc/stm32g4xx_ll_gpio.h ****   * @rmtoll ODR          ODy           LL_GPIO_IsOutputPinSet
 844:Drivers/STM32G4xx_HAL_Driver/Inc/stm32g4xx_ll_gpio.h ****   * @param  GPIOx GPIO Port
 845:Drivers/STM32G4xx_HAL_Driver/Inc/stm32g4xx_ll_gpio.h ****   * @param  PinMask This parameter can be a combination of the following values:
 846:Drivers/STM32G4xx_HAL_Driver/Inc/stm32g4xx_ll_gpio.h ****   *         @arg @ref LL_GPIO_PIN_0
 847:Drivers/STM32G4xx_HAL_Driver/Inc/stm32g4xx_ll_gpio.h ****   *         @arg @ref LL_GPIO_PIN_1
 848:Drivers/STM32G4xx_HAL_Driver/Inc/stm32g4xx_ll_gpio.h ****   *         @arg @ref LL_GPIO_PIN_2
 849:Drivers/STM32G4xx_HAL_Driver/Inc/stm32g4xx_ll_gpio.h ****   *         @arg @ref LL_GPIO_PIN_3
 850:Drivers/STM32G4xx_HAL_Driver/Inc/stm32g4xx_ll_gpio.h ****   *         @arg @ref LL_GPIO_PIN_4
 851:Drivers/STM32G4xx_HAL_Driver/Inc/stm32g4xx_ll_gpio.h ****   *         @arg @ref LL_GPIO_PIN_5
 852:Drivers/STM32G4xx_HAL_Driver/Inc/stm32g4xx_ll_gpio.h ****   *         @arg @ref LL_GPIO_PIN_6
 853:Drivers/STM32G4xx_HAL_Driver/Inc/stm32g4xx_ll_gpio.h ****   *         @arg @ref LL_GPIO_PIN_7
 854:Drivers/STM32G4xx_HAL_Driver/Inc/stm32g4xx_ll_gpio.h ****   *         @arg @ref LL_GPIO_PIN_8
 855:Drivers/STM32G4xx_HAL_Driver/Inc/stm32g4xx_ll_gpio.h ****   *         @arg @ref LL_GPIO_PIN_9
 856:Drivers/STM32G4xx_HAL_Driver/Inc/stm32g4xx_ll_gpio.h ****   *         @arg @ref LL_GPIO_PIN_10
 857:Drivers/STM32G4xx_HAL_Driver/Inc/stm32g4xx_ll_gpio.h ****   *         @arg @ref LL_GPIO_PIN_11
 858:Drivers/STM32G4xx_HAL_Driver/Inc/stm32g4xx_ll_gpio.h ****   *         @arg @ref LL_GPIO_PIN_12
 859:Drivers/STM32G4xx_HAL_Driver/Inc/stm32g4xx_ll_gpio.h ****   *         @arg @ref LL_GPIO_PIN_13
 860:Drivers/STM32G4xx_HAL_Driver/Inc/stm32g4xx_ll_gpio.h ****   *         @arg @ref LL_GPIO_PIN_14
 861:Drivers/STM32G4xx_HAL_Driver/Inc/stm32g4xx_ll_gpio.h ****   *         @arg @ref LL_GPIO_PIN_15
 862:Drivers/STM32G4xx_HAL_Driver/Inc/stm32g4xx_ll_gpio.h ****   *         @arg @ref LL_GPIO_PIN_ALL
 863:Drivers/STM32G4xx_HAL_Driver/Inc/stm32g4xx_ll_gpio.h ****   * @retval State of bit (1 or 0).
 864:Drivers/STM32G4xx_HAL_Driver/Inc/stm32g4xx_ll_gpio.h ****   */
 865:Drivers/STM32G4xx_HAL_Driver/Inc/stm32g4xx_ll_gpio.h **** __STATIC_INLINE uint32_t LL_GPIO_IsOutputPinSet(GPIO_TypeDef *GPIOx, uint32_t PinMask)
 866:Drivers/STM32G4xx_HAL_Driver/Inc/stm32g4xx_ll_gpio.h **** {
 867:Drivers/STM32G4xx_HAL_Driver/Inc/stm32g4xx_ll_gpio.h ****   return ((READ_BIT(GPIOx->ODR, PinMask) == (PinMask)) ? 1UL : 0UL);
 868:Drivers/STM32G4xx_HAL_Driver/Inc/stm32g4xx_ll_gpio.h **** }
 869:Drivers/STM32G4xx_HAL_Driver/Inc/stm32g4xx_ll_gpio.h **** 
 870:Drivers/STM32G4xx_HAL_Driver/Inc/stm32g4xx_ll_gpio.h **** /**
 871:Drivers/STM32G4xx_HAL_Driver/Inc/stm32g4xx_ll_gpio.h ****   * @brief  Set several pins to high level on dedicated gpio port.
 872:Drivers/STM32G4xx_HAL_Driver/Inc/stm32g4xx_ll_gpio.h ****   * @rmtoll BSRR         BSy           LL_GPIO_SetOutputPin
 873:Drivers/STM32G4xx_HAL_Driver/Inc/stm32g4xx_ll_gpio.h ****   * @param  GPIOx GPIO Port
 874:Drivers/STM32G4xx_HAL_Driver/Inc/stm32g4xx_ll_gpio.h ****   * @param  PinMask This parameter can be a combination of the following values:
 875:Drivers/STM32G4xx_HAL_Driver/Inc/stm32g4xx_ll_gpio.h ****   *         @arg @ref LL_GPIO_PIN_0
 876:Drivers/STM32G4xx_HAL_Driver/Inc/stm32g4xx_ll_gpio.h ****   *         @arg @ref LL_GPIO_PIN_1
 877:Drivers/STM32G4xx_HAL_Driver/Inc/stm32g4xx_ll_gpio.h ****   *         @arg @ref LL_GPIO_PIN_2
 878:Drivers/STM32G4xx_HAL_Driver/Inc/stm32g4xx_ll_gpio.h ****   *         @arg @ref LL_GPIO_PIN_3
 879:Drivers/STM32G4xx_HAL_Driver/Inc/stm32g4xx_ll_gpio.h ****   *         @arg @ref LL_GPIO_PIN_4
 880:Drivers/STM32G4xx_HAL_Driver/Inc/stm32g4xx_ll_gpio.h ****   *         @arg @ref LL_GPIO_PIN_5
 881:Drivers/STM32G4xx_HAL_Driver/Inc/stm32g4xx_ll_gpio.h ****   *         @arg @ref LL_GPIO_PIN_6
 882:Drivers/STM32G4xx_HAL_Driver/Inc/stm32g4xx_ll_gpio.h ****   *         @arg @ref LL_GPIO_PIN_7
 883:Drivers/STM32G4xx_HAL_Driver/Inc/stm32g4xx_ll_gpio.h ****   *         @arg @ref LL_GPIO_PIN_8
 884:Drivers/STM32G4xx_HAL_Driver/Inc/stm32g4xx_ll_gpio.h ****   *         @arg @ref LL_GPIO_PIN_9
 885:Drivers/STM32G4xx_HAL_Driver/Inc/stm32g4xx_ll_gpio.h ****   *         @arg @ref LL_GPIO_PIN_10
ARM GAS  /tmp/cc1UKUxP.s 			page 50


 886:Drivers/STM32G4xx_HAL_Driver/Inc/stm32g4xx_ll_gpio.h ****   *         @arg @ref LL_GPIO_PIN_11
 887:Drivers/STM32G4xx_HAL_Driver/Inc/stm32g4xx_ll_gpio.h ****   *         @arg @ref LL_GPIO_PIN_12
 888:Drivers/STM32G4xx_HAL_Driver/Inc/stm32g4xx_ll_gpio.h ****   *         @arg @ref LL_GPIO_PIN_13
 889:Drivers/STM32G4xx_HAL_Driver/Inc/stm32g4xx_ll_gpio.h ****   *         @arg @ref LL_GPIO_PIN_14
 890:Drivers/STM32G4xx_HAL_Driver/Inc/stm32g4xx_ll_gpio.h ****   *         @arg @ref LL_GPIO_PIN_15
 891:Drivers/STM32G4xx_HAL_Driver/Inc/stm32g4xx_ll_gpio.h ****   *         @arg @ref LL_GPIO_PIN_ALL
 892:Drivers/STM32G4xx_HAL_Driver/Inc/stm32g4xx_ll_gpio.h ****   * @retval None
 893:Drivers/STM32G4xx_HAL_Driver/Inc/stm32g4xx_ll_gpio.h ****   */
 894:Drivers/STM32G4xx_HAL_Driver/Inc/stm32g4xx_ll_gpio.h **** __STATIC_INLINE void LL_GPIO_SetOutputPin(GPIO_TypeDef *GPIOx, uint32_t PinMask)
 895:Drivers/STM32G4xx_HAL_Driver/Inc/stm32g4xx_ll_gpio.h **** {
 896:Drivers/STM32G4xx_HAL_Driver/Inc/stm32g4xx_ll_gpio.h ****   WRITE_REG(GPIOx->BSRR, PinMask);
 897:Drivers/STM32G4xx_HAL_Driver/Inc/stm32g4xx_ll_gpio.h **** }
 898:Drivers/STM32G4xx_HAL_Driver/Inc/stm32g4xx_ll_gpio.h **** 
 899:Drivers/STM32G4xx_HAL_Driver/Inc/stm32g4xx_ll_gpio.h **** /**
 900:Drivers/STM32G4xx_HAL_Driver/Inc/stm32g4xx_ll_gpio.h ****   * @brief  Set several pins to low level on dedicated gpio port.
 901:Drivers/STM32G4xx_HAL_Driver/Inc/stm32g4xx_ll_gpio.h ****   * @rmtoll BRR          BRy           LL_GPIO_ResetOutputPin
 902:Drivers/STM32G4xx_HAL_Driver/Inc/stm32g4xx_ll_gpio.h ****   * @param  GPIOx GPIO Port
 903:Drivers/STM32G4xx_HAL_Driver/Inc/stm32g4xx_ll_gpio.h ****   * @param  PinMask This parameter can be a combination of the following values:
 904:Drivers/STM32G4xx_HAL_Driver/Inc/stm32g4xx_ll_gpio.h ****   *         @arg @ref LL_GPIO_PIN_0
 905:Drivers/STM32G4xx_HAL_Driver/Inc/stm32g4xx_ll_gpio.h ****   *         @arg @ref LL_GPIO_PIN_1
 906:Drivers/STM32G4xx_HAL_Driver/Inc/stm32g4xx_ll_gpio.h ****   *         @arg @ref LL_GPIO_PIN_2
 907:Drivers/STM32G4xx_HAL_Driver/Inc/stm32g4xx_ll_gpio.h ****   *         @arg @ref LL_GPIO_PIN_3
 908:Drivers/STM32G4xx_HAL_Driver/Inc/stm32g4xx_ll_gpio.h ****   *         @arg @ref LL_GPIO_PIN_4
 909:Drivers/STM32G4xx_HAL_Driver/Inc/stm32g4xx_ll_gpio.h ****   *         @arg @ref LL_GPIO_PIN_5
 910:Drivers/STM32G4xx_HAL_Driver/Inc/stm32g4xx_ll_gpio.h ****   *         @arg @ref LL_GPIO_PIN_6
 911:Drivers/STM32G4xx_HAL_Driver/Inc/stm32g4xx_ll_gpio.h ****   *         @arg @ref LL_GPIO_PIN_7
 912:Drivers/STM32G4xx_HAL_Driver/Inc/stm32g4xx_ll_gpio.h ****   *         @arg @ref LL_GPIO_PIN_8
 913:Drivers/STM32G4xx_HAL_Driver/Inc/stm32g4xx_ll_gpio.h ****   *         @arg @ref LL_GPIO_PIN_9
 914:Drivers/STM32G4xx_HAL_Driver/Inc/stm32g4xx_ll_gpio.h ****   *         @arg @ref LL_GPIO_PIN_10
 915:Drivers/STM32G4xx_HAL_Driver/Inc/stm32g4xx_ll_gpio.h ****   *         @arg @ref LL_GPIO_PIN_11
 916:Drivers/STM32G4xx_HAL_Driver/Inc/stm32g4xx_ll_gpio.h ****   *         @arg @ref LL_GPIO_PIN_12
 917:Drivers/STM32G4xx_HAL_Driver/Inc/stm32g4xx_ll_gpio.h ****   *         @arg @ref LL_GPIO_PIN_13
 918:Drivers/STM32G4xx_HAL_Driver/Inc/stm32g4xx_ll_gpio.h ****   *         @arg @ref LL_GPIO_PIN_14
 919:Drivers/STM32G4xx_HAL_Driver/Inc/stm32g4xx_ll_gpio.h ****   *         @arg @ref LL_GPIO_PIN_15
 920:Drivers/STM32G4xx_HAL_Driver/Inc/stm32g4xx_ll_gpio.h ****   *         @arg @ref LL_GPIO_PIN_ALL
 921:Drivers/STM32G4xx_HAL_Driver/Inc/stm32g4xx_ll_gpio.h ****   * @retval None
 922:Drivers/STM32G4xx_HAL_Driver/Inc/stm32g4xx_ll_gpio.h ****   */
 923:Drivers/STM32G4xx_HAL_Driver/Inc/stm32g4xx_ll_gpio.h **** __STATIC_INLINE void LL_GPIO_ResetOutputPin(GPIO_TypeDef *GPIOx, uint32_t PinMask)
 1085              		.loc 2 923 22 is_stmt 1 view .LVU370
 1086              	.LBB35:
 924:Drivers/STM32G4xx_HAL_Driver/Inc/stm32g4xx_ll_gpio.h **** {
 925:Drivers/STM32G4xx_HAL_Driver/Inc/stm32g4xx_ll_gpio.h ****   WRITE_REG(GPIOx->BRR, PinMask);
 1087              		.loc 2 925 3 view .LVU371
 1088              	.LBE35:
 1089              	.LBE34:
 581:Src/pwm_curr_fdbk.c ****         LL_GPIO_ResetOutputPin(pHandle->pwm_en_w_port, pHandle->pwm_en_w_pin);
 1090              		.loc 1 581 9 is_stmt 0 view .LVU372
 1091 0024 B0F84A40 		ldrh	r4, [r0, #74]
 1092              	.LBB37:
 1093              	.LBB36:
 1094              		.loc 2 925 3 view .LVU373
 1095 0028 9562     		str	r5, [r2, #40]
 1096              	.LVL86:
 1097              		.loc 2 925 3 view .LVU374
 1098              	.LBE36:
 1099              	.LBE37:
 581:Src/pwm_curr_fdbk.c ****         LL_GPIO_ResetOutputPin(pHandle->pwm_en_w_port, pHandle->pwm_en_w_pin);
ARM GAS  /tmp/cc1UKUxP.s 			page 51


 1100              		.loc 1 581 9 is_stmt 1 view .LVU375
 1101              	.LBB38:
 1102              	.LBI38:
 923:Drivers/STM32G4xx_HAL_Driver/Inc/stm32g4xx_ll_gpio.h **** {
 1103              		.loc 2 923 22 view .LVU376
 1104              	.LBB39:
 1105              		.loc 2 925 3 view .LVU377
 1106              	.LBE39:
 1107              	.LBE38:
 582:Src/pwm_curr_fdbk.c ****       }
 1108              		.loc 1 582 9 is_stmt 0 view .LVU378
 1109 002a B0F84C20 		ldrh	r2, [r0, #76]
 1110              	.LBB41:
 1111              	.LBB40:
 1112              		.loc 2 925 3 view .LVU379
 1113 002e 8C62     		str	r4, [r1, #40]
 1114              	.LVL87:
 1115              		.loc 2 925 3 view .LVU380
 1116              	.LBE40:
 1117              	.LBE41:
 582:Src/pwm_curr_fdbk.c ****       }
 1118              		.loc 1 582 9 is_stmt 1 view .LVU381
 1119              	.LBB42:
 1120              	.LBI42:
 923:Drivers/STM32G4xx_HAL_Driver/Inc/stm32g4xx_ll_gpio.h **** {
 1121              		.loc 2 923 22 view .LVU382
 1122              	.LBB43:
 1123              		.loc 2 925 3 view .LVU383
 1124              	.LBE43:
 1125              	.LBE42:
 592:Src/pwm_curr_fdbk.c ****     pHandle->OverCurrentFlag = true;
 1126              		.loc 1 592 5 view .LVU384
 593:Src/pwm_curr_fdbk.c ****     tempPointer = &(pHandle->Motor);
 1127              		.loc 1 593 5 view .LVU385
 1128              	.LBB45:
 1129              	.LBB44:
 1130              		.loc 2 925 3 is_stmt 0 view .LVU386
 1131 0030 9A62     		str	r2, [r3, #40]
 1132              	.LBE44:
 1133              	.LBE45:
 593:Src/pwm_curr_fdbk.c ****     tempPointer = &(pHandle->Motor);
 1134              		.loc 1 593 30 view .LVU387
 1135 0032 0123     		movs	r3, #1
 1136              	.LVL88:
 593:Src/pwm_curr_fdbk.c ****     tempPointer = &(pHandle->Motor);
 1137              		.loc 1 593 30 view .LVU388
 1138 0034 80F88030 		strb	r3, [r0, #128]
 594:Src/pwm_curr_fdbk.c **** #ifdef NULL_PTR_CHECK_PWR_CUR_FDB
 1139              		.loc 1 594 5 is_stmt 1 view .LVU389
 1140              	.LVL89:
 598:Src/pwm_curr_fdbk.c **** }
 1141              		.loc 1 598 3 view .LVU390
 1142              		.loc 1 599 1 is_stmt 0 view .LVU391
 1143 0038 30BC     		pop	{r4, r5}
 1144              	.LCFI16:
 1145              		.cfi_restore 5
 1146              		.cfi_restore 4
ARM GAS  /tmp/cc1UKUxP.s 			page 52


 1147              		.cfi_def_cfa_offset 0
 1148 003a 7830     		adds	r0, r0, #120
 1149              	.LVL90:
 1150              		.loc 1 599 1 view .LVU392
 1151 003c 7047     		bx	lr
 1152              		.cfi_endproc
 1153              	.LFE1450:
 1155 003e 00BF     		.section	.text.PWMC_DP_Handler,"ax",%progbits
 1156              		.align	1
 1157              		.p2align 2,,3
 1158              		.weak	PWMC_DP_Handler
 1159              		.syntax unified
 1160              		.thumb
 1161              		.thumb_func
 1162              		.fpu fpv4-sp-d16
 1164              	PWMC_DP_Handler:
 1165              	.LVL91:
 1166              	.LFB1451:
 600:Src/pwm_curr_fdbk.c **** 
 601:Src/pwm_curr_fdbk.c **** #if defined (CCMRAM)
 602:Src/pwm_curr_fdbk.c **** #if defined (__ICCARM__)
 603:Src/pwm_curr_fdbk.c **** #pragma location = ".ccmram"
 604:Src/pwm_curr_fdbk.c **** #elif defined (__CC_ARM) || defined(__GNUC__)
 605:Src/pwm_curr_fdbk.c **** __attribute__((section(".ccmram")))
 606:Src/pwm_curr_fdbk.c **** #endif
 607:Src/pwm_curr_fdbk.c **** #endif
 608:Src/pwm_curr_fdbk.c **** /*
 609:Src/pwm_curr_fdbk.c ****   * @brief  manages driver protection.
 610:Src/pwm_curr_fdbk.c ****   *
 611:Src/pwm_curr_fdbk.c ****   * @param  pHandle: Handler of the current instance of the PWM component.
 612:Src/pwm_curr_fdbk.c ****   */
 613:Src/pwm_curr_fdbk.c **** __weak void *PWMC_DP_Handler(PWMC_Handle_t *pHandle)
 614:Src/pwm_curr_fdbk.c **** {
 1167              		.loc 1 614 1 is_stmt 1 view -0
 1168              		.cfi_startproc
 1169              		@ args = 0, pretend = 0, frame = 0
 1170              		@ frame_needed = 0, uses_anonymous_args = 0
 1171              		@ link register save eliminated.
 615:Src/pwm_curr_fdbk.c ****   void *tempPointer; //cstat !MISRAC2012-Rule-8.13
 1172              		.loc 1 615 3 view .LVU394
 616:Src/pwm_curr_fdbk.c **** #ifdef NULL_PTR_CHECK_PWR_CUR_FDB
 617:Src/pwm_curr_fdbk.c ****   if (MC_NULL == pHandle)
 618:Src/pwm_curr_fdbk.c ****   {
 619:Src/pwm_curr_fdbk.c ****     tempPointer = MC_NULL;
 620:Src/pwm_curr_fdbk.c ****   }
 621:Src/pwm_curr_fdbk.c ****   else
 622:Src/pwm_curr_fdbk.c ****   {
 623:Src/pwm_curr_fdbk.c **** #endif
 624:Src/pwm_curr_fdbk.c ****     if (false == pHandle->BrakeActionLock)
 1173              		.loc 1 624 5 view .LVU395
 1174              		.loc 1 624 8 is_stmt 0 view .LVU396
 1175 0000 90F88330 		ldrb	r3, [r0, #131]	@ zero_extendqisi2
 1176 0004 1BB9     		cbnz	r3, .L69
 625:Src/pwm_curr_fdbk.c ****     {
 626:Src/pwm_curr_fdbk.c ****       if (ES_GPIO == pHandle->LowSideOutputs)
 1177              		.loc 1 626 7 is_stmt 1 view .LVU397
 1178              		.loc 1 626 10 is_stmt 0 view .LVU398
ARM GAS  /tmp/cc1UKUxP.s 			page 53


 1179 0006 90F87B30 		ldrb	r3, [r0, #123]	@ zero_extendqisi2
 1180 000a 022B     		cmp	r3, #2
 1181 000c 04D0     		beq	.L72
 1182              	.L69:
 627:Src/pwm_curr_fdbk.c ****       {
 628:Src/pwm_curr_fdbk.c ****         LL_GPIO_ResetOutputPin(pHandle->pwm_en_u_port, pHandle->pwm_en_u_pin);
 629:Src/pwm_curr_fdbk.c ****         LL_GPIO_ResetOutputPin(pHandle->pwm_en_v_port, pHandle->pwm_en_v_pin);
 630:Src/pwm_curr_fdbk.c ****         LL_GPIO_ResetOutputPin(pHandle->pwm_en_w_port, pHandle->pwm_en_w_pin);
 631:Src/pwm_curr_fdbk.c ****       }
 632:Src/pwm_curr_fdbk.c ****       else
 633:Src/pwm_curr_fdbk.c ****       {
 634:Src/pwm_curr_fdbk.c ****         /* Nothing to do */
 635:Src/pwm_curr_fdbk.c ****       }
 636:Src/pwm_curr_fdbk.c ****     }
 637:Src/pwm_curr_fdbk.c ****     else
 638:Src/pwm_curr_fdbk.c ****     {
 639:Src/pwm_curr_fdbk.c ****       /* Nothing to do */
 640:Src/pwm_curr_fdbk.c ****     }
 1183              		.loc 1 640 5 is_stmt 1 view .LVU399
 641:Src/pwm_curr_fdbk.c ****     pHandle->driverProtectionFlag = true;
 1184              		.loc 1 641 5 view .LVU400
 1185              		.loc 1 641 35 is_stmt 0 view .LVU401
 1186 000e 0123     		movs	r3, #1
 1187 0010 80F88230 		strb	r3, [r0, #130]
 642:Src/pwm_curr_fdbk.c ****     tempPointer = &(pHandle->Motor);
 1188              		.loc 1 642 5 is_stmt 1 view .LVU402
 1189              	.LVL92:
 643:Src/pwm_curr_fdbk.c **** #ifdef NULL_PTR_CHECK_PWR_CUR_FDB
 644:Src/pwm_curr_fdbk.c ****   }
 645:Src/pwm_curr_fdbk.c **** #endif
 646:Src/pwm_curr_fdbk.c ****   return (tempPointer);
 1190              		.loc 1 646 3 view .LVU403
 647:Src/pwm_curr_fdbk.c **** }
 1191              		.loc 1 647 1 is_stmt 0 view .LVU404
 1192 0014 7830     		adds	r0, r0, #120
 1193              	.LVL93:
 1194              		.loc 1 647 1 view .LVU405
 1195 0016 7047     		bx	lr
 1196              	.LVL94:
 1197              	.L72:
 628:Src/pwm_curr_fdbk.c ****         LL_GPIO_ResetOutputPin(pHandle->pwm_en_v_port, pHandle->pwm_en_v_pin);
 1198              		.loc 1 628 9 is_stmt 1 view .LVU406
 614:Src/pwm_curr_fdbk.c ****   void *tempPointer; //cstat !MISRAC2012-Rule-8.13
 1199              		.loc 1 614 1 is_stmt 0 view .LVU407
 1200 0018 30B4     		push	{r4, r5}
 1201              	.LCFI17:
 1202              		.cfi_def_cfa_offset 8
 1203              		.cfi_offset 4, -8
 1204              		.cfi_offset 5, -4
 629:Src/pwm_curr_fdbk.c ****         LL_GPIO_ResetOutputPin(pHandle->pwm_en_w_port, pHandle->pwm_en_w_pin);
 1205              		.loc 1 629 9 view .LVU408
 1206 001a D0E90F21 		ldrd	r2, r1, [r0, #60]
 630:Src/pwm_curr_fdbk.c ****       }
 1207              		.loc 1 630 9 view .LVU409
 1208 001e 436C     		ldr	r3, [r0, #68]
 628:Src/pwm_curr_fdbk.c ****         LL_GPIO_ResetOutputPin(pHandle->pwm_en_v_port, pHandle->pwm_en_v_pin);
 1209              		.loc 1 628 9 view .LVU410
ARM GAS  /tmp/cc1UKUxP.s 			page 54


 1210 0020 B0F84850 		ldrh	r5, [r0, #72]
 1211              	.LVL95:
 1212              	.LBB46:
 1213              	.LBI46:
 923:Drivers/STM32G4xx_HAL_Driver/Inc/stm32g4xx_ll_gpio.h **** {
 1214              		.loc 2 923 22 is_stmt 1 view .LVU411
 1215              	.LBB47:
 1216              		.loc 2 925 3 view .LVU412
 1217              	.LBE47:
 1218              	.LBE46:
 629:Src/pwm_curr_fdbk.c ****         LL_GPIO_ResetOutputPin(pHandle->pwm_en_w_port, pHandle->pwm_en_w_pin);
 1219              		.loc 1 629 9 is_stmt 0 view .LVU413
 1220 0024 B0F84A40 		ldrh	r4, [r0, #74]
 1221              	.LBB49:
 1222              	.LBB48:
 1223              		.loc 2 925 3 view .LVU414
 1224 0028 9562     		str	r5, [r2, #40]
 1225              	.LVL96:
 1226              		.loc 2 925 3 view .LVU415
 1227              	.LBE48:
 1228              	.LBE49:
 629:Src/pwm_curr_fdbk.c ****         LL_GPIO_ResetOutputPin(pHandle->pwm_en_w_port, pHandle->pwm_en_w_pin);
 1229              		.loc 1 629 9 is_stmt 1 view .LVU416
 1230              	.LBB50:
 1231              	.LBI50:
 923:Drivers/STM32G4xx_HAL_Driver/Inc/stm32g4xx_ll_gpio.h **** {
 1232              		.loc 2 923 22 view .LVU417
 1233              	.LBB51:
 1234              		.loc 2 925 3 view .LVU418
 1235              	.LBE51:
 1236              	.LBE50:
 630:Src/pwm_curr_fdbk.c ****       }
 1237              		.loc 1 630 9 is_stmt 0 view .LVU419
 1238 002a B0F84C20 		ldrh	r2, [r0, #76]
 1239              	.LBB53:
 1240              	.LBB52:
 1241              		.loc 2 925 3 view .LVU420
 1242 002e 8C62     		str	r4, [r1, #40]
 1243              	.LVL97:
 1244              		.loc 2 925 3 view .LVU421
 1245              	.LBE52:
 1246              	.LBE53:
 630:Src/pwm_curr_fdbk.c ****       }
 1247              		.loc 1 630 9 is_stmt 1 view .LVU422
 1248              	.LBB54:
 1249              	.LBI54:
 923:Drivers/STM32G4xx_HAL_Driver/Inc/stm32g4xx_ll_gpio.h **** {
 1250              		.loc 2 923 22 view .LVU423
 1251              	.LBB55:
 1252              		.loc 2 925 3 view .LVU424
 1253              	.LBE55:
 1254              	.LBE54:
 640:Src/pwm_curr_fdbk.c ****     pHandle->driverProtectionFlag = true;
 1255              		.loc 1 640 5 view .LVU425
 641:Src/pwm_curr_fdbk.c ****     tempPointer = &(pHandle->Motor);
 1256              		.loc 1 641 5 view .LVU426
 1257              	.LBB57:
ARM GAS  /tmp/cc1UKUxP.s 			page 55


 1258              	.LBB56:
 1259              		.loc 2 925 3 is_stmt 0 view .LVU427
 1260 0030 9A62     		str	r2, [r3, #40]
 1261              	.LBE56:
 1262              	.LBE57:
 641:Src/pwm_curr_fdbk.c ****     tempPointer = &(pHandle->Motor);
 1263              		.loc 1 641 35 view .LVU428
 1264 0032 0123     		movs	r3, #1
 1265              	.LVL98:
 641:Src/pwm_curr_fdbk.c ****     tempPointer = &(pHandle->Motor);
 1266              		.loc 1 641 35 view .LVU429
 1267 0034 80F88230 		strb	r3, [r0, #130]
 642:Src/pwm_curr_fdbk.c **** #ifdef NULL_PTR_CHECK_PWR_CUR_FDB
 1268              		.loc 1 642 5 is_stmt 1 view .LVU430
 1269              	.LVL99:
 646:Src/pwm_curr_fdbk.c **** }
 1270              		.loc 1 646 3 view .LVU431
 1271              		.loc 1 647 1 is_stmt 0 view .LVU432
 1272 0038 30BC     		pop	{r4, r5}
 1273              	.LCFI18:
 1274              		.cfi_restore 5
 1275              		.cfi_restore 4
 1276              		.cfi_def_cfa_offset 0
 1277 003a 7830     		adds	r0, r0, #120
 1278              	.LVL100:
 1279              		.loc 1 647 1 view .LVU433
 1280 003c 7047     		bx	lr
 1281              		.cfi_endproc
 1282              	.LFE1451:
 1284 003e 00BF     		.section	.text.PWMC_OVP_Handler,"ax",%progbits
 1285              		.align	1
 1286              		.p2align 2,,3
 1287              		.weak	PWMC_OVP_Handler
 1288              		.syntax unified
 1289              		.thumb
 1290              		.thumb_func
 1291              		.fpu fpv4-sp-d16
 1293              	PWMC_OVP_Handler:
 1294              	.LVL101:
 1295              	.LFB1452:
 648:Src/pwm_curr_fdbk.c **** 
 649:Src/pwm_curr_fdbk.c **** #if defined (CCMRAM)
 650:Src/pwm_curr_fdbk.c **** #if defined (__ICCARM__)
 651:Src/pwm_curr_fdbk.c **** #pragma location = ".ccmram"
 652:Src/pwm_curr_fdbk.c **** #elif defined (__CC_ARM) || defined(__GNUC__)
 653:Src/pwm_curr_fdbk.c **** __attribute__((section(".ccmram")))
 654:Src/pwm_curr_fdbk.c **** #endif
 655:Src/pwm_curr_fdbk.c **** #endif
 656:Src/pwm_curr_fdbk.c **** /*
 657:Src/pwm_curr_fdbk.c ****   * @brief  Manages HW overvoltage protection.
 658:Src/pwm_curr_fdbk.c ****   *
 659:Src/pwm_curr_fdbk.c ****   * @param  pHandle: Handler of the current instance of the PWM component.
 660:Src/pwm_curr_fdbk.c ****   *         TIMx: timer used for PWM generation
 661:Src/pwm_curr_fdbk.c ****   */
 662:Src/pwm_curr_fdbk.c **** __weak void *PWMC_OVP_Handler(PWMC_Handle_t *pHandle, TIM_TypeDef *TIMx)
 663:Src/pwm_curr_fdbk.c **** {
 1296              		.loc 1 663 1 is_stmt 1 view -0
ARM GAS  /tmp/cc1UKUxP.s 			page 56


 1297              		.cfi_startproc
 1298              		@ args = 0, pretend = 0, frame = 0
 1299              		@ frame_needed = 0, uses_anonymous_args = 0
 1300              		@ link register save eliminated.
 664:Src/pwm_curr_fdbk.c ****   void *tempPointer; //cstat !MISRAC2012-Rule-8.13
 1301              		.loc 1 664 3 view .LVU435
 665:Src/pwm_curr_fdbk.c **** #ifdef NULL_PTR_CHECK_PWR_CUR_FDB
 666:Src/pwm_curr_fdbk.c ****   if (MC_NULL == pHandle)
 667:Src/pwm_curr_fdbk.c ****   {
 668:Src/pwm_curr_fdbk.c ****     tempPointer = MC_NULL;
 669:Src/pwm_curr_fdbk.c ****   }
 670:Src/pwm_curr_fdbk.c ****   else
 671:Src/pwm_curr_fdbk.c ****   {
 672:Src/pwm_curr_fdbk.c **** #endif
 673:Src/pwm_curr_fdbk.c ****     TIMx->BDTR |= LL_TIM_OSSI_ENABLE;
 1302              		.loc 1 673 5 view .LVU436
 1303              		.loc 1 673 16 is_stmt 0 view .LVU437
 1304 0000 4A6C     		ldr	r2, [r1, #68]
 663:Src/pwm_curr_fdbk.c ****   void *tempPointer; //cstat !MISRAC2012-Rule-8.13
 1305              		.loc 1 663 1 view .LVU438
 1306 0002 0346     		mov	r3, r0
 1307 0004 10B4     		push	{r4}
 1308              	.LCFI19:
 1309              		.cfi_def_cfa_offset 4
 1310              		.cfi_offset 4, -4
 1311              		.loc 1 673 16 view .LVU439
 1312 0006 42F48062 		orr	r2, r2, #1024
 674:Src/pwm_curr_fdbk.c ****     pHandle->OverVoltageFlag = true;
 1313              		.loc 1 674 30 view .LVU440
 1314 000a 0124     		movs	r4, #1
 673:Src/pwm_curr_fdbk.c ****     pHandle->OverVoltageFlag = true;
 1315              		.loc 1 673 16 view .LVU441
 1316 000c 4A64     		str	r2, [r1, #68]
 1317              		.loc 1 674 5 is_stmt 1 view .LVU442
 675:Src/pwm_curr_fdbk.c ****     pHandle->BrakeActionLock = true;
 676:Src/pwm_curr_fdbk.c ****     tempPointer = &(pHandle->Motor);
 677:Src/pwm_curr_fdbk.c **** #ifdef NULL_PTR_CHECK_PWR_CUR_FDB
 678:Src/pwm_curr_fdbk.c ****   }
 679:Src/pwm_curr_fdbk.c **** #endif
 680:Src/pwm_curr_fdbk.c ****   return (tempPointer);
 681:Src/pwm_curr_fdbk.c **** }
 1318              		.loc 1 681 1 is_stmt 0 view .LVU443
 1319 000e 7830     		adds	r0, r0, #120
 1320              	.LVL102:
 674:Src/pwm_curr_fdbk.c ****     pHandle->BrakeActionLock = true;
 1321              		.loc 1 674 30 view .LVU444
 1322 0010 83F88140 		strb	r4, [r3, #129]
 675:Src/pwm_curr_fdbk.c ****     pHandle->BrakeActionLock = true;
 1323              		.loc 1 675 5 is_stmt 1 view .LVU445
 675:Src/pwm_curr_fdbk.c ****     pHandle->BrakeActionLock = true;
 1324              		.loc 1 675 30 is_stmt 0 view .LVU446
 1325 0014 83F88340 		strb	r4, [r3, #131]
 676:Src/pwm_curr_fdbk.c **** #ifdef NULL_PTR_CHECK_PWR_CUR_FDB
 1326              		.loc 1 676 5 is_stmt 1 view .LVU447
 1327              	.LVL103:
 680:Src/pwm_curr_fdbk.c **** }
 1328              		.loc 1 680 3 view .LVU448
ARM GAS  /tmp/cc1UKUxP.s 			page 57


 1329              		.loc 1 681 1 is_stmt 0 view .LVU449
 1330 0018 5DF8044B 		ldr	r4, [sp], #4
 1331              	.LCFI20:
 1332              		.cfi_restore 4
 1333              		.cfi_def_cfa_offset 0
 1334 001c 7047     		bx	lr
 1335              		.cfi_endproc
 1336              	.LFE1452:
 1338 001e 00BF     		.section	.text.PWMC_IsFaultOccurred,"ax",%progbits
 1339              		.align	1
 1340              		.p2align 2,,3
 1341              		.weak	PWMC_IsFaultOccurred
 1342              		.syntax unified
 1343              		.thumb
 1344              		.thumb_func
 1345              		.fpu fpv4-sp-d16
 1347              	PWMC_IsFaultOccurred:
 1348              	.LVL104:
 1349              	.LFB1453:
 682:Src/pwm_curr_fdbk.c **** 
 683:Src/pwm_curr_fdbk.c **** /*
 684:Src/pwm_curr_fdbk.c ****   * @brief  Checks if an overcurrent occurred since last call.
 685:Src/pwm_curr_fdbk.c ****   *
 686:Src/pwm_curr_fdbk.c ****   * @param  pHdl: Handler of the current instance of the PWM component.
 687:Src/pwm_curr_fdbk.c ****   * @retval uint16_t Returns #MC_OVER_CURR if an overcurrent has been
 688:Src/pwm_curr_fdbk.c ****   *                  detected since last method call, #MC_NO_FAULTS otherwise.
 689:Src/pwm_curr_fdbk.c ****   */
 690:Src/pwm_curr_fdbk.c **** __weak uint16_t PWMC_IsFaultOccurred(PWMC_Handle_t *pHandle)
 691:Src/pwm_curr_fdbk.c **** {
 1350              		.loc 1 691 1 is_stmt 1 view -0
 1351              		.cfi_startproc
 1352              		@ args = 0, pretend = 0, frame = 0
 1353              		@ frame_needed = 0, uses_anonymous_args = 0
 1354              		@ link register save eliminated.
 692:Src/pwm_curr_fdbk.c ****   uint16_t retVal = MC_NO_FAULTS;
 1355              		.loc 1 692 3 view .LVU451
 693:Src/pwm_curr_fdbk.c **** 
 694:Src/pwm_curr_fdbk.c ****   if (true == pHandle->OverVoltageFlag)
 1356              		.loc 1 694 3 view .LVU452
 691:Src/pwm_curr_fdbk.c ****   uint16_t retVal = MC_NO_FAULTS;
 1357              		.loc 1 691 1 is_stmt 0 view .LVU453
 1358 0000 0246     		mov	r2, r0
 1359              		.loc 1 694 6 view .LVU454
 1360 0002 90F88100 		ldrb	r0, [r0, #129]	@ zero_extendqisi2
 1361              	.LVL105:
 1362              		.loc 1 694 6 view .LVU455
 1363 0006 A8B1     		cbz	r0, .L79
 695:Src/pwm_curr_fdbk.c ****   {
 696:Src/pwm_curr_fdbk.c ****     retVal = MC_OVER_VOLT;
 1364              		.loc 1 696 5 is_stmt 1 view .LVU456
 1365              	.LVL106:
 697:Src/pwm_curr_fdbk.c ****     pHandle->OverVoltageFlag = false;
 1366              		.loc 1 697 5 view .LVU457
 1367              		.loc 1 697 30 is_stmt 0 view .LVU458
 1368 0008 0023     		movs	r3, #0
 1369 000a 82F88130 		strb	r3, [r2, #129]
 1370 000e 4221     		movs	r1, #66
ARM GAS  /tmp/cc1UKUxP.s 			page 58


 696:Src/pwm_curr_fdbk.c ****     pHandle->OverVoltageFlag = false;
 1371              		.loc 1 696 12 view .LVU459
 1372 0010 0220     		movs	r0, #2
 1373              	.LVL107:
 1374              	.L76:
 698:Src/pwm_curr_fdbk.c ****   }
 699:Src/pwm_curr_fdbk.c ****   else
 700:Src/pwm_curr_fdbk.c ****   {
 701:Src/pwm_curr_fdbk.c ****     /* Nothing to do */
 702:Src/pwm_curr_fdbk.c ****   }
 1375              		.loc 1 702 3 is_stmt 1 view .LVU460
 703:Src/pwm_curr_fdbk.c **** 
 704:Src/pwm_curr_fdbk.c ****   if (true == pHandle->OverCurrentFlag)
 1376              		.loc 1 704 3 view .LVU461
 1377              		.loc 1 704 6 is_stmt 0 view .LVU462
 1378 0012 92F88030 		ldrb	r3, [r2, #128]	@ zero_extendqisi2
 1379 0016 1BB1     		cbz	r3, .L77
 705:Src/pwm_curr_fdbk.c ****   {
 706:Src/pwm_curr_fdbk.c ****     retVal |= MC_OVER_CURR;
 1380              		.loc 1 706 5 is_stmt 1 view .LVU463
 707:Src/pwm_curr_fdbk.c ****     pHandle->OverCurrentFlag = false;
 1381              		.loc 1 707 5 view .LVU464
 1382              		.loc 1 707 30 is_stmt 0 view .LVU465
 1383 0018 0023     		movs	r3, #0
 706:Src/pwm_curr_fdbk.c ****     pHandle->OverCurrentFlag = false;
 1384              		.loc 1 706 12 view .LVU466
 1385 001a 0846     		mov	r0, r1
 1386              		.loc 1 707 30 view .LVU467
 1387 001c 82F88030 		strb	r3, [r2, #128]
 1388              	.LVL108:
 1389              	.L77:
 708:Src/pwm_curr_fdbk.c ****   }
 709:Src/pwm_curr_fdbk.c ****   else
 710:Src/pwm_curr_fdbk.c ****   {
 711:Src/pwm_curr_fdbk.c ****     /* Nothing to do */
 712:Src/pwm_curr_fdbk.c ****   }
 1390              		.loc 1 712 3 is_stmt 1 view .LVU468
 713:Src/pwm_curr_fdbk.c **** 
 714:Src/pwm_curr_fdbk.c ****   if (true == pHandle->driverProtectionFlag)
 1391              		.loc 1 714 3 view .LVU469
 1392              		.loc 1 714 6 is_stmt 0 view .LVU470
 1393 0020 92F88230 		ldrb	r3, [r2, #130]	@ zero_extendqisi2
 1394 0024 2BB1     		cbz	r3, .L78
 715:Src/pwm_curr_fdbk.c ****   {
 716:Src/pwm_curr_fdbk.c ****     retVal |= MC_DP_FAULT;
 1395              		.loc 1 716 5 is_stmt 1 view .LVU471
 1396              		.loc 1 716 12 is_stmt 0 view .LVU472
 1397 0026 40F48063 		orr	r3, r0, #1024
 1398              	.LVL109:
 717:Src/pwm_curr_fdbk.c ****     pHandle->driverProtectionFlag = false;
 1399              		.loc 1 717 35 view .LVU473
 1400 002a 0021     		movs	r1, #0
 716:Src/pwm_curr_fdbk.c ****     pHandle->driverProtectionFlag = false;
 1401              		.loc 1 716 12 view .LVU474
 1402 002c 98B2     		uxth	r0, r3
 1403              	.LVL110:
 1404              		.loc 1 717 5 is_stmt 1 view .LVU475
ARM GAS  /tmp/cc1UKUxP.s 			page 59


 1405              		.loc 1 717 35 is_stmt 0 view .LVU476
 1406 002e 82F88210 		strb	r1, [r2, #130]
 1407              	.LVL111:
 1408              	.L78:
 718:Src/pwm_curr_fdbk.c ****   }
 719:Src/pwm_curr_fdbk.c ****   else
 720:Src/pwm_curr_fdbk.c ****   {
 721:Src/pwm_curr_fdbk.c ****     /* Nothing to do */
 722:Src/pwm_curr_fdbk.c ****   }
 1409              		.loc 1 722 3 is_stmt 1 view .LVU477
 723:Src/pwm_curr_fdbk.c **** 
 724:Src/pwm_curr_fdbk.c ****   return (retVal);
 1410              		.loc 1 724 3 view .LVU478
 725:Src/pwm_curr_fdbk.c **** }
 1411              		.loc 1 725 1 is_stmt 0 view .LVU479
 1412 0032 7047     		bx	lr
 1413              	.LVL112:
 1414              	.L79:
 1415              		.loc 1 725 1 view .LVU480
 1416 0034 4021     		movs	r1, #64
 1417 0036 ECE7     		b	.L76
 1418              		.cfi_endproc
 1419              	.LFE1453:
 1421              		.section	.text.PWMC_OCPSetReferenceVoltage,"ax",%progbits
 1422              		.align	1
 1423              		.p2align 2,,3
 1424              		.weak	PWMC_OCPSetReferenceVoltage
 1425              		.syntax unified
 1426              		.thumb
 1427              		.thumb_func
 1428              		.fpu fpv4-sp-d16
 1430              	PWMC_OCPSetReferenceVoltage:
 1431              	.LVL113:
 1432              	.LFB1454:
 726:Src/pwm_curr_fdbk.c **** 
 727:Src/pwm_curr_fdbk.c **** /**
 728:Src/pwm_curr_fdbk.c ****   * @brief  Sets the over current threshold through the DAC reference voltage.
 729:Src/pwm_curr_fdbk.c ****   *
 730:Src/pwm_curr_fdbk.c ****   * @param  pHandle:  Handler of the current instance of the PWM component.
 731:Src/pwm_curr_fdbk.c ****   * @param  hDACVref: Value of DAC reference voltage to be applied expressed as a 16bit unsigned in
 732:Src/pwm_curr_fdbk.c ****   *					  Min value: 0 (0 V)
 733:Src/pwm_curr_fdbk.c ****   *                	  Max value: 65536 (VDD_DAC)
 734:Src/pwm_curr_fdbk.c ****   */
 735:Src/pwm_curr_fdbk.c **** //cstat !MISRAC2012-Rule-8.13 !RED-func-no-effect
 736:Src/pwm_curr_fdbk.c **** __weak void PWMC_OCPSetReferenceVoltage(PWMC_Handle_t *pHandle, uint16_t hDACVref)
 737:Src/pwm_curr_fdbk.c **** {
 1433              		.loc 1 737 1 is_stmt 1 view -0
 1434              		.cfi_startproc
 1435              		@ args = 0, pretend = 0, frame = 0
 1436              		@ frame_needed = 0, uses_anonymous_args = 0
 1437              		@ link register save eliminated.
 738:Src/pwm_curr_fdbk.c **** #ifdef NULL_PTR_CHECK_PWR_CUR_FDB
 739:Src/pwm_curr_fdbk.c ****   if ((MC_NULL == pHandle) || (MC_NULL == pHandle->pFctOCPSetReferenceVoltage))
 740:Src/pwm_curr_fdbk.c ****   {
 741:Src/pwm_curr_fdbk.c ****     /* Nothing to do */
 742:Src/pwm_curr_fdbk.c ****   }
 743:Src/pwm_curr_fdbk.c ****   else
ARM GAS  /tmp/cc1UKUxP.s 			page 60


 744:Src/pwm_curr_fdbk.c ****   {
 745:Src/pwm_curr_fdbk.c **** #endif
 746:Src/pwm_curr_fdbk.c ****     pHandle->pFctOCPSetReferenceVoltage(pHandle, hDACVref);
 1438              		.loc 1 746 5 view .LVU482
 1439 0000 8369     		ldr	r3, [r0, #24]
 1440 0002 1847     		bx	r3	@ indirect register sibling call
 1441              	.LVL114:
 1442              		.loc 1 746 5 is_stmt 0 view .LVU483
 1443              		.cfi_endproc
 1444              	.LFE1454:
 1446              		.section	.text.PWMC_DPWM_ModeEnable,"ax",%progbits
 1447              		.align	1
 1448              		.p2align 2,,3
 1449              		.weak	PWMC_DPWM_ModeEnable
 1450              		.syntax unified
 1451              		.thumb
 1452              		.thumb_func
 1453              		.fpu fpv4-sp-d16
 1455              	PWMC_DPWM_ModeEnable:
 1456              	.LVL115:
 1457              	.LFB1455:
 747:Src/pwm_curr_fdbk.c **** #ifdef NULL_PTR_CHECK_PWR_CUR_FDB
 748:Src/pwm_curr_fdbk.c ****   }
 749:Src/pwm_curr_fdbk.c **** #endif
 750:Src/pwm_curr_fdbk.c **** }
 751:Src/pwm_curr_fdbk.c **** 
 752:Src/pwm_curr_fdbk.c **** /** @brief Enables Discontinuous PWM mode using the @p pHandle PWMC component.
 753:Src/pwm_curr_fdbk.c ****   *
 754:Src/pwm_curr_fdbk.c ****   */
 755:Src/pwm_curr_fdbk.c **** __weak void PWMC_DPWM_ModeEnable(PWMC_Handle_t *pHandle)
 756:Src/pwm_curr_fdbk.c **** {
 1458              		.loc 1 756 1 is_stmt 1 view -0
 1459              		.cfi_startproc
 1460              		@ args = 0, pretend = 0, frame = 0
 1461              		@ frame_needed = 0, uses_anonymous_args = 0
 1462              		@ link register save eliminated.
 757:Src/pwm_curr_fdbk.c **** #ifdef NULL_PTR_CHECK_PWR_CUR_FDB
 758:Src/pwm_curr_fdbk.c ****   if (MC_NULL ==  pHandle)
 759:Src/pwm_curr_fdbk.c ****   {
 760:Src/pwm_curr_fdbk.c ****     /* Nothing to do */
 761:Src/pwm_curr_fdbk.c ****   }
 762:Src/pwm_curr_fdbk.c ****   else
 763:Src/pwm_curr_fdbk.c ****   {
 764:Src/pwm_curr_fdbk.c **** #endif
 765:Src/pwm_curr_fdbk.c ****     pHandle->DPWM_Mode = true;
 1463              		.loc 1 765 5 view .LVU485
 1464              		.loc 1 765 24 is_stmt 0 view .LVU486
 1465 0000 0123     		movs	r3, #1
 1466 0002 80F87D30 		strb	r3, [r0, #125]
 766:Src/pwm_curr_fdbk.c **** #ifdef NULL_PTR_CHECK_PWR_CUR_FDB
 767:Src/pwm_curr_fdbk.c ****   }
 768:Src/pwm_curr_fdbk.c **** #endif
 769:Src/pwm_curr_fdbk.c **** }
 1467              		.loc 1 769 1 view .LVU487
 1468 0006 7047     		bx	lr
 1469              		.cfi_endproc
 1470              	.LFE1455:
ARM GAS  /tmp/cc1UKUxP.s 			page 61


 1472              		.section	.text.PWMC_DPWM_ModeDisable,"ax",%progbits
 1473              		.align	1
 1474              		.p2align 2,,3
 1475              		.weak	PWMC_DPWM_ModeDisable
 1476              		.syntax unified
 1477              		.thumb
 1478              		.thumb_func
 1479              		.fpu fpv4-sp-d16
 1481              	PWMC_DPWM_ModeDisable:
 1482              	.LVL116:
 1483              	.LFB1456:
 770:Src/pwm_curr_fdbk.c **** 
 771:Src/pwm_curr_fdbk.c **** /** @brief Disables Discontinuous PWM mode using the @p pHandle PWMC component.
 772:Src/pwm_curr_fdbk.c ****   *
 773:Src/pwm_curr_fdbk.c ****   */
 774:Src/pwm_curr_fdbk.c **** __weak void PWMC_DPWM_ModeDisable(PWMC_Handle_t *pHandle)
 775:Src/pwm_curr_fdbk.c **** {
 1484              		.loc 1 775 1 is_stmt 1 view -0
 1485              		.cfi_startproc
 1486              		@ args = 0, pretend = 0, frame = 0
 1487              		@ frame_needed = 0, uses_anonymous_args = 0
 1488              		@ link register save eliminated.
 776:Src/pwm_curr_fdbk.c **** #ifdef NULL_PTR_CHECK_PWR_CUR_FDB
 777:Src/pwm_curr_fdbk.c ****   if (MC_NULL ==  pHandle)
 778:Src/pwm_curr_fdbk.c ****   {
 779:Src/pwm_curr_fdbk.c ****     /* Nothing to do */
 780:Src/pwm_curr_fdbk.c ****   }
 781:Src/pwm_curr_fdbk.c ****   else
 782:Src/pwm_curr_fdbk.c ****   {
 783:Src/pwm_curr_fdbk.c **** #endif
 784:Src/pwm_curr_fdbk.c ****     pHandle->DPWM_Mode = false;
 1489              		.loc 1 784 5 view .LVU489
 1490              		.loc 1 784 24 is_stmt 0 view .LVU490
 1491 0000 0023     		movs	r3, #0
 1492 0002 80F87D30 		strb	r3, [r0, #125]
 785:Src/pwm_curr_fdbk.c **** #ifdef NULL_PTR_CHECK_PWR_CUR_FDB
 786:Src/pwm_curr_fdbk.c ****   }
 787:Src/pwm_curr_fdbk.c **** #endif
 788:Src/pwm_curr_fdbk.c **** }
 1493              		.loc 1 788 1 view .LVU491
 1494 0006 7047     		bx	lr
 1495              		.cfi_endproc
 1496              	.LFE1456:
 1498              		.section	.text.PWMC_GetDPWM_Mode,"ax",%progbits
 1499              		.align	1
 1500              		.p2align 2,,3
 1501              		.weak	PWMC_GetDPWM_Mode
 1502              		.syntax unified
 1503              		.thumb
 1504              		.thumb_func
 1505              		.fpu fpv4-sp-d16
 1507              	PWMC_GetDPWM_Mode:
 1508              	.LVL117:
 1509              	.LFB1457:
 789:Src/pwm_curr_fdbk.c **** 
 790:Src/pwm_curr_fdbk.c **** /** @brief  Returns the status of the Discontinuous PWM Mode stored in the @p pHandle PWMC componen
 791:Src/pwm_curr_fdbk.c ****   *
ARM GAS  /tmp/cc1UKUxP.s 			page 62


 792:Src/pwm_curr_fdbk.c ****   * @retval true if DPWM Mode is enabled, **false** otherwise.
 793:Src/pwm_curr_fdbk.c ****   */
 794:Src/pwm_curr_fdbk.c **** //cstat !MISRAC2012-Rule-8.13
 795:Src/pwm_curr_fdbk.c **** __weak bool PWMC_GetDPWM_Mode(PWMC_Handle_t *pHandle)
 796:Src/pwm_curr_fdbk.c **** {
 1510              		.loc 1 796 1 is_stmt 1 view -0
 1511              		.cfi_startproc
 1512              		@ args = 0, pretend = 0, frame = 0
 1513              		@ frame_needed = 0, uses_anonymous_args = 0
 1514              		@ link register save eliminated.
 797:Src/pwm_curr_fdbk.c **** #ifdef NULL_PTR_CHECK_PWR_CUR_FDB
 798:Src/pwm_curr_fdbk.c ****   return ((MC_NULL == pHandle) ? false : pHandle->DPWM_Mode);
 799:Src/pwm_curr_fdbk.c **** #else
 800:Src/pwm_curr_fdbk.c ****   return (pHandle->DPWM_Mode);
 1515              		.loc 1 800 3 view .LVU493
 801:Src/pwm_curr_fdbk.c **** #endif
 802:Src/pwm_curr_fdbk.c **** }
 1516              		.loc 1 802 1 is_stmt 0 view .LVU494
 1517 0000 90F87D00 		ldrb	r0, [r0, #125]	@ zero_extendqisi2
 1518              	.LVL118:
 1519              		.loc 1 802 1 view .LVU495
 1520 0004 7047     		bx	lr
 1521              		.cfi_endproc
 1522              	.LFE1457:
 1524 0006 00BF     		.section	.text.PWMC_RLDetectionModeEnable,"ax",%progbits
 1525              		.align	1
 1526              		.p2align 2,,3
 1527              		.weak	PWMC_RLDetectionModeEnable
 1528              		.syntax unified
 1529              		.thumb
 1530              		.thumb_func
 1531              		.fpu fpv4-sp-d16
 1533              	PWMC_RLDetectionModeEnable:
 1534              	.LVL119:
 1535              	.LFB1458:
 803:Src/pwm_curr_fdbk.c **** 
 804:Src/pwm_curr_fdbk.c **** /** @brief  Enables the RL detection mode by calling the function in @p pHandle PWMC component.
 805:Src/pwm_curr_fdbk.c ****   *
 806:Src/pwm_curr_fdbk.c ****   */
 807:Src/pwm_curr_fdbk.c **** //cstat !MISRAC2012-Rule-8.13 !RED-func-no-effect
 808:Src/pwm_curr_fdbk.c **** __weak void PWMC_RLDetectionModeEnable(PWMC_Handle_t *pHandle)
 809:Src/pwm_curr_fdbk.c **** {
 1536              		.loc 1 809 1 is_stmt 1 view -0
 1537              		.cfi_startproc
 1538              		@ args = 0, pretend = 0, frame = 0
 1539              		@ frame_needed = 0, uses_anonymous_args = 0
 1540              		@ link register save eliminated.
 810:Src/pwm_curr_fdbk.c **** #ifdef NULL_PTR_CHECK_PWR_CUR_FDB
 811:Src/pwm_curr_fdbk.c ****   if ((MC_NULL == pHandle) || ( MC_NULL == pHandle->pFctRLDetectionModeEnable))
 812:Src/pwm_curr_fdbk.c ****   {
 813:Src/pwm_curr_fdbk.c ****     /* Nothing to do */
 814:Src/pwm_curr_fdbk.c ****   }
 815:Src/pwm_curr_fdbk.c ****   else
 816:Src/pwm_curr_fdbk.c ****   {
 817:Src/pwm_curr_fdbk.c **** #endif
 818:Src/pwm_curr_fdbk.c ****     pHandle->pFctRLDetectionModeEnable(pHandle);
 1541              		.loc 1 818 5 view .LVU497
ARM GAS  /tmp/cc1UKUxP.s 			page 63


 1542 0000 C369     		ldr	r3, [r0, #28]
 1543 0002 1847     		bx	r3	@ indirect register sibling call
 1544              	.LVL120:
 1545              		.loc 1 818 5 is_stmt 0 view .LVU498
 1546              		.cfi_endproc
 1547              	.LFE1458:
 1549              		.section	.text.PWMC_RLDetectionModeDisable,"ax",%progbits
 1550              		.align	1
 1551              		.p2align 2,,3
 1552              		.weak	PWMC_RLDetectionModeDisable
 1553              		.syntax unified
 1554              		.thumb
 1555              		.thumb_func
 1556              		.fpu fpv4-sp-d16
 1558              	PWMC_RLDetectionModeDisable:
 1559              	.LVL121:
 1560              	.LFB1459:
 819:Src/pwm_curr_fdbk.c **** #ifdef NULL_PTR_CHECK_PWR_CUR_FDB
 820:Src/pwm_curr_fdbk.c ****   }
 821:Src/pwm_curr_fdbk.c **** #endif
 822:Src/pwm_curr_fdbk.c **** }
 823:Src/pwm_curr_fdbk.c **** 
 824:Src/pwm_curr_fdbk.c **** /** @brief  Disables the RL detection mode by calling the function in @p pHandle PWMC component.
 825:Src/pwm_curr_fdbk.c ****   *
 826:Src/pwm_curr_fdbk.c ****   */
 827:Src/pwm_curr_fdbk.c **** //cstat !MISRAC2012-Rule-8.13 !RED-func-no-effect
 828:Src/pwm_curr_fdbk.c **** __weak void PWMC_RLDetectionModeDisable(PWMC_Handle_t *pHandle)
 829:Src/pwm_curr_fdbk.c **** {
 1561              		.loc 1 829 1 is_stmt 1 view -0
 1562              		.cfi_startproc
 1563              		@ args = 0, pretend = 0, frame = 0
 1564              		@ frame_needed = 0, uses_anonymous_args = 0
 1565              		@ link register save eliminated.
 830:Src/pwm_curr_fdbk.c **** #ifdef NULL_PTR_CHECK_PWR_CUR_FDB
 831:Src/pwm_curr_fdbk.c ****   if ((MC_NULL == pHandle) || ( MC_NULL == pHandle->pFctRLDetectionModeDisable))
 832:Src/pwm_curr_fdbk.c ****   {
 833:Src/pwm_curr_fdbk.c ****     /* Nothing to do */
 834:Src/pwm_curr_fdbk.c ****   }
 835:Src/pwm_curr_fdbk.c ****   else
 836:Src/pwm_curr_fdbk.c ****   {
 837:Src/pwm_curr_fdbk.c **** #endif
 838:Src/pwm_curr_fdbk.c ****     pHandle->pFctRLDetectionModeDisable(pHandle);
 1566              		.loc 1 838 5 view .LVU500
 1567 0000 036A     		ldr	r3, [r0, #32]
 1568 0002 1847     		bx	r3	@ indirect register sibling call
 1569              	.LVL122:
 1570              		.loc 1 838 5 is_stmt 0 view .LVU501
 1571              		.cfi_endproc
 1572              	.LFE1459:
 1574              		.section	.text.PWMC_RLDetectionModeSetDuty,"ax",%progbits
 1575              		.align	1
 1576              		.p2align 2,,3
 1577              		.weak	PWMC_RLDetectionModeSetDuty
 1578              		.syntax unified
 1579              		.thumb
 1580              		.thumb_func
 1581              		.fpu fpv4-sp-d16
ARM GAS  /tmp/cc1UKUxP.s 			page 64


 1583              	PWMC_RLDetectionModeSetDuty:
 1584              	.LVL123:
 1585              	.LFB1460:
 839:Src/pwm_curr_fdbk.c **** #ifdef NULL_PTR_CHECK_PWR_CUR_FDB
 840:Src/pwm_curr_fdbk.c ****   }
 841:Src/pwm_curr_fdbk.c **** #endif
 842:Src/pwm_curr_fdbk.c **** }
 843:Src/pwm_curr_fdbk.c **** 
 844:Src/pwm_curr_fdbk.c **** /**
 845:Src/pwm_curr_fdbk.c ****   * @brief  Sets the PWM duty cycle to apply in the RL Detection mode.
 846:Src/pwm_curr_fdbk.c ****   *
 847:Src/pwm_curr_fdbk.c ****   * @param  pHandle: Handler of the current instance of the PWMC component.
 848:Src/pwm_curr_fdbk.c ****   * @param  hDuty: Duty cycle to apply, written in uint16_t.
 849:Src/pwm_curr_fdbk.c ****   * @retval #MC_NO_ERROR if the Duty Cycle could be applied on time for the next PWM period.
 850:Src/pwm_curr_fdbk.c ****   * 		Returns #MC_DURATION otherwise.
 851:Src/pwm_curr_fdbk.c ****   */
 852:Src/pwm_curr_fdbk.c **** __weak uint16_t PWMC_RLDetectionModeSetDuty(PWMC_Handle_t *pHandle, uint16_t hDuty) //cstat !MISRAC
 853:Src/pwm_curr_fdbk.c **** {
 1586              		.loc 1 853 1 is_stmt 1 view -0
 1587              		.cfi_startproc
 1588              		@ args = 0, pretend = 0, frame = 0
 1589              		@ frame_needed = 0, uses_anonymous_args = 0
 1590              		@ link register save eliminated.
 854:Src/pwm_curr_fdbk.c **** #ifdef NULL_PTR_CHECK_PWR_CUR_FDB
 855:Src/pwm_curr_fdbk.c ****  uint16_t retVal = MC_DURATION;
 856:Src/pwm_curr_fdbk.c **** 
 857:Src/pwm_curr_fdbk.c ****  if ((MC_NULL == pHandle) || ( MC_NULL == pHandle->pFctRLDetectionModeSetDuty))
 858:Src/pwm_curr_fdbk.c ****  {
 859:Src/pwm_curr_fdbk.c ****    /* Nothing to do */
 860:Src/pwm_curr_fdbk.c ****  }
 861:Src/pwm_curr_fdbk.c ****  else
 862:Src/pwm_curr_fdbk.c ****  {
 863:Src/pwm_curr_fdbk.c ****    retVal = pHandle->pFctRLDetectionModeSetDuty(pHandle, hDuty);
 864:Src/pwm_curr_fdbk.c ****  }
 865:Src/pwm_curr_fdbk.c ****  return (retVal);
 866:Src/pwm_curr_fdbk.c **** #else
 867:Src/pwm_curr_fdbk.c ****   return (pHandle->pFctRLDetectionModeSetDuty(pHandle, hDuty));
 1591              		.loc 1 867 3 view .LVU503
 1592              		.loc 1 867 11 is_stmt 0 view .LVU504
 1593 0000 436A     		ldr	r3, [r0, #36]
 1594 0002 1847     		bx	r3
 1595              	.LVL124:
 1596              		.loc 1 867 11 view .LVU505
 1597              		.cfi_endproc
 1598              	.LFE1460:
 1600              		.section	.text.PWMC_RLTurnOnLowSidesAndStart,"ax",%progbits
 1601              		.align	1
 1602              		.p2align 2,,3
 1603              		.weak	PWMC_RLTurnOnLowSidesAndStart
 1604              		.syntax unified
 1605              		.thumb
 1606              		.thumb_func
 1607              		.fpu fpv4-sp-d16
 1609              	PWMC_RLTurnOnLowSidesAndStart:
 1610              	.LVL125:
 1611              	.LFB1461:
 868:Src/pwm_curr_fdbk.c **** #endif
ARM GAS  /tmp/cc1UKUxP.s 			page 65


 869:Src/pwm_curr_fdbk.c **** }
 870:Src/pwm_curr_fdbk.c **** 
 871:Src/pwm_curr_fdbk.c **** /** @brief  Turns on low sides switches and starts ADC triggerin.
 872:Src/pwm_curr_fdbk.c ****   *
 873:Src/pwm_curr_fdbk.c ****   */
 874:Src/pwm_curr_fdbk.c **** //cstat !MISRAC2012-Rule-8.13 !RED-func-no-effect
 875:Src/pwm_curr_fdbk.c **** __weak void PWMC_RLTurnOnLowSidesAndStart(PWMC_Handle_t *pHandle)
 876:Src/pwm_curr_fdbk.c **** {
 1612              		.loc 1 876 1 is_stmt 1 view -0
 1613              		.cfi_startproc
 1614              		@ args = 0, pretend = 0, frame = 0
 1615              		@ frame_needed = 0, uses_anonymous_args = 0
 1616              		@ link register save eliminated.
 877:Src/pwm_curr_fdbk.c **** #ifdef NULL_PTR_CHECK_PWR_CUR_FDB
 878:Src/pwm_curr_fdbk.c ****   if ((MC_NULL == pHandle) || ( MC_NULL == pHandle->pFctRLTurnOnLowSidesAndStart))
 879:Src/pwm_curr_fdbk.c ****   {
 880:Src/pwm_curr_fdbk.c ****     /* Nothing to do */
 881:Src/pwm_curr_fdbk.c ****   }
 882:Src/pwm_curr_fdbk.c ****   else
 883:Src/pwm_curr_fdbk.c ****   {
 884:Src/pwm_curr_fdbk.c **** #endif
 885:Src/pwm_curr_fdbk.c ****     pHandle->pFctRLTurnOnLowSidesAndStart(pHandle);
 1617              		.loc 1 885 5 view .LVU507
 1618 0000 836A     		ldr	r3, [r0, #40]
 1619 0002 1847     		bx	r3	@ indirect register sibling call
 1620              	.LVL126:
 1621              		.loc 1 885 5 is_stmt 0 view .LVU508
 1622              		.cfi_endproc
 1623              	.LFE1461:
 1625              		.section	.text.PWMC_RegisterGetPhaseCurrentsCallBack,"ax",%progbits
 1626              		.align	1
 1627              		.p2align 2,,3
 1628              		.weak	PWMC_RegisterGetPhaseCurrentsCallBack
 1629              		.syntax unified
 1630              		.thumb
 1631              		.thumb_func
 1632              		.fpu fpv4-sp-d16
 1634              	PWMC_RegisterGetPhaseCurrentsCallBack:
 1635              	.LVL127:
 1636              	.LFB1462:
 886:Src/pwm_curr_fdbk.c **** #ifdef NULL_PTR_CHECK_PWR_CUR_FDB
 887:Src/pwm_curr_fdbk.c ****   }
 888:Src/pwm_curr_fdbk.c **** #endif
 889:Src/pwm_curr_fdbk.c **** }
 890:Src/pwm_curr_fdbk.c **** 
 891:Src/pwm_curr_fdbk.c **** /**
 892:Src/pwm_curr_fdbk.c ****  * @brief Sets the Callback that the PWMC component shall invoke to get phases current.
 893:Src/pwm_curr_fdbk.c ****  *
 894:Src/pwm_curr_fdbk.c ****  * @param pCallBack: Pointer on the callback to get the phase current.
 895:Src/pwm_curr_fdbk.c ****  * @param pHandle: Handler of the current instance of the PWMC component.
 896:Src/pwm_curr_fdbk.c ****  */
 897:Src/pwm_curr_fdbk.c **** __weak void PWMC_RegisterGetPhaseCurrentsCallBack(PWMC_GetPhaseCurr_Cb_t pCallBack, PWMC_Handle_t *
 898:Src/pwm_curr_fdbk.c **** {
 1637              		.loc 1 898 1 is_stmt 1 view -0
 1638              		.cfi_startproc
 1639              		@ args = 0, pretend = 0, frame = 0
 1640              		@ frame_needed = 0, uses_anonymous_args = 0
ARM GAS  /tmp/cc1UKUxP.s 			page 66


 1641              		@ link register save eliminated.
 899:Src/pwm_curr_fdbk.c **** #ifdef NULL_PTR_CHECK_PWR_CUR_FDB
 900:Src/pwm_curr_fdbk.c ****   if (MC_NULL == pHandle)
 901:Src/pwm_curr_fdbk.c ****   {
 902:Src/pwm_curr_fdbk.c ****     /* Nothing to do */
 903:Src/pwm_curr_fdbk.c ****   }
 904:Src/pwm_curr_fdbk.c ****   else
 905:Src/pwm_curr_fdbk.c ****   {
 906:Src/pwm_curr_fdbk.c **** #endif
 907:Src/pwm_curr_fdbk.c ****     pHandle->pFctGetPhaseCurrents = pCallBack;
 1642              		.loc 1 907 5 view .LVU510
 1643              		.loc 1 907 35 is_stmt 0 view .LVU511
 1644 0000 0860     		str	r0, [r1]
 908:Src/pwm_curr_fdbk.c **** #ifdef NULL_PTR_CHECK_PWR_CUR_FDB
 909:Src/pwm_curr_fdbk.c ****   }
 910:Src/pwm_curr_fdbk.c **** #endif
 911:Src/pwm_curr_fdbk.c **** }
 1645              		.loc 1 911 1 view .LVU512
 1646 0002 7047     		bx	lr
 1647              		.cfi_endproc
 1648              	.LFE1462:
 1650              		.section	.text.PWMC_RegisterSwitchOffPwmCallBack,"ax",%progbits
 1651              		.align	1
 1652              		.p2align 2,,3
 1653              		.weak	PWMC_RegisterSwitchOffPwmCallBack
 1654              		.syntax unified
 1655              		.thumb
 1656              		.thumb_func
 1657              		.fpu fpv4-sp-d16
 1659              	PWMC_RegisterSwitchOffPwmCallBack:
 1660              	.LVL128:
 1661              	.LFB1463:
 912:Src/pwm_curr_fdbk.c **** 
 913:Src/pwm_curr_fdbk.c **** /**
 914:Src/pwm_curr_fdbk.c ****  * @brief Sets the Callback that the PWMC component shall invoke to switch PWM
 915:Src/pwm_curr_fdbk.c ****  *        generation off.
 916:Src/pwm_curr_fdbk.c ****  *
 917:Src/pwm_curr_fdbk.c ****  * @param pCallBack: Pointer on the generic callback.
 918:Src/pwm_curr_fdbk.c ****  * @param pHandle: Handler of the current instance of the PWMC component.
 919:Src/pwm_curr_fdbk.c ****  */
 920:Src/pwm_curr_fdbk.c **** __weak void PWMC_RegisterSwitchOffPwmCallBack(PWMC_Generic_Cb_t pCallBack, PWMC_Handle_t *pHandle)
 921:Src/pwm_curr_fdbk.c **** {
 1662              		.loc 1 921 1 is_stmt 1 view -0
 1663              		.cfi_startproc
 1664              		@ args = 0, pretend = 0, frame = 0
 1665              		@ frame_needed = 0, uses_anonymous_args = 0
 1666              		@ link register save eliminated.
 922:Src/pwm_curr_fdbk.c **** #ifdef NULL_PTR_CHECK_PWR_CUR_FDB
 923:Src/pwm_curr_fdbk.c ****   if (MC_NULL == pHandle)
 924:Src/pwm_curr_fdbk.c ****   {
 925:Src/pwm_curr_fdbk.c ****     /* Nothing to do */
 926:Src/pwm_curr_fdbk.c ****   }
 927:Src/pwm_curr_fdbk.c ****   else
 928:Src/pwm_curr_fdbk.c ****   {
 929:Src/pwm_curr_fdbk.c **** #endif
 930:Src/pwm_curr_fdbk.c ****     pHandle->pFctSwitchOffPwm = pCallBack;
 1667              		.loc 1 930 5 view .LVU514
ARM GAS  /tmp/cc1UKUxP.s 			page 67


 1668              		.loc 1 930 31 is_stmt 0 view .LVU515
 1669 0000 4860     		str	r0, [r1, #4]
 931:Src/pwm_curr_fdbk.c **** #ifdef NULL_PTR_CHECK_PWR_CUR_FDB
 932:Src/pwm_curr_fdbk.c ****   }
 933:Src/pwm_curr_fdbk.c **** #endif
 934:Src/pwm_curr_fdbk.c **** }
 1670              		.loc 1 934 1 view .LVU516
 1671 0002 7047     		bx	lr
 1672              		.cfi_endproc
 1673              	.LFE1463:
 1675              		.section	.text.PWMC_RegisterSwitchonPwmCallBack,"ax",%progbits
 1676              		.align	1
 1677              		.p2align 2,,3
 1678              		.weak	PWMC_RegisterSwitchonPwmCallBack
 1679              		.syntax unified
 1680              		.thumb
 1681              		.thumb_func
 1682              		.fpu fpv4-sp-d16
 1684              	PWMC_RegisterSwitchonPwmCallBack:
 1685              	.LVL129:
 1686              	.LFB1464:
 935:Src/pwm_curr_fdbk.c **** 
 936:Src/pwm_curr_fdbk.c **** /**
 937:Src/pwm_curr_fdbk.c ****  * @brief Sets the Callback that the PWMC component shall invoke to switch PWM
 938:Src/pwm_curr_fdbk.c ****  *        generation on.
 939:Src/pwm_curr_fdbk.c ****  *
 940:Src/pwm_curr_fdbk.c ****  * @param pCallBack: Pointer on the generic callback.
 941:Src/pwm_curr_fdbk.c ****  * @param pHandle: Handler of the current instance of the PWMC component.
 942:Src/pwm_curr_fdbk.c ****  */
 943:Src/pwm_curr_fdbk.c **** __weak void PWMC_RegisterSwitchonPwmCallBack(PWMC_Generic_Cb_t pCallBack, PWMC_Handle_t *pHandle)
 944:Src/pwm_curr_fdbk.c **** {
 1687              		.loc 1 944 1 is_stmt 1 view -0
 1688              		.cfi_startproc
 1689              		@ args = 0, pretend = 0, frame = 0
 1690              		@ frame_needed = 0, uses_anonymous_args = 0
 1691              		@ link register save eliminated.
 945:Src/pwm_curr_fdbk.c **** #ifdef NULL_PTR_CHECK_PWR_CUR_FDB
 946:Src/pwm_curr_fdbk.c ****   if (MC_NULL == pHandle)
 947:Src/pwm_curr_fdbk.c ****   {
 948:Src/pwm_curr_fdbk.c ****     /* Nothing to do */
 949:Src/pwm_curr_fdbk.c ****   }
 950:Src/pwm_curr_fdbk.c ****   else
 951:Src/pwm_curr_fdbk.c ****   {
 952:Src/pwm_curr_fdbk.c **** #endif
 953:Src/pwm_curr_fdbk.c ****     pHandle->pFctSwitchOnPwm = pCallBack;
 1692              		.loc 1 953 5 view .LVU518
 1693              		.loc 1 953 30 is_stmt 0 view .LVU519
 1694 0000 8860     		str	r0, [r1, #8]
 954:Src/pwm_curr_fdbk.c **** #ifdef NULL_PTR_CHECK_PWR_CUR_FDB
 955:Src/pwm_curr_fdbk.c ****   }
 956:Src/pwm_curr_fdbk.c **** #endif
 957:Src/pwm_curr_fdbk.c **** }
 1695              		.loc 1 957 1 view .LVU520
 1696 0002 7047     		bx	lr
 1697              		.cfi_endproc
 1698              	.LFE1464:
 1700              		.section	.text.PWMC_RegisterReadingCalibrationCallBack,"ax",%progbits
ARM GAS  /tmp/cc1UKUxP.s 			page 68


 1701              		.align	1
 1702              		.p2align 2,,3
 1703              		.weak	PWMC_RegisterReadingCalibrationCallBack
 1704              		.syntax unified
 1705              		.thumb
 1706              		.thumb_func
 1707              		.fpu fpv4-sp-d16
 1709              	PWMC_RegisterReadingCalibrationCallBack:
 1710              	.LVL130:
 1711              	.LFB1465:
 958:Src/pwm_curr_fdbk.c **** 
 959:Src/pwm_curr_fdbk.c **** /**
 960:Src/pwm_curr_fdbk.c ****  * @brief Sets the Callback that the PWMC component shall invoke to execute a calibration
 961:Src/pwm_curr_fdbk.c ****  *        of the current sensing system.
 962:Src/pwm_curr_fdbk.c ****  *
 963:Src/pwm_curr_fdbk.c ****  * @param pCallBack: Pointer on the generic callback.
 964:Src/pwm_curr_fdbk.c ****  * @param pHandle: Handler of the current instance of the PWMC component.
 965:Src/pwm_curr_fdbk.c ****  */
 966:Src/pwm_curr_fdbk.c **** __weak void PWMC_RegisterReadingCalibrationCallBack(PWMC_Generic_Cb_t pCallBack, PWMC_Handle_t *pHa
 967:Src/pwm_curr_fdbk.c **** {
 1712              		.loc 1 967 1 is_stmt 1 view -0
 1713              		.cfi_startproc
 1714              		@ args = 0, pretend = 0, frame = 0
 1715              		@ frame_needed = 0, uses_anonymous_args = 0
 1716              		@ link register save eliminated.
 968:Src/pwm_curr_fdbk.c **** #ifdef NULL_PTR_CHECK_PWR_CUR_FDB
 969:Src/pwm_curr_fdbk.c ****   if (MC_NULL == pHandle)
 970:Src/pwm_curr_fdbk.c ****   {
 971:Src/pwm_curr_fdbk.c ****     /* Nothing to do */
 972:Src/pwm_curr_fdbk.c ****   }
 973:Src/pwm_curr_fdbk.c ****   else
 974:Src/pwm_curr_fdbk.c ****   {
 975:Src/pwm_curr_fdbk.c **** #endif
 976:Src/pwm_curr_fdbk.c ****     pHandle->pFctCurrReadingCalib = pCallBack;
 1717              		.loc 1 976 5 view .LVU522
 1718              		.loc 1 976 35 is_stmt 0 view .LVU523
 1719 0000 C860     		str	r0, [r1, #12]
 977:Src/pwm_curr_fdbk.c **** #ifdef NULL_PTR_CHECK_PWR_CUR_FDB
 978:Src/pwm_curr_fdbk.c ****   }
 979:Src/pwm_curr_fdbk.c **** #endif
 980:Src/pwm_curr_fdbk.c **** }
 1720              		.loc 1 980 1 view .LVU524
 1721 0002 7047     		bx	lr
 1722              		.cfi_endproc
 1723              	.LFE1465:
 1725              		.section	.text.PWMC_RegisterTurnOnLowSidesCallBack,"ax",%progbits
 1726              		.align	1
 1727              		.p2align 2,,3
 1728              		.weak	PWMC_RegisterTurnOnLowSidesCallBack
 1729              		.syntax unified
 1730              		.thumb
 1731              		.thumb_func
 1732              		.fpu fpv4-sp-d16
 1734              	PWMC_RegisterTurnOnLowSidesCallBack:
 1735              	.LVL131:
 1736              	.LFB1466:
 981:Src/pwm_curr_fdbk.c **** 
ARM GAS  /tmp/cc1UKUxP.s 			page 69


 982:Src/pwm_curr_fdbk.c **** /**
 983:Src/pwm_curr_fdbk.c ****  * @brief Sets the Callback that the PWMC component shall invoke to turn low sides on.
 984:Src/pwm_curr_fdbk.c ****  *
 985:Src/pwm_curr_fdbk.c ****  * @param pCallBack: Pointer on the callback which turns low sides on.
 986:Src/pwm_curr_fdbk.c ****  * @param pHandle: Handler of the current instance of the PWMC component.
 987:Src/pwm_curr_fdbk.c ****  */
 988:Src/pwm_curr_fdbk.c **** __weak void PWMC_RegisterTurnOnLowSidesCallBack(PWMC_TurnOnLowSides_Cb_t pCallBack, PWMC_Handle_t *
 989:Src/pwm_curr_fdbk.c **** {
 1737              		.loc 1 989 1 is_stmt 1 view -0
 1738              		.cfi_startproc
 1739              		@ args = 0, pretend = 0, frame = 0
 1740              		@ frame_needed = 0, uses_anonymous_args = 0
 1741              		@ link register save eliminated.
 990:Src/pwm_curr_fdbk.c **** #ifdef NULL_PTR_CHECK_PWR_CUR_FDB
 991:Src/pwm_curr_fdbk.c ****   if (MC_NULL == pHandle)
 992:Src/pwm_curr_fdbk.c ****   {
 993:Src/pwm_curr_fdbk.c ****     /* Nothing to do */
 994:Src/pwm_curr_fdbk.c ****   }
 995:Src/pwm_curr_fdbk.c ****   else
 996:Src/pwm_curr_fdbk.c ****   {
 997:Src/pwm_curr_fdbk.c **** #endif
 998:Src/pwm_curr_fdbk.c ****     pHandle->pFctTurnOnLowSides = pCallBack;
 1742              		.loc 1 998 5 view .LVU526
 1743              		.loc 1 998 33 is_stmt 0 view .LVU527
 1744 0000 0861     		str	r0, [r1, #16]
 999:Src/pwm_curr_fdbk.c **** #ifdef NULL_PTR_CHECK_PWR_CUR_FDB
1000:Src/pwm_curr_fdbk.c ****   }
1001:Src/pwm_curr_fdbk.c **** #endif
1002:Src/pwm_curr_fdbk.c **** }
 1745              		.loc 1 1002 1 view .LVU528
 1746 0002 7047     		bx	lr
 1747              		.cfi_endproc
 1748              	.LFE1466:
 1750              		.section	.text.PWMC_RegisterSampPointSectXCallBack,"ax",%progbits
 1751              		.align	1
 1752              		.p2align 2,,3
 1753              		.weak	PWMC_RegisterSampPointSectXCallBack
 1754              		.syntax unified
 1755              		.thumb
 1756              		.thumb_func
 1757              		.fpu fpv4-sp-d16
 1759              	PWMC_RegisterSampPointSectXCallBack:
 1760              	.LVL132:
 1761              	.LFB1467:
1003:Src/pwm_curr_fdbk.c **** 
1004:Src/pwm_curr_fdbk.c **** /**
1005:Src/pwm_curr_fdbk.c ****  * @brief Sets the Callback that the PWMC component shall invoke to compute ADC sampling point.
1006:Src/pwm_curr_fdbk.c ****  *
1007:Src/pwm_curr_fdbk.c ****  * @param pCallBack: Pointer on the callback which sets the sampling point depending on the sector.
1008:Src/pwm_curr_fdbk.c ****  * @param pHandle: Handler of the current instance of the PWMC component.
1009:Src/pwm_curr_fdbk.c ****  */
1010:Src/pwm_curr_fdbk.c **** __weak void PWMC_RegisterSampPointSectXCallBack(PWMC_SetSampPointSectX_Cb_t pCallBack, PWMC_Handle_
1011:Src/pwm_curr_fdbk.c **** {
 1762              		.loc 1 1011 1 is_stmt 1 view -0
 1763              		.cfi_startproc
 1764              		@ args = 0, pretend = 0, frame = 0
 1765              		@ frame_needed = 0, uses_anonymous_args = 0
ARM GAS  /tmp/cc1UKUxP.s 			page 70


 1766              		@ link register save eliminated.
1012:Src/pwm_curr_fdbk.c **** #ifdef NULL_PTR_CHECK_PWR_CUR_FDB
1013:Src/pwm_curr_fdbk.c ****   if (MC_NULL == pHandle)
1014:Src/pwm_curr_fdbk.c ****   {
1015:Src/pwm_curr_fdbk.c ****     /* Nothing to do */
1016:Src/pwm_curr_fdbk.c ****   }
1017:Src/pwm_curr_fdbk.c ****   else
1018:Src/pwm_curr_fdbk.c ****   {
1019:Src/pwm_curr_fdbk.c **** #endif
1020:Src/pwm_curr_fdbk.c ****     pHandle->pFctSetADCSampPointSectX = pCallBack;
 1767              		.loc 1 1020 5 view .LVU530
 1768              		.loc 1 1020 39 is_stmt 0 view .LVU531
 1769 0000 4861     		str	r0, [r1, #20]
1021:Src/pwm_curr_fdbk.c **** #ifdef NULL_PTR_CHECK_PWR_CUR_FDB
1022:Src/pwm_curr_fdbk.c ****   }
1023:Src/pwm_curr_fdbk.c **** #endif
1024:Src/pwm_curr_fdbk.c **** }
 1770              		.loc 1 1024 1 view .LVU532
 1771 0002 7047     		bx	lr
 1772              		.cfi_endproc
 1773              	.LFE1467:
 1775              		.section	.text.PWMC_RegisterOCPSetRefVoltageCallBack,"ax",%progbits
 1776              		.align	1
 1777              		.p2align 2,,3
 1778              		.weak	PWMC_RegisterOCPSetRefVoltageCallBack
 1779              		.syntax unified
 1780              		.thumb
 1781              		.thumb_func
 1782              		.fpu fpv4-sp-d16
 1784              	PWMC_RegisterOCPSetRefVoltageCallBack:
 1785              	.LVL133:
 1786              	.LFB1468:
1025:Src/pwm_curr_fdbk.c **** 
1026:Src/pwm_curr_fdbk.c **** /**
1027:Src/pwm_curr_fdbk.c ****  * @brief Sets the Callback that the PWMC component shall invoke to set the reference
1028:Src/pwm_curr_fdbk.c ****  *        voltage for the overcurrent protection.
1029:Src/pwm_curr_fdbk.c ****  *
1030:Src/pwm_curr_fdbk.c ****  * @param pCallBack: Pointer on the callback which sets the reference voltage.
1031:Src/pwm_curr_fdbk.c ****  * @param pHandle: Handler of the current instance of the PWMC component.
1032:Src/pwm_curr_fdbk.c ****  */
1033:Src/pwm_curr_fdbk.c **** __weak void PWMC_RegisterOCPSetRefVoltageCallBack(PWMC_SetOcpRefVolt_Cb_t pCallBack, PWMC_Handle_t 
1034:Src/pwm_curr_fdbk.c **** {
 1787              		.loc 1 1034 1 is_stmt 1 view -0
 1788              		.cfi_startproc
 1789              		@ args = 0, pretend = 0, frame = 0
 1790              		@ frame_needed = 0, uses_anonymous_args = 0
 1791              		@ link register save eliminated.
1035:Src/pwm_curr_fdbk.c **** #ifdef NULL_PTR_CHECK_PWR_CUR_FDB
1036:Src/pwm_curr_fdbk.c ****   if (MC_NULL == pHandle)
1037:Src/pwm_curr_fdbk.c ****   {
1038:Src/pwm_curr_fdbk.c ****     /* Nothing to do */
1039:Src/pwm_curr_fdbk.c ****   }
1040:Src/pwm_curr_fdbk.c ****   else
1041:Src/pwm_curr_fdbk.c ****   {
1042:Src/pwm_curr_fdbk.c **** #endif
1043:Src/pwm_curr_fdbk.c ****     pHandle->pFctOCPSetReferenceVoltage = pCallBack;
 1792              		.loc 1 1043 5 view .LVU534
ARM GAS  /tmp/cc1UKUxP.s 			page 71


 1793              		.loc 1 1043 41 is_stmt 0 view .LVU535
 1794 0000 8861     		str	r0, [r1, #24]
1044:Src/pwm_curr_fdbk.c **** #ifdef NULL_PTR_CHECK_PWR_CUR_FDB
1045:Src/pwm_curr_fdbk.c ****   }
1046:Src/pwm_curr_fdbk.c **** #endif
1047:Src/pwm_curr_fdbk.c **** }
 1795              		.loc 1 1047 1 view .LVU536
 1796 0002 7047     		bx	lr
 1797              		.cfi_endproc
 1798              	.LFE1468:
 1800              		.section	.text.PWMC_RegisterRLDetectionModeEnableCallBack,"ax",%progbits
 1801              		.align	1
 1802              		.p2align 2,,3
 1803              		.weak	PWMC_RegisterRLDetectionModeEnableCallBack
 1804              		.syntax unified
 1805              		.thumb
 1806              		.thumb_func
 1807              		.fpu fpv4-sp-d16
 1809              	PWMC_RegisterRLDetectionModeEnableCallBack:
 1810              	.LVL134:
 1811              	.LFB1469:
1048:Src/pwm_curr_fdbk.c **** 
1049:Src/pwm_curr_fdbk.c **** /**
1050:Src/pwm_curr_fdbk.c ****  * @brief Sets the Callback that the PWMC component shall invoke to enable the R/L detection mode.
1051:Src/pwm_curr_fdbk.c ****  *
1052:Src/pwm_curr_fdbk.c ****  * @param pCallBack: Pointer on the generic callback.
1053:Src/pwm_curr_fdbk.c ****  * @param pHandle: Handler of the current instance of the PWMC component.
1054:Src/pwm_curr_fdbk.c ****  */
1055:Src/pwm_curr_fdbk.c **** __weak void PWMC_RegisterRLDetectionModeEnableCallBack(PWMC_Generic_Cb_t pCallBack, PWMC_Handle_t *
1056:Src/pwm_curr_fdbk.c **** {
 1812              		.loc 1 1056 1 is_stmt 1 view -0
 1813              		.cfi_startproc
 1814              		@ args = 0, pretend = 0, frame = 0
 1815              		@ frame_needed = 0, uses_anonymous_args = 0
 1816              		@ link register save eliminated.
1057:Src/pwm_curr_fdbk.c **** #ifdef NULL_PTR_CHECK_PWR_CUR_FDB
1058:Src/pwm_curr_fdbk.c ****   if (MC_NULL == pHandle)
1059:Src/pwm_curr_fdbk.c ****   {
1060:Src/pwm_curr_fdbk.c ****     /* Nothing to do */
1061:Src/pwm_curr_fdbk.c ****   }
1062:Src/pwm_curr_fdbk.c ****   else
1063:Src/pwm_curr_fdbk.c ****   {
1064:Src/pwm_curr_fdbk.c **** #endif
1065:Src/pwm_curr_fdbk.c ****     pHandle->pFctRLDetectionModeEnable = pCallBack;
 1817              		.loc 1 1065 5 view .LVU538
 1818              		.loc 1 1065 40 is_stmt 0 view .LVU539
 1819 0000 C861     		str	r0, [r1, #28]
1066:Src/pwm_curr_fdbk.c **** #ifdef NULL_PTR_CHECK_PWR_CUR_FDB
1067:Src/pwm_curr_fdbk.c ****   }
