ARM GAS  /tmp/ccAfo4nU.s 			page 1


   1              		.cpu cortex-m4
   2              		.eabi_attribute 27, 1
   3              		.eabi_attribute 28, 1
   4              		.eabi_attribute 20, 1
   5              		.eabi_attribute 21, 1
   6              		.eabi_attribute 23, 3
   7              		.eabi_attribute 24, 1
   8              		.eabi_attribute 25, 1
   9              		.eabi_attribute 26, 1
  10              		.eabi_attribute 30, 2
  11              		.eabi_attribute 34, 1
  12              		.eabi_attribute 18, 4
  13              		.file	"register_interface.c"
  14              		.text
  15              	.Ltext0:
  16              		.cfi_sections	.debug_frame
  17              		.section	.text.RI_SetRegisterGlobal,"ax",%progbits
  18              		.align	1
  19              		.p2align 2,,3
  20              		.global	RI_SetRegisterGlobal
  21              		.arch armv7e-m
  22              		.syntax unified
  23              		.thumb
  24              		.thumb_func
  25              		.fpu fpv4-sp-d16
  27              	RI_SetRegisterGlobal:
  28              	.LVL0:
  29              	.LFB1466:
  30              		.file 1 "Src/register_interface.c"
   1:Src/register_interface.c **** 
   2:Src/register_interface.c **** /**
   3:Src/register_interface.c ****   ******************************************************************************
   4:Src/register_interface.c ****   * @file    register_interface.c
   5:Src/register_interface.c ****   * @author  Motor Control SDK Team, ST Microelectronics
   6:Src/register_interface.c ****   * @brief   This file provides firmware functions that implement the register access for the MCP p
   7:Src/register_interface.c ****   *
   8:Src/register_interface.c ****   *
   9:Src/register_interface.c ****   ******************************************************************************
  10:Src/register_interface.c ****   * @attention
  11:Src/register_interface.c ****   *
  12:Src/register_interface.c ****   * <h2><center>&copy; Copyright (c) 2024 STMicroelectronics.
  13:Src/register_interface.c ****   * All rights reserved.</center></h2>
  14:Src/register_interface.c ****   *
  15:Src/register_interface.c ****   * This software component is licensed by ST under Ultimate Liberty license
  16:Src/register_interface.c ****   * SLA0044, the "License"; You may not use this file except in compliance with
  17:Src/register_interface.c ****   * the License. You may obtain a copy of the License at:
  18:Src/register_interface.c ****   *                             www.st.com/SLA0044
  19:Src/register_interface.c ****   *
  20:Src/register_interface.c ****   ******************************************************************************
  21:Src/register_interface.c ****   */
  22:Src/register_interface.c **** 
  23:Src/register_interface.c **** #include "mc_type.h"
  24:Src/register_interface.c **** #include "string.h"
  25:Src/register_interface.c **** #include "register_interface.h"
  26:Src/register_interface.c **** #include "mc_config.h"
  27:Src/register_interface.c **** #include "mcp.h"
  28:Src/register_interface.c **** #include "mcp_config.h"
ARM GAS  /tmp/ccAfo4nU.s 			page 2


  29:Src/register_interface.c **** #include "mcpa.h"
  30:Src/register_interface.c **** #include "mc_configuration_registers.h"
  31:Src/register_interface.c **** 
  32:Src/register_interface.c **** uint8_t RI_SetRegisterGlobal(uint16_t regID, uint8_t typeID, uint8_t *data, uint16_t *size, int16_t
  33:Src/register_interface.c **** {
  31              		.loc 1 33 1 view -0
  32              		.cfi_startproc
  33              		@ args = 4, pretend = 0, frame = 0
  34              		@ frame_needed = 0, uses_anonymous_args = 0
  35              		@ link register save eliminated.
  34:Src/register_interface.c ****   uint8_t retVal = MCP_CMD_OK;
  36              		.loc 1 34 3 view .LVU1
  35:Src/register_interface.c ****   switch(typeID)
  37              		.loc 1 35 3 view .LVU2
  33:Src/register_interface.c ****   uint8_t retVal = MCP_CMD_OK;
  38              		.loc 1 33 1 is_stmt 0 view .LVU3
  39 0000 30B4     		push	{r4, r5}
  40              	.LCFI0:
  41              		.cfi_def_cfa_offset 8
  42              		.cfi_offset 4, -8
  43              		.cfi_offset 5, -4
  44              		.loc 1 35 3 view .LVU4
  45 0002 0839     		subs	r1, r1, #8
  46              	.LVL1:
  33:Src/register_interface.c ****   uint8_t retVal = MCP_CMD_OK;
  47              		.loc 1 33 1 view .LVU5
  48 0004 BDF90840 		ldrsh	r4, [sp, #8]
  49              		.loc 1 35 3 view .LVU6
  50 0008 2029     		cmp	r1, #32
  51 000a 66D8     		bhi	.L2
  52 000c DFE801F0 		tbb	[pc, r1]
  53              	.L4:
  54 0010 23       		.byte	(.L8-.L4)/2
  55 0011 65       		.byte	(.L2-.L4)/2
  56 0012 65       		.byte	(.L2-.L4)/2
  57 0013 65       		.byte	(.L2-.L4)/2
  58 0014 65       		.byte	(.L2-.L4)/2
  59 0015 65       		.byte	(.L2-.L4)/2
  60 0016 65       		.byte	(.L2-.L4)/2
  61 0017 65       		.byte	(.L2-.L4)/2
  62 0018 54       		.byte	(.L7-.L4)/2
  63 0019 65       		.byte	(.L2-.L4)/2
  64 001a 65       		.byte	(.L2-.L4)/2
  65 001b 65       		.byte	(.L2-.L4)/2
  66 001c 65       		.byte	(.L2-.L4)/2
  67 001d 65       		.byte	(.L2-.L4)/2
  68 001e 65       		.byte	(.L2-.L4)/2
  69 001f 65       		.byte	(.L2-.L4)/2
  70 0020 2C       		.byte	(.L6-.L4)/2
  71 0021 65       		.byte	(.L2-.L4)/2
  72 0022 65       		.byte	(.L2-.L4)/2
  73 0023 65       		.byte	(.L2-.L4)/2
  74 0024 65       		.byte	(.L2-.L4)/2
  75 0025 65       		.byte	(.L2-.L4)/2
  76 0026 65       		.byte	(.L2-.L4)/2
  77 0027 65       		.byte	(.L2-.L4)/2
  78 0028 35       		.byte	(.L5-.L4)/2
ARM GAS  /tmp/ccAfo4nU.s 			page 3


  79 0029 65       		.byte	(.L2-.L4)/2
  80 002a 65       		.byte	(.L2-.L4)/2
  81 002b 65       		.byte	(.L2-.L4)/2
  82 002c 65       		.byte	(.L2-.L4)/2
  83 002d 65       		.byte	(.L2-.L4)/2
  84 002e 65       		.byte	(.L2-.L4)/2
  85 002f 65       		.byte	(.L2-.L4)/2
  86 0030 11       		.byte	(.L3-.L4)/2
  87 0031 00       		.p2align 1
  88              	.L3:
  89              	.LBB57:
  36:Src/register_interface.c ****   {
  37:Src/register_interface.c ****     case TYPE_DATA_8BIT:
  38:Src/register_interface.c ****     {
  39:Src/register_interface.c ****       switch (regID)
  40:Src/register_interface.c ****       {
  41:Src/register_interface.c ****         case MC_REG_STATUS:
  42:Src/register_interface.c ****         {
  43:Src/register_interface.c ****           retVal = MCP_ERROR_RO_REG;
  44:Src/register_interface.c ****           break;
  45:Src/register_interface.c ****         }
  46:Src/register_interface.c **** 
  47:Src/register_interface.c ****         default:
  48:Src/register_interface.c ****         {
  49:Src/register_interface.c ****           retVal = MCP_ERROR_UNKNOWN_REG;
  50:Src/register_interface.c ****           break;
  51:Src/register_interface.c ****         }
  52:Src/register_interface.c ****       }
  53:Src/register_interface.c ****       *size = 1;
  54:Src/register_interface.c ****       break;
  55:Src/register_interface.c ****     }
  56:Src/register_interface.c **** 
  57:Src/register_interface.c ****     case TYPE_DATA_16BIT:
  58:Src/register_interface.c ****     {
  59:Src/register_interface.c ****       switch (regID)
  60:Src/register_interface.c ****       {
  61:Src/register_interface.c **** 
  62:Src/register_interface.c ****         case MC_REG_BUS_VOLTAGE:
  63:Src/register_interface.c ****         case MC_REG_HEATS_TEMP:
  64:Src/register_interface.c ****         case MC_REG_MOTOR_POWER:
  65:Src/register_interface.c ****         {
  66:Src/register_interface.c ****           retVal = MCP_ERROR_RO_REG;
  67:Src/register_interface.c ****           break;
  68:Src/register_interface.c ****         }
  69:Src/register_interface.c **** 
  70:Src/register_interface.c ****         case MC_REG_DAC_USER1:
  71:Src/register_interface.c ****         case MC_REG_DAC_USER2:
  72:Src/register_interface.c ****         break;
  73:Src/register_interface.c **** 
  74:Src/register_interface.c ****         default:
  75:Src/register_interface.c ****         {
  76:Src/register_interface.c ****           retVal = MCP_ERROR_UNKNOWN_REG;
  77:Src/register_interface.c ****           break;
  78:Src/register_interface.c ****         }
  79:Src/register_interface.c ****       }
  80:Src/register_interface.c ****       *size = 2;
  81:Src/register_interface.c ****       break;
ARM GAS  /tmp/ccAfo4nU.s 			page 4


  82:Src/register_interface.c ****     }
  83:Src/register_interface.c **** 
  84:Src/register_interface.c ****     case TYPE_DATA_32BIT:
  85:Src/register_interface.c ****     {
  86:Src/register_interface.c **** 
  87:Src/register_interface.c ****       switch (regID)
  88:Src/register_interface.c ****       {
  89:Src/register_interface.c ****         case MC_REG_FAULTS_FLAGS:
  90:Src/register_interface.c ****         {
  91:Src/register_interface.c ****           retVal = MCP_ERROR_RO_REG;
  92:Src/register_interface.c ****           break;
  93:Src/register_interface.c ****         }
  94:Src/register_interface.c **** 
  95:Src/register_interface.c ****         default:
  96:Src/register_interface.c ****         {
  97:Src/register_interface.c ****           retVal = MCP_ERROR_UNKNOWN_REG;
  98:Src/register_interface.c ****           break;
  99:Src/register_interface.c ****         }
 100:Src/register_interface.c ****       }
 101:Src/register_interface.c ****       *size = 4;
 102:Src/register_interface.c ****       break;
 103:Src/register_interface.c ****     }
 104:Src/register_interface.c **** 
 105:Src/register_interface.c ****     case TYPE_DATA_STRING:
 106:Src/register_interface.c ****     {
 107:Src/register_interface.c ****       const char_t *charData = (const char_t *)data;
 108:Src/register_interface.c ****       char_t *dummy = (char_t *)data;
 109:Src/register_interface.c ****       retVal = MCP_ERROR_RO_REG;
 110:Src/register_interface.c ****       /* Used to compute String length stored in RXBUFF even if Reg does not exist */
 111:Src/register_interface.c ****       /* It allows to jump to the next command in the buffer */
 112:Src/register_interface.c ****       (void)RI_MovString(charData, dummy, size, dataAvailable);
 113:Src/register_interface.c ****       break;
 114:Src/register_interface.c ****     }
 115:Src/register_interface.c **** 
 116:Src/register_interface.c ****     case TYPE_DATA_RAW:
 117:Src/register_interface.c ****     {
 118:Src/register_interface.c ****       uint16_t rawSize = *(uint16_t *)data; //cstat !MISRAC2012-Rule-11.3
  90              		.loc 1 118 7 is_stmt 1 view .LVU7
  91              	.LVL2:
 119:Src/register_interface.c ****       /* The size consumed by the structure is the structure size + 2 bytes used to store the size 
 120:Src/register_interface.c ****       *size = rawSize + 2U;
  92              		.loc 1 120 7 view .LVU8
  93              		.loc 1 120 23 is_stmt 0 view .LVU9
  94 0032 1288     		ldrh	r2, [r2]
  95              	.LVL3:
  96              		.loc 1 120 23 view .LVU10
  97 0034 0232     		adds	r2, r2, #2
  98 0036 92B2     		uxth	r2, r2
 121:Src/register_interface.c ****       uint8_t *rawData = data; /* rawData points to the first data (after size extraction) */
 122:Src/register_interface.c ****       rawData++;
 123:Src/register_interface.c ****       rawData++;
 124:Src/register_interface.c **** 
 125:Src/register_interface.c ****       if (*size > (uint16_t)dataAvailable)
  99              		.loc 1 125 10 view .LVU11
 100 0038 A4B2     		uxth	r4, r4
 101 003a A242     		cmp	r2, r4
 120:Src/register_interface.c ****       uint8_t *rawData = data; /* rawData points to the first data (after size extraction) */
ARM GAS  /tmp/ccAfo4nU.s 			page 5


 102              		.loc 1 120 13 view .LVU12
 103 003c 1A80     		strh	r2, [r3]	@ movhi
 104              	.LVL4:
 121:Src/register_interface.c ****       uint8_t *rawData = data; /* rawData points to the first data (after size extraction) */
 105              		.loc 1 121 7 is_stmt 1 view .LVU13
 122:Src/register_interface.c ****       rawData++;
 106              		.loc 1 122 7 view .LVU14
 123:Src/register_interface.c **** 
 107              		.loc 1 123 7 view .LVU15
 108              		.loc 1 125 7 view .LVU16
 109              		.loc 1 125 10 is_stmt 0 view .LVU17
 110 003e 62D8     		bhi	.L42
 126:Src/register_interface.c ****       {
 127:Src/register_interface.c ****         /* The decoded size of the raw structure can not match with transmitted buffer, error in bu
 128:Src/register_interface.c ****            construction */
 129:Src/register_interface.c ****         *size = 0;
 130:Src/register_interface.c ****         retVal = MCP_ERROR_BAD_RAW_FORMAT; /* This error stop the parsing of the CMD buffer */
 131:Src/register_interface.c ****       }
 132:Src/register_interface.c ****       else
 133:Src/register_interface.c ****       {
 134:Src/register_interface.c ****         switch (regID)
 111              		.loc 1 134 9 is_stmt 1 view .LVU18
 112 0040 6828     		cmp	r0, #104
 113 0042 36D0     		beq	.L40
 114 0044 57D9     		bls	.L43
 115 0046 A828     		cmp	r0, #168
 116 0048 33D0     		beq	.L40
 135:Src/register_interface.c ****         {
 136:Src/register_interface.c ****           case MC_REG_APPLICATION_CONFIG:
 137:Src/register_interface.c ****           case MC_REG_MOTOR_CONFIG:
 138:Src/register_interface.c ****           case MC_REG_GLOBAL_CONFIG:
 139:Src/register_interface.c ****           case MC_REG_FOCFW_CONFIG:
 140:Src/register_interface.c ****           {
 141:Src/register_interface.c ****             retVal = MCP_ERROR_RO_REG;
 142:Src/register_interface.c ****             break;
 143:Src/register_interface.c ****           }
 144:Src/register_interface.c **** 
 145:Src/register_interface.c ****           default:
 146:Src/register_interface.c ****           {
 147:Src/register_interface.c ****             retVal = MCP_ERROR_UNKNOWN_REG;
 117              		.loc 1 147 20 is_stmt 0 view .LVU19
 118 004a E828     		cmp	r0, #232
 119 004c 0CBF     		ite	eq
 120 004e 0420     		moveq	r0, #4
 121              	.LVL5:
 122              		.loc 1 147 20 view .LVU20
 123 0050 0520     		movne	r0, #5
 124              	.LVL6:
 125              	.L38:
 126              		.loc 1 147 20 view .LVU21
 127              	.LBE57:
 148:Src/register_interface.c ****             break;
 149:Src/register_interface.c ****           }
 150:Src/register_interface.c ****         }
 151:Src/register_interface.c **** 
 152:Src/register_interface.c ****       }
 153:Src/register_interface.c ****       break;
ARM GAS  /tmp/ccAfo4nU.s 			page 6


 154:Src/register_interface.c ****     }
 155:Src/register_interface.c **** 
 156:Src/register_interface.c ****     default:
 157:Src/register_interface.c ****     {
 158:Src/register_interface.c ****       retVal = MCP_ERROR_BAD_DATA_TYPE;
 159:Src/register_interface.c ****       *size =0; /* From this point we are not able anymore to decode the RX buffer */
 160:Src/register_interface.c ****       break;
 161:Src/register_interface.c ****     }
 162:Src/register_interface.c ****   }
 163:Src/register_interface.c ****   return (retVal);
 164:Src/register_interface.c **** }
 128              		.loc 1 164 1 view .LVU22
 129 0052 30BC     		pop	{r4, r5}
 130              	.LCFI1:
 131              		.cfi_remember_state
 132              		.cfi_restore 5
 133              		.cfi_restore 4
 134              		.cfi_def_cfa_offset 0
 135              	.LVL7:
 136              		.loc 1 164 1 view .LVU23
 137 0054 7047     		bx	lr
 138              	.LVL8:
 139              	.L8:
 140              	.LCFI2:
 141              		.cfi_restore_state
  39:Src/register_interface.c ****       {
 142              		.loc 1 39 7 is_stmt 1 view .LVU24
  49:Src/register_interface.c ****           break;
 143              		.loc 1 49 18 is_stmt 0 view .LVU25
 144 0056 4828     		cmp	r0, #72
  53:Src/register_interface.c ****       break;
 145              		.loc 1 53 13 view .LVU26
 146 0058 4FF00102 		mov	r2, #1
 147              	.LVL9:
  49:Src/register_interface.c ****           break;
 148              		.loc 1 49 18 view .LVU27
 149 005c 0CBF     		ite	eq
 150 005e 0420     		moveq	r0, #4
 151              	.LVL10:
  49:Src/register_interface.c ****           break;
 152              		.loc 1 49 18 view .LVU28
 153 0060 0520     		movne	r0, #5
 154              	.LVL11:
  53:Src/register_interface.c ****       break;
 155              		.loc 1 53 7 is_stmt 1 view .LVU29
  53:Src/register_interface.c ****       break;
 156              		.loc 1 53 13 is_stmt 0 view .LVU30
 157 0062 1A80     		strh	r2, [r3]	@ movhi
  54:Src/register_interface.c ****     }
 158              		.loc 1 54 7 is_stmt 1 view .LVU31
 159              		.loc 1 164 1 is_stmt 0 view .LVU32
 160 0064 30BC     		pop	{r4, r5}
 161              	.LCFI3:
 162              		.cfi_remember_state
 163              		.cfi_restore 5
 164              		.cfi_restore 4
 165              		.cfi_def_cfa_offset 0
ARM GAS  /tmp/ccAfo4nU.s 			page 7


 166              	.LVL12:
 167              		.loc 1 164 1 view .LVU33
 168 0066 7047     		bx	lr
 169              	.LVL13:
 170              	.L6:
 171              	.LCFI4:
 172              		.cfi_restore_state
  87:Src/register_interface.c ****       {
 173              		.loc 1 87 7 is_stmt 1 view .LVU34
  97:Src/register_interface.c ****           break;
 174              		.loc 1 97 18 is_stmt 0 view .LVU35
 175 0068 1828     		cmp	r0, #24
 101:Src/register_interface.c ****       break;
 176              		.loc 1 101 13 view .LVU36
 177 006a 4FF00402 		mov	r2, #4
 178              	.LVL14:
  97:Src/register_interface.c ****           break;
 179              		.loc 1 97 18 view .LVU37
 180 006e 0CBF     		ite	eq
 181 0070 1046     		moveq	r0, r2
 182              	.LVL15:
  97:Src/register_interface.c ****           break;
 183              		.loc 1 97 18 view .LVU38
 184 0072 0520     		movne	r0, #5
 185              	.LVL16:
 101:Src/register_interface.c ****       break;
 186              		.loc 1 101 7 is_stmt 1 view .LVU39
 101:Src/register_interface.c ****       break;
 187              		.loc 1 101 13 is_stmt 0 view .LVU40
 188 0074 1A80     		strh	r2, [r3]	@ movhi
 102:Src/register_interface.c ****     }
 189              		.loc 1 102 7 is_stmt 1 view .LVU41
 190              		.loc 1 164 1 is_stmt 0 view .LVU42
 191 0076 30BC     		pop	{r4, r5}
 192              	.LCFI5:
 193              		.cfi_remember_state
 194              		.cfi_restore 5
 195              		.cfi_restore 4
 196              		.cfi_def_cfa_offset 0
 197              	.LVL17:
 198              		.loc 1 164 1 view .LVU43
 199 0078 7047     		bx	lr
 200              	.LVL18:
 201              	.L5:
 202              	.LCFI6:
 203              		.cfi_restore_state
 204              	.LBB58:
 107:Src/register_interface.c ****       char_t *dummy = (char_t *)data;
 205              		.loc 1 107 7 is_stmt 1 view .LVU44
 108:Src/register_interface.c ****       retVal = MCP_ERROR_RO_REG;
 206              		.loc 1 108 7 view .LVU45
 109:Src/register_interface.c ****       /* Used to compute String length stored in RXBUFF even if Reg does not exist */
 207              		.loc 1 109 7 view .LVU46
 112:Src/register_interface.c ****       break;
 208              		.loc 1 112 7 view .LVU47
 209              	.LBB59:
 210              	.LBI59:
ARM GAS  /tmp/ccAfo4nU.s 			page 8


 165:Src/register_interface.c **** 
 166:Src/register_interface.c **** uint8_t RI_SetRegisterMotor1(uint16_t regID, uint8_t typeID, uint8_t *data, uint16_t *size, int16_t
 167:Src/register_interface.c **** {
 168:Src/register_interface.c ****   uint8_t retVal = MCP_CMD_OK;
 169:Src/register_interface.c ****   uint8_t motorID=0;
 170:Src/register_interface.c ****   MCI_Handle_t *pMCIN = &Mci[motorID];
 171:Src/register_interface.c **** 
 172:Src/register_interface.c ****   switch(typeID)
 173:Src/register_interface.c ****   {
 174:Src/register_interface.c ****     case TYPE_DATA_8BIT:
 175:Src/register_interface.c ****     {
 176:Src/register_interface.c ****       switch (regID)
 177:Src/register_interface.c ****       {
 178:Src/register_interface.c ****         case MC_REG_STATUS:
 179:Src/register_interface.c ****           {
 180:Src/register_interface.c ****             retVal = MCP_ERROR_RO_REG;
 181:Src/register_interface.c ****             break;
 182:Src/register_interface.c ****           }
 183:Src/register_interface.c ****         case MC_REG_CONTROL_MODE:
 184:Src/register_interface.c ****         {
 185:Src/register_interface.c ****           uint8_t regdata8 = *data;
 186:Src/register_interface.c **** 
 187:Src/register_interface.c ****           if ((uint8_t)MCM_TORQUE_MODE == regdata8)
 188:Src/register_interface.c ****           {
 189:Src/register_interface.c **** 
 190:Src/register_interface.c ****             MCI_ExecTorqueRamp(pMCIN, MCI_GetTeref(pMCIN), 0);
 191:Src/register_interface.c ****           }
 192:Src/register_interface.c ****           else
 193:Src/register_interface.c ****           {
 194:Src/register_interface.c ****             /* Nothing to do */
 195:Src/register_interface.c ****           }
 196:Src/register_interface.c **** 
 197:Src/register_interface.c ****           if ((uint8_t)MCM_SPEED_MODE == regdata8)
 198:Src/register_interface.c ****           {
 199:Src/register_interface.c ****             MCI_ExecSpeedRamp(pMCIN, MCI_GetMecSpeedRefUnit(pMCIN), 0);
 200:Src/register_interface.c ****           }
 201:Src/register_interface.c ****           else
 202:Src/register_interface.c ****           {
 203:Src/register_interface.c ****             /* Nothing to do */
 204:Src/register_interface.c ****           }
 205:Src/register_interface.c ****           break;
 206:Src/register_interface.c ****         }
 207:Src/register_interface.c **** 
 208:Src/register_interface.c ****         case MC_REG_RUC_STAGE_NBR:
 209:Src/register_interface.c ****         {
 210:Src/register_interface.c ****           retVal = MCP_ERROR_RO_REG;
 211:Src/register_interface.c ****           break;
 212:Src/register_interface.c ****         }
 213:Src/register_interface.c **** 
 214:Src/register_interface.c ****         default:
 215:Src/register_interface.c ****         {
 216:Src/register_interface.c ****           retVal = MCP_ERROR_UNKNOWN_REG;
 217:Src/register_interface.c ****           break;
 218:Src/register_interface.c ****         }
 219:Src/register_interface.c ****       }
 220:Src/register_interface.c ****       *size = 1;
 221:Src/register_interface.c ****       break;
ARM GAS  /tmp/ccAfo4nU.s 			page 9


 222:Src/register_interface.c ****     }
 223:Src/register_interface.c **** 
 224:Src/register_interface.c ****     case TYPE_DATA_16BIT:
 225:Src/register_interface.c ****     {
 226:Src/register_interface.c ****       uint16_t regdata16 = *(uint16_t *)data; //cstat !MISRAC2012-Rule-11.3
 227:Src/register_interface.c ****       switch (regID)
 228:Src/register_interface.c ****       {
 229:Src/register_interface.c ****         case MC_REG_SPEED_KP:
 230:Src/register_interface.c ****         {
 231:Src/register_interface.c ****           PID_SetKP(&PIDSpeedHandle_M1, (int16_t)regdata16);
 232:Src/register_interface.c ****           break;
 233:Src/register_interface.c ****         }
 234:Src/register_interface.c **** 
 235:Src/register_interface.c ****         case MC_REG_SPEED_KI:
 236:Src/register_interface.c ****         {
 237:Src/register_interface.c ****           PID_SetKI(&PIDSpeedHandle_M1, (int16_t)regdata16);
 238:Src/register_interface.c ****           break;
 239:Src/register_interface.c ****         }
 240:Src/register_interface.c **** 
 241:Src/register_interface.c ****         case MC_REG_SPEED_KD:
 242:Src/register_interface.c ****         {
 243:Src/register_interface.c ****           PID_SetKD(&PIDSpeedHandle_M1, (int16_t)regdata16);
 244:Src/register_interface.c ****           break;
 245:Src/register_interface.c ****         }
 246:Src/register_interface.c **** 
 247:Src/register_interface.c ****         case MC_REG_I_Q_KP:
 248:Src/register_interface.c ****         {
 249:Src/register_interface.c ****           PID_SetKP(&PIDIqHandle_M1, (int16_t)regdata16);
 250:Src/register_interface.c ****           break;
 251:Src/register_interface.c ****         }
 252:Src/register_interface.c **** 
 253:Src/register_interface.c ****         case MC_REG_I_Q_KI:
 254:Src/register_interface.c ****         {
 255:Src/register_interface.c ****           PID_SetKI(&PIDIqHandle_M1, (int16_t)regdata16);
 256:Src/register_interface.c ****           break;
 257:Src/register_interface.c ****         }
 258:Src/register_interface.c **** 
 259:Src/register_interface.c ****         case MC_REG_I_Q_KD:
 260:Src/register_interface.c ****         {
 261:Src/register_interface.c ****           PID_SetKD(&PIDIqHandle_M1, (int16_t)regdata16);
 262:Src/register_interface.c ****           break;
 263:Src/register_interface.c ****         }
 264:Src/register_interface.c **** 
 265:Src/register_interface.c ****         case MC_REG_I_D_KP:
 266:Src/register_interface.c ****         {
 267:Src/register_interface.c ****           PID_SetKP(&PIDIdHandle_M1, (int16_t)regdata16);
 268:Src/register_interface.c ****           break;
 269:Src/register_interface.c ****         }
 270:Src/register_interface.c **** 
 271:Src/register_interface.c ****         case MC_REG_I_D_KI:
 272:Src/register_interface.c ****         {
 273:Src/register_interface.c ****           PID_SetKI(&PIDIdHandle_M1, (int16_t)regdata16);
 274:Src/register_interface.c ****           break;
 275:Src/register_interface.c ****         }
 276:Src/register_interface.c **** 
 277:Src/register_interface.c ****         case MC_REG_I_D_KD:
 278:Src/register_interface.c ****         {
ARM GAS  /tmp/ccAfo4nU.s 			page 10


 279:Src/register_interface.c ****           PID_SetKD(&PIDIdHandle_M1, (int16_t)regdata16);
 280:Src/register_interface.c ****           break;
 281:Src/register_interface.c ****         }
 282:Src/register_interface.c **** 
 283:Src/register_interface.c ****         case MC_REG_BUS_VOLTAGE:
 284:Src/register_interface.c ****         case MC_REG_HEATS_TEMP:
 285:Src/register_interface.c ****         case MC_REG_MOTOR_POWER:
 286:Src/register_interface.c ****         {
 287:Src/register_interface.c ****           retVal = MCP_ERROR_RO_REG;
 288:Src/register_interface.c ****           break;
 289:Src/register_interface.c ****         }
 290:Src/register_interface.c **** 
 291:Src/register_interface.c ****         case MC_REG_I_A:
 292:Src/register_interface.c ****         case MC_REG_I_B:
 293:Src/register_interface.c ****         case MC_REG_I_ALPHA_MEAS:
 294:Src/register_interface.c ****         case MC_REG_I_BETA_MEAS:
 295:Src/register_interface.c ****         case MC_REG_I_Q_MEAS:
 296:Src/register_interface.c ****         case MC_REG_I_D_MEAS:
 297:Src/register_interface.c ****         case MC_REG_FLUXWK_BUS_MEAS:
 298:Src/register_interface.c ****         {
 299:Src/register_interface.c ****           retVal = MCP_ERROR_RO_REG;
 300:Src/register_interface.c ****           break;
 301:Src/register_interface.c ****         }
 302:Src/register_interface.c **** 
 303:Src/register_interface.c ****         case MC_REG_I_Q_REF:
 304:Src/register_interface.c ****         {
 305:Src/register_interface.c ****           qd_t currComp;
 306:Src/register_interface.c ****           currComp = MCI_GetIqdref(pMCIN);
 307:Src/register_interface.c ****           currComp.q = (int16_t)regdata16;
 308:Src/register_interface.c ****           MCI_SetCurrentReferences(pMCIN,currComp);
 309:Src/register_interface.c ****           break;
 310:Src/register_interface.c ****         }
 311:Src/register_interface.c **** 
 312:Src/register_interface.c ****         case MC_REG_I_D_REF:
 313:Src/register_interface.c ****         {
 314:Src/register_interface.c ****           qd_t currComp;
 315:Src/register_interface.c ****           currComp = MCI_GetIqdref(pMCIN);
 316:Src/register_interface.c ****           currComp.d = (int16_t)regdata16;
 317:Src/register_interface.c ****           MCI_SetCurrentReferences(pMCIN,currComp);
 318:Src/register_interface.c ****           break;
 319:Src/register_interface.c ****         }
 320:Src/register_interface.c **** 
 321:Src/register_interface.c ****         case MC_REG_V_Q:
 322:Src/register_interface.c ****         case MC_REG_V_D:
 323:Src/register_interface.c ****         case MC_REG_V_ALPHA:
 324:Src/register_interface.c ****         case MC_REG_V_BETA:
 325:Src/register_interface.c ****         {
 326:Src/register_interface.c ****           retVal = MCP_ERROR_RO_REG;
 327:Src/register_interface.c ****           break;
 328:Src/register_interface.c ****         }
 329:Src/register_interface.c **** 
 330:Src/register_interface.c ****         case MC_REG_STOPLL_C1:
 331:Src/register_interface.c ****         {
 332:Src/register_interface.c ****           int16_t hC1;
 333:Src/register_interface.c ****           int16_t hC2;
 334:Src/register_interface.c ****           STO_PLL_GetObserverGains(&STO_PLL_M1, &hC1, &hC2);
 335:Src/register_interface.c ****           STO_PLL_SetObserverGains(&STO_PLL_M1, (int16_t)regdata16, hC2);
ARM GAS  /tmp/ccAfo4nU.s 			page 11


 336:Src/register_interface.c ****           break;
 337:Src/register_interface.c ****         }
 338:Src/register_interface.c **** 
 339:Src/register_interface.c ****         case MC_REG_STOPLL_C2:
 340:Src/register_interface.c ****         {
 341:Src/register_interface.c ****           int16_t hC1;
 342:Src/register_interface.c ****           int16_t hC2;
 343:Src/register_interface.c ****           STO_PLL_GetObserverGains(&STO_PLL_M1, &hC1, &hC2);
 344:Src/register_interface.c ****           STO_PLL_SetObserverGains(&STO_PLL_M1, hC1, (int16_t)regdata16);
 345:Src/register_interface.c ****           break;
 346:Src/register_interface.c ****         }
 347:Src/register_interface.c **** 
 348:Src/register_interface.c ****         case MC_REG_STOPLL_KI:
 349:Src/register_interface.c ****         {
 350:Src/register_interface.c ****           PID_SetKI (&(&STO_PLL_M1)->PIRegulator, (int16_t)regdata16);
 351:Src/register_interface.c ****           break;
 352:Src/register_interface.c ****         }
 353:Src/register_interface.c **** 
 354:Src/register_interface.c ****         case MC_REG_STOPLL_KP:
 355:Src/register_interface.c ****         {
 356:Src/register_interface.c ****           PID_SetKP (&(&STO_PLL_M1)->PIRegulator, (int16_t)regdata16);
 357:Src/register_interface.c ****           break;
 358:Src/register_interface.c ****         }
 359:Src/register_interface.c **** 
 360:Src/register_interface.c ****         case MC_REG_STOPLL_EL_ANGLE:
 361:Src/register_interface.c ****         case MC_REG_STOPLL_ROT_SPEED:
 362:Src/register_interface.c ****         case MC_REG_STOPLL_I_ALPHA:
 363:Src/register_interface.c ****         case MC_REG_STOPLL_I_BETA:
 364:Src/register_interface.c ****         case MC_REG_STOPLL_BEMF_ALPHA:
 365:Src/register_interface.c ****         case MC_REG_STOPLL_BEMF_BETA:
 366:Src/register_interface.c ****         {
 367:Src/register_interface.c ****           retVal = MCP_ERROR_RO_REG;
 368:Src/register_interface.c ****           break;
 369:Src/register_interface.c ****         }
 370:Src/register_interface.c **** 
 371:Src/register_interface.c ****         case MC_REG_DAC_USER1:
 372:Src/register_interface.c ****         case MC_REG_DAC_USER2:
 373:Src/register_interface.c ****           break;
 374:Src/register_interface.c **** 
 375:Src/register_interface.c ****         case MC_REG_SPEED_KP_DIV:
 376:Src/register_interface.c ****         {
 377:Src/register_interface.c ****           PID_SetKPDivisorPOW2(&PIDSpeedHandle_M1, regdata16);
 378:Src/register_interface.c ****           break;
 379:Src/register_interface.c ****         }
 380:Src/register_interface.c **** 
 381:Src/register_interface.c ****         case MC_REG_SPEED_KI_DIV:
 382:Src/register_interface.c ****         {
 383:Src/register_interface.c ****           PID_SetKIDivisorPOW2(&PIDSpeedHandle_M1, regdata16);
 384:Src/register_interface.c ****           break;
 385:Src/register_interface.c ****         }
 386:Src/register_interface.c **** 
 387:Src/register_interface.c ****         case MC_REG_SPEED_KD_DIV:
 388:Src/register_interface.c ****         {
 389:Src/register_interface.c ****           PID_SetKDDivisorPOW2(&PIDSpeedHandle_M1, regdata16);
 390:Src/register_interface.c ****           break;
 391:Src/register_interface.c ****         }
 392:Src/register_interface.c **** 
ARM GAS  /tmp/ccAfo4nU.s 			page 12


 393:Src/register_interface.c ****         case MC_REG_I_D_KP_DIV:
 394:Src/register_interface.c ****         {
 395:Src/register_interface.c ****           PID_SetKPDivisorPOW2(&PIDIdHandle_M1, regdata16);
 396:Src/register_interface.c ****           break;
 397:Src/register_interface.c ****         }
 398:Src/register_interface.c **** 
 399:Src/register_interface.c ****         case MC_REG_I_D_KI_DIV:
 400:Src/register_interface.c ****         {
 401:Src/register_interface.c ****           PID_SetKIDivisorPOW2(&PIDIdHandle_M1, regdata16);
 402:Src/register_interface.c ****           break;
 403:Src/register_interface.c ****         }
 404:Src/register_interface.c **** 
 405:Src/register_interface.c ****         case MC_REG_I_D_KD_DIV:
 406:Src/register_interface.c ****         {
 407:Src/register_interface.c ****           PID_SetKDDivisorPOW2(&PIDIdHandle_M1, regdata16);
 408:Src/register_interface.c ****           break;
 409:Src/register_interface.c ****         }
 410:Src/register_interface.c **** 
 411:Src/register_interface.c ****         case MC_REG_I_Q_KP_DIV:
 412:Src/register_interface.c ****         {
 413:Src/register_interface.c ****           PID_SetKPDivisorPOW2(&PIDIqHandle_M1, regdata16);
 414:Src/register_interface.c ****           break;
 415:Src/register_interface.c ****         }
 416:Src/register_interface.c **** 
 417:Src/register_interface.c ****         case MC_REG_I_Q_KI_DIV:
 418:Src/register_interface.c ****         {
 419:Src/register_interface.c ****           PID_SetKIDivisorPOW2(&PIDIqHandle_M1, regdata16);
 420:Src/register_interface.c ****           break;
 421:Src/register_interface.c ****         }
 422:Src/register_interface.c **** 
 423:Src/register_interface.c ****         case MC_REG_I_Q_KD_DIV:
 424:Src/register_interface.c ****         {
 425:Src/register_interface.c ****           PID_SetKDDivisorPOW2(&PIDIqHandle_M1, regdata16);
 426:Src/register_interface.c ****           break;
 427:Src/register_interface.c ****         }
 428:Src/register_interface.c **** 
 429:Src/register_interface.c ****         case MC_REG_STOPLL_KI_DIV:
 430:Src/register_interface.c ****         {
 431:Src/register_interface.c ****           PID_SetKIDivisorPOW2 (&(&STO_PLL_M1)->PIRegulator,regdata16);
 432:Src/register_interface.c ****           break;
 433:Src/register_interface.c ****         }
 434:Src/register_interface.c **** 
 435:Src/register_interface.c ****         case MC_REG_STOPLL_KP_DIV:
 436:Src/register_interface.c ****         {
 437:Src/register_interface.c ****           PID_SetKPDivisorPOW2 (&(&STO_PLL_M1)->PIRegulator,regdata16);
 438:Src/register_interface.c ****           break;
 439:Src/register_interface.c ****         }
 440:Src/register_interface.c **** 
 441:Src/register_interface.c ****         case MC_REG_PULSE_VALUE:
 442:Src/register_interface.c ****         {
 443:Src/register_interface.c ****           retVal = MCP_ERROR_RO_REG;
 444:Src/register_interface.c ****           break;
 445:Src/register_interface.c ****         }
 446:Src/register_interface.c **** 
 447:Src/register_interface.c ****         default:
 448:Src/register_interface.c ****         {
 449:Src/register_interface.c ****           retVal = MCP_ERROR_UNKNOWN_REG;
ARM GAS  /tmp/ccAfo4nU.s 			page 13


 450:Src/register_interface.c ****           break;
 451:Src/register_interface.c ****         }
 452:Src/register_interface.c ****       }
 453:Src/register_interface.c ****       *size = 2;
 454:Src/register_interface.c ****       break;
 455:Src/register_interface.c ****     }
 456:Src/register_interface.c **** 
 457:Src/register_interface.c ****     case TYPE_DATA_32BIT:
 458:Src/register_interface.c ****     {
 459:Src/register_interface.c ****       uint32_t regdata32 = *(uint32_t *)data; //cstat !MISRAC2012-Rule-11.3
 460:Src/register_interface.c **** 
 461:Src/register_interface.c ****       switch (regID)
 462:Src/register_interface.c ****       {
 463:Src/register_interface.c ****         case MC_REG_FAULTS_FLAGS:
 464:Src/register_interface.c ****         case MC_REG_SPEED_MEAS:
 465:Src/register_interface.c ****         {
 466:Src/register_interface.c ****           retVal = MCP_ERROR_RO_REG;
 467:Src/register_interface.c ****           break;
 468:Src/register_interface.c ****         }
 469:Src/register_interface.c **** 
 470:Src/register_interface.c ****         case MC_REG_SPEED_REF:
 471:Src/register_interface.c ****         {
 472:Src/register_interface.c ****           MCI_ExecSpeedRamp(pMCIN,((((int16_t)regdata32) * ((int16_t)SPEED_UNIT)) / (int16_t)U_RPM)
 473:Src/register_interface.c ****           break;
 474:Src/register_interface.c ****         }
 475:Src/register_interface.c **** 
 476:Src/register_interface.c ****         case MC_REG_STOPLL_EST_BEMF:
 477:Src/register_interface.c ****         case MC_REG_STOPLL_OBS_BEMF:
 478:Src/register_interface.c ****         {
 479:Src/register_interface.c ****           retVal = MCP_ERROR_RO_REG;
 480:Src/register_interface.c ****           break;
 481:Src/register_interface.c ****         }
 482:Src/register_interface.c **** 
 483:Src/register_interface.c ****         default:
 484:Src/register_interface.c ****         {
 485:Src/register_interface.c ****           retVal = MCP_ERROR_UNKNOWN_REG;
 486:Src/register_interface.c ****           break;
 487:Src/register_interface.c ****         }
 488:Src/register_interface.c ****       }
 489:Src/register_interface.c ****       *size = 4;
 490:Src/register_interface.c ****       break;
 491:Src/register_interface.c ****     }
 492:Src/register_interface.c **** 
 493:Src/register_interface.c ****     case TYPE_DATA_STRING:
 494:Src/register_interface.c ****     {
 495:Src/register_interface.c ****       const char_t *charData = (const char_t *)data;
 496:Src/register_interface.c ****       char_t *dummy = (char_t *)data;
 497:Src/register_interface.c ****       retVal = MCP_ERROR_RO_REG;
 498:Src/register_interface.c ****       /* Used to compute String length stored in RXBUFF even if Reg does not exist */
 499:Src/register_interface.c ****       /* It allows to jump to the next command in the buffer */
 500:Src/register_interface.c ****       (void)RI_MovString(charData, dummy, size, dataAvailable);
 501:Src/register_interface.c ****       break;
 502:Src/register_interface.c ****     }
 503:Src/register_interface.c **** 
 504:Src/register_interface.c ****     case TYPE_DATA_RAW:
 505:Src/register_interface.c ****     {
 506:Src/register_interface.c ****       uint16_t rawSize = *(uint16_t *)data; //cstat !MISRAC2012-Rule-11.3
ARM GAS  /tmp/ccAfo4nU.s 			page 14


 507:Src/register_interface.c ****       /* The size consumed by the structure is the structure size + 2 bytes used to store the size 
 508:Src/register_interface.c ****       *size = rawSize + 2U;
 509:Src/register_interface.c ****       uint8_t *rawData = data; /* rawData points to the first data (after size extraction) */
 510:Src/register_interface.c ****       rawData++;
 511:Src/register_interface.c ****       rawData++;
 512:Src/register_interface.c **** 
 513:Src/register_interface.c ****       if (*size > (uint16_t)dataAvailable)
 514:Src/register_interface.c ****       {
 515:Src/register_interface.c ****         /* The decoded size of the raw structure can not match with transmitted buffer, error in bu
 516:Src/register_interface.c ****            construction */
 517:Src/register_interface.c ****         *size = 0;
 518:Src/register_interface.c ****         retVal = MCP_ERROR_BAD_RAW_FORMAT; /* This error stop the parsing of the CMD buffer */
 519:Src/register_interface.c ****       }
 520:Src/register_interface.c ****       else
 521:Src/register_interface.c ****       {
 522:Src/register_interface.c ****         switch (regID)
 523:Src/register_interface.c ****         {
 524:Src/register_interface.c ****           case MC_REG_APPLICATION_CONFIG:
 525:Src/register_interface.c ****           case MC_REG_MOTOR_CONFIG:
 526:Src/register_interface.c ****           case MC_REG_GLOBAL_CONFIG:
 527:Src/register_interface.c ****           case MC_REG_FOCFW_CONFIG:
 528:Src/register_interface.c ****           {
 529:Src/register_interface.c ****             retVal = MCP_ERROR_RO_REG;
 530:Src/register_interface.c ****             break;
 531:Src/register_interface.c ****           }
 532:Src/register_interface.c **** 
 533:Src/register_interface.c ****           case MC_REG_SPEED_RAMP:
 534:Src/register_interface.c ****           {
 535:Src/register_interface.c ****             int32_t rpm;
 536:Src/register_interface.c ****             uint16_t duration;
 537:Src/register_interface.c **** 
 538:Src/register_interface.c ****             rpm = *(int32_t *)rawData; //cstat !MISRAC2012-Rule-11.3
 539:Src/register_interface.c ****             duration = *(uint16_t *)&rawData[4]; //cstat !MISRAC2012-Rule-11.3
 540:Src/register_interface.c ****             MCI_ExecSpeedRamp(pMCIN, (int16_t)((rpm * SPEED_UNIT) / U_RPM), duration);
 541:Src/register_interface.c ****             break;
 542:Src/register_interface.c ****           }
 543:Src/register_interface.c **** 
 544:Src/register_interface.c ****           case MC_REG_TORQUE_RAMP:
 545:Src/register_interface.c ****           {
 546:Src/register_interface.c ****             uint32_t torque;
 547:Src/register_interface.c ****             uint16_t duration;
 548:Src/register_interface.c **** 
 549:Src/register_interface.c ****             torque = *(uint32_t *)rawData; //cstat !MISRAC2012-Rule-11.3
 550:Src/register_interface.c ****             duration = *(uint16_t *)&rawData[4]; //cstat !MISRAC2012-Rule-11.3
 551:Src/register_interface.c ****             MCI_ExecTorqueRamp(pMCIN, (int16_t)torque, duration);
 552:Src/register_interface.c ****             break;
 553:Src/register_interface.c ****           }
 554:Src/register_interface.c **** 
 555:Src/register_interface.c ****           case MC_REG_REVUP_DATA:
 556:Src/register_interface.c ****           {
 557:Src/register_interface.c ****             int32_t rpm;
 558:Src/register_interface.c ****             RevUpCtrl_PhaseParams_t revUpPhase;
 559:Src/register_interface.c ****             uint8_t i;
 560:Src/register_interface.c ****             uint8_t nbrOfPhase = (((uint8_t)rawSize) / 8U);
 561:Src/register_interface.c **** 
 562:Src/register_interface.c ****             if (((0U != ((rawSize) % 8U))) || ((nbrOfPhase > RUC_MAX_PHASE_NUMBER) != 0))
 563:Src/register_interface.c ****             {
ARM GAS  /tmp/ccAfo4nU.s 			page 15


 564:Src/register_interface.c ****               retVal = MCP_ERROR_BAD_RAW_FORMAT;
 565:Src/register_interface.c ****             }
 566:Src/register_interface.c ****             else
 567:Src/register_interface.c ****             {
 568:Src/register_interface.c ****               for (i = 0; i <nbrOfPhase; i++)
 569:Src/register_interface.c ****               {
 570:Src/register_interface.c ****               rpm = *(int32_t *) &rawData[i * 8U]; //cstat !MISRAC2012-Rule-11.3
 571:Src/register_interface.c ****               revUpPhase.hFinalMecSpeedUnit = (((int16_t)rpm) * ((int16_t)SPEED_UNIT)) / ((int16_t)
 572:Src/register_interface.c ****               revUpPhase.hFinalTorque = *((int16_t *) &rawData[4U + (i * 8U)]); //cstat !MISRAC2012
 573:Src/register_interface.c ****               revUpPhase.hDurationms  = *((uint16_t *) &rawData[6U +(i * 8U)]); //cstat !MISRAC2012
 574:Src/register_interface.c ****               (void)RUC_SetPhase(&RevUpControlM1, i, &revUpPhase);
 575:Src/register_interface.c ****               }
 576:Src/register_interface.c ****             }
 577:Src/register_interface.c ****             break;
 578:Src/register_interface.c ****           }
 579:Src/register_interface.c **** 
 580:Src/register_interface.c ****           case MC_REG_CURRENT_REF:
 581:Src/register_interface.c ****           {
 582:Src/register_interface.c ****             qd_t currComp;
 583:Src/register_interface.c ****             currComp.q = *((int16_t *) rawData); //cstat !MISRAC2012-Rule-11.3
 584:Src/register_interface.c ****             currComp.d = *((int16_t *) &rawData[2]); //cstat !MISRAC2012-Rule-11.3
 585:Src/register_interface.c ****             MCI_SetCurrentReferences(pMCIN, currComp);
 586:Src/register_interface.c ****             break;
 587:Src/register_interface.c ****           }
 588:Src/register_interface.c **** 
 589:Src/register_interface.c ****           case MC_REG_ASYNC_UARTA:
 590:Src/register_interface.c ****           {
 591:Src/register_interface.c ****             retVal =  MCPA_cfgLog (&MCPA_UART_A, rawData);
 592:Src/register_interface.c ****             break;
 593:Src/register_interface.c ****           }
 594:Src/register_interface.c **** 
 595:Src/register_interface.c ****           default:
 596:Src/register_interface.c ****           {
 597:Src/register_interface.c ****             retVal = MCP_ERROR_UNKNOWN_REG;
 598:Src/register_interface.c ****             break;
 599:Src/register_interface.c ****           }
 600:Src/register_interface.c ****         }
 601:Src/register_interface.c ****       }
 602:Src/register_interface.c ****       break;
 603:Src/register_interface.c ****     }
 604:Src/register_interface.c **** 
 605:Src/register_interface.c ****     default:
 606:Src/register_interface.c ****     {
 607:Src/register_interface.c ****       retVal = MCP_ERROR_BAD_DATA_TYPE;
 608:Src/register_interface.c ****       *size =0; /* From this point we are not able anymore to decode the RX buffer */
 609:Src/register_interface.c ****       break;
 610:Src/register_interface.c ****     }
 611:Src/register_interface.c ****   }
 612:Src/register_interface.c ****   return (retVal);
 613:Src/register_interface.c **** }
 614:Src/register_interface.c **** 
 615:Src/register_interface.c **** uint8_t RI_GetRegisterGlobal(uint16_t regID,uint8_t typeID,uint8_t * data,uint16_t *size,int16_t fr
 616:Src/register_interface.c ****     uint8_t retVal = MCP_CMD_OK;
 617:Src/register_interface.c ****     switch (typeID)
 618:Src/register_interface.c ****     {
 619:Src/register_interface.c ****       case TYPE_DATA_8BIT:
 620:Src/register_interface.c ****       {
ARM GAS  /tmp/ccAfo4nU.s 			page 16


 621:Src/register_interface.c ****         if (freeSpace > 0)
 622:Src/register_interface.c ****         {
 623:Src/register_interface.c ****           switch (regID)
 624:Src/register_interface.c ****           {
 625:Src/register_interface.c ****             default:
 626:Src/register_interface.c ****             {
 627:Src/register_interface.c ****               retVal = MCP_ERROR_UNKNOWN_REG;
 628:Src/register_interface.c ****               break;
 629:Src/register_interface.c ****             }
 630:Src/register_interface.c ****           }
 631:Src/register_interface.c ****           *size = 1;
 632:Src/register_interface.c ****         }
 633:Src/register_interface.c ****         else
 634:Src/register_interface.c ****         {
 635:Src/register_interface.c ****           retVal = MCP_ERROR_NO_TXSYNC_SPACE;
 636:Src/register_interface.c ****         }
 637:Src/register_interface.c ****         break;
 638:Src/register_interface.c ****       }
 639:Src/register_interface.c **** 
 640:Src/register_interface.c ****       case TYPE_DATA_16BIT:
 641:Src/register_interface.c ****       {
 642:Src/register_interface.c ****         if (freeSpace >= 2)
 643:Src/register_interface.c ****         {
 644:Src/register_interface.c ****           switch (regID)
 645:Src/register_interface.c ****           {
 646:Src/register_interface.c ****             case MC_REG_DAC_USER1:
 647:Src/register_interface.c ****             case MC_REG_DAC_USER2:
 648:Src/register_interface.c ****               break;
 649:Src/register_interface.c **** 
 650:Src/register_interface.c ****             default:
 651:Src/register_interface.c ****             {
 652:Src/register_interface.c ****               retVal = MCP_ERROR_UNKNOWN_REG;
 653:Src/register_interface.c ****               break;
 654:Src/register_interface.c ****             }
 655:Src/register_interface.c ****           }
 656:Src/register_interface.c ****           *size = 2;
 657:Src/register_interface.c ****         }
 658:Src/register_interface.c ****         else
 659:Src/register_interface.c ****         {
 660:Src/register_interface.c ****           retVal = MCP_ERROR_NO_TXSYNC_SPACE;
 661:Src/register_interface.c ****         }
 662:Src/register_interface.c ****         break;
 663:Src/register_interface.c ****       }
 664:Src/register_interface.c **** 
 665:Src/register_interface.c ****       case TYPE_DATA_32BIT:
 666:Src/register_interface.c ****       {
 667:Src/register_interface.c ****         if (freeSpace >= 4)
 668:Src/register_interface.c ****         {
 669:Src/register_interface.c ****           switch (regID)
 670:Src/register_interface.c ****           {
 671:Src/register_interface.c **** 
 672:Src/register_interface.c ****             default:
 673:Src/register_interface.c ****             {
 674:Src/register_interface.c ****               retVal = MCP_ERROR_UNKNOWN_REG;
 675:Src/register_interface.c ****               break;
 676:Src/register_interface.c ****             }
 677:Src/register_interface.c ****           }
ARM GAS  /tmp/ccAfo4nU.s 			page 17


 678:Src/register_interface.c ****           *size = 4;
 679:Src/register_interface.c ****         }
 680:Src/register_interface.c ****         else
 681:Src/register_interface.c ****         {
 682:Src/register_interface.c ****           retVal = MCP_ERROR_NO_TXSYNC_SPACE;
 683:Src/register_interface.c ****         }
 684:Src/register_interface.c ****         break;
 685:Src/register_interface.c ****       }
 686:Src/register_interface.c **** 
 687:Src/register_interface.c ****       case TYPE_DATA_STRING:
 688:Src/register_interface.c ****       {
 689:Src/register_interface.c ****         char_t *charData = (char_t *)data;
 690:Src/register_interface.c ****         switch (regID)
 691:Src/register_interface.c ****         {
 692:Src/register_interface.c ****           case MC_REG_FW_NAME:
 693:Src/register_interface.c ****             retVal = RI_MovString (FIRMWARE_NAME ,charData, size, freeSpace);
 694:Src/register_interface.c ****             break;
 695:Src/register_interface.c **** 
 696:Src/register_interface.c ****           case MC_REG_CTRL_STAGE_NAME:
 697:Src/register_interface.c ****           {
 698:Src/register_interface.c ****             retVal = RI_MovString (CTL_BOARD ,charData, size, freeSpace);
 699:Src/register_interface.c ****             break;
 700:Src/register_interface.c ****           }
 701:Src/register_interface.c ****           default:
 702:Src/register_interface.c ****           {
 703:Src/register_interface.c **** 
 704:Src/register_interface.c ****             retVal = MCP_ERROR_UNKNOWN_REG;
 705:Src/register_interface.c ****             *size= 0 ; /* */
 706:Src/register_interface.c **** 
 707:Src/register_interface.c ****             break;
 708:Src/register_interface.c ****           }
 709:Src/register_interface.c ****         }
 710:Src/register_interface.c ****         break;
 711:Src/register_interface.c **** 
 712:Src/register_interface.c ****       }
 713:Src/register_interface.c ****       case TYPE_DATA_RAW:
 714:Src/register_interface.c ****       {
 715:Src/register_interface.c ****         /* First 2 bytes of the answer is reserved to the size */
 716:Src/register_interface.c ****         uint16_t *rawSize = (uint16_t *)data; //cstat !MISRAC2012-Rule-11.3
 717:Src/register_interface.c ****         uint8_t * rawData = data;
 718:Src/register_interface.c ****         rawData++;
 719:Src/register_interface.c ****         rawData++;
 720:Src/register_interface.c **** 
 721:Src/register_interface.c ****         switch (regID)
 722:Src/register_interface.c ****         {
 723:Src/register_interface.c ****           case MC_REG_GLOBAL_CONFIG:
 724:Src/register_interface.c ****           {
 725:Src/register_interface.c ****             *rawSize = (uint16_t)sizeof(GlobalConfig_reg_t);
 726:Src/register_interface.c ****             if (((*rawSize) + 2U) > (uint16_t)freeSpace)
 727:Src/register_interface.c ****             {
 728:Src/register_interface.c ****               retVal = MCP_ERROR_NO_TXSYNC_SPACE;
 729:Src/register_interface.c ****             }
 730:Src/register_interface.c ****             else
 731:Src/register_interface.c ****             {
 732:Src/register_interface.c ****               (void)memcpy(rawData, &globalConfig_reg, sizeof(GlobalConfig_reg_t));
 733:Src/register_interface.c ****             }
 734:Src/register_interface.c ****             break;
ARM GAS  /tmp/ccAfo4nU.s 			page 18


 735:Src/register_interface.c ****           }
 736:Src/register_interface.c ****           case MC_REG_ASYNC_UARTA:
 737:Src/register_interface.c ****           case MC_REG_ASYNC_UARTB:
 738:Src/register_interface.c ****           case MC_REG_ASYNC_STLNK:
 739:Src/register_interface.c ****           default:
 740:Src/register_interface.c ****           {
 741:Src/register_interface.c ****             retVal = MCP_ERROR_UNKNOWN_REG;
 742:Src/register_interface.c ****             break;
 743:Src/register_interface.c ****           }
 744:Src/register_interface.c ****         }
 745:Src/register_interface.c **** 
 746:Src/register_interface.c ****         /* Size of the answer is size of the data + 2 bytes containing data size */
 747:Src/register_interface.c ****         *size = (*rawSize) + 2U;
 748:Src/register_interface.c ****         break;
 749:Src/register_interface.c ****       }
 750:Src/register_interface.c **** 
 751:Src/register_interface.c ****       default:
 752:Src/register_interface.c ****       {
 753:Src/register_interface.c ****         retVal = MCP_ERROR_BAD_DATA_TYPE;
 754:Src/register_interface.c ****         break;
 755:Src/register_interface.c ****       }
 756:Src/register_interface.c ****     }
 757:Src/register_interface.c ****   return (retVal);
 758:Src/register_interface.c **** }
 759:Src/register_interface.c **** 
 760:Src/register_interface.c ****   uint8_t RI_GetRegisterMotor1(uint16_t regID,uint8_t typeID,uint8_t * data,uint16_t *size,int16_t 
 761:Src/register_interface.c ****     uint8_t retVal = MCP_CMD_OK;
 762:Src/register_interface.c ****     uint8_t motorID=0;
 763:Src/register_interface.c ****     MCI_Handle_t *pMCIN = &Mci[motorID];
 764:Src/register_interface.c ****     BusVoltageSensor_Handle_t* BusVoltageSensor= &BusVoltageSensor_M1._Super;
 765:Src/register_interface.c ****     switch (typeID)
 766:Src/register_interface.c ****     {
 767:Src/register_interface.c ****       case TYPE_DATA_8BIT:
 768:Src/register_interface.c ****       {
 769:Src/register_interface.c ****         if (freeSpace > 0)
 770:Src/register_interface.c ****         {
 771:Src/register_interface.c ****           switch (regID)
 772:Src/register_interface.c ****           {
 773:Src/register_interface.c ****             case MC_REG_STATUS:
 774:Src/register_interface.c ****             {
 775:Src/register_interface.c ****               *data = (uint8_t)MCI_GetSTMState(pMCIN);
 776:Src/register_interface.c ****               break;
 777:Src/register_interface.c ****             }
 778:Src/register_interface.c **** 
 779:Src/register_interface.c ****             case MC_REG_CONTROL_MODE:
 780:Src/register_interface.c ****             {
 781:Src/register_interface.c ****               *data = (uint8_t)MCI_GetControlMode(pMCIN);
 782:Src/register_interface.c ****               break;
 783:Src/register_interface.c ****             }
 784:Src/register_interface.c **** 
 785:Src/register_interface.c ****             case MC_REG_RUC_STAGE_NBR:
 786:Src/register_interface.c ****             {
 787:Src/register_interface.c ****               *data = (uint8_t)RUC_GetNumberOfPhases(&RevUpControlM1);
 788:Src/register_interface.c ****               break;
 789:Src/register_interface.c ****             }
 790:Src/register_interface.c **** 
 791:Src/register_interface.c ****             default:
ARM GAS  /tmp/ccAfo4nU.s 			page 19


 792:Src/register_interface.c ****             {
 793:Src/register_interface.c ****               retVal = MCP_ERROR_UNKNOWN_REG;
 794:Src/register_interface.c ****               break;
 795:Src/register_interface.c ****             }
 796:Src/register_interface.c ****           }
 797:Src/register_interface.c ****           *size = 1;
 798:Src/register_interface.c ****         }
 799:Src/register_interface.c ****         else
 800:Src/register_interface.c ****         {
 801:Src/register_interface.c ****           retVal = MCP_ERROR_NO_TXSYNC_SPACE;
 802:Src/register_interface.c ****         }
 803:Src/register_interface.c ****         break;
 804:Src/register_interface.c ****       }
 805:Src/register_interface.c **** 
 806:Src/register_interface.c ****       case TYPE_DATA_16BIT:
 807:Src/register_interface.c ****       {
 808:Src/register_interface.c ****         uint16_t *regdataU16 = (uint16_t *)data; //cstat !MISRAC2012-Rule-11.3
 809:Src/register_interface.c ****         int16_t *regdata16 = (int16_t *) data; //cstat !MISRAC2012-Rule-11.3
 810:Src/register_interface.c **** 
 811:Src/register_interface.c ****         if (freeSpace >= 2)
 812:Src/register_interface.c ****         {
 813:Src/register_interface.c ****           switch (regID)
 814:Src/register_interface.c ****           {
 815:Src/register_interface.c ****             case MC_REG_SPEED_KP:
 816:Src/register_interface.c ****             {
 817:Src/register_interface.c ****               *regdata16 = PID_GetKP(&PIDSpeedHandle_M1);
 818:Src/register_interface.c ****               break;
 819:Src/register_interface.c ****             }
 820:Src/register_interface.c **** 
 821:Src/register_interface.c ****             case MC_REG_SPEED_KI:
 822:Src/register_interface.c ****             {
 823:Src/register_interface.c ****               *regdata16 = PID_GetKI(&PIDSpeedHandle_M1);
 824:Src/register_interface.c ****               break;
 825:Src/register_interface.c ****             }
 826:Src/register_interface.c **** 
 827:Src/register_interface.c ****             case MC_REG_SPEED_KD:
 828:Src/register_interface.c ****             {
 829:Src/register_interface.c ****               *regdata16 = PID_GetKD(&PIDSpeedHandle_M1);
 830:Src/register_interface.c ****               break;
 831:Src/register_interface.c ****             }
 832:Src/register_interface.c **** 
 833:Src/register_interface.c ****             case MC_REG_I_Q_KP:
 834:Src/register_interface.c ****             {
 835:Src/register_interface.c ****               *regdata16 = PID_GetKP(&PIDIqHandle_M1);
 836:Src/register_interface.c ****               break;
 837:Src/register_interface.c ****             }
 838:Src/register_interface.c **** 
 839:Src/register_interface.c ****             case MC_REG_I_Q_KI:
 840:Src/register_interface.c ****             {
 841:Src/register_interface.c ****               *regdata16 = PID_GetKI(&PIDIqHandle_M1);
 842:Src/register_interface.c ****               break;
 843:Src/register_interface.c ****             }
 844:Src/register_interface.c **** 
 845:Src/register_interface.c ****             case MC_REG_I_Q_KD:
 846:Src/register_interface.c ****             {
 847:Src/register_interface.c ****               *regdata16 = PID_GetKD(&PIDIqHandle_M1);
 848:Src/register_interface.c ****               break;
ARM GAS  /tmp/ccAfo4nU.s 			page 20


 849:Src/register_interface.c ****             }
 850:Src/register_interface.c **** 
 851:Src/register_interface.c ****             case MC_REG_I_D_KP:
 852:Src/register_interface.c ****             {
 853:Src/register_interface.c ****               *regdata16 = PID_GetKP(&PIDIdHandle_M1);
 854:Src/register_interface.c ****               break;
 855:Src/register_interface.c ****             }
 856:Src/register_interface.c **** 
 857:Src/register_interface.c ****             case MC_REG_I_D_KI:
 858:Src/register_interface.c ****             {
 859:Src/register_interface.c ****               *regdata16 = PID_GetKI(&PIDIdHandle_M1);
 860:Src/register_interface.c ****               break;
 861:Src/register_interface.c ****             }
 862:Src/register_interface.c **** 
 863:Src/register_interface.c ****             case MC_REG_I_D_KD:
 864:Src/register_interface.c ****             {
 865:Src/register_interface.c ****               *regdata16 = PID_GetKD(&PIDIdHandle_M1);
 866:Src/register_interface.c ****               break;
 867:Src/register_interface.c ****             }
 868:Src/register_interface.c **** 
 869:Src/register_interface.c ****             case MC_REG_BUS_VOLTAGE:
 870:Src/register_interface.c ****             {
 871:Src/register_interface.c ****               *regdataU16 = VBS_GetAvBusVoltage_V(BusVoltageSensor);
 872:Src/register_interface.c ****               break;
 873:Src/register_interface.c ****             }
 874:Src/register_interface.c **** 
 875:Src/register_interface.c ****             case MC_REG_HEATS_TEMP:
 876:Src/register_interface.c ****             {
 877:Src/register_interface.c ****               *regdata16 = NTC_GetAvTemp_C(&TempSensor_M1);
 878:Src/register_interface.c ****               break;
 879:Src/register_interface.c ****             }
 880:Src/register_interface.c **** 
 881:Src/register_interface.c ****             case MC_REG_I_A:
 882:Src/register_interface.c ****             {
 883:Src/register_interface.c ****               *regdata16 = MCI_GetIab(pMCIN).a;
 884:Src/register_interface.c ****               break;
 885:Src/register_interface.c ****             }
 886:Src/register_interface.c **** 
 887:Src/register_interface.c ****             case MC_REG_I_B:
 888:Src/register_interface.c ****             {
 889:Src/register_interface.c ****               *regdata16 = MCI_GetIab(pMCIN).b;
 890:Src/register_interface.c ****               break;
 891:Src/register_interface.c ****             }
 892:Src/register_interface.c **** 
 893:Src/register_interface.c ****             case MC_REG_I_ALPHA_MEAS:
 894:Src/register_interface.c ****             {
 895:Src/register_interface.c ****               *regdata16 = MCI_GetIalphabeta(pMCIN).alpha;
 896:Src/register_interface.c ****               break;
 897:Src/register_interface.c ****             }
 898:Src/register_interface.c **** 
 899:Src/register_interface.c ****             case MC_REG_I_BETA_MEAS:
 900:Src/register_interface.c ****             {
 901:Src/register_interface.c ****               *regdata16 = MCI_GetIalphabeta(pMCIN).beta;
 902:Src/register_interface.c ****               break;
 903:Src/register_interface.c ****             }
 904:Src/register_interface.c **** 
 905:Src/register_interface.c ****             case MC_REG_I_Q_MEAS:
ARM GAS  /tmp/ccAfo4nU.s 			page 21


 906:Src/register_interface.c ****             {
 907:Src/register_interface.c ****               *regdata16 = MCI_GetIqd(pMCIN).q;
 908:Src/register_interface.c ****               break;
 909:Src/register_interface.c ****             }
 910:Src/register_interface.c **** 
 911:Src/register_interface.c ****             case MC_REG_I_D_MEAS:
 912:Src/register_interface.c ****             {
 913:Src/register_interface.c ****               *regdata16 = MCI_GetIqd(pMCIN).d;
 914:Src/register_interface.c ****               break;
 915:Src/register_interface.c ****             }
 916:Src/register_interface.c **** 
 917:Src/register_interface.c ****             case MC_REG_I_Q_REF:
 918:Src/register_interface.c ****             {
 919:Src/register_interface.c ****               *regdata16 = MCI_GetIqdref(pMCIN).q;
 920:Src/register_interface.c ****               break;
 921:Src/register_interface.c ****             }
 922:Src/register_interface.c **** 
 923:Src/register_interface.c ****             case MC_REG_I_D_REF:
 924:Src/register_interface.c ****             {
 925:Src/register_interface.c ****               *regdata16 = MCI_GetIqdref(pMCIN).d;
 926:Src/register_interface.c ****               break;
 927:Src/register_interface.c ****             }
 928:Src/register_interface.c **** 
 929:Src/register_interface.c ****             case MC_REG_V_Q:
 930:Src/register_interface.c ****             {
 931:Src/register_interface.c ****               *regdata16 = MCI_GetVqd(pMCIN).q;
 932:Src/register_interface.c ****               break;
 933:Src/register_interface.c ****             }
 934:Src/register_interface.c **** 
 935:Src/register_interface.c ****             case MC_REG_V_D:
 936:Src/register_interface.c ****             {
 937:Src/register_interface.c ****               *regdata16 = MCI_GetVqd(pMCIN).d;
 938:Src/register_interface.c ****               break;
 939:Src/register_interface.c ****             }
 940:Src/register_interface.c **** 
 941:Src/register_interface.c ****             case MC_REG_V_ALPHA:
 942:Src/register_interface.c ****             {
 943:Src/register_interface.c ****               *regdata16 = MCI_GetValphabeta(pMCIN).alpha;
 944:Src/register_interface.c ****               break;
 945:Src/register_interface.c ****             }
 946:Src/register_interface.c **** 
 947:Src/register_interface.c ****             case MC_REG_V_BETA:
 948:Src/register_interface.c ****             {
 949:Src/register_interface.c ****               *regdata16 = MCI_GetValphabeta(pMCIN).beta;
 950:Src/register_interface.c ****               break;
 951:Src/register_interface.c ****             }
 952:Src/register_interface.c **** 
 953:Src/register_interface.c ****             case MC_REG_STOPLL_EL_ANGLE:
 954:Src/register_interface.c ****             {
 955:Src/register_interface.c ****               //cstat !MISRAC2012-Rule-11.3
 956:Src/register_interface.c ****               *regdata16 = SPD_GetElAngle((SpeednPosFdbk_Handle_t *)&STO_PLL_M1);
 957:Src/register_interface.c ****               break;
 958:Src/register_interface.c ****             }
 959:Src/register_interface.c **** 
 960:Src/register_interface.c ****             case MC_REG_STOPLL_ROT_SPEED:
 961:Src/register_interface.c ****             {
 962:Src/register_interface.c ****               //cstat !MISRAC2012-Rule-11.3
ARM GAS  /tmp/ccAfo4nU.s 			page 22


 963:Src/register_interface.c ****               *regdata16 = SPD_GetS16Speed((SpeednPosFdbk_Handle_t *)&STO_PLL_M1);
 964:Src/register_interface.c ****               break;
 965:Src/register_interface.c ****             }
 966:Src/register_interface.c **** 
 967:Src/register_interface.c ****             case MC_REG_STOPLL_I_ALPHA:
 968:Src/register_interface.c ****             {
 969:Src/register_interface.c ****               *regdata16 = STO_PLL_GetEstimatedCurrent(&STO_PLL_M1).alpha;
 970:Src/register_interface.c ****               break;
 971:Src/register_interface.c ****             }
 972:Src/register_interface.c **** 
 973:Src/register_interface.c ****             case MC_REG_STOPLL_I_BETA:
 974:Src/register_interface.c ****             {
 975:Src/register_interface.c ****               *regdata16 = STO_PLL_GetEstimatedCurrent(&STO_PLL_M1).beta;
 976:Src/register_interface.c ****               break;
 977:Src/register_interface.c ****             }
 978:Src/register_interface.c **** 
 979:Src/register_interface.c ****             case MC_REG_STOPLL_BEMF_ALPHA:
 980:Src/register_interface.c ****             {
 981:Src/register_interface.c ****               *regdata16 = STO_PLL_GetEstimatedBemf(&STO_PLL_M1).alpha;
 982:Src/register_interface.c ****               break;
 983:Src/register_interface.c ****             }
 984:Src/register_interface.c **** 
 985:Src/register_interface.c ****             case MC_REG_STOPLL_BEMF_BETA:
 986:Src/register_interface.c ****             {
 987:Src/register_interface.c ****               *regdata16 = STO_PLL_GetEstimatedBemf(&STO_PLL_M1).beta;
 988:Src/register_interface.c ****               break;
 989:Src/register_interface.c ****             }
 990:Src/register_interface.c **** 
 991:Src/register_interface.c ****             case MC_REG_STOPLL_C1:
 992:Src/register_interface.c ****             {
 993:Src/register_interface.c ****               int16_t hC1;
 994:Src/register_interface.c ****               int16_t hC2;
 995:Src/register_interface.c ****               STO_PLL_GetObserverGains(&STO_PLL_M1, &hC1, &hC2);
 996:Src/register_interface.c ****               *regdata16 = hC1;
 997:Src/register_interface.c ****               break;
 998:Src/register_interface.c ****             }
 999:Src/register_interface.c **** 
1000:Src/register_interface.c ****             case MC_REG_STOPLL_C2:
1001:Src/register_interface.c ****             {
1002:Src/register_interface.c ****               int16_t hC1;
1003:Src/register_interface.c ****               int16_t hC2;
1004:Src/register_interface.c ****               STO_PLL_GetObserverGains(&STO_PLL_M1, &hC1, &hC2);
1005:Src/register_interface.c ****               *regdata16 = hC2;
1006:Src/register_interface.c ****               break;
1007:Src/register_interface.c ****             }
1008:Src/register_interface.c **** 
1009:Src/register_interface.c ****             case MC_REG_STOPLL_KI:
1010:Src/register_interface.c ****             {
1011:Src/register_interface.c ****               *regdata16 = PID_GetKI (&(&STO_PLL_M1)->PIRegulator);
1012:Src/register_interface.c ****               break;
1013:Src/register_interface.c ****             }
1014:Src/register_interface.c **** 
1015:Src/register_interface.c ****             case MC_REG_STOPLL_KP:
1016:Src/register_interface.c ****             {
1017:Src/register_interface.c ****               *regdata16 = PID_GetKP (&(&STO_PLL_M1)->PIRegulator);
1018:Src/register_interface.c ****               break;
1019:Src/register_interface.c ****             }
ARM GAS  /tmp/ccAfo4nU.s 			page 23


1020:Src/register_interface.c **** 
1021:Src/register_interface.c ****             case MC_REG_DAC_USER1:
1022:Src/register_interface.c ****             case MC_REG_DAC_USER2:
1023:Src/register_interface.c ****               break;
1024:Src/register_interface.c **** 
1025:Src/register_interface.c ****             case MC_REG_SPEED_KP_DIV:
1026:Src/register_interface.c ****             {
1027:Src/register_interface.c ****               *regdataU16 = (uint16_t)PID_GetKPDivisorPOW2(&PIDSpeedHandle_M1);
1028:Src/register_interface.c ****               break;
1029:Src/register_interface.c ****             }
1030:Src/register_interface.c **** 
1031:Src/register_interface.c ****             case MC_REG_SPEED_KI_DIV:
1032:Src/register_interface.c ****             {
1033:Src/register_interface.c ****               *regdataU16 = (uint16_t)PID_GetKIDivisorPOW2(&PIDSpeedHandle_M1);
1034:Src/register_interface.c ****               break;
1035:Src/register_interface.c ****             }
1036:Src/register_interface.c **** 
1037:Src/register_interface.c ****             case MC_REG_SPEED_KD_DIV:
1038:Src/register_interface.c ****             {
1039:Src/register_interface.c ****               *regdataU16 = PID_GetKDDivisorPOW2(&PIDSpeedHandle_M1);
1040:Src/register_interface.c ****               break;
1041:Src/register_interface.c ****             }
1042:Src/register_interface.c ****             case MC_REG_I_D_KP_DIV:
1043:Src/register_interface.c ****             {
1044:Src/register_interface.c ****               *regdataU16 = PID_GetKPDivisorPOW2(&PIDIdHandle_M1);
1045:Src/register_interface.c ****               break;
1046:Src/register_interface.c ****             }
1047:Src/register_interface.c **** 
1048:Src/register_interface.c ****             case MC_REG_I_D_KI_DIV:
1049:Src/register_interface.c ****             {
1050:Src/register_interface.c ****               *regdataU16 = PID_GetKIDivisorPOW2(&PIDIdHandle_M1);
1051:Src/register_interface.c ****               break;
1052:Src/register_interface.c ****             }
1053:Src/register_interface.c **** 
1054:Src/register_interface.c ****             case MC_REG_I_D_KD_DIV:
1055:Src/register_interface.c ****             {
1056:Src/register_interface.c ****               *regdataU16 = PID_GetKDDivisorPOW2(&PIDIdHandle_M1);
1057:Src/register_interface.c ****               break;
1058:Src/register_interface.c ****             }
1059:Src/register_interface.c **** 
1060:Src/register_interface.c ****             case MC_REG_I_Q_KP_DIV:
1061:Src/register_interface.c ****             {
1062:Src/register_interface.c ****               *regdataU16 = PID_GetKPDivisorPOW2(&PIDIqHandle_M1);
1063:Src/register_interface.c ****               break;
1064:Src/register_interface.c ****             }
1065:Src/register_interface.c **** 
1066:Src/register_interface.c ****             case MC_REG_I_Q_KI_DIV:
1067:Src/register_interface.c ****             {
1068:Src/register_interface.c ****               *regdataU16 = PID_GetKIDivisorPOW2(&PIDIqHandle_M1);
1069:Src/register_interface.c ****               break;
1070:Src/register_interface.c ****             }
1071:Src/register_interface.c **** 
1072:Src/register_interface.c ****             case MC_REG_I_Q_KD_DIV:
1073:Src/register_interface.c ****             {
1074:Src/register_interface.c ****               *regdataU16 = PID_GetKDDivisorPOW2(&PIDIqHandle_M1);
1075:Src/register_interface.c ****               break;
1076:Src/register_interface.c ****             }
ARM GAS  /tmp/ccAfo4nU.s 			page 24


1077:Src/register_interface.c **** 
1078:Src/register_interface.c ****             case MC_REG_STOPLL_KI_DIV:
1079:Src/register_interface.c ****             {
1080:Src/register_interface.c ****               *regdataU16 = PID_GetKIDivisorPOW2(&(&STO_PLL_M1)->PIRegulator);
1081:Src/register_interface.c ****               break;
1082:Src/register_interface.c ****             }
1083:Src/register_interface.c **** 
1084:Src/register_interface.c ****             case MC_REG_STOPLL_KP_DIV:
1085:Src/register_interface.c ****             {
1086:Src/register_interface.c ****               *regdataU16 = PID_GetKPDivisorPOW2(&(&STO_PLL_M1)->PIRegulator);
1087:Src/register_interface.c ****               break;
1088:Src/register_interface.c ****             }
1089:Src/register_interface.c **** 
1090:Src/register_interface.c ****             default:
1091:Src/register_interface.c ****             {
1092:Src/register_interface.c ****               retVal = MCP_ERROR_UNKNOWN_REG;
1093:Src/register_interface.c ****               break;
1094:Src/register_interface.c ****             }
1095:Src/register_interface.c ****           }
1096:Src/register_interface.c ****           *size = 2;
1097:Src/register_interface.c ****         }
1098:Src/register_interface.c ****         else
1099:Src/register_interface.c ****         {
1100:Src/register_interface.c ****           retVal = MCP_ERROR_NO_TXSYNC_SPACE;
1101:Src/register_interface.c ****         }
1102:Src/register_interface.c ****         break;
1103:Src/register_interface.c ****       }
1104:Src/register_interface.c **** 
1105:Src/register_interface.c ****       case TYPE_DATA_32BIT:
1106:Src/register_interface.c ****       {
1107:Src/register_interface.c ****         uint32_t *regdataU32 = (uint32_t *)data; //cstat !MISRAC2012-Rule-11.3
1108:Src/register_interface.c ****         int32_t *regdata32 = (int32_t *)data; //cstat !MISRAC2012-Rule-11.3
1109:Src/register_interface.c **** 
1110:Src/register_interface.c ****         if (freeSpace >= 4)
1111:Src/register_interface.c ****         {
1112:Src/register_interface.c ****           switch (regID)
1113:Src/register_interface.c ****           {
1114:Src/register_interface.c ****             case MC_REG_FAULTS_FLAGS:
1115:Src/register_interface.c ****             {
1116:Src/register_interface.c ****               *regdataU32 = MCI_GetFaultState(pMCIN);
1117:Src/register_interface.c ****               break;
1118:Src/register_interface.c ****             }
1119:Src/register_interface.c ****             case MC_REG_SPEED_MEAS:
1120:Src/register_interface.c ****             {
1121:Src/register_interface.c ****               *regdata32 = (((int32_t)MCI_GetAvrgMecSpeedUnit(pMCIN) * U_RPM) / SPEED_UNIT);
1122:Src/register_interface.c ****               break;
1123:Src/register_interface.c ****             }
1124:Src/register_interface.c **** 
1125:Src/register_interface.c ****             case MC_REG_SPEED_REF:
1126:Src/register_interface.c ****             {
1127:Src/register_interface.c ****               *regdata32 = (((int32_t)MCI_GetMecSpeedRefUnit(pMCIN) * U_RPM) / SPEED_UNIT);
1128:Src/register_interface.c ****               break;
1129:Src/register_interface.c ****             }
1130:Src/register_interface.c **** 
1131:Src/register_interface.c ****             case MC_REG_STOPLL_EST_BEMF:
1132:Src/register_interface.c ****             {
1133:Src/register_interface.c ****               *regdata32 = STO_PLL_GetEstimatedBemfLevel(&STO_PLL_M1);
ARM GAS  /tmp/ccAfo4nU.s 			page 25


1134:Src/register_interface.c ****               break;
1135:Src/register_interface.c ****             }
1136:Src/register_interface.c **** 
1137:Src/register_interface.c ****             case MC_REG_STOPLL_OBS_BEMF:
1138:Src/register_interface.c ****             {
1139:Src/register_interface.c ****               *regdata32 = STO_PLL_GetObservedBemfLevel(&STO_PLL_M1);
1140:Src/register_interface.c ****               break;
1141:Src/register_interface.c ****             }
1142:Src/register_interface.c **** 
1143:Src/register_interface.c ****             case MC_REG_MOTOR_POWER:
1144:Src/register_interface.c ****             {
1145:Src/register_interface.c ****               FloatToU32 ReadVal; //cstat !MISRAC2012-Rule-19.2
1146:Src/register_interface.c ****               ReadVal.Float_Val = PQD_GetAvrgElMotorPowerW(pMPM[M1]);
1147:Src/register_interface.c ****               *regdataU32 = ReadVal.U32_Val; //cstat !UNION-type-punning
1148:Src/register_interface.c ****               break;
1149:Src/register_interface.c ****             }
1150:Src/register_interface.c **** 
1151:Src/register_interface.c ****             default:
1152:Src/register_interface.c ****             {
1153:Src/register_interface.c ****               retVal = MCP_ERROR_UNKNOWN_REG;
1154:Src/register_interface.c ****               break;
1155:Src/register_interface.c ****             }
1156:Src/register_interface.c ****           }
1157:Src/register_interface.c ****           *size = 4;
1158:Src/register_interface.c ****         }
1159:Src/register_interface.c ****         else
1160:Src/register_interface.c ****         {
1161:Src/register_interface.c ****           retVal = MCP_ERROR_NO_TXSYNC_SPACE;
1162:Src/register_interface.c ****         }
1163:Src/register_interface.c ****         break;
1164:Src/register_interface.c ****       }
1165:Src/register_interface.c **** 
1166:Src/register_interface.c ****       case TYPE_DATA_STRING:
1167:Src/register_interface.c ****       {
1168:Src/register_interface.c ****         char_t *charData = (char_t *)data;
1169:Src/register_interface.c ****         switch (regID)
1170:Src/register_interface.c ****         {
1171:Src/register_interface.c ****           case MC_REG_PWR_STAGE_NAME:
1172:Src/register_interface.c ****           {
1173:Src/register_interface.c ****             retVal = RI_MovString (PWR_BOARD_NAME[motorID], charData, size, freeSpace);
1174:Src/register_interface.c ****             break;
1175:Src/register_interface.c ****           }
1176:Src/register_interface.c **** 
1177:Src/register_interface.c ****           case MC_REG_MOTOR_NAME:
1178:Src/register_interface.c ****           {
1179:Src/register_interface.c ****             retVal = RI_MovString (MotorConfig_reg[motorID]->name ,charData, size, freeSpace);
1180:Src/register_interface.c ****             break;
1181:Src/register_interface.c ****           }
1182:Src/register_interface.c **** 
1183:Src/register_interface.c ****           default:
1184:Src/register_interface.c ****           {
1185:Src/register_interface.c ****             retVal = MCP_ERROR_UNKNOWN_REG;
1186:Src/register_interface.c ****             *size= 0 ; /* */
1187:Src/register_interface.c ****             break;
1188:Src/register_interface.c ****           }
1189:Src/register_interface.c ****         }
1190:Src/register_interface.c ****         break;
ARM GAS  /tmp/ccAfo4nU.s 			page 26


1191:Src/register_interface.c ****       }
1192:Src/register_interface.c **** 
1193:Src/register_interface.c ****       case TYPE_DATA_RAW:
1194:Src/register_interface.c ****       {
1195:Src/register_interface.c ****         /* First 2 bytes of the answer is reserved to the size */
1196:Src/register_interface.c ****         uint16_t *rawSize = (uint16_t *)data; //cstat !MISRAC2012-Rule-11.3
1197:Src/register_interface.c ****         uint8_t * rawData = data;
1198:Src/register_interface.c ****         rawData++;
1199:Src/register_interface.c ****         rawData++;
1200:Src/register_interface.c **** 
1201:Src/register_interface.c ****         switch (regID)
1202:Src/register_interface.c ****         {
1203:Src/register_interface.c ****           case MC_REG_APPLICATION_CONFIG:
1204:Src/register_interface.c ****           {
1205:Src/register_interface.c ****             *rawSize = (uint16_t)sizeof(ApplicationConfig_reg_t);
1206:Src/register_interface.c ****             if (((*rawSize) + 2U) > (uint16_t)freeSpace)
1207:Src/register_interface.c ****             {
1208:Src/register_interface.c ****               retVal = MCP_ERROR_NO_TXSYNC_SPACE;
1209:Src/register_interface.c ****             }
1210:Src/register_interface.c ****             else
1211:Src/register_interface.c ****             {
1212:Src/register_interface.c ****               ApplicationConfig_reg_t const *pApplicationConfig_reg = ApplicationConfig_reg[motorID
1213:Src/register_interface.c ****               (void)memcpy(rawData, (const uint8_t *)pApplicationConfig_reg, sizeof(ApplicationConf
1214:Src/register_interface.c ****             }
1215:Src/register_interface.c ****             break;
1216:Src/register_interface.c ****           }
1217:Src/register_interface.c **** 
1218:Src/register_interface.c ****           case MC_REG_MOTOR_CONFIG:
1219:Src/register_interface.c ****           {
1220:Src/register_interface.c ****             *rawSize = (uint16_t)sizeof(MotorConfig_reg_t);
1221:Src/register_interface.c ****             if (((*rawSize) + 2U) > (uint16_t)freeSpace)
1222:Src/register_interface.c ****             {
1223:Src/register_interface.c ****               retVal = MCP_ERROR_NO_TXSYNC_SPACE;
1224:Src/register_interface.c ****             }
1225:Src/register_interface.c ****             else
1226:Src/register_interface.c ****             {
1227:Src/register_interface.c ****               MotorConfig_reg_t const *pMotorConfig_reg = MotorConfig_reg[motorID];
1228:Src/register_interface.c ****               (void)memcpy(rawData, (const uint8_t *)pMotorConfig_reg, sizeof(MotorConfig_reg_t));
1229:Src/register_interface.c ****             }
1230:Src/register_interface.c ****             break;
1231:Src/register_interface.c ****           }
1232:Src/register_interface.c **** 
1233:Src/register_interface.c ****           case MC_REG_FOCFW_CONFIG:
1234:Src/register_interface.c ****           {
1235:Src/register_interface.c ****             *rawSize = (uint16_t)sizeof(FOCFwConfig_reg_t);
1236:Src/register_interface.c ****             if (((*rawSize) + 2U) > (uint16_t)freeSpace)
1237:Src/register_interface.c ****             {
1238:Src/register_interface.c ****               retVal = MCP_ERROR_NO_TXSYNC_SPACE;
1239:Src/register_interface.c ****             }
1240:Src/register_interface.c ****             else
1241:Src/register_interface.c ****             {
1242:Src/register_interface.c ****               FOCFwConfig_reg_t const *pFOCConfig_reg = FOCConfig_reg[motorID];
1243:Src/register_interface.c ****               (void)memcpy(rawData, (const uint8_t *)pFOCConfig_reg, sizeof(FOCFwConfig_reg_t));
1244:Src/register_interface.c ****             }
1245:Src/register_interface.c **** 
1246:Src/register_interface.c ****             break;
1247:Src/register_interface.c ****           }
ARM GAS  /tmp/ccAfo4nU.s 			page 27


1248:Src/register_interface.c ****           case MC_REG_SCALE_CONFIG:
1249:Src/register_interface.c ****           {
1250:Src/register_interface.c ****             *rawSize = 12;
1251:Src/register_interface.c ****             if ((*rawSize) +2U > (uint16_t)freeSpace)
1252:Src/register_interface.c ****             {
1253:Src/register_interface.c ****               retVal = MCP_ERROR_NO_TXSYNC_SPACE;
1254:Src/register_interface.c ****             }
1255:Src/register_interface.c ****             else
1256:Src/register_interface.c ****             {
1257:Src/register_interface.c ****               memcpy(rawData, &scaleParams_M1, sizeof(ScaleParams_t) );
1258:Src/register_interface.c ****             }
1259:Src/register_interface.c ****             break;
1260:Src/register_interface.c ****           }
1261:Src/register_interface.c ****           case MC_REG_SPEED_RAMP:
1262:Src/register_interface.c ****           {
1263:Src/register_interface.c ****             int32_t *rpm = (int32_t *)rawData; //cstat !MISRAC2012-Rule-11.3
1264:Src/register_interface.c ****             uint16_t *duration = (uint16_t *)&rawData[4]; //cstat !MISRAC2012-Rule-11.3
1265:Src/register_interface.c ****             *rpm = (((int32_t)MCI_GetLastRampFinalSpeed(pMCIN) * U_RPM) / (int32_t)SPEED_UNIT);
1266:Src/register_interface.c ****             *duration = MCI_GetLastRampFinalDuration(pMCIN);
1267:Src/register_interface.c ****             *rawSize = 6;
1268:Src/register_interface.c ****             break;
1269:Src/register_interface.c ****           }
1270:Src/register_interface.c **** 
1271:Src/register_interface.c ****           case MC_REG_TORQUE_RAMP:
1272:Src/register_interface.c ****           {
1273:Src/register_interface.c ****             int16_t *torque = (int16_t *)rawData; //cstat !MISRAC2012-Rule-11.3
1274:Src/register_interface.c ****             uint16_t *duration = (uint16_t *)&rawData[2]; //cstat !MISRAC2012-Rule-11.3
1275:Src/register_interface.c **** 
1276:Src/register_interface.c ****             *rawSize = 4;
1277:Src/register_interface.c ****             *torque = MCI_GetLastRampFinalTorque(pMCIN);
1278:Src/register_interface.c ****             *duration = MCI_GetLastRampFinalDuration(pMCIN) ;
1279:Src/register_interface.c ****             break;
1280:Src/register_interface.c ****           }
1281:Src/register_interface.c **** 
1282:Src/register_interface.c ****           case MC_REG_REVUP_DATA:
1283:Src/register_interface.c ****           {
1284:Src/register_interface.c ****             int32_t *rpm;
1285:Src/register_interface.c ****             uint16_t *finalTorque;
1286:Src/register_interface.c ****             uint16_t *durationms;
1287:Src/register_interface.c ****             RevUpCtrl_PhaseParams_t revUpPhase;
1288:Src/register_interface.c ****             uint8_t i;
1289:Src/register_interface.c **** 
1290:Src/register_interface.c ****             *rawSize = (uint16_t)RUC_MAX_PHASE_NUMBER*8U;
1291:Src/register_interface.c ****             if (((*rawSize) + 2U) > (uint16_t)freeSpace)
1292:Src/register_interface.c ****             {
1293:Src/register_interface.c ****               retVal = MCP_ERROR_NO_TXSYNC_SPACE;
1294:Src/register_interface.c ****             }
1295:Src/register_interface.c ****             else
1296:Src/register_interface.c ****             {
1297:Src/register_interface.c ****               for (i = 0; i <RUC_MAX_PHASE_NUMBER; i++)
1298:Src/register_interface.c ****               {
1299:Src/register_interface.c ****                 (void)RUC_GetPhase( &RevUpControlM1 ,i, &revUpPhase);
1300:Src/register_interface.c ****                 rpm = (int32_t *)&data[2U + (i * 8U)];  //cstat !MISRAC2012-Rule-11.3
1301:Src/register_interface.c ****                 *rpm = (((int32_t)revUpPhase.hFinalMecSpeedUnit) * U_RPM) / SPEED_UNIT; //cstat !MI
1302:Src/register_interface.c ****                 finalTorque = (uint16_t *)&data[6U + (i * 8U)]; //cstat !MISRAC2012-Rule-11.3
1303:Src/register_interface.c ****                 *finalTorque = (uint16_t)revUpPhase.hFinalTorque; //cstat !MISRAC2012-Rule-11.3
1304:Src/register_interface.c ****                 durationms  = (uint16_t *)&data[8U + (i * 8U)]; //cstat !MISRAC2012-Rule-11.3
ARM GAS  /tmp/ccAfo4nU.s 			page 28


1305:Src/register_interface.c ****                 *durationms  = revUpPhase.hDurationms;
1306:Src/register_interface.c ****               }
1307:Src/register_interface.c ****             }
1308:Src/register_interface.c ****             break;
1309:Src/register_interface.c ****           }
1310:Src/register_interface.c **** 
1311:Src/register_interface.c ****           case MC_REG_CURRENT_REF:
1312:Src/register_interface.c ****           {
1313:Src/register_interface.c ****             uint16_t *iqref = (uint16_t *)rawData; //cstat !MISRAC2012-Rule-11.3
1314:Src/register_interface.c ****             uint16_t *idref = (uint16_t *)&rawData[2]; //cstat !MISRAC2012-Rule-11.3
1315:Src/register_interface.c **** 
1316:Src/register_interface.c ****             *rawSize = 4;
1317:Src/register_interface.c ****             *iqref = (uint16_t)MCI_GetIqdref(pMCIN).q;
1318:Src/register_interface.c ****             *idref = (uint16_t)MCI_GetIqdref(pMCIN).d;
1319:Src/register_interface.c ****             break;
1320:Src/register_interface.c ****           }
1321:Src/register_interface.c **** 
1322:Src/register_interface.c ****           case MC_REG_ASYNC_UARTA:
1323:Src/register_interface.c ****           case MC_REG_ASYNC_UARTB:
1324:Src/register_interface.c ****           case MC_REG_ASYNC_STLNK:
1325:Src/register_interface.c ****           default:
1326:Src/register_interface.c ****           {
1327:Src/register_interface.c ****             retVal = MCP_ERROR_UNKNOWN_REG;
1328:Src/register_interface.c ****             break;
1329:Src/register_interface.c ****           }
1330:Src/register_interface.c ****         }
1331:Src/register_interface.c **** 
1332:Src/register_interface.c ****         /* Size of the answer is size of the data + 2 bytes containing data size */
1333:Src/register_interface.c ****         *size = (*rawSize) + 2U;
1334:Src/register_interface.c ****         break;
1335:Src/register_interface.c ****       }
1336:Src/register_interface.c **** 
1337:Src/register_interface.c ****       default:
1338:Src/register_interface.c ****       {
1339:Src/register_interface.c ****         retVal = MCP_ERROR_BAD_DATA_TYPE;
1340:Src/register_interface.c ****         break;
1341:Src/register_interface.c ****       }
1342:Src/register_interface.c ****     }
1343:Src/register_interface.c ****     return (retVal);
1344:Src/register_interface.c ****   }
1345:Src/register_interface.c **** 
1346:Src/register_interface.c **** uint8_t RI_MovString(const char_t *srcString, char_t *destString, uint16_t *size, int16_t maxSize)
 211              		.loc 1 1346 9 view .LVU48
 212              	.LBB60:
1347:Src/register_interface.c **** {
1348:Src/register_interface.c ****   uint8_t retVal = MCP_CMD_OK;
 213              		.loc 1 1348 3 view .LVU49
1349:Src/register_interface.c ****   const char_t *tempsrcString = srcString;
 214              		.loc 1 1349 3 view .LVU50
1350:Src/register_interface.c ****   char_t *tempdestString = destString;
 215              		.loc 1 1350 3 view .LVU51
1351:Src/register_interface.c ****   *size= 1U ; /* /0 is the min String size */
 216              		.loc 1 1351 3 view .LVU52
 217              		.loc 1 1351 8 is_stmt 0 view .LVU53
 218 007a 0121     		movs	r1, #1
 219 007c 1980     		strh	r1, [r3]	@ movhi
1352:Src/register_interface.c **** 
ARM GAS  /tmp/ccAfo4nU.s 			page 29


1353:Src/register_interface.c ****   while ((*tempsrcString != (char_t)0) && (*size < (uint16_t)maxSize))
 220              		.loc 1 1353 3 is_stmt 1 view .LVU54
 221              		.loc 1 1353 9 is_stmt 0 view .LVU55
 222 007e 92F90010 		ldrsb	r1, [r2]
 223 0082 A1B1     		cbz	r1, .L14
 224              		.loc 1 1353 50 view .LVU56
 225 0084 A4B2     		uxth	r4, r4
 226              		.loc 1 1353 40 view .LVU57
 227 0086 012C     		cmp	r4, #1
 228 0088 13D9     		bls	.L40
 229 008a 023C     		subs	r4, r4, #2
 230              	.LVL19:
 231              		.loc 1 1353 40 view .LVU58
 232 008c 901C     		adds	r0, r2, #2
 233              	.LVL20:
 234              		.loc 1 1353 40 view .LVU59
 235 008e 511C     		adds	r1, r2, #1
 236 0090 10FA84F0 		uxtah	r0, r0, r4
 237 0094 C1F10205 		rsb	r5, r1, #2
 238 0098 01E0     		b	.L16
 239              	.LVL21:
 240              	.L44:
 241              		.loc 1 1353 40 view .LVU60
 242 009a 8142     		cmp	r1, r0
 243 009c 09D0     		beq	.L40
 244              	.L16:
 245              	.LVL22:
1354:Src/register_interface.c ****   {
1355:Src/register_interface.c ****     *tempdestString = *tempsrcString;
 246              		.loc 1 1355 5 is_stmt 1 view .LVU61
1356:Src/register_interface.c ****     tempdestString++;
 247              		.loc 1 1356 5 view .LVU62
1357:Src/register_interface.c ****     tempsrcString++;
1358:Src/register_interface.c ****     *size = *size + 1U;
 248              		.loc 1 1358 11 is_stmt 0 view .LVU63
 249 009e 6C18     		adds	r4, r5, r1
 250 00a0 1C80     		strh	r4, [r3]	@ movhi
1353:Src/register_interface.c ****   {
 251              		.loc 1 1353 9 view .LVU64
 252 00a2 91F90040 		ldrsb	r4, [r1]
1356:Src/register_interface.c ****     tempdestString++;
 253              		.loc 1 1356 19 view .LVU65
 254 00a6 0A46     		mov	r2, r1
 255              	.LVL23:
1357:Src/register_interface.c ****     tempsrcString++;
 256              		.loc 1 1357 5 is_stmt 1 view .LVU66
 257              		.loc 1 1358 5 view .LVU67
 258              		.loc 1 1358 5 is_stmt 0 view .LVU68
 259 00a8 0131     		adds	r1, r1, #1
 260              	.LVL24:
1353:Src/register_interface.c ****   {
 261              		.loc 1 1353 9 view .LVU69
 262 00aa 002C     		cmp	r4, #0
 263 00ac F5D1     		bne	.L44
 264              	.L14:
1359:Src/register_interface.c ****   }
1360:Src/register_interface.c **** 
ARM GAS  /tmp/ccAfo4nU.s 			page 30


1361:Src/register_interface.c ****   if (*tempsrcString != (char_t)0)
 265              		.loc 1 1361 3 is_stmt 1 view .LVU70
1362:Src/register_interface.c ****   { /* Last string char must be 0 */
1363:Src/register_interface.c ****     retVal = MCP_ERROR_STRING_FORMAT;
1364:Src/register_interface.c ****   }
1365:Src/register_interface.c ****   else
1366:Src/register_interface.c ****   {
1367:Src/register_interface.c ****     *tempdestString = (int8_t)0;
 266              		.loc 1 1367 5 view .LVU71
 267              		.loc 1 1367 21 is_stmt 0 view .LVU72
 268 00ae 0023     		movs	r3, #0
 269              	.LVL25:
 270              		.loc 1 1367 21 view .LVU73
 271 00b0 1370     		strb	r3, [r2]
 272              	.LVL26:
 273              	.L40:
 274              		.loc 1 1367 21 view .LVU74
 275              	.LBE60:
 276              	.LBE59:
 109:Src/register_interface.c ****       /* Used to compute String length stored in RXBUFF even if Reg does not exist */
 277              		.loc 1 109 14 view .LVU75
 278 00b2 0420     		movs	r0, #4
 279              	.LVL27:
 109:Src/register_interface.c ****       /* Used to compute String length stored in RXBUFF even if Reg does not exist */
 280              		.loc 1 109 14 view .LVU76
 281              	.LBE58:
 163:Src/register_interface.c **** }
 282              		.loc 1 163 3 is_stmt 1 view .LVU77
 164:Src/register_interface.c **** 
 283              		.loc 1 164 1 is_stmt 0 view .LVU78
 284 00b4 30BC     		pop	{r4, r5}
 285              	.LCFI7:
 286              		.cfi_remember_state
 287              		.cfi_restore 5
 288              		.cfi_restore 4
 289              		.cfi_def_cfa_offset 0
 290              	.LVL28:
 164:Src/register_interface.c **** 
 291              		.loc 1 164 1 view .LVU79
 292 00b6 7047     		bx	lr
 293              	.LVL29:
 294              	.L7:
 295              	.LCFI8:
 296              		.cfi_restore_state
  59:Src/register_interface.c ****       {
 297              		.loc 1 59 7 is_stmt 1 view .LVU80
 298 00b8 B0F5656F 		cmp	r0, #3664
 299 00bc 21D0     		beq	.L24
 300 00be 11D9     		bls	.L45
 301 00c0 B0F5696F 		cmp	r0, #3728
 302 00c4 1DD0     		beq	.L24
 303 00c6 41F65832 		movw	r2, #7000
 304              	.LVL30:
  76:Src/register_interface.c ****           break;
 305              		.loc 1 76 18 is_stmt 0 view .LVU81
 306 00ca 9042     		cmp	r0, r2
 307 00cc 0CBF     		ite	eq
ARM GAS  /tmp/ccAfo4nU.s 			page 31


 308 00ce 0420     		moveq	r0, #4
 309 00d0 0520     		movne	r0, #5
 310              	.LVL31:
 311              	.L11:
  80:Src/register_interface.c ****       break;
 312              		.loc 1 80 7 is_stmt 1 view .LVU82
  80:Src/register_interface.c ****       break;
 313              		.loc 1 80 13 is_stmt 0 view .LVU83
 314 00d2 0222     		movs	r2, #2
 315 00d4 1A80     		strh	r2, [r3]	@ movhi
  81:Src/register_interface.c ****     }
 316              		.loc 1 81 7 is_stmt 1 view .LVU84
 164:Src/register_interface.c **** 
 317              		.loc 1 164 1 is_stmt 0 view .LVU85
 318 00d6 30BC     		pop	{r4, r5}
 319              	.LCFI9:
 320              		.cfi_remember_state
 321              		.cfi_restore 5
 322              		.cfi_restore 4
 323              		.cfi_def_cfa_offset 0
 324              	.LVL32:
 164:Src/register_interface.c **** 
 325              		.loc 1 164 1 view .LVU86
 326 00d8 7047     		bx	lr
 327              	.LVL33:
 328              	.L2:
 329              	.LCFI10:
 330              		.cfi_restore_state
 158:Src/register_interface.c ****       *size =0; /* From this point we are not able anymore to decode the RX buffer */
 331              		.loc 1 158 7 is_stmt 1 view .LVU87
 159:Src/register_interface.c ****       break;
 332              		.loc 1 159 7 view .LVU88
 159:Src/register_interface.c ****       break;
 333              		.loc 1 159 13 is_stmt 0 view .LVU89
 334 00da 0022     		movs	r2, #0
 335              	.LVL34:
 158:Src/register_interface.c ****       *size =0; /* From this point we are not able anymore to decode the RX buffer */
 336              		.loc 1 158 14 view .LVU90
 337 00dc 0720     		movs	r0, #7
 338              	.LVL35:
 159:Src/register_interface.c ****       break;
 339              		.loc 1 159 13 view .LVU91
 340 00de 1A80     		strh	r2, [r3]	@ movhi
 160:Src/register_interface.c ****     }
 341              		.loc 1 160 7 is_stmt 1 view .LVU92
 164:Src/register_interface.c **** 
 342              		.loc 1 164 1 is_stmt 0 view .LVU93
 343 00e0 30BC     		pop	{r4, r5}
 344              	.LCFI11:
 345              		.cfi_remember_state
 346              		.cfi_restore 5
 347              		.cfi_restore 4
 348              		.cfi_def_cfa_offset 0
 349              	.LVL36:
 164:Src/register_interface.c **** 
 350              		.loc 1 164 1 view .LVU94
 351 00e2 7047     		bx	lr
ARM GAS  /tmp/ccAfo4nU.s 			page 32


 352              	.LVL37:
 353              	.L45:
 354              	.LCFI12:
 355              		.cfi_restore_state
 164:Src/register_interface.c **** 
 356              		.loc 1 164 1 view .LVU95
 357 00e4 B0F5B26F 		cmp	r0, #1424
 358 00e8 11D0     		beq	.L22
  76:Src/register_interface.c ****           break;
 359              		.loc 1 76 18 view .LVU96
 360 00ea B0F5BA6F 		cmp	r0, #1488
 361 00ee 0CBF     		ite	eq
 362 00f0 0420     		moveq	r0, #4
 363              	.LVL38:
  76:Src/register_interface.c ****           break;
 364              		.loc 1 76 18 view .LVU97
 365 00f2 0520     		movne	r0, #5
 366 00f4 EDE7     		b	.L11
 367              	.LVL39:
 368              	.L43:
 369              	.LBB61:
 147:Src/register_interface.c ****             break;
 370              		.loc 1 147 20 view .LVU98
 371 00f6 2828     		cmp	r0, #40
 372 00f8 0CBF     		ite	eq
 373 00fa 0420     		moveq	r0, #4
 374              	.LVL40:
 147:Src/register_interface.c ****             break;
 375              		.loc 1 147 20 view .LVU99
 376 00fc 0520     		movne	r0, #5
 377              	.LBE61:
 164:Src/register_interface.c **** 
 378              		.loc 1 164 1 view .LVU100
 379 00fe 30BC     		pop	{r4, r5}
 380              	.LCFI13:
 381              		.cfi_remember_state
 382              		.cfi_restore 5
 383              		.cfi_restore 4
 384              		.cfi_def_cfa_offset 0
 385              	.LVL41:
 164:Src/register_interface.c **** 
 386              		.loc 1 164 1 view .LVU101
 387 0100 7047     		bx	lr
 388              	.LVL42:
 389              	.L24:
 390              	.LCFI14:
 391              		.cfi_restore_state
  34:Src/register_interface.c ****   switch(typeID)
 392              		.loc 1 34 11 view .LVU102
 393 0102 0020     		movs	r0, #0
 394              	.LVL43:
  34:Src/register_interface.c ****   switch(typeID)
 395              		.loc 1 34 11 view .LVU103
 396 0104 E5E7     		b	.L11
 397              	.LVL44:
 398              	.L42:
 399              	.LBB62:
ARM GAS  /tmp/ccAfo4nU.s 			page 33


 129:Src/register_interface.c ****         retVal = MCP_ERROR_BAD_RAW_FORMAT; /* This error stop the parsing of the CMD buffer */
 400              		.loc 1 129 9 is_stmt 1 view .LVU104
 129:Src/register_interface.c ****         retVal = MCP_ERROR_BAD_RAW_FORMAT; /* This error stop the parsing of the CMD buffer */
 401              		.loc 1 129 15 is_stmt 0 view .LVU105
 402 0106 0022     		movs	r2, #0
 403 0108 1A80     		strh	r2, [r3]	@ movhi
 130:Src/register_interface.c ****       }
 404              		.loc 1 130 9 is_stmt 1 view .LVU106
 405              	.LVL45:
 130:Src/register_interface.c ****       }
 406              		.loc 1 130 16 is_stmt 0 view .LVU107
 407 010a 0A20     		movs	r0, #10
 408              	.LVL46:
 130:Src/register_interface.c ****       }
 409              		.loc 1 130 16 view .LVU108
 410 010c A1E7     		b	.L38
 411              	.LVL47:
 412              	.L22:
 130:Src/register_interface.c ****       }
 413              		.loc 1 130 16 view .LVU109
 414              	.LBE62:
  66:Src/register_interface.c ****           break;
 415              		.loc 1 66 18 view .LVU110
 416 010e 0420     		movs	r0, #4
 417              	.LVL48:
  66:Src/register_interface.c ****           break;
 418              		.loc 1 66 18 view .LVU111
 419 0110 DFE7     		b	.L11
 420              		.cfi_endproc
 421              	.LFE1466:
 423 0112 00BF     		.section	.text.RI_SetRegisterMotor1,"ax",%progbits
 424              		.align	1
 425              		.p2align 2,,3
 426              		.global	RI_SetRegisterMotor1
 427              		.syntax unified
 428              		.thumb
 429              		.thumb_func
 430              		.fpu fpv4-sp-d16
 432              	RI_SetRegisterMotor1:
 433              	.LVL49:
 434              	.LFB1467:
 167:Src/register_interface.c ****   uint8_t retVal = MCP_CMD_OK;
 435              		.loc 1 167 1 is_stmt 1 view -0
 436              		.cfi_startproc
 437              		@ args = 4, pretend = 0, frame = 16
 438              		@ frame_needed = 0, uses_anonymous_args = 0
 168:Src/register_interface.c ****   uint8_t motorID=0;
 439              		.loc 1 168 3 view .LVU113
 169:Src/register_interface.c ****   MCI_Handle_t *pMCIN = &Mci[motorID];
 440              		.loc 1 169 3 view .LVU114
 170:Src/register_interface.c **** 
 441              		.loc 1 170 3 view .LVU115
 172:Src/register_interface.c ****   {
 442              		.loc 1 172 3 view .LVU116
 167:Src/register_interface.c ****   uint8_t retVal = MCP_CMD_OK;
 443              		.loc 1 167 1 is_stmt 0 view .LVU117
 444 0000 70B5     		push	{r4, r5, r6, lr}
ARM GAS  /tmp/ccAfo4nU.s 			page 34


 445              	.LCFI15:
 446              		.cfi_def_cfa_offset 16
 447              		.cfi_offset 4, -16
 448              		.cfi_offset 5, -12
 449              		.cfi_offset 6, -8
 450              		.cfi_offset 14, -4
 451 0002 84B0     		sub	sp, sp, #16
 452              	.LCFI16:
 453              		.cfi_def_cfa_offset 32
 172:Src/register_interface.c ****   {
 454              		.loc 1 172 3 view .LVU118
 455 0004 0839     		subs	r1, r1, #8
 456              	.LVL50:
 167:Src/register_interface.c ****   uint8_t retVal = MCP_CMD_OK;
 457              		.loc 1 167 1 view .LVU119
 458 0006 1446     		mov	r4, r2
 459 0008 BDF92020 		ldrsh	r2, [sp, #32]
 460              	.LVL51:
 172:Src/register_interface.c ****   {
 461              		.loc 1 172 3 view .LVU120
 462 000c 2029     		cmp	r1, #32
 463 000e 00F29580 		bhi	.L47
 464 0012 DFE801F0 		tbb	[pc, r1]
 465              	.L49:
 466 0016 34       		.byte	(.L53-.L49)/2
 467 0017 93       		.byte	(.L47-.L49)/2
 468 0018 93       		.byte	(.L47-.L49)/2
 469 0019 93       		.byte	(.L47-.L49)/2
 470 001a 93       		.byte	(.L47-.L49)/2
 471 001b 93       		.byte	(.L47-.L49)/2
 472 001c 93       		.byte	(.L47-.L49)/2
 473 001d 93       		.byte	(.L47-.L49)/2
 474 001e 70       		.byte	(.L52-.L49)/2
 475 001f 93       		.byte	(.L47-.L49)/2
 476 0020 93       		.byte	(.L47-.L49)/2
 477 0021 93       		.byte	(.L47-.L49)/2
 478 0022 93       		.byte	(.L47-.L49)/2
 479 0023 93       		.byte	(.L47-.L49)/2
 480 0024 93       		.byte	(.L47-.L49)/2
 481 0025 93       		.byte	(.L47-.L49)/2
 482 0026 42       		.byte	(.L51-.L49)/2
 483 0027 93       		.byte	(.L47-.L49)/2
 484 0028 93       		.byte	(.L47-.L49)/2
 485 0029 93       		.byte	(.L47-.L49)/2
 486 002a 93       		.byte	(.L47-.L49)/2
 487 002b 93       		.byte	(.L47-.L49)/2
 488 002c 93       		.byte	(.L47-.L49)/2
 489 002d 93       		.byte	(.L47-.L49)/2
 490 002e 51       		.byte	(.L50-.L49)/2
 491 002f 93       		.byte	(.L47-.L49)/2
 492 0030 93       		.byte	(.L47-.L49)/2
 493 0031 93       		.byte	(.L47-.L49)/2
 494 0032 93       		.byte	(.L47-.L49)/2
 495 0033 93       		.byte	(.L47-.L49)/2
 496 0034 93       		.byte	(.L47-.L49)/2
 497 0035 93       		.byte	(.L47-.L49)/2
 498 0036 11       		.byte	(.L48-.L49)/2
ARM GAS  /tmp/ccAfo4nU.s 			page 35


 499 0037 00       		.p2align 1
 500              	.L48:
 501              	.LBB63:
 506:Src/register_interface.c ****       /* The size consumed by the structure is the structure size + 2 bytes used to store the size 
 502              		.loc 1 506 7 is_stmt 1 view .LVU121
 506:Src/register_interface.c ****       /* The size consumed by the structure is the structure size + 2 bytes used to store the size 
 503              		.loc 1 506 16 is_stmt 0 view .LVU122
 504 0038 2588     		ldrh	r5, [r4]
 505              	.LVL52:
 508:Src/register_interface.c ****       uint8_t *rawData = data; /* rawData points to the first data (after size extraction) */
 506              		.loc 1 508 7 is_stmt 1 view .LVU123
 508:Src/register_interface.c ****       uint8_t *rawData = data; /* rawData points to the first data (after size extraction) */
 507              		.loc 1 508 23 is_stmt 0 view .LVU124
 508 003a A91C     		adds	r1, r5, #2
 509 003c 89B2     		uxth	r1, r1
 513:Src/register_interface.c ****       {
 510              		.loc 1 513 10 view .LVU125
 511 003e 92B2     		uxth	r2, r2
 512 0040 9142     		cmp	r1, r2
 508:Src/register_interface.c ****       uint8_t *rawData = data; /* rawData points to the first data (after size extraction) */
 513              		.loc 1 508 13 view .LVU126
 514 0042 1980     		strh	r1, [r3]	@ movhi
 509:Src/register_interface.c ****       rawData++;
 515              		.loc 1 509 7 is_stmt 1 view .LVU127
 516              	.LVL53:
 510:Src/register_interface.c ****       rawData++;
 517              		.loc 1 510 7 view .LVU128
 511:Src/register_interface.c **** 
 518              		.loc 1 511 7 view .LVU129
 513:Src/register_interface.c ****       {
 519              		.loc 1 513 7 view .LVU130
 513:Src/register_interface.c ****       {
 520              		.loc 1 513 10 is_stmt 0 view .LVU131
 521 0044 00F22782 		bhi	.L177
 522 0048 B0F5D47F 		cmp	r0, #424
 511:Src/register_interface.c **** 
 523              		.loc 1 511 14 view .LVU132
 524 004c 04F10201 		add	r1, r4, #2
 525              	.LVL54:
 522:Src/register_interface.c ****         {
 526              		.loc 1 522 9 is_stmt 1 view .LVU133
 527 0050 00F0A582 		beq	.L108
 528 0054 40F2FC81 		bls	.L178
 529 0058 B0F50A7F 		cmp	r0, #552
 530 005c 00F04F82 		beq	.L111
 531 0060 40F20382 		bls	.L179
 532 0064 B0F55A7F 		cmp	r0, #872
 533 0068 00F04182 		beq	.L114
 534 006c B0F5A56F 		cmp	r0, #1320
 535 0070 40F03982 		bne	.L175
 591:Src/register_interface.c ****             break;
 536              		.loc 1 591 13 view .LVU134
 591:Src/register_interface.c ****             break;
 537              		.loc 1 591 23 is_stmt 0 view .LVU135
 538 0074 B548     		ldr	r0, .L199
 539              	.LVL55:
 591:Src/register_interface.c ****             break;
ARM GAS  /tmp/ccAfo4nU.s 			page 36


 540              		.loc 1 591 23 view .LVU136
 541 0076 FFF7FEFF 		bl	MCPA_cfgLog
 542              	.LVL56:
 592:Src/register_interface.c ****           }
 543              		.loc 1 592 13 is_stmt 1 view .LVU137
 544              	.L170:
 592:Src/register_interface.c ****           }
 545              		.loc 1 592 13 is_stmt 0 view .LVU138
 546              	.LBE63:
 613:Src/register_interface.c **** 
 547              		.loc 1 613 1 view .LVU139
 548 007a 04B0     		add	sp, sp, #16
 549              	.LCFI17:
 550              		.cfi_remember_state
 551              		.cfi_def_cfa_offset 16
 552              		@ sp needed
 553 007c 70BD     		pop	{r4, r5, r6, pc}
 554              	.LVL57:
 555              	.L53:
 556              	.LCFI18:
 557              		.cfi_restore_state
 176:Src/register_interface.c ****       {
 558              		.loc 1 176 7 is_stmt 1 view .LVU140
 559 007e 8828     		cmp	r0, #136
 560 0080 00F00D82 		beq	.L54
 561 0084 C828     		cmp	r0, #200
 562 0086 00F03082 		beq	.L118
 216:Src/register_interface.c ****           break;
 563              		.loc 1 216 18 is_stmt 0 view .LVU141
 564 008a 4828     		cmp	r0, #72
 565 008c 0CBF     		ite	eq
 566 008e 0420     		moveq	r0, #4
 567              	.LVL58:
 216:Src/register_interface.c ****           break;
 568              		.loc 1 216 18 view .LVU142
 569 0090 0520     		movne	r0, #5
 570              	.LVL59:
 571              	.L55:
 220:Src/register_interface.c ****       break;
 572              		.loc 1 220 7 is_stmt 1 view .LVU143
 220:Src/register_interface.c ****       break;
 573              		.loc 1 220 13 is_stmt 0 view .LVU144
 574 0092 0122     		movs	r2, #1
 575 0094 1A80     		strh	r2, [r3]	@ movhi
 221:Src/register_interface.c ****     }
 576              		.loc 1 221 7 is_stmt 1 view .LVU145
 613:Src/register_interface.c **** 
 577              		.loc 1 613 1 is_stmt 0 view .LVU146
 578 0096 04B0     		add	sp, sp, #16
 579              	.LCFI19:
 580              		.cfi_remember_state
 581              		.cfi_def_cfa_offset 16
 582              		@ sp needed
 583 0098 70BD     		pop	{r4, r5, r6, pc}
 584              	.LVL60:
 585              	.L51:
 586              	.LCFI20:
ARM GAS  /tmp/ccAfo4nU.s 			page 37


 587              		.cfi_restore_state
 588              	.LBB101:
 459:Src/register_interface.c **** 
 589              		.loc 1 459 7 is_stmt 1 view .LVU147
 461:Src/register_interface.c ****       {
 590              		.loc 1 461 7 view .LVU148
 591 009a 9828     		cmp	r0, #152
 592 009c 00F00782 		beq	.L100
 593 00a0 55D8     		bhi	.L101
 594 00a2 1828     		cmp	r0, #24
 595 00a4 00F0F381 		beq	.L146
 485:Src/register_interface.c ****           break;
 596              		.loc 1 485 18 is_stmt 0 view .LVU149
 597 00a8 5828     		cmp	r0, #88
 598 00aa 0CBF     		ite	eq
 599 00ac 0420     		moveq	r0, #4
 600              	.LVL61:
 485:Src/register_interface.c ****           break;
 601              		.loc 1 485 18 view .LVU150
 602 00ae 0520     		movne	r0, #5
 603              	.LVL62:
 604              	.L102:
 489:Src/register_interface.c ****       break;
 605              		.loc 1 489 7 is_stmt 1 view .LVU151
 489:Src/register_interface.c ****       break;
 606              		.loc 1 489 13 is_stmt 0 view .LVU152
 607 00b0 0422     		movs	r2, #4
 608 00b2 1A80     		strh	r2, [r3]	@ movhi
 490:Src/register_interface.c ****     }
 609              		.loc 1 490 7 is_stmt 1 view .LVU153
 610              	.LBE101:
 613:Src/register_interface.c **** 
 611              		.loc 1 613 1 is_stmt 0 view .LVU154
 612 00b4 04B0     		add	sp, sp, #16
 613              	.LCFI21:
 614              		.cfi_remember_state
 615              		.cfi_def_cfa_offset 16
 616              		@ sp needed
 617 00b6 70BD     		pop	{r4, r5, r6, pc}
 618              	.LVL63:
 619              	.L50:
 620              	.LCFI22:
 621              		.cfi_restore_state
 622              	.LBB102:
 495:Src/register_interface.c ****       char_t *dummy = (char_t *)data;
 623              		.loc 1 495 7 is_stmt 1 view .LVU155
 496:Src/register_interface.c ****       retVal = MCP_ERROR_RO_REG;
 624              		.loc 1 496 7 view .LVU156
 497:Src/register_interface.c ****       /* Used to compute String length stored in RXBUFF even if Reg does not exist */
 625              		.loc 1 497 7 view .LVU157
 500:Src/register_interface.c ****       break;
 626              		.loc 1 500 7 view .LVU158
 627              	.LBB103:
 628              	.LBI103:
1346:Src/register_interface.c **** {
 629              		.loc 1 1346 9 view .LVU159
 630              	.LBB104:
ARM GAS  /tmp/ccAfo4nU.s 			page 38


1348:Src/register_interface.c ****   const char_t *tempsrcString = srcString;
 631              		.loc 1 1348 3 view .LVU160
1349:Src/register_interface.c ****   char_t *tempdestString = destString;
 632              		.loc 1 1349 3 view .LVU161
1350:Src/register_interface.c ****   *size= 1U ; /* /0 is the min String size */
 633              		.loc 1 1350 3 view .LVU162
1351:Src/register_interface.c **** 
 634              		.loc 1 1351 3 view .LVU163
1351:Src/register_interface.c **** 
 635              		.loc 1 1351 8 is_stmt 0 view .LVU164
 636 00b8 0121     		movs	r1, #1
 637 00ba 1980     		strh	r1, [r3]	@ movhi
1353:Src/register_interface.c ****   {
 638              		.loc 1 1353 3 is_stmt 1 view .LVU165
1353:Src/register_interface.c ****   {
 639              		.loc 1 1353 9 is_stmt 0 view .LVU166
 640 00bc 94F90010 		ldrsb	r1, [r4]
 641 00c0 A1B1     		cbz	r1, .L103
1353:Src/register_interface.c ****   {
 642              		.loc 1 1353 50 view .LVU167
 643 00c2 92B2     		uxth	r2, r2
1353:Src/register_interface.c ****   {
 644              		.loc 1 1353 40 view .LVU168
 645 00c4 012A     		cmp	r2, #1
 646 00c6 13D9     		bls	.L174
 647 00c8 023A     		subs	r2, r2, #2
 648              	.LVL64:
1353:Src/register_interface.c ****   {
 649              		.loc 1 1353 40 view .LVU169
 650 00ca 14FA82F1 		uxtah	r1, r4, r2
 651 00ce 621C     		adds	r2, r4, #1
 652              	.LVL65:
1353:Src/register_interface.c ****   {
 653              		.loc 1 1353 40 view .LVU170
 654 00d0 0231     		adds	r1, r1, #2
 655 00d2 C2F10205 		rsb	r5, r2, #2
 656 00d6 01E0     		b	.L105
 657              	.LVL66:
 658              	.L180:
1353:Src/register_interface.c ****   {
 659              		.loc 1 1353 40 view .LVU171
 660 00d8 8A42     		cmp	r2, r1
 661 00da 09D0     		beq	.L174
 662              	.L105:
 663              	.LVL67:
1355:Src/register_interface.c ****     tempdestString++;
 664              		.loc 1 1355 5 is_stmt 1 view .LVU172
1356:Src/register_interface.c ****     tempsrcString++;
 665              		.loc 1 1356 5 view .LVU173
1358:Src/register_interface.c ****   }
 666              		.loc 1 1358 11 is_stmt 0 view .LVU174
 667 00dc A818     		adds	r0, r5, r2
 668 00de 1880     		strh	r0, [r3]	@ movhi
1353:Src/register_interface.c ****   {
 669              		.loc 1 1353 9 view .LVU175
 670 00e0 92F90000 		ldrsb	r0, [r2]
1356:Src/register_interface.c ****     tempsrcString++;
ARM GAS  /tmp/ccAfo4nU.s 			page 39


 671              		.loc 1 1356 19 view .LVU176
 672 00e4 1446     		mov	r4, r2
 673              	.LVL68:
1357:Src/register_interface.c ****     *size = *size + 1U;
 674              		.loc 1 1357 5 is_stmt 1 view .LVU177
1358:Src/register_interface.c ****   }
 675              		.loc 1 1358 5 view .LVU178
1358:Src/register_interface.c ****   }
 676              		.loc 1 1358 5 is_stmt 0 view .LVU179
 677 00e6 0132     		adds	r2, r2, #1
 678              	.LVL69:
1353:Src/register_interface.c ****   {
 679              		.loc 1 1353 9 view .LVU180
 680 00e8 0028     		cmp	r0, #0
 681 00ea F5D1     		bne	.L180
 682              	.L103:
1361:Src/register_interface.c ****   { /* Last string char must be 0 */
 683              		.loc 1 1361 3 is_stmt 1 view .LVU181
 684              		.loc 1 1367 5 view .LVU182
 685              		.loc 1 1367 21 is_stmt 0 view .LVU183
 686 00ec 0023     		movs	r3, #0
 687              	.LVL70:
 688              		.loc 1 1367 21 view .LVU184
 689 00ee 2370     		strb	r3, [r4]
 690              	.LVL71:
 691              	.L174:
 692              		.loc 1 1367 21 view .LVU185
 693              	.LBE104:
 694              	.LBE103:
 497:Src/register_interface.c ****       /* Used to compute String length stored in RXBUFF even if Reg does not exist */
 695              		.loc 1 497 14 view .LVU186
 696 00f0 0420     		movs	r0, #4
 697              	.LVL72:
 497:Src/register_interface.c ****       /* Used to compute String length stored in RXBUFF even if Reg does not exist */
 698              		.loc 1 497 14 view .LVU187
 699              	.LBE102:
 612:Src/register_interface.c **** }
 700              		.loc 1 612 3 is_stmt 1 view .LVU188
 613:Src/register_interface.c **** 
 701              		.loc 1 613 1 is_stmt 0 view .LVU189
 702 00f2 04B0     		add	sp, sp, #16
 703              	.LCFI23:
 704              		.cfi_remember_state
 705              		.cfi_def_cfa_offset 16
 706              		@ sp needed
 707 00f4 70BD     		pop	{r4, r5, r6, pc}
 708              	.LVL73:
 709              	.L52:
 710              	.LCFI24:
 711              		.cfi_restore_state
 712              	.LBB105:
 226:Src/register_interface.c ****       switch (regID)
 713              		.loc 1 226 7 is_stmt 1 view .LVU190
 714 00f6 B0F51D6F 		cmp	r0, #2512
 226:Src/register_interface.c ****       switch (regID)
 715              		.loc 1 226 16 is_stmt 0 view .LVU191
 716 00fa 2488     		ldrh	r4, [r4]
ARM GAS  /tmp/ccAfo4nU.s 			page 40


 717              	.LVL74:
 227:Src/register_interface.c ****       {
 718              		.loc 1 227 7 is_stmt 1 view .LVU192
 719 00fc 23D0     		beq	.L143
 720 00fe 2FD8     		bhi	.L59
 721 0100 B0F58A6F 		cmp	r0, #1104
 722 0104 00F08782 		beq	.L60
 723 0108 5BD8     		bhi	.L61
 724 010a B0F5047F 		cmp	r0, #528
 725 010e 00F07A82 		beq	.L62
 726 0112 46D8     		bhi	.L63
 727 0114 B0F5887F 		cmp	r0, #272
 728 0118 00F0AC82 		beq	.L64
 729 011c 00F2A180 		bhi	.L65
 730 0120 9028     		cmp	r0, #144
 731 0122 40F09380 		bne	.L181
 231:Src/register_interface.c ****           break;
 732              		.loc 1 231 11 view .LVU193
 733 0126 8A48     		ldr	r0, .L199+4
 734              	.LVL75:
 231:Src/register_interface.c ****           break;
 735              		.loc 1 231 11 is_stmt 0 view .LVU194
 736 0128 0193     		str	r3, [sp, #4]
 737 012a 21B2     		sxth	r1, r4
 738 012c FFF7FEFF 		bl	PID_SetKP
 739              	.LVL76:
 232:Src/register_interface.c ****         }
 740              		.loc 1 232 11 is_stmt 1 view .LVU195
 741 0130 019B     		ldr	r3, [sp, #4]
 742              	.LBE105:
 168:Src/register_interface.c ****   uint8_t motorID=0;
 743              		.loc 1 168 11 is_stmt 0 view .LVU196
 744 0132 0020     		movs	r0, #0
 745              	.LVL77:
 746              	.L58:
 747              	.LBB110:
 453:Src/register_interface.c ****       break;
 748              		.loc 1 453 7 is_stmt 1 view .LVU197
 453:Src/register_interface.c ****       break;
 749              		.loc 1 453 13 is_stmt 0 view .LVU198
 750 0134 0222     		movs	r2, #2
 751 0136 1A80     		strh	r2, [r3]	@ movhi
 454:Src/register_interface.c ****     }
 752              		.loc 1 454 7 is_stmt 1 view .LVU199
 753              	.L182:
 454:Src/register_interface.c ****     }
 754              		.loc 1 454 7 is_stmt 0 view .LVU200
 755              	.LBE110:
 613:Src/register_interface.c **** 
 756              		.loc 1 613 1 view .LVU201
 757 0138 04B0     		add	sp, sp, #16
 758              	.LCFI25:
 759              		.cfi_remember_state
 760              		.cfi_def_cfa_offset 16
 761              		@ sp needed
 762 013a 70BD     		pop	{r4, r5, r6, pc}
 763              	.LVL78:
ARM GAS  /tmp/ccAfo4nU.s 			page 41


 764              	.L47:
 765              	.LCFI26:
 766              		.cfi_restore_state
 607:Src/register_interface.c ****       *size =0; /* From this point we are not able anymore to decode the RX buffer */
 767              		.loc 1 607 7 is_stmt 1 view .LVU202
 608:Src/register_interface.c ****       break;
 768              		.loc 1 608 7 view .LVU203
 608:Src/register_interface.c ****       break;
 769              		.loc 1 608 13 is_stmt 0 view .LVU204
 770 013c 0022     		movs	r2, #0
 607:Src/register_interface.c ****       *size =0; /* From this point we are not able anymore to decode the RX buffer */
 771              		.loc 1 607 14 view .LVU205
 772 013e 0720     		movs	r0, #7
 773              	.LVL79:
 608:Src/register_interface.c ****       break;
 774              		.loc 1 608 13 view .LVU206
 775 0140 1A80     		strh	r2, [r3]	@ movhi
 609:Src/register_interface.c ****     }
 776              		.loc 1 609 7 is_stmt 1 view .LVU207
 613:Src/register_interface.c **** 
 777              		.loc 1 613 1 is_stmt 0 view .LVU208
 778 0142 04B0     		add	sp, sp, #16
 779              	.LCFI27:
 780              		.cfi_remember_state
 781              		.cfi_def_cfa_offset 16
 782              		@ sp needed
 783 0144 70BD     		pop	{r4, r5, r6, pc}
 784              	.LVL80:
 785              	.L143:
 786              	.LCFI28:
 787              		.cfi_restore_state
 788              	.LBB111:
 453:Src/register_interface.c ****       break;
 789              		.loc 1 453 13 view .LVU209
 790 0146 0222     		movs	r2, #2
 287:Src/register_interface.c ****           break;
 791              		.loc 1 287 18 view .LVU210
 792 0148 0420     		movs	r0, #4
 793              	.LVL81:
 453:Src/register_interface.c ****       break;
 794              		.loc 1 453 7 is_stmt 1 view .LVU211
 453:Src/register_interface.c ****       break;
 795              		.loc 1 453 13 is_stmt 0 view .LVU212
 796 014a 1A80     		strh	r2, [r3]	@ movhi
 454:Src/register_interface.c ****     }
 797              		.loc 1 454 7 is_stmt 1 view .LVU213
 798 014c F4E7     		b	.L182
 799              	.LVL82:
 800              	.L101:
 454:Src/register_interface.c ****     }
 801              		.loc 1 454 7 is_stmt 0 view .LVU214
 802              	.LBE111:
 803              	.LBB112:
 804 014e D828     		cmp	r0, #216
 805 0150 00F09D81 		beq	.L146
 485:Src/register_interface.c ****           break;
 806              		.loc 1 485 18 view .LVU215
ARM GAS  /tmp/ccAfo4nU.s 			page 42


 807 0154 B0F58C7F 		cmp	r0, #280
 808 0158 0CBF     		ite	eq
 809 015a 0420     		moveq	r0, #4
 810              	.LVL83:
 485:Src/register_interface.c ****           break;
 811              		.loc 1 485 18 view .LVU216
 812 015c 0520     		movne	r0, #5
 813 015e A7E7     		b	.L102
 814              	.LVL84:
 815              	.L59:
 485:Src/register_interface.c ****           break;
 816              		.loc 1 485 18 view .LVU217
 817              	.LBE112:
 818              	.LBB113:
 819 0160 41F25042 		movw	r2, #5200
 820 0164 9042     		cmp	r0, r2
 821 0166 00F07D82 		beq	.L82
 822 016a 40F2A680 		bls	.L183
 823 016e 41F2D052 		movw	r2, #5584
 824 0172 9042     		cmp	r0, r2
 825 0174 00F06E82 		beq	.L87
 826 0178 00F28C80 		bhi	.L88
 827 017c 41F21052 		movw	r2, #5392
 828 0180 9042     		cmp	r0, r2
 829 0182 00F05082 		beq	.L89
 830 0186 00F2AD80 		bhi	.L90
 831 018a 41F29042 		movw	r2, #5264
 832 018e 9042     		cmp	r0, r2
 833 0190 73D1     		bne	.L184
 383:Src/register_interface.c ****           break;
 834              		.loc 1 383 11 view .LVU218
 835 0192 6F48     		ldr	r0, .L199+4
 836              	.LVL85:
 383:Src/register_interface.c ****           break;
 837              		.loc 1 383 11 view .LVU219
 838 0194 0193     		str	r3, [sp, #4]
 383:Src/register_interface.c ****           break;
 839              		.loc 1 383 11 is_stmt 1 view .LVU220
 840 0196 2146     		mov	r1, r4
 841 0198 FFF7FEFF 		bl	PID_SetKIDivisorPOW2
 842              	.LVL86:
 384:Src/register_interface.c ****         }
 843              		.loc 1 384 11 view .LVU221
 844              	.LBE113:
 168:Src/register_interface.c ****   uint8_t motorID=0;
 845              		.loc 1 168 11 is_stmt 0 view .LVU222
 846 019c 0020     		movs	r0, #0
 847              	.LBB114:
 384:Src/register_interface.c ****         }
 848              		.loc 1 384 11 view .LVU223
 849 019e 019B     		ldr	r3, [sp, #4]
 850 01a0 C8E7     		b	.L58
 851              	.LVL87:
 852              	.L63:
 384:Src/register_interface.c ****         }
 853              		.loc 1 384 11 view .LVU224
 854 01a2 B0F5447F 		cmp	r0, #784
ARM GAS  /tmp/ccAfo4nU.s 			page 43


 855 01a6 00F01E82 		beq	.L70
 856 01aa 35D8     		bhi	.L71
 857 01ac B0F5247F 		cmp	r0, #656
 858 01b0 26D1     		bne	.L185
 267:Src/register_interface.c ****           break;
 859              		.loc 1 267 11 is_stmt 1 view .LVU225
 860 01b2 6848     		ldr	r0, .L199+8
 861              	.LVL88:
 267:Src/register_interface.c ****           break;
 862              		.loc 1 267 11 is_stmt 0 view .LVU226
 863 01b4 0193     		str	r3, [sp, #4]
 864 01b6 21B2     		sxth	r1, r4
 865 01b8 FFF7FEFF 		bl	PID_SetKP
 866              	.LVL89:
 268:Src/register_interface.c ****         }
 867              		.loc 1 268 11 is_stmt 1 view .LVU227
 868              	.LBE114:
 168:Src/register_interface.c ****   uint8_t motorID=0;
 869              		.loc 1 168 11 is_stmt 0 view .LVU228
 870 01bc 0020     		movs	r0, #0
 871              	.LBB115:
 268:Src/register_interface.c ****         }
 872              		.loc 1 268 11 view .LVU229
 873 01be 019B     		ldr	r3, [sp, #4]
 874 01c0 B8E7     		b	.L58
 875              	.LVL90:
 876              	.L61:
 268:Src/register_interface.c ****         }
 877              		.loc 1 268 11 view .LVU230
 878 01c2 B0F5016F 		cmp	r0, #2064
 879 01c6 BED0     		beq	.L143
 880 01c8 40F2B080 		bls	.L186
 881 01cc B0F50D6F 		cmp	r0, #2256
 882 01d0 B9D0     		beq	.L143
 883 01d2 40F2A180 		bls	.L187
 884 01d6 B0F5156F 		cmp	r0, #2384
 885 01da 00F00C82 		beq	.L80
 886 01de B0F5196F 		cmp	r0, #2448
 887 01e2 2DD1     		bne	.L188
 888              	.LBB106:
 314:Src/register_interface.c ****           currComp = MCI_GetIqdref(pMCIN);
 889              		.loc 1 314 11 is_stmt 1 view .LVU231
 315:Src/register_interface.c ****           currComp.d = (int16_t)regdata16;
 890              		.loc 1 315 11 view .LVU232
 315:Src/register_interface.c ****           currComp.d = (int16_t)regdata16;
 891              		.loc 1 315 22 is_stmt 0 view .LVU233
 892 01e4 5C48     		ldr	r0, .L199+12
 893              	.LVL91:
 315:Src/register_interface.c ****           currComp.d = (int16_t)regdata16;
 894              		.loc 1 315 22 view .LVU234
 895 01e6 0193     		str	r3, [sp, #4]
 896 01e8 FFF7FEFF 		bl	MCI_GetIqdref
 897              	.LVL92:
 315:Src/register_interface.c ****           currComp.d = (int16_t)regdata16;
 898              		.loc 1 315 22 view .LVU235
 899 01ec 0390     		str	r0, [sp, #12]
 316:Src/register_interface.c ****           MCI_SetCurrentReferences(pMCIN,currComp);
ARM GAS  /tmp/ccAfo4nU.s 			page 44


 900              		.loc 1 316 11 is_stmt 1 view .LVU236
 316:Src/register_interface.c ****           MCI_SetCurrentReferences(pMCIN,currComp);
 901              		.loc 1 316 22 is_stmt 0 view .LVU237
 902 01ee ADF80E40 		strh	r4, [sp, #14]	@ movhi
 903              	.L172:
 317:Src/register_interface.c ****           break;
 904              		.loc 1 317 11 is_stmt 1 view .LVU238
 905 01f2 5948     		ldr	r0, .L199+12
 906 01f4 0399     		ldr	r1, [sp, #12]
 907 01f6 FFF7FEFF 		bl	MCI_SetCurrentReferences
 908              	.LVL93:
 318:Src/register_interface.c ****         }
 909              		.loc 1 318 11 view .LVU239
 910              	.LBE106:
 911              	.LBE115:
 168:Src/register_interface.c ****   uint8_t motorID=0;
 912              		.loc 1 168 11 is_stmt 0 view .LVU240
 913 01fa 0020     		movs	r0, #0
 914 01fc 019B     		ldr	r3, [sp, #4]
 915 01fe 99E7     		b	.L58
 916              	.LVL94:
 917              	.L185:
 918              	.LBB116:
 168:Src/register_interface.c ****   uint8_t motorID=0;
 919              		.loc 1 168 11 view .LVU241
 920 0200 B0F5347F 		cmp	r0, #720
 921 0204 40F04181 		bne	.L173
 273:Src/register_interface.c ****           break;
 922              		.loc 1 273 11 is_stmt 1 view .LVU242
 923 0208 5248     		ldr	r0, .L199+8
 924              	.LVL95:
 273:Src/register_interface.c ****           break;
 925              		.loc 1 273 11 is_stmt 0 view .LVU243
 926 020a 0193     		str	r3, [sp, #4]
 927 020c 21B2     		sxth	r1, r4
 928 020e FFF7FEFF 		bl	PID_SetKI
 929              	.LVL96:
 274:Src/register_interface.c ****         }
 930              		.loc 1 274 11 is_stmt 1 view .LVU244
 931              	.LBE116:
 168:Src/register_interface.c ****   uint8_t motorID=0;
 932              		.loc 1 168 11 is_stmt 0 view .LVU245
 933 0212 0020     		movs	r0, #0
 934              	.LBB117:
 274:Src/register_interface.c ****         }
 935              		.loc 1 274 11 view .LVU246
 936 0214 019B     		ldr	r3, [sp, #4]
 937 0216 8DE7     		b	.L58
 938              	.LVL97:
 939              	.L71:
 274:Src/register_interface.c ****         }
 940              		.loc 1 274 11 view .LVU247
 941 0218 B0F5547F 		cmp	r0, #848
 942 021c 40F0A480 		bne	.L189
 943              	.LBB107:
 332:Src/register_interface.c ****           int16_t hC2;
 944              		.loc 1 332 11 is_stmt 1 view .LVU248
ARM GAS  /tmp/ccAfo4nU.s 			page 45


 333:Src/register_interface.c ****           STO_PLL_GetObserverGains(&STO_PLL_M1, &hC1, &hC2);
 945              		.loc 1 333 11 view .LVU249
 334:Src/register_interface.c ****           STO_PLL_SetObserverGains(&STO_PLL_M1, (int16_t)regdata16, hC2);
 946              		.loc 1 334 11 view .LVU250
 947 0220 03AA     		add	r2, sp, #12
 948 0222 0DF10A01 		add	r1, sp, #10
 949 0226 4D48     		ldr	r0, .L199+16
 950              	.LVL98:
 334:Src/register_interface.c ****           STO_PLL_SetObserverGains(&STO_PLL_M1, (int16_t)regdata16, hC2);
 951              		.loc 1 334 11 is_stmt 0 view .LVU251
 952 0228 0193     		str	r3, [sp, #4]
 953 022a FFF7FEFF 		bl	STO_PLL_GetObserverGains
 954              	.LVL99:
 335:Src/register_interface.c ****           break;
 955              		.loc 1 335 11 is_stmt 1 view .LVU252
 956 022e 4B48     		ldr	r0, .L199+16
 957 0230 BDF90C20 		ldrsh	r2, [sp, #12]
 958 0234 21B2     		sxth	r1, r4
 959 0236 FFF7FEFF 		bl	STO_PLL_SetObserverGains
 960              	.LVL100:
 336:Src/register_interface.c ****         }
 961              		.loc 1 336 11 view .LVU253
 962              	.LBE107:
 963              	.LBE117:
 168:Src/register_interface.c ****   uint8_t motorID=0;
 964              		.loc 1 168 11 is_stmt 0 view .LVU254
 965 023a 0020     		movs	r0, #0
 966 023c 019B     		ldr	r3, [sp, #4]
 967 023e 79E7     		b	.L58
 968              	.LVL101:
 969              	.L188:
 970              	.LBB118:
 449:Src/register_interface.c ****           break;
 971              		.loc 1 449 18 view .LVU255
 972 0240 B0F5116F 		cmp	r0, #2320
 973 0244 0CBF     		ite	eq
 974 0246 0420     		moveq	r0, #4
 975              	.LVL102:
 449:Src/register_interface.c ****           break;
 976              		.loc 1 449 18 view .LVU256
 977 0248 0520     		movne	r0, #5
 978 024a 73E7     		b	.L58
 979              	.LVL103:
 980              	.L181:
 449:Src/register_interface.c ****           break;
 981              		.loc 1 449 18 view .LVU257
 982 024c D028     		cmp	r0, #208
 983 024e 40F01C81 		bne	.L173
 237:Src/register_interface.c ****           break;
 984              		.loc 1 237 11 is_stmt 1 view .LVU258
 985 0252 3F48     		ldr	r0, .L199+4
 986              	.LVL104:
 237:Src/register_interface.c ****           break;
 987              		.loc 1 237 11 is_stmt 0 view .LVU259
 988 0254 0193     		str	r3, [sp, #4]
 989 0256 21B2     		sxth	r1, r4
 990 0258 FFF7FEFF 		bl	PID_SetKI
ARM GAS  /tmp/ccAfo4nU.s 			page 46


 991              	.LVL105:
 238:Src/register_interface.c ****         }
 992              		.loc 1 238 11 is_stmt 1 view .LVU260
 993              	.LBE118:
 168:Src/register_interface.c ****   uint8_t motorID=0;
 994              		.loc 1 168 11 is_stmt 0 view .LVU261
 995 025c 0020     		movs	r0, #0
 996              	.LBB119:
 238:Src/register_interface.c ****         }
 997              		.loc 1 238 11 view .LVU262
 998 025e 019B     		ldr	r3, [sp, #4]
 999 0260 68E7     		b	.L58
 1000              	.LVL106:
 1001              	.L65:
 238:Src/register_interface.c ****         }
 1002              		.loc 1 238 11 view .LVU263
 1003 0262 B0F5C87F 		cmp	r0, #400
 1004 0266 40F0A380 		bne	.L190
 249:Src/register_interface.c ****           break;
 1005              		.loc 1 249 11 is_stmt 1 view .LVU264
 1006 026a 3D48     		ldr	r0, .L199+20
 1007              	.LVL107:
 249:Src/register_interface.c ****           break;
 1008              		.loc 1 249 11 is_stmt 0 view .LVU265
 1009 026c 0193     		str	r3, [sp, #4]
 1010 026e 21B2     		sxth	r1, r4
 1011 0270 FFF7FEFF 		bl	PID_SetKP
 1012              	.LVL108:
 250:Src/register_interface.c ****         }
 1013              		.loc 1 250 11 is_stmt 1 view .LVU266
 1014              	.LBE119:
 168:Src/register_interface.c ****   uint8_t motorID=0;
 1015              		.loc 1 168 11 is_stmt 0 view .LVU267
 1016 0274 0020     		movs	r0, #0
 1017              	.LBB120:
 250:Src/register_interface.c ****         }
 1018              		.loc 1 250 11 view .LVU268
 1019 0276 019B     		ldr	r3, [sp, #4]
 1020 0278 5CE7     		b	.L58
 1021              	.LVL109:
 1022              	.L184:
 250:Src/register_interface.c ****         }
 1023              		.loc 1 250 11 view .LVU269
 1024 027a 41F2D042 		movw	r2, #5328
 1025 027e 9042     		cmp	r0, r2
 1026 0280 40F00381 		bne	.L173
 389:Src/register_interface.c ****           break;
 1027              		.loc 1 389 11 view .LVU270
 1028 0284 3248     		ldr	r0, .L199+4
 1029              	.LVL110:
 389:Src/register_interface.c ****           break;
 1030              		.loc 1 389 11 view .LVU271
 1031 0286 0193     		str	r3, [sp, #4]
 389:Src/register_interface.c ****           break;
 1032              		.loc 1 389 11 is_stmt 1 view .LVU272
 1033 0288 2146     		mov	r1, r4
 1034 028a FFF7FEFF 		bl	PID_SetKDDivisorPOW2
ARM GAS  /tmp/ccAfo4nU.s 			page 47


 1035              	.LVL111:
 390:Src/register_interface.c ****         }
 1036              		.loc 1 390 11 view .LVU273
 1037              	.LBE120:
 168:Src/register_interface.c ****   uint8_t motorID=0;
 1038              		.loc 1 168 11 is_stmt 0 view .LVU274
 1039 028e 0020     		movs	r0, #0
 1040              	.LBB121:
 390:Src/register_interface.c ****         }
 1041              		.loc 1 390 11 view .LVU275
 1042 0290 019B     		ldr	r3, [sp, #4]
 1043 0292 4FE7     		b	.L58
 1044              	.LVL112:
 1045              	.L88:
 390:Src/register_interface.c ****         }
 1046              		.loc 1 390 11 view .LVU276
 1047 0294 41F6D002 		movw	r2, #6352
 1048 0298 9042     		cmp	r0, r2
 1049 029a 00F09C81 		beq	.L95
 1050 029e 00F2AB80 		bhi	.L96
 1051 02a2 41F21062 		movw	r2, #5648
 1052 02a6 9042     		cmp	r0, r2
 1053 02a8 29D1     		bne	.L191
 419:Src/register_interface.c ****           break;
 1054              		.loc 1 419 11 view .LVU277
 1055 02aa 2D48     		ldr	r0, .L199+20
 1056              	.LVL113:
 419:Src/register_interface.c ****           break;
 1057              		.loc 1 419 11 view .LVU278
 1058 02ac 0193     		str	r3, [sp, #4]
 419:Src/register_interface.c ****           break;
 1059              		.loc 1 419 11 is_stmt 1 view .LVU279
 1060 02ae 2146     		mov	r1, r4
 1061 02b0 FFF7FEFF 		bl	PID_SetKIDivisorPOW2
 1062              	.LVL114:
 420:Src/register_interface.c ****         }
 1063              		.loc 1 420 11 view .LVU280
 1064              	.LBE121:
 168:Src/register_interface.c ****   uint8_t motorID=0;
 1065              		.loc 1 168 11 is_stmt 0 view .LVU281
 1066 02b4 0020     		movs	r0, #0
 1067              	.LBB122:
 420:Src/register_interface.c ****         }
 1068              		.loc 1 420 11 view .LVU282
 1069 02b6 019B     		ldr	r3, [sp, #4]
 1070 02b8 3CE7     		b	.L58
 1071              	.LVL115:
 1072              	.L183:
 420:Src/register_interface.c ****         }
 1073              		.loc 1 420 11 view .LVU283
 1074 02ba B0F53D6F 		cmp	r0, #3024
 1075 02be 3FF442AF 		beq	.L143
 1076 02c2 40F28A80 		bls	.L192
 1077 02c6 B0F5496F 		cmp	r0, #3216
 1078 02ca 3FF43CAF 		beq	.L143
 1079 02ce 7AD9     		bls	.L193
 1080 02d0 B0F5656F 		cmp	r0, #3664
ARM GAS  /tmp/ccAfo4nU.s 			page 48


 1081 02d4 00F0DD80 		beq	.L140
 449:Src/register_interface.c ****           break;
 1082              		.loc 1 449 18 view .LVU284
 1083 02d8 B0F5696F 		cmp	r0, #3728
 1084 02dc 0CBF     		ite	eq
 1085 02de 0020     		moveq	r0, #0
 1086              	.LVL116:
 449:Src/register_interface.c ****           break;
 1087              		.loc 1 449 18 view .LVU285
 1088 02e0 0520     		movne	r0, #5
 1089 02e2 27E7     		b	.L58
 1090              	.LVL117:
 1091              	.L90:
 449:Src/register_interface.c ****           break;
 1092              		.loc 1 449 18 view .LVU286
 1093 02e4 41F25052 		movw	r2, #5456
 1094 02e8 9042     		cmp	r0, r2
 1095 02ea 40F09B80 		bne	.L194
 401:Src/register_interface.c ****           break;
 1096              		.loc 1 401 11 view .LVU287
 1097 02ee 1948     		ldr	r0, .L199+8
 1098              	.LVL118:
 401:Src/register_interface.c ****           break;
 1099              		.loc 1 401 11 view .LVU288
 1100 02f0 0193     		str	r3, [sp, #4]
 401:Src/register_interface.c ****           break;
 1101              		.loc 1 401 11 is_stmt 1 view .LVU289
 1102 02f2 2146     		mov	r1, r4
 1103 02f4 FFF7FEFF 		bl	PID_SetKIDivisorPOW2
 1104              	.LVL119:
 402:Src/register_interface.c ****         }
 1105              		.loc 1 402 11 view .LVU290
 1106              	.LBE122:
 168:Src/register_interface.c ****   uint8_t motorID=0;
 1107              		.loc 1 168 11 is_stmt 0 view .LVU291
 1108 02f8 0020     		movs	r0, #0
 1109              	.LBB123:
 402:Src/register_interface.c ****         }
 1110              		.loc 1 402 11 view .LVU292
 1111 02fa 019B     		ldr	r3, [sp, #4]
 1112 02fc 1AE7     		b	.L58
 1113              	.LVL120:
 1114              	.L191:
 402:Src/register_interface.c ****         }
 1115              		.loc 1 402 11 view .LVU293
 1116 02fe 41F25062 		movw	r2, #5712
 1117 0302 9042     		cmp	r0, r2
 1118 0304 40F0C180 		bne	.L173
 425:Src/register_interface.c ****           break;
 1119              		.loc 1 425 11 view .LVU294
 1120 0308 1548     		ldr	r0, .L199+20
 1121              	.LVL121:
 425:Src/register_interface.c ****           break;
 1122              		.loc 1 425 11 view .LVU295
 1123 030a 0193     		str	r3, [sp, #4]
 425:Src/register_interface.c ****           break;
 1124              		.loc 1 425 11 is_stmt 1 view .LVU296
ARM GAS  /tmp/ccAfo4nU.s 			page 49


 1125 030c 2146     		mov	r1, r4
 1126 030e FFF7FEFF 		bl	PID_SetKDDivisorPOW2
 1127              	.LVL122:
 426:Src/register_interface.c ****         }
 1128              		.loc 1 426 11 view .LVU297
 1129              	.LBE123:
 168:Src/register_interface.c ****   uint8_t motorID=0;
 1130              		.loc 1 168 11 is_stmt 0 view .LVU298
 1131 0312 0020     		movs	r0, #0
 1132              	.LBB124:
 426:Src/register_interface.c ****         }
 1133              		.loc 1 426 11 view .LVU299
 1134 0314 019B     		ldr	r3, [sp, #4]
 1135 0316 0DE7     		b	.L58
 1136              	.LVL123:
 1137              	.L187:
 426:Src/register_interface.c ****         }
 1138              		.loc 1 426 11 view .LVU300
 1139 0318 B0F5056F 		cmp	r0, #2128
 1140 031c 3FF413AF 		beq	.L143
 449:Src/register_interface.c ****           break;
 1141              		.loc 1 449 18 view .LVU301
 1142 0320 B0F5096F 		cmp	r0, #2192
 1143 0324 0CBF     		ite	eq
 1144 0326 0420     		moveq	r0, #4
 1145              	.LVL124:
 449:Src/register_interface.c ****           break;
 1146              		.loc 1 449 18 view .LVU302
 1147 0328 0520     		movne	r0, #5
 1148 032a 03E7     		b	.L58
 1149              	.LVL125:
 1150              	.L186:
 449:Src/register_interface.c ****           break;
 1151              		.loc 1 449 18 view .LVU303
 1152 032c B0F5BA6F 		cmp	r0, #1488
 1153 0330 3FF409AF 		beq	.L143
 1154 0334 32D8     		bhi	.L77
 1155 0336 B0F5926F 		cmp	r0, #1168
 1156 033a 29D1     		bne	.L195
 356:Src/register_interface.c ****           break;
 1157              		.loc 1 356 11 is_stmt 1 view .LVU304
 1158 033c 0948     		ldr	r0, .L199+24
 1159              	.LVL126:
 356:Src/register_interface.c ****           break;
 1160              		.loc 1 356 11 is_stmt 0 view .LVU305
 1161 033e 0193     		str	r3, [sp, #4]
 1162 0340 21B2     		sxth	r1, r4
 1163 0342 FFF7FEFF 		bl	PID_SetKP
 1164              	.LVL127:
 357:Src/register_interface.c ****         }
 1165              		.loc 1 357 11 is_stmt 1 view .LVU306
 1166              	.LBE124:
 168:Src/register_interface.c ****   uint8_t motorID=0;
 1167              		.loc 1 168 11 is_stmt 0 view .LVU307
 1168 0346 0020     		movs	r0, #0
 1169              	.LBB125:
 357:Src/register_interface.c ****         }
ARM GAS  /tmp/ccAfo4nU.s 			page 50


 1170              		.loc 1 357 11 view .LVU308
 1171 0348 019B     		ldr	r3, [sp, #4]
 1172 034a F3E6     		b	.L58
 1173              	.L200:
 1174              		.align	2
 1175              	.L199:
 1176 034c 00000000 		.word	MCPA_UART_A
 1177 0350 00000000 		.word	PIDSpeedHandle_M1
 1178 0354 00000000 		.word	PIDIdHandle_M1
 1179 0358 00000000 		.word	Mci
 1180 035c 00000000 		.word	STO_PLL_M1
 1181 0360 00000000 		.word	PIDIqHandle_M1
 1182 0364 34000000 		.word	STO_PLL_M1+52
 1183              	.LVL128:
 1184              	.L189:
 357:Src/register_interface.c ****         }
 1185              		.loc 1 357 11 view .LVU309
 1186 0368 B0F5647F 		cmp	r0, #912
 1187 036c 40F08D80 		bne	.L173
 1188              	.LBB108:
 341:Src/register_interface.c ****           int16_t hC2;
 1189              		.loc 1 341 11 is_stmt 1 view .LVU310
 342:Src/register_interface.c ****           STO_PLL_GetObserverGains(&STO_PLL_M1, &hC1, &hC2);
 1190              		.loc 1 342 11 view .LVU311
 343:Src/register_interface.c ****           STO_PLL_SetObserverGains(&STO_PLL_M1, hC1, (int16_t)regdata16);
 1191              		.loc 1 343 11 view .LVU312
 1192 0370 03AA     		add	r2, sp, #12
 1193 0372 0DF10A01 		add	r1, sp, #10
 1194 0376 B048     		ldr	r0, .L201
 1195              	.LVL129:
 343:Src/register_interface.c ****           STO_PLL_SetObserverGains(&STO_PLL_M1, hC1, (int16_t)regdata16);
 1196              		.loc 1 343 11 is_stmt 0 view .LVU313
 1197 0378 0193     		str	r3, [sp, #4]
 1198 037a FFF7FEFF 		bl	STO_PLL_GetObserverGains
 1199              	.LVL130:
 344:Src/register_interface.c ****           break;
 1200              		.loc 1 344 11 is_stmt 1 view .LVU314
 1201 037e AE48     		ldr	r0, .L201
 1202 0380 BDF90A10 		ldrsh	r1, [sp, #10]
 1203 0384 22B2     		sxth	r2, r4
 1204 0386 FFF7FEFF 		bl	STO_PLL_SetObserverGains
 1205              	.LVL131:
 345:Src/register_interface.c ****         }
 1206              		.loc 1 345 11 view .LVU315
 1207              	.LBE108:
 1208              	.LBE125:
 168:Src/register_interface.c ****   uint8_t motorID=0;
 1209              		.loc 1 168 11 is_stmt 0 view .LVU316
 1210 038a 0020     		movs	r0, #0
 1211 038c 019B     		ldr	r3, [sp, #4]
 1212 038e D1E6     		b	.L58
 1213              	.LVL132:
 1214              	.L195:
 1215              	.LBB126:
 449:Src/register_interface.c ****           break;
 1216              		.loc 1 449 18 view .LVU317
 1217 0390 B0F5B26F 		cmp	r0, #1424
ARM GAS  /tmp/ccAfo4nU.s 			page 51


 1218 0394 0CBF     		ite	eq
 1219 0396 0420     		moveq	r0, #4
 1220              	.LVL133:
 449:Src/register_interface.c ****           break;
 1221              		.loc 1 449 18 view .LVU318
 1222 0398 0520     		movne	r0, #5
 1223 039a CBE6     		b	.L58
 1224              	.LVL134:
 1225              	.L77:
 449:Src/register_interface.c ****           break;
 1226              		.loc 1 449 18 view .LVU319
 1227 039c B0F5F26F 		cmp	r0, #1936
 1228 03a0 3FF4D1AE 		beq	.L143
 1229 03a4 B0F5FA6F 		cmp	r0, #2000
 1230 03a8 0CBF     		ite	eq
 1231 03aa 0420     		moveq	r0, #4
 1232              	.LVL135:
 449:Src/register_interface.c ****           break;
 1233              		.loc 1 449 18 view .LVU320
 1234 03ac 0520     		movne	r0, #5
 1235 03ae C1E6     		b	.L58
 1236              	.LVL136:
 1237              	.L190:
 449:Src/register_interface.c ****           break;
 1238              		.loc 1 449 18 view .LVU321
 1239 03b0 B0F5E87F 		cmp	r0, #464
 1240 03b4 69D1     		bne	.L173
 255:Src/register_interface.c ****           break;
 1241              		.loc 1 255 11 is_stmt 1 view .LVU322
 1242 03b6 A148     		ldr	r0, .L201+4
 1243              	.LVL137:
 255:Src/register_interface.c ****           break;
 1244              		.loc 1 255 11 is_stmt 0 view .LVU323
 1245 03b8 0193     		str	r3, [sp, #4]
 1246 03ba 21B2     		sxth	r1, r4
 1247 03bc FFF7FEFF 		bl	PID_SetKI
 1248              	.LVL138:
 256:Src/register_interface.c ****         }
 1249              		.loc 1 256 11 is_stmt 1 view .LVU324
 1250              	.LBE126:
 168:Src/register_interface.c ****   uint8_t motorID=0;
 1251              		.loc 1 168 11 is_stmt 0 view .LVU325
 1252 03c0 0020     		movs	r0, #0
 1253              	.LBB127:
 256:Src/register_interface.c ****         }
 1254              		.loc 1 256 11 view .LVU326
 1255 03c2 019B     		ldr	r3, [sp, #4]
 1256 03c4 B6E6     		b	.L58
 1257              	.LVL139:
 1258              	.L193:
 256:Src/register_interface.c ****         }
 1259              		.loc 1 256 11 view .LVU327
 1260 03c6 B0F5416F 		cmp	r0, #3088
 1261 03ca 3FF4BCAE 		beq	.L143
 449:Src/register_interface.c ****           break;
 1262              		.loc 1 449 18 view .LVU328
 1263 03ce B0F5456F 		cmp	r0, #3152
ARM GAS  /tmp/ccAfo4nU.s 			page 52


 1264 03d2 0CBF     		ite	eq
 1265 03d4 0420     		moveq	r0, #4
 1266              	.LVL140:
 449:Src/register_interface.c ****           break;
 1267              		.loc 1 449 18 view .LVU329
 1268 03d6 0520     		movne	r0, #5
 1269 03d8 ACE6     		b	.L58
 1270              	.LVL141:
 1271              	.L192:
 449:Src/register_interface.c ****           break;
 1272              		.loc 1 449 18 view .LVU330
 1273 03da B0F5296F 		cmp	r0, #2704
 1274 03de 3FF4B2AE 		beq	.L143
 1275 03e2 2BD8     		bhi	.L85
 1276 03e4 B0F5216F 		cmp	r0, #2576
 1277 03e8 3FF4ADAE 		beq	.L143
 1278 03ec B0F5256F 		cmp	r0, #2640
 1279 03f0 0CBF     		ite	eq
 1280 03f2 0420     		moveq	r0, #4
 1281              	.LVL142:
 449:Src/register_interface.c ****           break;
 1282              		.loc 1 449 18 view .LVU331
 1283 03f4 0520     		movne	r0, #5
 1284 03f6 9DE6     		b	.L58
 1285              	.LVL143:
 1286              	.L96:
 449:Src/register_interface.c ****           break;
 1287              		.loc 1 449 18 view .LVU332
 1288 03f8 41F69022 		movw	r2, #6800
 1289 03fc 9042     		cmp	r0, r2
 1290 03fe 3FF4A2AE 		beq	.L143
 1291 0402 41F65832 		movw	r2, #7000
 1292 0406 9042     		cmp	r0, r2
 1293 0408 3FF49DAE 		beq	.L143
 1294 040c 41F61012 		movw	r2, #6416
 1295 0410 9042     		cmp	r0, r2
 1296 0412 3AD1     		bne	.L173
 437:Src/register_interface.c ****           break;
 1297              		.loc 1 437 11 view .LVU333
 1298 0414 8A48     		ldr	r0, .L201+8
 1299              	.LVL144:
 437:Src/register_interface.c ****           break;
 1300              		.loc 1 437 11 view .LVU334
 1301 0416 0193     		str	r3, [sp, #4]
 437:Src/register_interface.c ****           break;
 1302              		.loc 1 437 11 is_stmt 1 view .LVU335
 1303 0418 2146     		mov	r1, r4
 1304 041a FFF7FEFF 		bl	PID_SetKPDivisorPOW2
 1305              	.LVL145:
 438:Src/register_interface.c ****         }
 1306              		.loc 1 438 11 view .LVU336
 1307              	.LBE127:
 168:Src/register_interface.c ****   uint8_t motorID=0;
 1308              		.loc 1 168 11 is_stmt 0 view .LVU337
 1309 041e 0020     		movs	r0, #0
 1310              	.LBB128:
 438:Src/register_interface.c ****         }
ARM GAS  /tmp/ccAfo4nU.s 			page 53


 1311              		.loc 1 438 11 view .LVU338
 1312 0420 019B     		ldr	r3, [sp, #4]
 1313 0422 87E6     		b	.L58
 1314              	.LVL146:
 1315              	.L194:
 438:Src/register_interface.c ****         }
 1316              		.loc 1 438 11 view .LVU339
 1317 0424 41F29052 		movw	r2, #5520
 1318 0428 9042     		cmp	r0, r2
 1319 042a 2ED1     		bne	.L173
 407:Src/register_interface.c ****           break;
 1320              		.loc 1 407 11 view .LVU340
 1321 042c 8548     		ldr	r0, .L201+12
 1322              	.LVL147:
 407:Src/register_interface.c ****           break;
 1323              		.loc 1 407 11 view .LVU341
 1324 042e 0193     		str	r3, [sp, #4]
 407:Src/register_interface.c ****           break;
 1325              		.loc 1 407 11 is_stmt 1 view .LVU342
 1326 0430 2146     		mov	r1, r4
 1327 0432 FFF7FEFF 		bl	PID_SetKDDivisorPOW2
 1328              	.LVL148:
 408:Src/register_interface.c ****         }
 1329              		.loc 1 408 11 view .LVU343
 1330              	.LBE128:
 168:Src/register_interface.c ****   uint8_t motorID=0;
 1331              		.loc 1 168 11 is_stmt 0 view .LVU344
 1332 0436 0020     		movs	r0, #0
 1333              	.LBB129:
 408:Src/register_interface.c ****         }
 1334              		.loc 1 408 11 view .LVU345
 1335 0438 019B     		ldr	r3, [sp, #4]
 1336 043a 7BE6     		b	.L58
 1337              	.LVL149:
 1338              	.L85:
 408:Src/register_interface.c ****         }
 1339              		.loc 1 408 11 view .LVU346
 1340 043c B0F5356F 		cmp	r0, #2896
 1341 0440 3FF481AE 		beq	.L143
 449:Src/register_interface.c ****           break;
 1342              		.loc 1 449 18 view .LVU347
 1343 0444 B0F5396F 		cmp	r0, #2960
 1344 0448 0CBF     		ite	eq
 1345 044a 0420     		moveq	r0, #4
 1346              	.LVL150:
 449:Src/register_interface.c ****           break;
 1347              		.loc 1 449 18 view .LVU348
 1348 044c 0520     		movne	r0, #5
 1349 044e 71E6     		b	.L58
 1350              	.LVL151:
 1351              	.L178:
 449:Src/register_interface.c ****           break;
 1352              		.loc 1 449 18 view .LVU349
 1353              	.LBE129:
 1354              	.LBB130:
 1355 0450 6828     		cmp	r0, #104
 1356 0452 3FF44DAE 		beq	.L174
ARM GAS  /tmp/ccAfo4nU.s 			page 54


 1357 0456 13D9     		bls	.L196
 1358 0458 A828     		cmp	r0, #168
 1359 045a 3FF449AE 		beq	.L174
 597:Src/register_interface.c ****             break;
 1360              		.loc 1 597 20 view .LVU350
 1361 045e E828     		cmp	r0, #232
 1362 0460 0CBF     		ite	eq
 1363 0462 0420     		moveq	r0, #4
 1364              	.LVL152:
 597:Src/register_interface.c ****             break;
 1365              		.loc 1 597 20 view .LVU351
 1366 0464 0520     		movne	r0, #5
 1367              	.LBE130:
 613:Src/register_interface.c **** 
 1368              		.loc 1 613 1 view .LVU352
 1369 0466 04B0     		add	sp, sp, #16
 1370              	.LCFI29:
 1371              		.cfi_remember_state
 1372              		.cfi_def_cfa_offset 16
 1373              		@ sp needed
 1374 0468 70BD     		pop	{r4, r5, r6, pc}
 1375              	.LVL153:
 1376              	.L179:
 1377              	.LCFI30:
 1378              		.cfi_restore_state
 1379              	.LBB131:
 613:Src/register_interface.c **** 
 1380              		.loc 1 613 1 view .LVU353
 1381 046a B0F5F47F 		cmp	r0, #488
 1382 046e 3AD1     		bne	.L175
 1383              	.LBB64:
 546:Src/register_interface.c ****             uint16_t duration;
 1384              		.loc 1 546 13 is_stmt 1 view .LVU354
 547:Src/register_interface.c **** 
 1385              		.loc 1 547 13 view .LVU355
 549:Src/register_interface.c ****             duration = *(uint16_t *)&rawData[4]; //cstat !MISRAC2012-Rule-11.3
 1386              		.loc 1 549 13 view .LVU356
 1387              	.LVL154:
 550:Src/register_interface.c ****             MCI_ExecTorqueRamp(pMCIN, (int16_t)torque, duration);
 1388              		.loc 1 550 13 view .LVU357
 551:Src/register_interface.c ****             break;
 1389              		.loc 1 551 13 view .LVU358
 1390 0470 7548     		ldr	r0, .L201+16
 1391              	.LVL155:
 551:Src/register_interface.c ****             break;
 1392              		.loc 1 551 13 is_stmt 0 view .LVU359
 1393 0472 E288     		ldrh	r2, [r4, #6]
 1394 0474 B4F90210 		ldrsh	r1, [r4, #2]
 1395              	.LVL156:
 551:Src/register_interface.c ****             break;
 1396              		.loc 1 551 13 view .LVU360
 1397 0478 FFF7FEFF 		bl	MCI_ExecTorqueRamp
 1398              	.LVL157:
 552:Src/register_interface.c ****           }
 1399              		.loc 1 552 13 is_stmt 1 view .LVU361
 1400              	.LBE64:
 1401              	.LBE131:
ARM GAS  /tmp/ccAfo4nU.s 			page 55


 168:Src/register_interface.c ****   uint8_t motorID=0;
 1402              		.loc 1 168 11 is_stmt 0 view .LVU362
 1403 047c 0020     		movs	r0, #0
 1404              	.LBB132:
 1405              	.LBB65:
 552:Src/register_interface.c ****           }
 1406              		.loc 1 552 13 view .LVU363
 1407 047e FCE5     		b	.L170
 1408              	.LVL158:
 1409              	.L196:
 552:Src/register_interface.c ****           }
 1410              		.loc 1 552 13 view .LVU364
 1411              	.LBE65:
 597:Src/register_interface.c ****             break;
 1412              		.loc 1 597 20 view .LVU365
 1413 0480 2828     		cmp	r0, #40
 1414 0482 0CBF     		ite	eq
 1415 0484 0420     		moveq	r0, #4
 1416              	.LVL159:
 597:Src/register_interface.c ****             break;
 1417              		.loc 1 597 20 view .LVU366
 1418 0486 0520     		movne	r0, #5
 1419 0488 F7E5     		b	.L170
 1420              	.LVL160:
 1421              	.L173:
 597:Src/register_interface.c ****             break;
 1422              		.loc 1 597 20 view .LVU367
 1423              	.LBE132:
 1424              	.LBB133:
 449:Src/register_interface.c ****           break;
 1425              		.loc 1 449 18 view .LVU368
 1426 048a 0520     		movs	r0, #5
 1427              	.LVL161:
 449:Src/register_interface.c ****           break;
 1428              		.loc 1 449 18 view .LVU369
 1429 048c 52E6     		b	.L58
 1430              	.LVL162:
 1431              	.L146:
 449:Src/register_interface.c ****           break;
 1432              		.loc 1 449 18 view .LVU370
 1433              	.LBE133:
 1434              	.LBB134:
 466:Src/register_interface.c ****           break;
 1435              		.loc 1 466 18 view .LVU371
 1436 048e 0420     		movs	r0, #4
 1437              	.LVL163:
 466:Src/register_interface.c ****           break;
 1438              		.loc 1 466 18 view .LVU372
 1439 0490 0EE6     		b	.L102
 1440              	.LVL164:
 1441              	.L140:
 466:Src/register_interface.c ****           break;
 1442              		.loc 1 466 18 view .LVU373
 1443              	.LBE134:
 168:Src/register_interface.c ****   uint8_t motorID=0;
 1444              		.loc 1 168 11 view .LVU374
 1445 0492 0020     		movs	r0, #0
ARM GAS  /tmp/ccAfo4nU.s 			page 56


 1446              	.LVL165:
 168:Src/register_interface.c ****   uint8_t motorID=0;
 1447              		.loc 1 168 11 view .LVU375
 1448 0494 4EE6     		b	.L58
 1449              	.LVL166:
 1450              	.L177:
 1451              	.LBB135:
 517:Src/register_interface.c ****         retVal = MCP_ERROR_BAD_RAW_FORMAT; /* This error stop the parsing of the CMD buffer */
 1452              		.loc 1 517 9 is_stmt 1 view .LVU376
 517:Src/register_interface.c ****         retVal = MCP_ERROR_BAD_RAW_FORMAT; /* This error stop the parsing of the CMD buffer */
 1453              		.loc 1 517 15 is_stmt 0 view .LVU377
 1454 0496 0022     		movs	r2, #0
 1455 0498 1A80     		strh	r2, [r3]	@ movhi
 518:Src/register_interface.c ****       }
 1456              		.loc 1 518 9 is_stmt 1 view .LVU378
 1457              	.LVL167:
 518:Src/register_interface.c ****       }
 1458              		.loc 1 518 16 is_stmt 0 view .LVU379
 1459 049a 0A20     		movs	r0, #10
 1460              	.LVL168:
 518:Src/register_interface.c ****       }
 1461              		.loc 1 518 16 view .LVU380
 1462 049c EDE5     		b	.L170
 1463              	.LVL169:
 1464              	.L54:
 518:Src/register_interface.c ****       }
 1465              		.loc 1 518 16 view .LVU381
 1466              	.LBE135:
 1467              	.LBB136:
 185:Src/register_interface.c **** 
 1468              		.loc 1 185 11 is_stmt 1 view .LVU382
 185:Src/register_interface.c **** 
 1469              		.loc 1 185 19 is_stmt 0 view .LVU383
 1470 049e 2278     		ldrb	r2, [r4]	@ zero_extendqisi2
 1471              	.LVL170:
 187:Src/register_interface.c ****           {
 1472              		.loc 1 187 11 is_stmt 1 view .LVU384
 187:Src/register_interface.c ****           {
 1473              		.loc 1 187 14 is_stmt 0 view .LVU385
 1474 04a0 042A     		cmp	r2, #4
 1475 04a2 14D0     		beq	.L197
 195:Src/register_interface.c **** 
 1476              		.loc 1 195 11 is_stmt 1 view .LVU386
 197:Src/register_interface.c ****           {
 1477              		.loc 1 197 11 view .LVU387
 197:Src/register_interface.c ****           {
 1478              		.loc 1 197 14 is_stmt 0 view .LVU388
 1479 04a4 032A     		cmp	r2, #3
 1480 04a6 00F08A80 		beq	.L198
 1481              	.LBE136:
 168:Src/register_interface.c ****   uint8_t motorID=0;
 1482              		.loc 1 168 11 view .LVU389
 1483 04aa 0020     		movs	r0, #0
 1484              	.LVL171:
 168:Src/register_interface.c ****   uint8_t motorID=0;
 1485              		.loc 1 168 11 view .LVU390
 1486 04ac F1E5     		b	.L55
ARM GAS  /tmp/ccAfo4nU.s 			page 57


 1487              	.LVL172:
 1488              	.L100:
 1489              	.LBB137:
 472:Src/register_interface.c ****           break;
 1490              		.loc 1 472 11 is_stmt 1 view .LVU391
 1491 04ae B4F90020 		ldrsh	r2, [r4]
 1492 04b2 6649     		ldr	r1, .L201+20
 1493 04b4 0193     		str	r3, [sp, #4]
 1494 04b6 81FB0231 		smull	r3, r1, r1, r2
 1495              	.LVL173:
 472:Src/register_interface.c ****           break;
 1496              		.loc 1 472 11 is_stmt 0 view .LVU392
 1497 04ba A1EBE271 		sub	r1, r1, r2, asr #31
 1498 04be 6248     		ldr	r0, .L201+16
 1499              	.LVL174:
 472:Src/register_interface.c ****           break;
 1500              		.loc 1 472 11 view .LVU393
 1501 04c0 09B2     		sxth	r1, r1
 1502 04c2 0022     		movs	r2, #0
 1503 04c4 FFF7FEFF 		bl	MCI_ExecSpeedRamp
 1504              	.LVL175:
 473:Src/register_interface.c ****         }
 1505              		.loc 1 473 11 is_stmt 1 view .LVU394
 1506              	.LBE137:
 168:Src/register_interface.c ****   uint8_t motorID=0;
 1507              		.loc 1 168 11 is_stmt 0 view .LVU395
 1508 04c8 0020     		movs	r0, #0
 1509              	.LBB138:
 473:Src/register_interface.c ****         }
 1510              		.loc 1 473 11 view .LVU396
 1511 04ca 019B     		ldr	r3, [sp, #4]
 1512 04cc F0E5     		b	.L102
 1513              	.LVL176:
 1514              	.L197:
 473:Src/register_interface.c ****         }
 1515              		.loc 1 473 11 view .LVU397
 1516              	.LBE138:
 1517              	.LBB139:
 190:Src/register_interface.c ****           }
 1518              		.loc 1 190 13 is_stmt 1 view .LVU398
 1519 04ce 5E48     		ldr	r0, .L201+16
 1520              	.LVL177:
 190:Src/register_interface.c ****           }
 1521              		.loc 1 190 13 is_stmt 0 view .LVU399
 1522 04d0 0193     		str	r3, [sp, #4]
 1523 04d2 FFF7FEFF 		bl	MCI_GetTeref
 1524              	.LVL178:
 190:Src/register_interface.c ****           }
 1525              		.loc 1 190 13 view .LVU400
 1526 04d6 0022     		movs	r2, #0
 1527 04d8 0146     		mov	r1, r0
 1528 04da 5B48     		ldr	r0, .L201+16
 1529 04dc FFF7FEFF 		bl	MCI_ExecTorqueRamp
 1530              	.LVL179:
 195:Src/register_interface.c **** 
 1531              		.loc 1 195 11 is_stmt 1 view .LVU401
 197:Src/register_interface.c ****           {
ARM GAS  /tmp/ccAfo4nU.s 			page 58


 1532              		.loc 1 197 11 view .LVU402
 1533              	.LBE139:
 168:Src/register_interface.c ****   uint8_t motorID=0;
 1534              		.loc 1 168 11 is_stmt 0 view .LVU403
 1535 04e0 0020     		movs	r0, #0
 1536 04e2 019B     		ldr	r3, [sp, #4]
 1537 04e4 D5E5     		b	.L55
 1538              	.LVL180:
 1539              	.L175:
 1540              	.LBB140:
 597:Src/register_interface.c ****             break;
 1541              		.loc 1 597 20 view .LVU404
 1542 04e6 0520     		movs	r0, #5
 1543              	.LVL181:
 597:Src/register_interface.c ****             break;
 1544              		.loc 1 597 20 view .LVU405
 1545 04e8 C7E5     		b	.L170
 1546              	.LVL182:
 1547              	.L118:
 597:Src/register_interface.c ****             break;
 1548              		.loc 1 597 20 view .LVU406
 1549              	.LBE140:
 180:Src/register_interface.c ****             break;
 1550              		.loc 1 180 20 view .LVU407
 1551 04ea 0420     		movs	r0, #4
 1552              	.LVL183:
 180:Src/register_interface.c ****             break;
 1553              		.loc 1 180 20 view .LVU408
 1554 04ec D1E5     		b	.L55
 1555              	.LVL184:
 1556              	.L114:
 1557              	.LBB141:
 1558              	.LBB66:
 582:Src/register_interface.c ****             currComp.q = *((int16_t *) rawData); //cstat !MISRAC2012-Rule-11.3
 1559              		.loc 1 582 13 is_stmt 1 view .LVU409
 583:Src/register_interface.c ****             currComp.d = *((int16_t *) &rawData[2]); //cstat !MISRAC2012-Rule-11.3
 1560              		.loc 1 583 13 view .LVU410
 584:Src/register_interface.c ****             MCI_SetCurrentReferences(pMCIN, currComp);
 1561              		.loc 1 584 13 view .LVU411
 583:Src/register_interface.c ****             currComp.d = *((int16_t *) &rawData[2]); //cstat !MISRAC2012-Rule-11.3
 1562              		.loc 1 583 26 is_stmt 0 view .LVU412
 1563 04ee D4F80210 		ldr	r1, [r4, #2]	@ unaligned
 1564              	.LVL185:
 585:Src/register_interface.c ****             break;
 1565              		.loc 1 585 13 view .LVU413
 1566 04f2 5548     		ldr	r0, .L201+16
 1567              	.LVL186:
 583:Src/register_interface.c ****             currComp.d = *((int16_t *) &rawData[2]); //cstat !MISRAC2012-Rule-11.3
 1568              		.loc 1 583 24 view .LVU414
 1569 04f4 0391     		str	r1, [sp, #12]
 585:Src/register_interface.c ****             break;
 1570              		.loc 1 585 13 is_stmt 1 view .LVU415
 1571 04f6 FFF7FEFF 		bl	MCI_SetCurrentReferences
 1572              	.LVL187:
 1573              	.L176:
 586:Src/register_interface.c ****           }
 1574              		.loc 1 586 13 view .LVU416
ARM GAS  /tmp/ccAfo4nU.s 			page 59


 1575              	.LBE66:
 1576              	.LBE141:
 168:Src/register_interface.c ****   uint8_t motorID=0;
 1577              		.loc 1 168 11 is_stmt 0 view .LVU417
 1578 04fa 0020     		movs	r0, #0
 1579 04fc BDE5     		b	.L170
 1580              	.LVL188:
 1581              	.L111:
 1582              	.LBB142:
 1583              	.LBB67:
 557:Src/register_interface.c ****             RevUpCtrl_PhaseParams_t revUpPhase;
 1584              		.loc 1 557 13 is_stmt 1 view .LVU418
 558:Src/register_interface.c ****             uint8_t i;
 1585              		.loc 1 558 13 view .LVU419
 559:Src/register_interface.c ****             uint8_t nbrOfPhase = (((uint8_t)rawSize) / 8U);
 1586              		.loc 1 559 13 view .LVU420
 560:Src/register_interface.c **** 
 1587              		.loc 1 560 13 view .LVU421
 562:Src/register_interface.c ****             {
 1588              		.loc 1 562 13 view .LVU422
 562:Src/register_interface.c ****             {
 1589              		.loc 1 562 16 is_stmt 0 view .LVU423
 1590 04fe 6B07     		lsls	r3, r5, #29
 1591              	.LVL189:
 562:Src/register_interface.c ****             {
 1592              		.loc 1 562 16 view .LVU424
 1593 0500 5BD1     		bne	.L153
 560:Src/register_interface.c **** 
 1594              		.loc 1 560 36 discriminator 1 view .LVU425
 1595 0502 EDB2     		uxtb	r5, r5
 1596              	.LVL190:
 562:Src/register_interface.c ****             {
 1597              		.loc 1 562 44 discriminator 1 view .LVU426
 1598 0504 2F2D     		cmp	r5, #47
 1599 0506 58D8     		bhi	.L153
 1600              	.LVL191:
 568:Src/register_interface.c ****               {
 1601              		.loc 1 568 15 view .LVU427
 1602 0508 ED08     		lsrs	r5, r5, #3
 1603              	.LVL192:
 568:Src/register_interface.c ****               {
 1604              		.loc 1 568 15 view .LVU428
 1605 050a F6D0     		beq	.L176
 570:Src/register_interface.c ****               revUpPhase.hFinalMecSpeedUnit = (((int16_t)rpm) * ((int16_t)SPEED_UNIT)) / ((int16_t)
 1606              		.loc 1 570 15 is_stmt 1 view .LVU429
 1607              	.LVL193:
 571:Src/register_interface.c ****               revUpPhase.hFinalTorque = *((int16_t *) &rawData[4U + (i * 8U)]); //cstat !MISRAC2012
 1608              		.loc 1 571 15 view .LVU430
 571:Src/register_interface.c ****               revUpPhase.hFinalTorque = *((int16_t *) &rawData[4U + (i * 8U)]); //cstat !MISRAC2012
 1609              		.loc 1 571 88 is_stmt 0 view .LVU431
 1610 050c B4F90200 		ldrsh	r0, [r4, #2]
 1611              	.LVL194:
 1612              	.LBB68:
 1613              	.LBB69:
 1614              		.file 2 "MCSDK_v6.3.0-Full/MotorControl/MCSDK/MCLib/Any/Inc/revup_ctrl.h"
   1:MCSDK_v6.3.0-Full/MotorControl/MCSDK/MCLib/Any/Inc/revup_ctrl.h **** /**
   2:MCSDK_v6.3.0-Full/MotorControl/MCSDK/MCLib/Any/Inc/revup_ctrl.h ****   ******************************************************************************
ARM GAS  /tmp/ccAfo4nU.s 			page 60


   3:MCSDK_v6.3.0-Full/MotorControl/MCSDK/MCLib/Any/Inc/revup_ctrl.h ****   * @file    revup_ctrl.h
   4:MCSDK_v6.3.0-Full/MotorControl/MCSDK/MCLib/Any/Inc/revup_ctrl.h ****   * @author  Motor Control SDK Team, ST Microelectronics
   5:MCSDK_v6.3.0-Full/MotorControl/MCSDK/MCLib/Any/Inc/revup_ctrl.h ****   * @brief   This file contains all definitions and functions prototypes for the
   6:MCSDK_v6.3.0-Full/MotorControl/MCSDK/MCLib/Any/Inc/revup_ctrl.h ****   *          RevUpCtrl component of the Motor Control SDK.
   7:MCSDK_v6.3.0-Full/MotorControl/MCSDK/MCLib/Any/Inc/revup_ctrl.h ****   ******************************************************************************
   8:MCSDK_v6.3.0-Full/MotorControl/MCSDK/MCLib/Any/Inc/revup_ctrl.h ****   * @attention
   9:MCSDK_v6.3.0-Full/MotorControl/MCSDK/MCLib/Any/Inc/revup_ctrl.h ****   *
  10:MCSDK_v6.3.0-Full/MotorControl/MCSDK/MCLib/Any/Inc/revup_ctrl.h ****   * <h2><center>&copy; Copyright (c) 2024 STMicroelectronics.
  11:MCSDK_v6.3.0-Full/MotorControl/MCSDK/MCLib/Any/Inc/revup_ctrl.h ****   * All rights reserved.</center></h2>
  12:MCSDK_v6.3.0-Full/MotorControl/MCSDK/MCLib/Any/Inc/revup_ctrl.h ****   *
  13:MCSDK_v6.3.0-Full/MotorControl/MCSDK/MCLib/Any/Inc/revup_ctrl.h ****   * This software component is licensed by ST under Ultimate Liberty license
  14:MCSDK_v6.3.0-Full/MotorControl/MCSDK/MCLib/Any/Inc/revup_ctrl.h ****   * SLA0044, the "License"; You may not use this file except in compliance with
  15:MCSDK_v6.3.0-Full/MotorControl/MCSDK/MCLib/Any/Inc/revup_ctrl.h ****   * the License. You may obtain a copy of the License at:
  16:MCSDK_v6.3.0-Full/MotorControl/MCSDK/MCLib/Any/Inc/revup_ctrl.h ****   *                             www.st.com/SLA0044
  17:MCSDK_v6.3.0-Full/MotorControl/MCSDK/MCLib/Any/Inc/revup_ctrl.h ****   *
  18:MCSDK_v6.3.0-Full/MotorControl/MCSDK/MCLib/Any/Inc/revup_ctrl.h ****   ******************************************************************************
  19:MCSDK_v6.3.0-Full/MotorControl/MCSDK/MCLib/Any/Inc/revup_ctrl.h ****   * @ingroup RevUpCtrlFOC
  20:MCSDK_v6.3.0-Full/MotorControl/MCSDK/MCLib/Any/Inc/revup_ctrl.h ****   */
  21:MCSDK_v6.3.0-Full/MotorControl/MCSDK/MCLib/Any/Inc/revup_ctrl.h **** 
  22:MCSDK_v6.3.0-Full/MotorControl/MCSDK/MCLib/Any/Inc/revup_ctrl.h **** /* Define to prevent recursive inclusion -------------------------------------*/
  23:MCSDK_v6.3.0-Full/MotorControl/MCSDK/MCLib/Any/Inc/revup_ctrl.h **** #ifndef REVUP_CTRL_H
  24:MCSDK_v6.3.0-Full/MotorControl/MCSDK/MCLib/Any/Inc/revup_ctrl.h **** #define REVUP_CTRL_H
  25:MCSDK_v6.3.0-Full/MotorControl/MCSDK/MCLib/Any/Inc/revup_ctrl.h **** 
  26:MCSDK_v6.3.0-Full/MotorControl/MCSDK/MCLib/Any/Inc/revup_ctrl.h **** #ifdef __cplusplus
  27:MCSDK_v6.3.0-Full/MotorControl/MCSDK/MCLib/Any/Inc/revup_ctrl.h **** extern "C" {
  28:MCSDK_v6.3.0-Full/MotorControl/MCSDK/MCLib/Any/Inc/revup_ctrl.h **** #endif /* __cplusplus */
  29:MCSDK_v6.3.0-Full/MotorControl/MCSDK/MCLib/Any/Inc/revup_ctrl.h **** 
  30:MCSDK_v6.3.0-Full/MotorControl/MCSDK/MCLib/Any/Inc/revup_ctrl.h **** /* Includes ------------------------------------------------------------------*/
  31:MCSDK_v6.3.0-Full/MotorControl/MCSDK/MCLib/Any/Inc/revup_ctrl.h **** #include "mc_type.h"
  32:MCSDK_v6.3.0-Full/MotorControl/MCSDK/MCLib/Any/Inc/revup_ctrl.h **** #include "speed_torq_ctrl.h"
  33:MCSDK_v6.3.0-Full/MotorControl/MCSDK/MCLib/Any/Inc/revup_ctrl.h **** #include "virtual_speed_sensor.h"
  34:MCSDK_v6.3.0-Full/MotorControl/MCSDK/MCLib/Any/Inc/revup_ctrl.h **** #include "sto_speed_pos_fdbk.h"
  35:MCSDK_v6.3.0-Full/MotorControl/MCSDK/MCLib/Any/Inc/revup_ctrl.h **** #include "pwm_curr_fdbk.h"
  36:MCSDK_v6.3.0-Full/MotorControl/MCSDK/MCLib/Any/Inc/revup_ctrl.h **** 
  37:MCSDK_v6.3.0-Full/MotorControl/MCSDK/MCLib/Any/Inc/revup_ctrl.h **** /** @addtogroup MCSDK
  38:MCSDK_v6.3.0-Full/MotorControl/MCSDK/MCLib/Any/Inc/revup_ctrl.h ****   * @{
  39:MCSDK_v6.3.0-Full/MotorControl/MCSDK/MCLib/Any/Inc/revup_ctrl.h ****   */
  40:MCSDK_v6.3.0-Full/MotorControl/MCSDK/MCLib/Any/Inc/revup_ctrl.h **** 
  41:MCSDK_v6.3.0-Full/MotorControl/MCSDK/MCLib/Any/Inc/revup_ctrl.h **** /** @addtogroup RevUpCtrl
  42:MCSDK_v6.3.0-Full/MotorControl/MCSDK/MCLib/Any/Inc/revup_ctrl.h ****   * @{
  43:MCSDK_v6.3.0-Full/MotorControl/MCSDK/MCLib/Any/Inc/revup_ctrl.h ****   */
  44:MCSDK_v6.3.0-Full/MotorControl/MCSDK/MCLib/Any/Inc/revup_ctrl.h **** 
  45:MCSDK_v6.3.0-Full/MotorControl/MCSDK/MCLib/Any/Inc/revup_ctrl.h **** /** @addtogroup RevUpCtrlFOC
  46:MCSDK_v6.3.0-Full/MotorControl/MCSDK/MCLib/Any/Inc/revup_ctrl.h ****   * @{
  47:MCSDK_v6.3.0-Full/MotorControl/MCSDK/MCLib/Any/Inc/revup_ctrl.h ****   */
  48:MCSDK_v6.3.0-Full/MotorControl/MCSDK/MCLib/Any/Inc/revup_ctrl.h **** 
  49:MCSDK_v6.3.0-Full/MotorControl/MCSDK/MCLib/Any/Inc/revup_ctrl.h **** /* Exported constants --------------------------------------------------------*/
  50:MCSDK_v6.3.0-Full/MotorControl/MCSDK/MCLib/Any/Inc/revup_ctrl.h **** /**
  51:MCSDK_v6.3.0-Full/MotorControl/MCSDK/MCLib/Any/Inc/revup_ctrl.h ****   * @brief Maximum number of phases allowed for RevUp process.
  52:MCSDK_v6.3.0-Full/MotorControl/MCSDK/MCLib/Any/Inc/revup_ctrl.h ****   *
  53:MCSDK_v6.3.0-Full/MotorControl/MCSDK/MCLib/Any/Inc/revup_ctrl.h ****   */
  54:MCSDK_v6.3.0-Full/MotorControl/MCSDK/MCLib/Any/Inc/revup_ctrl.h **** #define RUC_MAX_PHASE_NUMBER 5u
  55:MCSDK_v6.3.0-Full/MotorControl/MCSDK/MCLib/Any/Inc/revup_ctrl.h **** 
  56:MCSDK_v6.3.0-Full/MotorControl/MCSDK/MCLib/Any/Inc/revup_ctrl.h **** /**
  57:MCSDK_v6.3.0-Full/MotorControl/MCSDK/MCLib/Any/Inc/revup_ctrl.h ****   * @brief RevUpCtrl_PhaseParams_t structure used for phases definition
  58:MCSDK_v6.3.0-Full/MotorControl/MCSDK/MCLib/Any/Inc/revup_ctrl.h ****   *
  59:MCSDK_v6.3.0-Full/MotorControl/MCSDK/MCLib/Any/Inc/revup_ctrl.h ****   */
ARM GAS  /tmp/ccAfo4nU.s 			page 61


  60:MCSDK_v6.3.0-Full/MotorControl/MCSDK/MCLib/Any/Inc/revup_ctrl.h **** typedef struct
  61:MCSDK_v6.3.0-Full/MotorControl/MCSDK/MCLib/Any/Inc/revup_ctrl.h **** {
  62:MCSDK_v6.3.0-Full/MotorControl/MCSDK/MCLib/Any/Inc/revup_ctrl.h ****   uint16_t hDurationms;       /**< @brief Duration of the RevUp phase. This parameter is expressed 
  63:MCSDK_v6.3.0-Full/MotorControl/MCSDK/MCLib/Any/Inc/revup_ctrl.h ****   int16_t hFinalMecSpeedUnit; /**< @brief Mechanical speed assumed by VSS at the end of the RevUp p
  64:MCSDK_v6.3.0-Full/MotorControl/MCSDK/MCLib/Any/Inc/revup_ctrl.h ****                                    the unit defined by #SPEED_UNIT */
  65:MCSDK_v6.3.0-Full/MotorControl/MCSDK/MCLib/Any/Inc/revup_ctrl.h ****   int16_t hFinalTorque;       /**< @brief Motor torque reference imposed by STC at the end of RevUp
  66:MCSDK_v6.3.0-Full/MotorControl/MCSDK/MCLib/Any/Inc/revup_ctrl.h ****                                    represents actually the Iq current expressed in digit.*/
  67:MCSDK_v6.3.0-Full/MotorControl/MCSDK/MCLib/Any/Inc/revup_ctrl.h ****   void *pNext;                /**< @brief Pointer on the next phase section to proceed
  68:MCSDK_v6.3.0-Full/MotorControl/MCSDK/MCLib/Any/Inc/revup_ctrl.h ****                                    This parameter is NULL for the last element. */
  69:MCSDK_v6.3.0-Full/MotorControl/MCSDK/MCLib/Any/Inc/revup_ctrl.h **** } RevUpCtrl_PhaseParams_t;
  70:MCSDK_v6.3.0-Full/MotorControl/MCSDK/MCLib/Any/Inc/revup_ctrl.h **** 
  71:MCSDK_v6.3.0-Full/MotorControl/MCSDK/MCLib/Any/Inc/revup_ctrl.h **** /**
  72:MCSDK_v6.3.0-Full/MotorControl/MCSDK/MCLib/Any/Inc/revup_ctrl.h ****   * @brief  Handle structure of the RevUpCtrl.
  73:MCSDK_v6.3.0-Full/MotorControl/MCSDK/MCLib/Any/Inc/revup_ctrl.h ****   *
  74:MCSDK_v6.3.0-Full/MotorControl/MCSDK/MCLib/Any/Inc/revup_ctrl.h ****   */
  75:MCSDK_v6.3.0-Full/MotorControl/MCSDK/MCLib/Any/Inc/revup_ctrl.h **** 
  76:MCSDK_v6.3.0-Full/MotorControl/MCSDK/MCLib/Any/Inc/revup_ctrl.h **** typedef struct
  77:MCSDK_v6.3.0-Full/MotorControl/MCSDK/MCLib/Any/Inc/revup_ctrl.h **** {
  78:MCSDK_v6.3.0-Full/MotorControl/MCSDK/MCLib/Any/Inc/revup_ctrl.h ****   uint16_t hRUCFrequencyHz;                                 /**< @brief Frequency call to main RevU
  79:MCSDK_v6.3.0-Full/MotorControl/MCSDK/MCLib/Any/Inc/revup_ctrl.h ****                                                                  This parameter is equal to speed l
  80:MCSDK_v6.3.0-Full/MotorControl/MCSDK/MCLib/Any/Inc/revup_ctrl.h **** 
  81:MCSDK_v6.3.0-Full/MotorControl/MCSDK/MCLib/Any/Inc/revup_ctrl.h ****   int16_t hStartingMecAngle;                                /**< @brief Starting angle of programme
  82:MCSDK_v6.3.0-Full/MotorControl/MCSDK/MCLib/Any/Inc/revup_ctrl.h **** 
  83:MCSDK_v6.3.0-Full/MotorControl/MCSDK/MCLib/Any/Inc/revup_ctrl.h ****   uint16_t hPhaseRemainingTicks;                            /**< @brief Number of clock events rema
  84:MCSDK_v6.3.0-Full/MotorControl/MCSDK/MCLib/Any/Inc/revup_ctrl.h ****                                                                  phase. */
  85:MCSDK_v6.3.0-Full/MotorControl/MCSDK/MCLib/Any/Inc/revup_ctrl.h **** 
  86:MCSDK_v6.3.0-Full/MotorControl/MCSDK/MCLib/Any/Inc/revup_ctrl.h ****   int16_t hDirection;                                       /**< @brief Motor direction.
  87:MCSDK_v6.3.0-Full/MotorControl/MCSDK/MCLib/Any/Inc/revup_ctrl.h ****                                                                  This parameter can be any value -1
  88:MCSDK_v6.3.0-Full/MotorControl/MCSDK/MCLib/Any/Inc/revup_ctrl.h **** 
  89:MCSDK_v6.3.0-Full/MotorControl/MCSDK/MCLib/Any/Inc/revup_ctrl.h ****   RevUpCtrl_PhaseParams_t *pCurrentPhaseParams;             /**< @brief Pointer on the current RevU
  90:MCSDK_v6.3.0-Full/MotorControl/MCSDK/MCLib/Any/Inc/revup_ctrl.h **** 
  91:MCSDK_v6.3.0-Full/MotorControl/MCSDK/MCLib/Any/Inc/revup_ctrl.h ****   RevUpCtrl_PhaseParams_t ParamsData[RUC_MAX_PHASE_NUMBER]; /**< @brief Start up Phases sequences u
  92:MCSDK_v6.3.0-Full/MotorControl/MCSDK/MCLib/Any/Inc/revup_ctrl.h ****                                                                  controller. Up to five phases can 
  93:MCSDK_v6.3.0-Full/MotorControl/MCSDK/MCLib/Any/Inc/revup_ctrl.h ****                                                                   up. */
  94:MCSDK_v6.3.0-Full/MotorControl/MCSDK/MCLib/Any/Inc/revup_ctrl.h **** 
  95:MCSDK_v6.3.0-Full/MotorControl/MCSDK/MCLib/Any/Inc/revup_ctrl.h ****   uint8_t bPhaseNbr;                                        /**< @brief Number of phases relative t
  96:MCSDK_v6.3.0-Full/MotorControl/MCSDK/MCLib/Any/Inc/revup_ctrl.h ****                                                                  RevUp sequence. This parameter can
  97:MCSDK_v6.3.0-Full/MotorControl/MCSDK/MCLib/Any/Inc/revup_ctrl.h ****                                                                  to 5 */
  98:MCSDK_v6.3.0-Full/MotorControl/MCSDK/MCLib/Any/Inc/revup_ctrl.h **** 
  99:MCSDK_v6.3.0-Full/MotorControl/MCSDK/MCLib/Any/Inc/revup_ctrl.h ****   uint8_t bFirstAccelerationStage;                          /**< @brief Indicates the phase to star
 100:MCSDK_v6.3.0-Full/MotorControl/MCSDK/MCLib/Any/Inc/revup_ctrl.h ****                                                                  acceleration.
 101:MCSDK_v6.3.0-Full/MotorControl/MCSDK/MCLib/Any/Inc/revup_ctrl.h ****                                                                  At start of this stage sensor-less
 102:MCSDK_v6.3.0-Full/MotorControl/MCSDK/MCLib/Any/Inc/revup_ctrl.h ****   uint16_t hMinStartUpValidSpeed;                           /**< @brief Minimum rotor speed require
 103:MCSDK_v6.3.0-Full/MotorControl/MCSDK/MCLib/Any/Inc/revup_ctrl.h ****                                                                  startup.
 104:MCSDK_v6.3.0-Full/MotorControl/MCSDK/MCLib/Any/Inc/revup_ctrl.h ****                                                                  This parameter is expressed in SPP
 105:MCSDK_v6.3.0-Full/MotorControl/MCSDK/MCLib/Any/Inc/revup_ctrl.h ****   uint16_t hMinStartUpFlySpeed;                             /**< @brief Minimum rotor speed require
 106:MCSDK_v6.3.0-Full/MotorControl/MCSDK/MCLib/Any/Inc/revup_ctrl.h ****                                                                  the fly. This parameter is express
 107:MCSDK_v6.3.0-Full/MotorControl/MCSDK/MCLib/Any/Inc/revup_ctrl.h ****                                                                  defined by #SPEED_UNIT */
 108:MCSDK_v6.3.0-Full/MotorControl/MCSDK/MCLib/Any/Inc/revup_ctrl.h ****   int16_t hOTFFinalRevUpCurrent;                            /**< @brief Final targetted torque for 
 109:MCSDK_v6.3.0-Full/MotorControl/MCSDK/MCLib/Any/Inc/revup_ctrl.h **** 
 110:MCSDK_v6.3.0-Full/MotorControl/MCSDK/MCLib/Any/Inc/revup_ctrl.h ****   uint16_t hOTFSection1Duration;                            /**< @brief On-the-fly phase duration, 
 111:MCSDK_v6.3.0-Full/MotorControl/MCSDK/MCLib/Any/Inc/revup_ctrl.h ****                                                                  This parameter is expressed in mil
 112:MCSDK_v6.3.0-Full/MotorControl/MCSDK/MCLib/Any/Inc/revup_ctrl.h ****   bool OTFStartupEnabled;                                   /**< @brief Flag for OTF feature activa
 113:MCSDK_v6.3.0-Full/MotorControl/MCSDK/MCLib/Any/Inc/revup_ctrl.h ****                                                                  Feature disabled when set to false
 114:MCSDK_v6.3.0-Full/MotorControl/MCSDK/MCLib/Any/Inc/revup_ctrl.h ****   uint8_t bOTFRelCounter;                                   /**< @brief Counts the number of reliab
 115:MCSDK_v6.3.0-Full/MotorControl/MCSDK/MCLib/Any/Inc/revup_ctrl.h ****                                                                  observer */
 116:MCSDK_v6.3.0-Full/MotorControl/MCSDK/MCLib/Any/Inc/revup_ctrl.h **** 
ARM GAS  /tmp/ccAfo4nU.s 			page 62


 117:MCSDK_v6.3.0-Full/MotorControl/MCSDK/MCLib/Any/Inc/revup_ctrl.h ****   bool OTFSCLowside;                                        /**< @brief Flag to indicate status of 
 118:MCSDK_v6.3.0-Full/MotorControl/MCSDK/MCLib/Any/Inc/revup_ctrl.h ****                                                                  This parameter can be true when Lo
 119:MCSDK_v6.3.0-Full/MotorControl/MCSDK/MCLib/Any/Inc/revup_ctrl.h ****                                                                  otherwise set to false. */
 120:MCSDK_v6.3.0-Full/MotorControl/MCSDK/MCLib/Any/Inc/revup_ctrl.h ****   bool EnteredZone1;                                        /**< @brief Flag to indicate that the m
 121:MCSDK_v6.3.0-Full/MotorControl/MCSDK/MCLib/Any/Inc/revup_ctrl.h ****                                                                  has been reached. */
 122:MCSDK_v6.3.0-Full/MotorControl/MCSDK/MCLib/Any/Inc/revup_ctrl.h **** 
 123:MCSDK_v6.3.0-Full/MotorControl/MCSDK/MCLib/Any/Inc/revup_ctrl.h ****   uint8_t bResetPLLTh;                                      /**< @brief Threshold to reset PLL duri
 124:MCSDK_v6.3.0-Full/MotorControl/MCSDK/MCLib/Any/Inc/revup_ctrl.h **** 
 125:MCSDK_v6.3.0-Full/MotorControl/MCSDK/MCLib/Any/Inc/revup_ctrl.h ****   uint8_t bResetPLLCnt;                                     /**< @brief Counter to reset PLL during
 126:MCSDK_v6.3.0-Full/MotorControl/MCSDK/MCLib/Any/Inc/revup_ctrl.h ****                                                                  threshold is reached. */
 127:MCSDK_v6.3.0-Full/MotorControl/MCSDK/MCLib/Any/Inc/revup_ctrl.h **** 
 128:MCSDK_v6.3.0-Full/MotorControl/MCSDK/MCLib/Any/Inc/revup_ctrl.h ****   uint8_t bStageCnt;                                        /**< @brief Counter of executed phases.
 129:MCSDK_v6.3.0-Full/MotorControl/MCSDK/MCLib/Any/Inc/revup_ctrl.h ****                                                                  This parameter can be any value fr
 130:MCSDK_v6.3.0-Full/MotorControl/MCSDK/MCLib/Any/Inc/revup_ctrl.h **** 
 131:MCSDK_v6.3.0-Full/MotorControl/MCSDK/MCLib/Any/Inc/revup_ctrl.h ****   RevUpCtrl_PhaseParams_t OTFPhaseParams;                   /**< @brief RevUp phase parameter of OT
 132:MCSDK_v6.3.0-Full/MotorControl/MCSDK/MCLib/Any/Inc/revup_ctrl.h **** 
 133:MCSDK_v6.3.0-Full/MotorControl/MCSDK/MCLib/Any/Inc/revup_ctrl.h ****   SpeednTorqCtrl_Handle_t *pSTC;                            /**< @brief Speed and torque controller
 134:MCSDK_v6.3.0-Full/MotorControl/MCSDK/MCLib/Any/Inc/revup_ctrl.h ****                                                                  RevUpCtrl.*/
 135:MCSDK_v6.3.0-Full/MotorControl/MCSDK/MCLib/Any/Inc/revup_ctrl.h **** 
 136:MCSDK_v6.3.0-Full/MotorControl/MCSDK/MCLib/Any/Inc/revup_ctrl.h ****   VirtualSpeedSensor_Handle_t *pVSS;                        /**< @brief Virtual speed sensor object
 137:MCSDK_v6.3.0-Full/MotorControl/MCSDK/MCLib/Any/Inc/revup_ctrl.h **** 
 138:MCSDK_v6.3.0-Full/MotorControl/MCSDK/MCLib/Any/Inc/revup_ctrl.h ****   STO_Handle_t *pSNSL;                                      /**< @brief STO sensor object used by O
 139:MCSDK_v6.3.0-Full/MotorControl/MCSDK/MCLib/Any/Inc/revup_ctrl.h **** 
 140:MCSDK_v6.3.0-Full/MotorControl/MCSDK/MCLib/Any/Inc/revup_ctrl.h ****   PWMC_Handle_t *pPWM;                                      /**< @brief PWM object used by OTF star
 141:MCSDK_v6.3.0-Full/MotorControl/MCSDK/MCLib/Any/Inc/revup_ctrl.h **** 
 142:MCSDK_v6.3.0-Full/MotorControl/MCSDK/MCLib/Any/Inc/revup_ctrl.h **** } RevUpCtrl_Handle_t;
 143:MCSDK_v6.3.0-Full/MotorControl/MCSDK/MCLib/Any/Inc/revup_ctrl.h **** 
 144:MCSDK_v6.3.0-Full/MotorControl/MCSDK/MCLib/Any/Inc/revup_ctrl.h **** 
 145:MCSDK_v6.3.0-Full/MotorControl/MCSDK/MCLib/Any/Inc/revup_ctrl.h **** /* Exported functions ------------------------------------------------------- */
 146:MCSDK_v6.3.0-Full/MotorControl/MCSDK/MCLib/Any/Inc/revup_ctrl.h **** 
 147:MCSDK_v6.3.0-Full/MotorControl/MCSDK/MCLib/Any/Inc/revup_ctrl.h **** /*  Initializes and configures the RevUpCtrl Component */
 148:MCSDK_v6.3.0-Full/MotorControl/MCSDK/MCLib/Any/Inc/revup_ctrl.h **** void RUC_Init(RevUpCtrl_Handle_t *pHandle, SpeednTorqCtrl_Handle_t *pSTC, VirtualSpeedSensor_Handle
 149:MCSDK_v6.3.0-Full/MotorControl/MCSDK/MCLib/Any/Inc/revup_ctrl.h ****               STO_Handle_t *pSNSL, PWMC_Handle_t *pPWM);
 150:MCSDK_v6.3.0-Full/MotorControl/MCSDK/MCLib/Any/Inc/revup_ctrl.h **** 
 151:MCSDK_v6.3.0-Full/MotorControl/MCSDK/MCLib/Any/Inc/revup_ctrl.h **** /* Initializes the internal RevUp controller state */
 152:MCSDK_v6.3.0-Full/MotorControl/MCSDK/MCLib/Any/Inc/revup_ctrl.h **** void RUC_Clear(RevUpCtrl_Handle_t *pHandle, int16_t hMotorDirection);
 153:MCSDK_v6.3.0-Full/MotorControl/MCSDK/MCLib/Any/Inc/revup_ctrl.h **** 
 154:MCSDK_v6.3.0-Full/MotorControl/MCSDK/MCLib/Any/Inc/revup_ctrl.h **** /* Main Rev-Up controller procedure executing overall programmed phases */
 155:MCSDK_v6.3.0-Full/MotorControl/MCSDK/MCLib/Any/Inc/revup_ctrl.h **** bool RUC_Exec(RevUpCtrl_Handle_t *pHandle);
 156:MCSDK_v6.3.0-Full/MotorControl/MCSDK/MCLib/Any/Inc/revup_ctrl.h **** 
 157:MCSDK_v6.3.0-Full/MotorControl/MCSDK/MCLib/Any/Inc/revup_ctrl.h **** /* Main Rev-Up controller procedure that executes overall programmed phases and on-the-fly startup 
 158:MCSDK_v6.3.0-Full/MotorControl/MCSDK/MCLib/Any/Inc/revup_ctrl.h **** bool RUC_OTF_Exec(RevUpCtrl_Handle_t *pHandle);
 159:MCSDK_v6.3.0-Full/MotorControl/MCSDK/MCLib/Any/Inc/revup_ctrl.h **** 
 160:MCSDK_v6.3.0-Full/MotorControl/MCSDK/MCLib/Any/Inc/revup_ctrl.h **** /* Checks that alignment and first acceleration stage are completed */
 161:MCSDK_v6.3.0-Full/MotorControl/MCSDK/MCLib/Any/Inc/revup_ctrl.h **** bool RUC_FirstAccelerationStageReached(RevUpCtrl_Handle_t *pHandle);
 162:MCSDK_v6.3.0-Full/MotorControl/MCSDK/MCLib/Any/Inc/revup_ctrl.h **** 
 163:MCSDK_v6.3.0-Full/MotorControl/MCSDK/MCLib/Any/Inc/revup_ctrl.h **** /* Allows to modify duration (ms unit) of a selected phase */
 164:MCSDK_v6.3.0-Full/MotorControl/MCSDK/MCLib/Any/Inc/revup_ctrl.h **** void RUC_SetPhaseDurationms(RevUpCtrl_Handle_t *pHandle, uint8_t bPhase, uint16_t hDurationms);
 165:MCSDK_v6.3.0-Full/MotorControl/MCSDK/MCLib/Any/Inc/revup_ctrl.h **** 
 166:MCSDK_v6.3.0-Full/MotorControl/MCSDK/MCLib/Any/Inc/revup_ctrl.h **** /* Allows to modify targeted mechanical speed of a selected phase */
 167:MCSDK_v6.3.0-Full/MotorControl/MCSDK/MCLib/Any/Inc/revup_ctrl.h **** void RUC_SetPhaseFinalMecSpeedUnit(RevUpCtrl_Handle_t *pHandle, uint8_t bPhase, int16_t hFinalMecSp
 168:MCSDK_v6.3.0-Full/MotorControl/MCSDK/MCLib/Any/Inc/revup_ctrl.h **** 
 169:MCSDK_v6.3.0-Full/MotorControl/MCSDK/MCLib/Any/Inc/revup_ctrl.h **** /* Allows to modify targeted the motor torque of a selected phase */
 170:MCSDK_v6.3.0-Full/MotorControl/MCSDK/MCLib/Any/Inc/revup_ctrl.h **** void RUC_SetPhaseFinalTorque(RevUpCtrl_Handle_t *pHandle, uint8_t bPhase, int16_t hFinalTorque);
 171:MCSDK_v6.3.0-Full/MotorControl/MCSDK/MCLib/Any/Inc/revup_ctrl.h **** 
 172:MCSDK_v6.3.0-Full/MotorControl/MCSDK/MCLib/Any/Inc/revup_ctrl.h **** /* Allows to read duration set in selected phase */
 173:MCSDK_v6.3.0-Full/MotorControl/MCSDK/MCLib/Any/Inc/revup_ctrl.h **** uint16_t RUC_GetPhaseDurationms(RevUpCtrl_Handle_t *pHandle, uint8_t bPhase);
ARM GAS  /tmp/ccAfo4nU.s 			page 63


 174:MCSDK_v6.3.0-Full/MotorControl/MCSDK/MCLib/Any/Inc/revup_ctrl.h **** 
 175:MCSDK_v6.3.0-Full/MotorControl/MCSDK/MCLib/Any/Inc/revup_ctrl.h **** /* Allows to read targeted Rotor speed set in selected phase */
 176:MCSDK_v6.3.0-Full/MotorControl/MCSDK/MCLib/Any/Inc/revup_ctrl.h **** int16_t RUC_GetPhaseFinalMecSpeedUnit(RevUpCtrl_Handle_t *pHandle, uint8_t bPhase);
 177:MCSDK_v6.3.0-Full/MotorControl/MCSDK/MCLib/Any/Inc/revup_ctrl.h **** 
 178:MCSDK_v6.3.0-Full/MotorControl/MCSDK/MCLib/Any/Inc/revup_ctrl.h **** /* Allows to read targeted motor torque set in selected phase */
 179:MCSDK_v6.3.0-Full/MotorControl/MCSDK/MCLib/Any/Inc/revup_ctrl.h **** int16_t RUC_GetPhaseFinalTorque(RevUpCtrl_Handle_t *pHandle, uint8_t bPhase);
 180:MCSDK_v6.3.0-Full/MotorControl/MCSDK/MCLib/Any/Inc/revup_ctrl.h **** 
 181:MCSDK_v6.3.0-Full/MotorControl/MCSDK/MCLib/Any/Inc/revup_ctrl.h **** /* @brief  It checks if this stage is used for align motor. */
 182:MCSDK_v6.3.0-Full/MotorControl/MCSDK/MCLib/Any/Inc/revup_ctrl.h **** uint8_t RUC_IsAlignStageNow(RevUpCtrl_Handle_t *pHandle);
 183:MCSDK_v6.3.0-Full/MotorControl/MCSDK/MCLib/Any/Inc/revup_ctrl.h **** 
 184:MCSDK_v6.3.0-Full/MotorControl/MCSDK/MCLib/Any/Inc/revup_ctrl.h **** /**
 185:MCSDK_v6.3.0-Full/MotorControl/MCSDK/MCLib/Any/Inc/revup_ctrl.h ****   * @brief  Allow to exit from Rev-Up process at the current rotor speed.
 186:MCSDK_v6.3.0-Full/MotorControl/MCSDK/MCLib/Any/Inc/revup_ctrl.h ****   * @param  pHandle: Pointer on Handle structure of RevUp controller.
 187:MCSDK_v6.3.0-Full/MotorControl/MCSDK/MCLib/Any/Inc/revup_ctrl.h ****   */
 188:MCSDK_v6.3.0-Full/MotorControl/MCSDK/MCLib/Any/Inc/revup_ctrl.h **** static inline void RUC_Stop(RevUpCtrl_Handle_t *pHandle)
 189:MCSDK_v6.3.0-Full/MotorControl/MCSDK/MCLib/Any/Inc/revup_ctrl.h **** {
 190:MCSDK_v6.3.0-Full/MotorControl/MCSDK/MCLib/Any/Inc/revup_ctrl.h **** #ifdef NULL_PTR_CHECK_REV_UP_CTL
 191:MCSDK_v6.3.0-Full/MotorControl/MCSDK/MCLib/Any/Inc/revup_ctrl.h ****   if (MC_NULL == pHandle)
 192:MCSDK_v6.3.0-Full/MotorControl/MCSDK/MCLib/Any/Inc/revup_ctrl.h ****   {
 193:MCSDK_v6.3.0-Full/MotorControl/MCSDK/MCLib/Any/Inc/revup_ctrl.h ****     /* Nothing to do */
 194:MCSDK_v6.3.0-Full/MotorControl/MCSDK/MCLib/Any/Inc/revup_ctrl.h ****   }
 195:MCSDK_v6.3.0-Full/MotorControl/MCSDK/MCLib/Any/Inc/revup_ctrl.h ****   else
 196:MCSDK_v6.3.0-Full/MotorControl/MCSDK/MCLib/Any/Inc/revup_ctrl.h ****   {
 197:MCSDK_v6.3.0-Full/MotorControl/MCSDK/MCLib/Any/Inc/revup_ctrl.h **** #endif
 198:MCSDK_v6.3.0-Full/MotorControl/MCSDK/MCLib/Any/Inc/revup_ctrl.h ****     VirtualSpeedSensor_Handle_t *pVSS = pHandle->pVSS;
 199:MCSDK_v6.3.0-Full/MotorControl/MCSDK/MCLib/Any/Inc/revup_ctrl.h ****     pHandle->pCurrentPhaseParams = MC_NULL;
 200:MCSDK_v6.3.0-Full/MotorControl/MCSDK/MCLib/Any/Inc/revup_ctrl.h ****     pHandle->hPhaseRemainingTicks = 0U;
 201:MCSDK_v6.3.0-Full/MotorControl/MCSDK/MCLib/Any/Inc/revup_ctrl.h ****     VSS_SetMecAcceleration(pVSS, SPD_GetAvrgMecSpeedUnit(&pVSS->_Super), 0U);
 202:MCSDK_v6.3.0-Full/MotorControl/MCSDK/MCLib/Any/Inc/revup_ctrl.h **** #ifdef NULL_PTR_CHECK_REV_UP_CTL
 203:MCSDK_v6.3.0-Full/MotorControl/MCSDK/MCLib/Any/Inc/revup_ctrl.h ****   }
 204:MCSDK_v6.3.0-Full/MotorControl/MCSDK/MCLib/Any/Inc/revup_ctrl.h **** #endif
 205:MCSDK_v6.3.0-Full/MotorControl/MCSDK/MCLib/Any/Inc/revup_ctrl.h **** }
 206:MCSDK_v6.3.0-Full/MotorControl/MCSDK/MCLib/Any/Inc/revup_ctrl.h **** 
 207:MCSDK_v6.3.0-Full/MotorControl/MCSDK/MCLib/Any/Inc/revup_ctrl.h **** /**
 208:MCSDK_v6.3.0-Full/MotorControl/MCSDK/MCLib/Any/Inc/revup_ctrl.h ****   * @brief  Provide current state of Rev-Up controller procedure.
 209:MCSDK_v6.3.0-Full/MotorControl/MCSDK/MCLib/Any/Inc/revup_ctrl.h ****   * @param  pHandle: Pointer on Handle structure of RevUp controller.
 210:MCSDK_v6.3.0-Full/MotorControl/MCSDK/MCLib/Any/Inc/revup_ctrl.h ****   *  @retval Boolean set to true when entire Rev-Up phases have been completed.
 211:MCSDK_v6.3.0-Full/MotorControl/MCSDK/MCLib/Any/Inc/revup_ctrl.h ****   */
 212:MCSDK_v6.3.0-Full/MotorControl/MCSDK/MCLib/Any/Inc/revup_ctrl.h **** static inline bool RUC_Completed(RevUpCtrl_Handle_t *pHandle)
 213:MCSDK_v6.3.0-Full/MotorControl/MCSDK/MCLib/Any/Inc/revup_ctrl.h **** {
 214:MCSDK_v6.3.0-Full/MotorControl/MCSDK/MCLib/Any/Inc/revup_ctrl.h ****   bool retVal = false;
 215:MCSDK_v6.3.0-Full/MotorControl/MCSDK/MCLib/Any/Inc/revup_ctrl.h **** #ifdef NULL_PTR_CHECK_REV_UP_CTL
 216:MCSDK_v6.3.0-Full/MotorControl/MCSDK/MCLib/Any/Inc/revup_ctrl.h ****   if (MC_NULL == pHandle)
 217:MCSDK_v6.3.0-Full/MotorControl/MCSDK/MCLib/Any/Inc/revup_ctrl.h ****   {
 218:MCSDK_v6.3.0-Full/MotorControl/MCSDK/MCLib/Any/Inc/revup_ctrl.h ****     /* Nothing to do */
 219:MCSDK_v6.3.0-Full/MotorControl/MCSDK/MCLib/Any/Inc/revup_ctrl.h ****   }
 220:MCSDK_v6.3.0-Full/MotorControl/MCSDK/MCLib/Any/Inc/revup_ctrl.h ****   else
 221:MCSDK_v6.3.0-Full/MotorControl/MCSDK/MCLib/Any/Inc/revup_ctrl.h ****   {
 222:MCSDK_v6.3.0-Full/MotorControl/MCSDK/MCLib/Any/Inc/revup_ctrl.h **** #endif
 223:MCSDK_v6.3.0-Full/MotorControl/MCSDK/MCLib/Any/Inc/revup_ctrl.h ****     if (MC_NULL == pHandle->pCurrentPhaseParams)
 224:MCSDK_v6.3.0-Full/MotorControl/MCSDK/MCLib/Any/Inc/revup_ctrl.h ****     {
 225:MCSDK_v6.3.0-Full/MotorControl/MCSDK/MCLib/Any/Inc/revup_ctrl.h ****       retVal = true;
 226:MCSDK_v6.3.0-Full/MotorControl/MCSDK/MCLib/Any/Inc/revup_ctrl.h ****     }
 227:MCSDK_v6.3.0-Full/MotorControl/MCSDK/MCLib/Any/Inc/revup_ctrl.h ****     else
 228:MCSDK_v6.3.0-Full/MotorControl/MCSDK/MCLib/Any/Inc/revup_ctrl.h ****     {
 229:MCSDK_v6.3.0-Full/MotorControl/MCSDK/MCLib/Any/Inc/revup_ctrl.h ****       /* Nothing to do */
 230:MCSDK_v6.3.0-Full/MotorControl/MCSDK/MCLib/Any/Inc/revup_ctrl.h ****     }
ARM GAS  /tmp/ccAfo4nU.s 			page 64


 231:MCSDK_v6.3.0-Full/MotorControl/MCSDK/MCLib/Any/Inc/revup_ctrl.h **** #ifdef NULL_PTR_CHECK_REV_UP_CTL
 232:MCSDK_v6.3.0-Full/MotorControl/MCSDK/MCLib/Any/Inc/revup_ctrl.h ****   }
 233:MCSDK_v6.3.0-Full/MotorControl/MCSDK/MCLib/Any/Inc/revup_ctrl.h **** #endif
 234:MCSDK_v6.3.0-Full/MotorControl/MCSDK/MCLib/Any/Inc/revup_ctrl.h ****   return (retVal);
 235:MCSDK_v6.3.0-Full/MotorControl/MCSDK/MCLib/Any/Inc/revup_ctrl.h **** }
 236:MCSDK_v6.3.0-Full/MotorControl/MCSDK/MCLib/Any/Inc/revup_ctrl.h **** 
 237:MCSDK_v6.3.0-Full/MotorControl/MCSDK/MCLib/Any/Inc/revup_ctrl.h **** /**
 238:MCSDK_v6.3.0-Full/MotorControl/MCSDK/MCLib/Any/Inc/revup_ctrl.h ****   * @brief  Allow to configure a Rev-Up phase.
 239:MCSDK_v6.3.0-Full/MotorControl/MCSDK/MCLib/Any/Inc/revup_ctrl.h ****   * @param  pHandle: Pointer on Handle structure of Rev-Up controller.
 240:MCSDK_v6.3.0-Full/MotorControl/MCSDK/MCLib/Any/Inc/revup_ctrl.h ****   * @param  phaseNumber : number of phases relative to the programmed Rev-Up
 241:MCSDK_v6.3.0-Full/MotorControl/MCSDK/MCLib/Any/Inc/revup_ctrl.h ****   * @param  phaseData:
 242:MCSDK_v6.3.0-Full/MotorControl/MCSDK/MCLib/Any/Inc/revup_ctrl.h ****   *       - RevUp phase where new motor torque shall be modified.
 243:MCSDK_v6.3.0-Full/MotorControl/MCSDK/MCLib/Any/Inc/revup_ctrl.h ****   *              This parameter must be a number between 0 and 6.
 244:MCSDK_v6.3.0-Full/MotorControl/MCSDK/MCLib/Any/Inc/revup_ctrl.h ****   *            - RevUp phase where new mechanical speed shall be modified.
 245:MCSDK_v6.3.0-Full/MotorControl/MCSDK/MCLib/Any/Inc/revup_ctrl.h ****   *             This parameter must be a number between 0 and 6.
 246:MCSDK_v6.3.0-Full/MotorControl/MCSDK/MCLib/Any/Inc/revup_ctrl.h ****   *            - New duration value required for associated phase in ms unit.
 247:MCSDK_v6.3.0-Full/MotorControl/MCSDK/MCLib/Any/Inc/revup_ctrl.h ****   *  @retval Boolean set to true
 248:MCSDK_v6.3.0-Full/MotorControl/MCSDK/MCLib/Any/Inc/revup_ctrl.h ****   */
 249:MCSDK_v6.3.0-Full/MotorControl/MCSDK/MCLib/Any/Inc/revup_ctrl.h **** static inline bool RUC_SetPhase(RevUpCtrl_Handle_t *pHandle, uint8_t phaseNumber, RevUpCtrl_PhasePa
 250:MCSDK_v6.3.0-Full/MotorControl/MCSDK/MCLib/Any/Inc/revup_ctrl.h **** {
 251:MCSDK_v6.3.0-Full/MotorControl/MCSDK/MCLib/Any/Inc/revup_ctrl.h ****   bool retValue = true;
 252:MCSDK_v6.3.0-Full/MotorControl/MCSDK/MCLib/Any/Inc/revup_ctrl.h **** #ifdef NULL_PTR_CHECK_REV_UP_CTL
 253:MCSDK_v6.3.0-Full/MotorControl/MCSDK/MCLib/Any/Inc/revup_ctrl.h ****   if ((MC_NULL == pHandle) || (MC_NULL == phaseData))
 254:MCSDK_v6.3.0-Full/MotorControl/MCSDK/MCLib/Any/Inc/revup_ctrl.h ****   {
 255:MCSDK_v6.3.0-Full/MotorControl/MCSDK/MCLib/Any/Inc/revup_ctrl.h ****     retValue = false;
 256:MCSDK_v6.3.0-Full/MotorControl/MCSDK/MCLib/Any/Inc/revup_ctrl.h ****   }
 257:MCSDK_v6.3.0-Full/MotorControl/MCSDK/MCLib/Any/Inc/revup_ctrl.h ****   else
 258:MCSDK_v6.3.0-Full/MotorControl/MCSDK/MCLib/Any/Inc/revup_ctrl.h ****   {
 259:MCSDK_v6.3.0-Full/MotorControl/MCSDK/MCLib/Any/Inc/revup_ctrl.h **** #endif
 260:MCSDK_v6.3.0-Full/MotorControl/MCSDK/MCLib/Any/Inc/revup_ctrl.h ****     pHandle->ParamsData[phaseNumber].hFinalTorque = phaseData->hFinalTorque;
 1615              		.loc 2 260 51 view .LVU432
 1616 0510 4F4B     		ldr	r3, .L201+24
 1617              	.LBE69:
 1618              	.LBE68:
 571:Src/register_interface.c ****               revUpPhase.hFinalTorque = *((int16_t *) &rawData[4U + (i * 8U)]); //cstat !MISRAC2012
 1619              		.loc 1 571 88 view .LVU433
 1620 0512 4E4A     		ldr	r2, .L201+20
 573:Src/register_interface.c ****               (void)RUC_SetPhase(&RevUpControlM1, i, &revUpPhase);
 1621              		.loc 1 573 41 view .LVU434
 1622 0514 2189     		ldrh	r1, [r4, #8]
 1623              	.LVL195:
 572:Src/register_interface.c ****               revUpPhase.hDurationms  = *((uint16_t *) &rawData[6U +(i * 8U)]); //cstat !MISRAC2012
 1624              		.loc 1 572 41 view .LVU435
 1625 0516 B4F90660 		ldrsh	r6, [r4, #6]
 1626              	.LBB84:
 1627              	.LBB70:
 261:MCSDK_v6.3.0-Full/MotorControl/MCSDK/MCLib/Any/Inc/revup_ctrl.h ****     pHandle->ParamsData[phaseNumber].hFinalMecSpeedUnit = phaseData->hFinalMecSpeedUnit;
 262:MCSDK_v6.3.0-Full/MotorControl/MCSDK/MCLib/Any/Inc/revup_ctrl.h ****     pHandle->ParamsData[phaseNumber].hDurationms = phaseData->hDurationms;
 1628              		.loc 2 262 50 view .LVU436
 1629 051a 9981     		strh	r1, [r3, #12]	@ movhi
 1630              	.LBE70:
 1631              	.LBE84:
 571:Src/register_interface.c ****               revUpPhase.hFinalTorque = *((int16_t *) &rawData[4U + (i * 8U)]); //cstat !MISRAC2012
 1632              		.loc 1 571 88 view .LVU437
 1633 051c 82FB00C1 		smull	ip, r1, r2, r0
 1634 0520 A1EBE071 		sub	r1, r1, r0, asr #31
 1635              	.LVL196:
ARM GAS  /tmp/ccAfo4nU.s 			page 65


 572:Src/register_interface.c ****               revUpPhase.hDurationms  = *((uint16_t *) &rawData[6U +(i * 8U)]); //cstat !MISRAC2012
 1636              		.loc 1 572 15 is_stmt 1 view .LVU438
 573:Src/register_interface.c ****               (void)RUC_SetPhase(&RevUpControlM1, i, &revUpPhase);
 1637              		.loc 1 573 15 view .LVU439
 574:Src/register_interface.c ****               }
 1638              		.loc 1 574 15 view .LVU440
 1639              	.LBB85:
 1640              	.LBI68:
 249:MCSDK_v6.3.0-Full/MotorControl/MCSDK/MCLib/Any/Inc/revup_ctrl.h **** {
 1641              		.loc 2 249 20 view .LVU441
 1642              	.LBB71:
 251:MCSDK_v6.3.0-Full/MotorControl/MCSDK/MCLib/Any/Inc/revup_ctrl.h **** #ifdef NULL_PTR_CHECK_REV_UP_CTL
 1643              		.loc 2 251 3 view .LVU442
 260:MCSDK_v6.3.0-Full/MotorControl/MCSDK/MCLib/Any/Inc/revup_ctrl.h ****     pHandle->ParamsData[phaseNumber].hFinalMecSpeedUnit = phaseData->hFinalMecSpeedUnit;
 1644              		.loc 2 260 5 view .LVU443
 1645              	.LBE71:
 1646              	.LBE85:
 568:Src/register_interface.c ****               {
 1647              		.loc 1 568 15 is_stmt 0 view .LVU444
 1648 0524 012D     		cmp	r5, #1
 1649              	.LBB86:
 1650              	.LBB72:
 261:MCSDK_v6.3.0-Full/MotorControl/MCSDK/MCLib/Any/Inc/revup_ctrl.h ****     pHandle->ParamsData[phaseNumber].hDurationms = phaseData->hDurationms;
 1651              		.loc 2 261 57 view .LVU445
 1652 0526 D981     		strh	r1, [r3, #14]	@ movhi
 260:MCSDK_v6.3.0-Full/MotorControl/MCSDK/MCLib/Any/Inc/revup_ctrl.h ****     pHandle->ParamsData[phaseNumber].hFinalMecSpeedUnit = phaseData->hFinalMecSpeedUnit;
 1653              		.loc 2 260 51 view .LVU446
 1654 0528 1E82     		strh	r6, [r3, #16]	@ movhi
 261:MCSDK_v6.3.0-Full/MotorControl/MCSDK/MCLib/Any/Inc/revup_ctrl.h ****     pHandle->ParamsData[phaseNumber].hDurationms = phaseData->hDurationms;
 1655              		.loc 2 261 5 is_stmt 1 view .LVU447
 1656              		.loc 2 262 5 view .LVU448
 263:MCSDK_v6.3.0-Full/MotorControl/MCSDK/MCLib/Any/Inc/revup_ctrl.h **** #ifdef NULL_PTR_CHECK_REV_UP_CTL
 264:MCSDK_v6.3.0-Full/MotorControl/MCSDK/MCLib/Any/Inc/revup_ctrl.h ****   }
 265:MCSDK_v6.3.0-Full/MotorControl/MCSDK/MCLib/Any/Inc/revup_ctrl.h **** #endif
 266:MCSDK_v6.3.0-Full/MotorControl/MCSDK/MCLib/Any/Inc/revup_ctrl.h ****   return (retValue);
 1657              		.loc 2 266 3 view .LVU449
 1658              	.LVL197:
 1659              		.loc 2 266 3 is_stmt 0 view .LVU450
 1660              	.LBE72:
 1661              	.LBE86:
 568:Src/register_interface.c ****               {
 1662              		.loc 1 568 15 view .LVU451
 1663 052a E6D0     		beq	.L176
 570:Src/register_interface.c ****               revUpPhase.hFinalMecSpeedUnit = (((int16_t)rpm) * ((int16_t)SPEED_UNIT)) / ((int16_t)
 1664              		.loc 1 570 15 is_stmt 1 view .LVU452
 1665              	.LVL198:
 571:Src/register_interface.c ****               revUpPhase.hFinalTorque = *((int16_t *) &rawData[4U + (i * 8U)]); //cstat !MISRAC2012
 1666              		.loc 1 571 15 view .LVU453
 571:Src/register_interface.c ****               revUpPhase.hFinalTorque = *((int16_t *) &rawData[4U + (i * 8U)]); //cstat !MISRAC2012
 1667              		.loc 1 571 88 is_stmt 0 view .LVU454
 1668 052c B4F90A00 		ldrsh	r0, [r4, #10]
 573:Src/register_interface.c ****               (void)RUC_SetPhase(&RevUpControlM1, i, &revUpPhase);
 1669              		.loc 1 573 41 view .LVU455
 1670 0530 218A     		ldrh	r1, [r4, #16]
 1671              	.LVL199:
 572:Src/register_interface.c ****               revUpPhase.hDurationms  = *((uint16_t *) &rawData[6U +(i * 8U)]); //cstat !MISRAC2012
 1672              		.loc 1 572 41 view .LVU456
ARM GAS  /tmp/ccAfo4nU.s 			page 66


 1673 0532 B4F90E60 		ldrsh	r6, [r4, #14]
 1674              	.LVL200:
 1675              	.LBB87:
 1676              	.LBB73:
 262:MCSDK_v6.3.0-Full/MotorControl/MCSDK/MCLib/Any/Inc/revup_ctrl.h **** #ifdef NULL_PTR_CHECK_REV_UP_CTL
 1677              		.loc 2 262 50 view .LVU457
 1678 0536 1983     		strh	r1, [r3, #24]	@ movhi
 1679              	.LBE73:
 1680              	.LBE87:
 571:Src/register_interface.c ****               revUpPhase.hFinalTorque = *((int16_t *) &rawData[4U + (i * 8U)]); //cstat !MISRAC2012
 1681              		.loc 1 571 88 view .LVU458
 1682 0538 82FB00C1 		smull	ip, r1, r2, r0
 1683 053c A1EBE071 		sub	r1, r1, r0, asr #31
 1684              	.LVL201:
 572:Src/register_interface.c ****               revUpPhase.hDurationms  = *((uint16_t *) &rawData[6U +(i * 8U)]); //cstat !MISRAC2012
 1685              		.loc 1 572 15 is_stmt 1 view .LVU459
 573:Src/register_interface.c ****               (void)RUC_SetPhase(&RevUpControlM1, i, &revUpPhase);
 1686              		.loc 1 573 15 view .LVU460
 574:Src/register_interface.c ****               }
 1687              		.loc 1 574 15 view .LVU461
 1688              	.LBB88:
 249:MCSDK_v6.3.0-Full/MotorControl/MCSDK/MCLib/Any/Inc/revup_ctrl.h **** {
 1689              		.loc 2 249 20 view .LVU462
 1690              	.LBB74:
 251:MCSDK_v6.3.0-Full/MotorControl/MCSDK/MCLib/Any/Inc/revup_ctrl.h **** #ifdef NULL_PTR_CHECK_REV_UP_CTL
 1691              		.loc 2 251 3 view .LVU463
 260:MCSDK_v6.3.0-Full/MotorControl/MCSDK/MCLib/Any/Inc/revup_ctrl.h ****     pHandle->ParamsData[phaseNumber].hFinalMecSpeedUnit = phaseData->hFinalMecSpeedUnit;
 1692              		.loc 2 260 5 view .LVU464
 1693              	.LBE74:
 1694              	.LBE88:
 568:Src/register_interface.c ****               {
 1695              		.loc 1 568 15 is_stmt 0 view .LVU465
 1696 0540 022D     		cmp	r5, #2
 1697              	.LBB89:
 1698              	.LBB75:
 261:MCSDK_v6.3.0-Full/MotorControl/MCSDK/MCLib/Any/Inc/revup_ctrl.h ****     pHandle->ParamsData[phaseNumber].hDurationms = phaseData->hDurationms;
 1699              		.loc 2 261 57 view .LVU466
 1700 0542 5983     		strh	r1, [r3, #26]	@ movhi
 260:MCSDK_v6.3.0-Full/MotorControl/MCSDK/MCLib/Any/Inc/revup_ctrl.h ****     pHandle->ParamsData[phaseNumber].hFinalMecSpeedUnit = phaseData->hFinalMecSpeedUnit;
 1701              		.loc 2 260 51 view .LVU467
 1702 0544 9E83     		strh	r6, [r3, #28]	@ movhi
 261:MCSDK_v6.3.0-Full/MotorControl/MCSDK/MCLib/Any/Inc/revup_ctrl.h ****     pHandle->ParamsData[phaseNumber].hDurationms = phaseData->hDurationms;
 1703              		.loc 2 261 5 is_stmt 1 view .LVU468
 262:MCSDK_v6.3.0-Full/MotorControl/MCSDK/MCLib/Any/Inc/revup_ctrl.h **** #ifdef NULL_PTR_CHECK_REV_UP_CTL
 1704              		.loc 2 262 5 view .LVU469
 1705              		.loc 2 266 3 view .LVU470
 1706              	.LVL202:
 1707              		.loc 2 266 3 is_stmt 0 view .LVU471
 1708              	.LBE75:
 1709              	.LBE89:
 568:Src/register_interface.c ****               {
 1710              		.loc 1 568 15 view .LVU472
 1711 0546 D8D0     		beq	.L176
 570:Src/register_interface.c ****               revUpPhase.hFinalMecSpeedUnit = (((int16_t)rpm) * ((int16_t)SPEED_UNIT)) / ((int16_t)
 1712              		.loc 1 570 15 is_stmt 1 view .LVU473
 1713              	.LVL203:
 571:Src/register_interface.c ****               revUpPhase.hFinalTorque = *((int16_t *) &rawData[4U + (i * 8U)]); //cstat !MISRAC2012
ARM GAS  /tmp/ccAfo4nU.s 			page 67


 1714              		.loc 1 571 15 view .LVU474
 571:Src/register_interface.c ****               revUpPhase.hFinalTorque = *((int16_t *) &rawData[4U + (i * 8U)]); //cstat !MISRAC2012
 1715              		.loc 1 571 88 is_stmt 0 view .LVU475
 1716 0548 B4F91210 		ldrsh	r1, [r4, #18]
 1717              	.LVL204:
 573:Src/register_interface.c ****               (void)RUC_SetPhase(&RevUpControlM1, i, &revUpPhase);
 1718              		.loc 1 573 41 view .LVU476
 1719 054c 268B     		ldrh	r6, [r4, #24]
 1720              	.LVL205:
 572:Src/register_interface.c ****               revUpPhase.hDurationms  = *((uint16_t *) &rawData[6U +(i * 8U)]); //cstat !MISRAC2012
 1721              		.loc 1 572 41 view .LVU477
 1722 054e B4F91600 		ldrsh	r0, [r4, #22]
 1723              	.LBB90:
 1724              	.LBB76:
 262:MCSDK_v6.3.0-Full/MotorControl/MCSDK/MCLib/Any/Inc/revup_ctrl.h **** #ifdef NULL_PTR_CHECK_REV_UP_CTL
 1725              		.loc 2 262 50 view .LVU478
 1726 0552 9E84     		strh	r6, [r3, #36]	@ movhi
 1727              	.LBE76:
 1728              	.LBE90:
 571:Src/register_interface.c ****               revUpPhase.hFinalTorque = *((int16_t *) &rawData[4U + (i * 8U)]); //cstat !MISRAC2012
 1729              		.loc 1 571 88 view .LVU479
 1730 0554 82FB0162 		smull	r6, r2, r2, r1
 1731 0558 A2EBE172 		sub	r2, r2, r1, asr #31
 1732              	.LVL206:
 572:Src/register_interface.c ****               revUpPhase.hDurationms  = *((uint16_t *) &rawData[6U +(i * 8U)]); //cstat !MISRAC2012
 1733              		.loc 1 572 15 is_stmt 1 view .LVU480
 573:Src/register_interface.c ****               (void)RUC_SetPhase(&RevUpControlM1, i, &revUpPhase);
 1734              		.loc 1 573 15 view .LVU481
 574:Src/register_interface.c ****               }
 1735              		.loc 1 574 15 view .LVU482
 1736              	.LBB91:
 249:MCSDK_v6.3.0-Full/MotorControl/MCSDK/MCLib/Any/Inc/revup_ctrl.h **** {
 1737              		.loc 2 249 20 view .LVU483
 1738              	.LBB77:
 251:MCSDK_v6.3.0-Full/MotorControl/MCSDK/MCLib/Any/Inc/revup_ctrl.h **** #ifdef NULL_PTR_CHECK_REV_UP_CTL
 1739              		.loc 2 251 3 view .LVU484
 260:MCSDK_v6.3.0-Full/MotorControl/MCSDK/MCLib/Any/Inc/revup_ctrl.h ****     pHandle->ParamsData[phaseNumber].hFinalMecSpeedUnit = phaseData->hFinalMecSpeedUnit;
 1740              		.loc 2 260 5 view .LVU485
 1741              	.LBE77:
 1742              	.LBE91:
 568:Src/register_interface.c ****               {
 1743              		.loc 1 568 15 is_stmt 0 view .LVU486
 1744 055c 032D     		cmp	r5, #3
 1745              	.LBB92:
 1746              	.LBB78:
 261:MCSDK_v6.3.0-Full/MotorControl/MCSDK/MCLib/Any/Inc/revup_ctrl.h ****     pHandle->ParamsData[phaseNumber].hDurationms = phaseData->hDurationms;
 1747              		.loc 2 261 57 view .LVU487
 1748 055e DA84     		strh	r2, [r3, #38]	@ movhi
 260:MCSDK_v6.3.0-Full/MotorControl/MCSDK/MCLib/Any/Inc/revup_ctrl.h ****     pHandle->ParamsData[phaseNumber].hFinalMecSpeedUnit = phaseData->hFinalMecSpeedUnit;
 1749              		.loc 2 260 51 view .LVU488
 1750 0560 1885     		strh	r0, [r3, #40]	@ movhi
 261:MCSDK_v6.3.0-Full/MotorControl/MCSDK/MCLib/Any/Inc/revup_ctrl.h ****     pHandle->ParamsData[phaseNumber].hDurationms = phaseData->hDurationms;
 1751              		.loc 2 261 5 is_stmt 1 view .LVU489
 262:MCSDK_v6.3.0-Full/MotorControl/MCSDK/MCLib/Any/Inc/revup_ctrl.h **** #ifdef NULL_PTR_CHECK_REV_UP_CTL
 1752              		.loc 2 262 5 view .LVU490
 1753              		.loc 2 266 3 view .LVU491
 1754              	.LVL207:
ARM GAS  /tmp/ccAfo4nU.s 			page 68


 1755              		.loc 2 266 3 is_stmt 0 view .LVU492
 1756              	.LBE78:
 1757              	.LBE92:
 568:Src/register_interface.c ****               {
 1758              		.loc 1 568 15 view .LVU493
 1759 0562 CAD0     		beq	.L176
 570:Src/register_interface.c ****               revUpPhase.hFinalMecSpeedUnit = (((int16_t)rpm) * ((int16_t)SPEED_UNIT)) / ((int16_t)
 1760              		.loc 1 570 15 is_stmt 1 view .LVU494
 1761              	.LVL208:
 571:Src/register_interface.c ****               revUpPhase.hFinalTorque = *((int16_t *) &rawData[4U + (i * 8U)]); //cstat !MISRAC2012
 1762              		.loc 1 571 15 view .LVU495
 571:Src/register_interface.c ****               revUpPhase.hFinalTorque = *((int16_t *) &rawData[4U + (i * 8U)]); //cstat !MISRAC2012
 1763              		.loc 1 571 88 is_stmt 0 view .LVU496
 1764 0564 B4F91A00 		ldrsh	r0, [r4, #26]
 1765              	.LVL209:
 571:Src/register_interface.c ****               revUpPhase.hFinalTorque = *((int16_t *) &rawData[4U + (i * 8U)]); //cstat !MISRAC2012
 1766              		.loc 1 571 88 view .LVU497
 1767 0568 384A     		ldr	r2, .L201+20
 1768              	.LVL210:
 573:Src/register_interface.c ****               (void)RUC_SetPhase(&RevUpControlM1, i, &revUpPhase);
 1769              		.loc 1 573 41 view .LVU498
 1770 056a 218C     		ldrh	r1, [r4, #32]
 572:Src/register_interface.c ****               revUpPhase.hDurationms  = *((uint16_t *) &rawData[6U +(i * 8U)]); //cstat !MISRAC2012
 1771              		.loc 1 572 41 view .LVU499
 1772 056c B4F91E60 		ldrsh	r6, [r4, #30]
 1773              	.LBB93:
 1774              	.LBB79:
 262:MCSDK_v6.3.0-Full/MotorControl/MCSDK/MCLib/Any/Inc/revup_ctrl.h **** #ifdef NULL_PTR_CHECK_REV_UP_CTL
 1775              		.loc 2 262 50 view .LVU500
 1776 0570 1986     		strh	r1, [r3, #48]	@ movhi
 1777              	.LBE79:
 1778              	.LBE93:
 571:Src/register_interface.c ****               revUpPhase.hFinalTorque = *((int16_t *) &rawData[4U + (i * 8U)]); //cstat !MISRAC2012
 1779              		.loc 1 571 88 view .LVU501
 1780 0572 82FB00C1 		smull	ip, r1, r2, r0
 1781 0576 A1EBE071 		sub	r1, r1, r0, asr #31
 1782              	.LVL211:
 572:Src/register_interface.c ****               revUpPhase.hDurationms  = *((uint16_t *) &rawData[6U +(i * 8U)]); //cstat !MISRAC2012
 1783              		.loc 1 572 15 is_stmt 1 view .LVU502
 573:Src/register_interface.c ****               (void)RUC_SetPhase(&RevUpControlM1, i, &revUpPhase);
 1784              		.loc 1 573 15 view .LVU503
 574:Src/register_interface.c ****               }
 1785              		.loc 1 574 15 view .LVU504
 1786              	.LBB94:
 249:MCSDK_v6.3.0-Full/MotorControl/MCSDK/MCLib/Any/Inc/revup_ctrl.h **** {
 1787              		.loc 2 249 20 view .LVU505
 1788              	.LBB80:
 251:MCSDK_v6.3.0-Full/MotorControl/MCSDK/MCLib/Any/Inc/revup_ctrl.h **** #ifdef NULL_PTR_CHECK_REV_UP_CTL
 1789              		.loc 2 251 3 view .LVU506
 260:MCSDK_v6.3.0-Full/MotorControl/MCSDK/MCLib/Any/Inc/revup_ctrl.h ****     pHandle->ParamsData[phaseNumber].hFinalMecSpeedUnit = phaseData->hFinalMecSpeedUnit;
 1790              		.loc 2 260 5 view .LVU507
 1791              	.LBE80:
 1792              	.LBE94:
 568:Src/register_interface.c ****               {
 1793              		.loc 1 568 15 is_stmt 0 view .LVU508
 1794 057a 052D     		cmp	r5, #5
 1795              	.LBB95:
ARM GAS  /tmp/ccAfo4nU.s 			page 69


 1796              	.LBB81:
 261:MCSDK_v6.3.0-Full/MotorControl/MCSDK/MCLib/Any/Inc/revup_ctrl.h ****     pHandle->ParamsData[phaseNumber].hDurationms = phaseData->hDurationms;
 1797              		.loc 2 261 57 view .LVU509
 1798 057c 5986     		strh	r1, [r3, #50]	@ movhi
 260:MCSDK_v6.3.0-Full/MotorControl/MCSDK/MCLib/Any/Inc/revup_ctrl.h ****     pHandle->ParamsData[phaseNumber].hFinalMecSpeedUnit = phaseData->hFinalMecSpeedUnit;
 1799              		.loc 2 260 51 view .LVU510
 1800 057e 9E86     		strh	r6, [r3, #52]	@ movhi
 261:MCSDK_v6.3.0-Full/MotorControl/MCSDK/MCLib/Any/Inc/revup_ctrl.h ****     pHandle->ParamsData[phaseNumber].hDurationms = phaseData->hDurationms;
 1801              		.loc 2 261 5 is_stmt 1 view .LVU511
 262:MCSDK_v6.3.0-Full/MotorControl/MCSDK/MCLib/Any/Inc/revup_ctrl.h **** #ifdef NULL_PTR_CHECK_REV_UP_CTL
 1802              		.loc 2 262 5 view .LVU512
 1803              		.loc 2 266 3 view .LVU513
 1804              	.LVL212:
 1805              		.loc 2 266 3 is_stmt 0 view .LVU514
 1806              	.LBE81:
 1807              	.LBE95:
 568:Src/register_interface.c ****               {
 1808              		.loc 1 568 15 view .LVU515
 1809 0580 BBD1     		bne	.L176
 570:Src/register_interface.c ****               revUpPhase.hFinalMecSpeedUnit = (((int16_t)rpm) * ((int16_t)SPEED_UNIT)) / ((int16_t)
 1810              		.loc 1 570 15 is_stmt 1 discriminator 3 view .LVU516
 1811              	.LVL213:
 571:Src/register_interface.c ****               revUpPhase.hFinalTorque = *((int16_t *) &rawData[4U + (i * 8U)]); //cstat !MISRAC2012
 1812              		.loc 1 571 15 discriminator 3 view .LVU517
 571:Src/register_interface.c ****               revUpPhase.hFinalTorque = *((int16_t *) &rawData[4U + (i * 8U)]); //cstat !MISRAC2012
 1813              		.loc 1 571 88 is_stmt 0 discriminator 3 view .LVU518
 1814 0582 B4F92210 		ldrsh	r1, [r4, #34]
 1815              	.LVL214:
 572:Src/register_interface.c ****               revUpPhase.hDurationms  = *((uint16_t *) &rawData[6U +(i * 8U)]); //cstat !MISRAC2012
 1816              		.loc 1 572 41 discriminator 3 view .LVU519
 1817 0586 B4F92600 		ldrsh	r0, [r4, #38]
 573:Src/register_interface.c ****               (void)RUC_SetPhase(&RevUpControlM1, i, &revUpPhase);
 1818              		.loc 1 573 41 discriminator 3 view .LVU520
 1819 058a 248D     		ldrh	r4, [r4, #40]
 1820              	.LVL215:
 1821              	.LBB96:
 1822              	.LBB82:
 262:MCSDK_v6.3.0-Full/MotorControl/MCSDK/MCLib/Any/Inc/revup_ctrl.h **** #ifdef NULL_PTR_CHECK_REV_UP_CTL
 1823              		.loc 2 262 50 discriminator 3 view .LVU521
 1824 058c 9C87     		strh	r4, [r3, #60]	@ movhi
 1825              	.LBE82:
 1826              	.LBE96:
 571:Src/register_interface.c ****               revUpPhase.hFinalTorque = *((int16_t *) &rawData[4U + (i * 8U)]); //cstat !MISRAC2012
 1827              		.loc 1 571 88 discriminator 3 view .LVU522
 1828 058e 82FB0142 		smull	r4, r2, r2, r1
 1829 0592 A2EBE172 		sub	r2, r2, r1, asr #31
 1830              	.LVL216:
 572:Src/register_interface.c ****               revUpPhase.hDurationms  = *((uint16_t *) &rawData[6U +(i * 8U)]); //cstat !MISRAC2012
 1831              		.loc 1 572 15 is_stmt 1 discriminator 3 view .LVU523
 573:Src/register_interface.c ****               (void)RUC_SetPhase(&RevUpControlM1, i, &revUpPhase);
 1832              		.loc 1 573 15 discriminator 3 view .LVU524
 574:Src/register_interface.c ****               }
 1833              		.loc 1 574 15 discriminator 3 view .LVU525
 1834              	.LBB97:
 249:MCSDK_v6.3.0-Full/MotorControl/MCSDK/MCLib/Any/Inc/revup_ctrl.h **** {
 1835              		.loc 2 249 20 discriminator 3 view .LVU526
 1836              	.LBB83:
ARM GAS  /tmp/ccAfo4nU.s 			page 70


 251:MCSDK_v6.3.0-Full/MotorControl/MCSDK/MCLib/Any/Inc/revup_ctrl.h **** #ifdef NULL_PTR_CHECK_REV_UP_CTL
 1837              		.loc 2 251 3 discriminator 3 view .LVU527
 260:MCSDK_v6.3.0-Full/MotorControl/MCSDK/MCLib/Any/Inc/revup_ctrl.h ****     pHandle->ParamsData[phaseNumber].hFinalMecSpeedUnit = phaseData->hFinalMecSpeedUnit;
 1838              		.loc 2 260 5 discriminator 3 view .LVU528
 261:MCSDK_v6.3.0-Full/MotorControl/MCSDK/MCLib/Any/Inc/revup_ctrl.h ****     pHandle->ParamsData[phaseNumber].hDurationms = phaseData->hDurationms;
 1839              		.loc 2 261 57 is_stmt 0 discriminator 3 view .LVU529
 1840 0596 DA87     		strh	r2, [r3, #62]	@ movhi
 260:MCSDK_v6.3.0-Full/MotorControl/MCSDK/MCLib/Any/Inc/revup_ctrl.h ****     pHandle->ParamsData[phaseNumber].hFinalMecSpeedUnit = phaseData->hFinalMecSpeedUnit;
 1841              		.loc 2 260 51 discriminator 3 view .LVU530
 1842 0598 A3F84000 		strh	r0, [r3, #64]	@ movhi
 261:MCSDK_v6.3.0-Full/MotorControl/MCSDK/MCLib/Any/Inc/revup_ctrl.h ****     pHandle->ParamsData[phaseNumber].hDurationms = phaseData->hDurationms;
 1843              		.loc 2 261 5 is_stmt 1 discriminator 3 view .LVU531
 262:MCSDK_v6.3.0-Full/MotorControl/MCSDK/MCLib/Any/Inc/revup_ctrl.h **** #ifdef NULL_PTR_CHECK_REV_UP_CTL
 1844              		.loc 2 262 5 discriminator 3 view .LVU532
 1845              		.loc 2 266 3 discriminator 3 view .LVU533
 1846              	.LVL217:
 1847              		.loc 2 266 3 is_stmt 0 discriminator 3 view .LVU534
 1848              	.LBE83:
 1849              	.LBE97:
 1850 059c ADE7     		b	.L176
 1851              	.LVL218:
 1852              	.L108:
 1853              		.loc 2 266 3 discriminator 3 view .LVU535
 1854              	.LBE67:
 1855              	.LBB98:
 535:Src/register_interface.c ****             uint16_t duration;
 1856              		.loc 1 535 13 is_stmt 1 view .LVU536
 536:Src/register_interface.c **** 
 1857              		.loc 1 536 13 view .LVU537
 538:Src/register_interface.c ****             duration = *(uint16_t *)&rawData[4]; //cstat !MISRAC2012-Rule-11.3
 1858              		.loc 1 538 13 view .LVU538
 539:Src/register_interface.c ****             MCI_ExecSpeedRamp(pMCIN, (int16_t)((rpm * SPEED_UNIT) / U_RPM), duration);
 1859              		.loc 1 539 13 view .LVU539
 540:Src/register_interface.c ****             break;
 1860              		.loc 1 540 13 view .LVU540
 540:Src/register_interface.c ****             break;
 1861              		.loc 1 540 67 is_stmt 0 view .LVU541
 1862 059e D4F80230 		ldr	r3, [r4, #2]
 1863              	.LVL219:
 540:Src/register_interface.c ****             break;
 1864              		.loc 1 540 67 view .LVU542
 1865 05a2 2A49     		ldr	r1, .L201+20
 1866              	.LVL220:
 540:Src/register_interface.c ****             break;
 1867              		.loc 1 540 13 view .LVU543
 1868 05a4 E288     		ldrh	r2, [r4, #6]
 1869 05a6 2848     		ldr	r0, .L201+16
 1870              	.LVL221:
 540:Src/register_interface.c ****             break;
 1871              		.loc 1 540 67 view .LVU544
 1872 05a8 81FB0341 		smull	r4, r1, r1, r3
 1873              	.LVL222:
 540:Src/register_interface.c ****             break;
 1874              		.loc 1 540 67 view .LVU545
 1875 05ac A1EBE371 		sub	r1, r1, r3, asr #31
 540:Src/register_interface.c ****             break;
 1876              		.loc 1 540 13 view .LVU546
ARM GAS  /tmp/ccAfo4nU.s 			page 71


 1877 05b0 09B2     		sxth	r1, r1
 1878 05b2 FFF7FEFF 		bl	MCI_ExecSpeedRamp
 1879              	.LVL223:
 541:Src/register_interface.c ****           }
 1880              		.loc 1 541 13 is_stmt 1 view .LVU547
 1881              	.LBE98:
 1882              	.LBE142:
 168:Src/register_interface.c ****   uint8_t motorID=0;
 1883              		.loc 1 168 11 is_stmt 0 view .LVU548
 1884 05b6 0020     		movs	r0, #0
 1885              	.LBB143:
 1886              	.LBB99:
 541:Src/register_interface.c ****           }
 1887              		.loc 1 541 13 view .LVU549
 1888 05b8 5FE5     		b	.L170
 1889              	.LVL224:
 1890              	.L153:
 541:Src/register_interface.c ****           }
 1891              		.loc 1 541 13 view .LVU550
 1892              	.LBE99:
 1893              	.LBB100:
 564:Src/register_interface.c ****             }
 1894              		.loc 1 564 22 view .LVU551
 1895 05ba 0A20     		movs	r0, #10
 1896              	.LVL225:
 564:Src/register_interface.c ****             }
 1897              		.loc 1 564 22 view .LVU552
 1898 05bc 5DE5     		b	.L170
 1899              	.LVL226:
 1900              	.L198:
 564:Src/register_interface.c ****             }
 1901              		.loc 1 564 22 view .LVU553
 1902              	.LBE100:
 1903              	.LBE143:
 1904              	.LBB144:
 199:Src/register_interface.c ****           }
 1905              		.loc 1 199 13 is_stmt 1 view .LVU554
 1906 05be 2248     		ldr	r0, .L201+16
 1907              	.LVL227:
 199:Src/register_interface.c ****           }
 1908              		.loc 1 199 13 is_stmt 0 view .LVU555
 1909 05c0 0193     		str	r3, [sp, #4]
 1910 05c2 FFF7FEFF 		bl	MCI_GetMecSpeedRefUnit
 1911              	.LVL228:
 199:Src/register_interface.c ****           }
 1912              		.loc 1 199 13 view .LVU556
 1913 05c6 0022     		movs	r2, #0
 1914 05c8 0146     		mov	r1, r0
 1915 05ca 1F48     		ldr	r0, .L201+16
 1916 05cc FFF7FEFF 		bl	MCI_ExecSpeedRamp
 1917              	.LVL229:
 1918              	.LBE144:
 168:Src/register_interface.c ****   uint8_t motorID=0;
 1919              		.loc 1 168 11 view .LVU557
 1920 05d0 0020     		movs	r0, #0
 1921              	.LBB145:
 1922 05d2 019B     		ldr	r3, [sp, #4]
ARM GAS  /tmp/ccAfo4nU.s 			page 72


 1923 05d4 5DE5     		b	.L55
 1924              	.LVL230:
 1925              	.L95:
 168:Src/register_interface.c ****   uint8_t motorID=0;
 1926              		.loc 1 168 11 view .LVU558
 1927              	.LBE145:
 1928              	.LBB146:
 431:Src/register_interface.c ****           break;
 1929              		.loc 1 431 11 view .LVU559
 1930 05d6 1A48     		ldr	r0, .L201+8
 1931              	.LVL231:
 431:Src/register_interface.c ****           break;
 1932              		.loc 1 431 11 view .LVU560
 1933 05d8 0193     		str	r3, [sp, #4]
 431:Src/register_interface.c ****           break;
 1934              		.loc 1 431 11 is_stmt 1 view .LVU561
 1935 05da 2146     		mov	r1, r4
 1936 05dc FFF7FEFF 		bl	PID_SetKIDivisorPOW2
 1937              	.LVL232:
 432:Src/register_interface.c ****         }
 1938              		.loc 1 432 11 view .LVU562
 1939              	.LBE146:
 168:Src/register_interface.c ****   uint8_t motorID=0;
 1940              		.loc 1 168 11 is_stmt 0 view .LVU563
 1941 05e0 0020     		movs	r0, #0
 1942              	.LBB147:
 432:Src/register_interface.c ****         }
 1943              		.loc 1 432 11 view .LVU564
 1944 05e2 019B     		ldr	r3, [sp, #4]
 1945 05e4 A6E5     		b	.L58
 1946              	.LVL233:
 1947              	.L70:
 279:Src/register_interface.c ****           break;
 1948              		.loc 1 279 11 is_stmt 1 view .LVU565
 1949 05e6 1748     		ldr	r0, .L201+12
 1950              	.LVL234:
 279:Src/register_interface.c ****           break;
 1951              		.loc 1 279 11 is_stmt 0 view .LVU566
 1952 05e8 0193     		str	r3, [sp, #4]
 1953 05ea 21B2     		sxth	r1, r4
 1954 05ec FFF7FEFF 		bl	PID_SetKD
 1955              	.LVL235:
 280:Src/register_interface.c ****         }
 1956              		.loc 1 280 11 is_stmt 1 view .LVU567
 1957              	.LBE147:
 168:Src/register_interface.c ****   uint8_t motorID=0;
 1958              		.loc 1 168 11 is_stmt 0 view .LVU568
 1959 05f0 0020     		movs	r0, #0
 1960              	.LBB148:
 280:Src/register_interface.c ****         }
 1961              		.loc 1 280 11 view .LVU569
 1962 05f2 019B     		ldr	r3, [sp, #4]
 1963 05f4 9EE5     		b	.L58
 1964              	.LVL236:
 1965              	.L80:
 1966              	.LBB109:
 305:Src/register_interface.c ****           currComp = MCI_GetIqdref(pMCIN);
ARM GAS  /tmp/ccAfo4nU.s 			page 73


 1967              		.loc 1 305 11 is_stmt 1 view .LVU570
 306:Src/register_interface.c ****           currComp.q = (int16_t)regdata16;
 1968              		.loc 1 306 11 view .LVU571
 306:Src/register_interface.c ****           currComp.q = (int16_t)regdata16;
 1969              		.loc 1 306 22 is_stmt 0 view .LVU572
 1970 05f6 1448     		ldr	r0, .L201+16
 1971              	.LVL237:
 306:Src/register_interface.c ****           currComp.q = (int16_t)regdata16;
 1972              		.loc 1 306 22 view .LVU573
 1973 05f8 0193     		str	r3, [sp, #4]
 1974 05fa FFF7FEFF 		bl	MCI_GetIqdref
 1975              	.LVL238:
 306:Src/register_interface.c ****           currComp.q = (int16_t)regdata16;
 1976              		.loc 1 306 22 view .LVU574
 1977 05fe 0390     		str	r0, [sp, #12]
 307:Src/register_interface.c ****           MCI_SetCurrentReferences(pMCIN,currComp);
 1978              		.loc 1 307 11 is_stmt 1 view .LVU575
 307:Src/register_interface.c ****           MCI_SetCurrentReferences(pMCIN,currComp);
 1979              		.loc 1 307 22 is_stmt 0 view .LVU576
 1980 0600 ADF80C40 		strh	r4, [sp, #12]	@ movhi
 308:Src/register_interface.c ****           break;
 1981              		.loc 1 308 11 is_stmt 1 view .LVU577
 1982 0604 F5E5     		b	.L172
 1983              	.LVL239:
 1984              	.L62:
 308:Src/register_interface.c ****           break;
 1985              		.loc 1 308 11 is_stmt 0 view .LVU578
 1986              	.LBE109:
 261:Src/register_interface.c ****           break;
 1987              		.loc 1 261 11 is_stmt 1 view .LVU579
 1988 0606 0D48     		ldr	r0, .L201+4
 1989              	.LVL240:
 261:Src/register_interface.c ****           break;
 1990              		.loc 1 261 11 is_stmt 0 view .LVU580
 1991 0608 0193     		str	r3, [sp, #4]
 1992 060a 21B2     		sxth	r1, r4
 1993 060c FFF7FEFF 		bl	PID_SetKD
 1994              	.LVL241:
 262:Src/register_interface.c ****         }
 1995              		.loc 1 262 11 is_stmt 1 view .LVU581
 1996              	.LBE148:
 168:Src/register_interface.c ****   uint8_t motorID=0;
 1997              		.loc 1 168 11 is_stmt 0 view .LVU582
 1998 0610 0020     		movs	r0, #0
 1999              	.LBB149:
 262:Src/register_interface.c ****         }
 2000              		.loc 1 262 11 view .LVU583
 2001 0612 019B     		ldr	r3, [sp, #4]
 2002 0614 8EE5     		b	.L58
 2003              	.LVL242:
 2004              	.L60:
 350:Src/register_interface.c ****           break;
 2005              		.loc 1 350 11 is_stmt 1 view .LVU584
 2006 0616 0A48     		ldr	r0, .L201+8
 2007              	.LVL243:
 350:Src/register_interface.c ****           break;
 2008              		.loc 1 350 11 is_stmt 0 view .LVU585
ARM GAS  /tmp/ccAfo4nU.s 			page 74


 2009 0618 0193     		str	r3, [sp, #4]
 2010 061a 21B2     		sxth	r1, r4
 2011 061c FFF7FEFF 		bl	PID_SetKI
 2012              	.LVL244:
 351:Src/register_interface.c ****         }
 2013              		.loc 1 351 11 is_stmt 1 view .LVU586
 2014              	.LBE149:
 168:Src/register_interface.c ****   uint8_t motorID=0;
 2015              		.loc 1 168 11 is_stmt 0 view .LVU587
 2016 0620 0020     		movs	r0, #0
 2017              	.LBB150:
 351:Src/register_interface.c ****         }
 2018              		.loc 1 351 11 view .LVU588
 2019 0622 019B     		ldr	r3, [sp, #4]
 2020 0624 86E5     		b	.L58
 2021              	.LVL245:
 2022              	.L89:
 395:Src/register_interface.c ****           break;
 2023              		.loc 1 395 11 view .LVU589
 2024 0626 0748     		ldr	r0, .L201+12
 2025              	.LVL246:
 395:Src/register_interface.c ****           break;
 2026              		.loc 1 395 11 view .LVU590
 2027 0628 0193     		str	r3, [sp, #4]
 395:Src/register_interface.c ****           break;
 2028              		.loc 1 395 11 is_stmt 1 view .LVU591
 2029 062a 2146     		mov	r1, r4
 2030 062c FFF7FEFF 		bl	PID_SetKPDivisorPOW2
 2031              	.LVL247:
 396:Src/register_interface.c ****         }
 2032              		.loc 1 396 11 view .LVU592
 2033              	.LBE150:
 168:Src/register_interface.c ****   uint8_t motorID=0;
 2034              		.loc 1 168 11 is_stmt 0 view .LVU593
 2035 0630 0020     		movs	r0, #0
 2036              	.LBB151:
 396:Src/register_interface.c ****         }
 2037              		.loc 1 396 11 view .LVU594
 2038 0632 019B     		ldr	r3, [sp, #4]
 2039 0634 7EE5     		b	.L58
 2040              	.L202:
 2041 0636 00BF     		.align	2
 2042              	.L201:
 2043 0638 00000000 		.word	STO_PLL_M1
 2044 063c 00000000 		.word	PIDIqHandle_M1
 2045 0640 34000000 		.word	STO_PLL_M1+52
 2046 0644 00000000 		.word	PIDIdHandle_M1
 2047 0648 00000000 		.word	Mci
 2048 064c ABAAAA2A 		.word	715827883
 2049 0650 00000000 		.word	RevUpControlM1
 2050              	.LVL248:
 2051              	.L87:
 413:Src/register_interface.c ****           break;
 2052              		.loc 1 413 11 view .LVU595
 2053 0654 0B48     		ldr	r0, .L203
 2054              	.LVL249:
 413:Src/register_interface.c ****           break;
ARM GAS  /tmp/ccAfo4nU.s 			page 75


 2055              		.loc 1 413 11 view .LVU596
 2056 0656 0193     		str	r3, [sp, #4]
 413:Src/register_interface.c ****           break;
 2057              		.loc 1 413 11 is_stmt 1 view .LVU597
 2058 0658 2146     		mov	r1, r4
 2059 065a FFF7FEFF 		bl	PID_SetKPDivisorPOW2
 2060              	.LVL250:
 414:Src/register_interface.c ****         }
 2061              		.loc 1 414 11 view .LVU598
 2062              	.LBE151:
 168:Src/register_interface.c ****   uint8_t motorID=0;
 2063              		.loc 1 168 11 is_stmt 0 view .LVU599
 2064 065e 0020     		movs	r0, #0
 2065              	.LBB152:
 414:Src/register_interface.c ****         }
 2066              		.loc 1 414 11 view .LVU600
 2067 0660 019B     		ldr	r3, [sp, #4]
 2068 0662 67E5     		b	.L58
 2069              	.LVL251:
 2070              	.L82:
 377:Src/register_interface.c ****           break;
 2071              		.loc 1 377 11 view .LVU601
 2072 0664 0848     		ldr	r0, .L203+4
 2073              	.LVL252:
 377:Src/register_interface.c ****           break;
 2074              		.loc 1 377 11 view .LVU602
 2075 0666 0193     		str	r3, [sp, #4]
 377:Src/register_interface.c ****           break;
 2076              		.loc 1 377 11 is_stmt 1 view .LVU603
 2077 0668 2146     		mov	r1, r4
 2078 066a FFF7FEFF 		bl	PID_SetKPDivisorPOW2
 2079              	.LVL253:
 378:Src/register_interface.c ****         }
 2080              		.loc 1 378 11 view .LVU604
 2081              	.LBE152:
 168:Src/register_interface.c ****   uint8_t motorID=0;
 2082              		.loc 1 168 11 is_stmt 0 view .LVU605
 2083 066e 0020     		movs	r0, #0
 2084              	.LBB153:
 378:Src/register_interface.c ****         }
 2085              		.loc 1 378 11 view .LVU606
 2086 0670 019B     		ldr	r3, [sp, #4]
 2087 0672 5FE5     		b	.L58
 2088              	.LVL254:
 2089              	.L64:
 243:Src/register_interface.c ****           break;
 2090              		.loc 1 243 11 is_stmt 1 view .LVU607
 2091 0674 0448     		ldr	r0, .L203+4
 2092              	.LVL255:
 243:Src/register_interface.c ****           break;
 2093              		.loc 1 243 11 is_stmt 0 view .LVU608
 2094 0676 0193     		str	r3, [sp, #4]
 2095 0678 21B2     		sxth	r1, r4
 2096 067a FFF7FEFF 		bl	PID_SetKD
 2097              	.LVL256:
 244:Src/register_interface.c ****         }
 2098              		.loc 1 244 11 is_stmt 1 view .LVU609
ARM GAS  /tmp/ccAfo4nU.s 			page 76


 2099              	.LBE153:
 168:Src/register_interface.c ****   uint8_t motorID=0;
 2100              		.loc 1 168 11 is_stmt 0 view .LVU610
 2101 067e 0020     		movs	r0, #0
 2102              	.LBB154:
 244:Src/register_interface.c ****         }
 2103              		.loc 1 244 11 view .LVU611
 2104 0680 019B     		ldr	r3, [sp, #4]
 2105 0682 57E5     		b	.L58
 2106              	.L204:
 2107              		.align	2
 2108              	.L203:
 2109 0684 00000000 		.word	PIDIqHandle_M1
 2110 0688 00000000 		.word	PIDSpeedHandle_M1
 2111              	.LBE154:
 2112              		.cfi_endproc
 2113              	.LFE1467:
 2115              		.section	.text.RI_GetRegisterGlobal,"ax",%progbits
 2116              		.align	1
 2117              		.p2align 2,,3
 2118              		.global	RI_GetRegisterGlobal
 2119              		.syntax unified
 2120              		.thumb
 2121              		.thumb_func
 2122              		.fpu fpv4-sp-d16
 2124              	RI_GetRegisterGlobal:
 2125              	.LVL257:
 2126              	.LFB1468:
 615:Src/register_interface.c ****     uint8_t retVal = MCP_CMD_OK;
 2127              		.loc 1 615 108 is_stmt 1 view -0
 2128              		.cfi_startproc
 2129              		@ args = 4, pretend = 0, frame = 0
 2130              		@ frame_needed = 0, uses_anonymous_args = 0
 2131              		@ link register save eliminated.
 616:Src/register_interface.c ****     switch (typeID)
 2132              		.loc 1 616 5 view .LVU613
 617:Src/register_interface.c ****     {
 2133              		.loc 1 617 5 view .LVU614
 615:Src/register_interface.c ****     uint8_t retVal = MCP_CMD_OK;
 2134              		.loc 1 615 108 is_stmt 0 view .LVU615
 2135 0000 30B4     		push	{r4, r5}
 2136              	.LCFI31:
 2137              		.cfi_def_cfa_offset 8
 2138              		.cfi_offset 4, -8
 2139              		.cfi_offset 5, -4
 617:Src/register_interface.c ****     {
 2140              		.loc 1 617 5 view .LVU616
 2141 0002 A1F10804 		sub	r4, r1, #8
 615:Src/register_interface.c ****     uint8_t retVal = MCP_CMD_OK;
 2142              		.loc 1 615 108 view .LVU617
 2143 0006 BDF90850 		ldrsh	r5, [sp, #8]
 617:Src/register_interface.c ****     {
 2144              		.loc 1 617 5 view .LVU618
 2145 000a 202C     		cmp	r4, #32
 2146 000c 3DD8     		bhi	.L224
 2147 000e DFE804F0 		tbb	[pc, r4]
 2148              	.L208:
ARM GAS  /tmp/ccAfo4nU.s 			page 77


 2149 0012 1A       		.byte	(.L212-.L208)/2
 2150 0013 3C       		.byte	(.L224-.L208)/2
 2151 0014 3C       		.byte	(.L224-.L208)/2
 2152 0015 3C       		.byte	(.L224-.L208)/2
 2153 0016 3C       		.byte	(.L224-.L208)/2
 2154 0017 3C       		.byte	(.L224-.L208)/2
 2155 0018 3C       		.byte	(.L224-.L208)/2
 2156 0019 3C       		.byte	(.L224-.L208)/2
 2157 001a 26       		.byte	(.L211-.L208)/2
 2158 001b 3C       		.byte	(.L224-.L208)/2
 2159 001c 3C       		.byte	(.L224-.L208)/2
 2160 001d 3C       		.byte	(.L224-.L208)/2
 2161 001e 3C       		.byte	(.L224-.L208)/2
 2162 001f 3C       		.byte	(.L224-.L208)/2
 2163 0020 3C       		.byte	(.L224-.L208)/2
 2164 0021 3C       		.byte	(.L224-.L208)/2
 2165 0022 20       		.byte	(.L210-.L208)/2
 2166 0023 3C       		.byte	(.L224-.L208)/2
 2167 0024 3C       		.byte	(.L224-.L208)/2
 2168 0025 3C       		.byte	(.L224-.L208)/2
 2169 0026 3C       		.byte	(.L224-.L208)/2
 2170 0027 3C       		.byte	(.L224-.L208)/2
 2171 0028 3C       		.byte	(.L224-.L208)/2
 2172 0029 3C       		.byte	(.L224-.L208)/2
 2173 002a 34       		.byte	(.L209-.L208)/2
 2174 002b 3C       		.byte	(.L224-.L208)/2
 2175 002c 3C       		.byte	(.L224-.L208)/2
 2176 002d 3C       		.byte	(.L224-.L208)/2
 2177 002e 3C       		.byte	(.L224-.L208)/2
 2178 002f 3C       		.byte	(.L224-.L208)/2
 2179 0030 3C       		.byte	(.L224-.L208)/2
 2180 0031 3C       		.byte	(.L224-.L208)/2
 2181 0032 11       		.byte	(.L207-.L208)/2
 2182 0033 00       		.p2align 1
 2183              	.L207:
 2184              	.LBB155:
 716:Src/register_interface.c ****         uint8_t * rawData = data;
 2185              		.loc 1 716 9 is_stmt 1 view .LVU619
 2186              	.LVL258:
 717:Src/register_interface.c ****         rawData++;
 2187              		.loc 1 717 9 view .LVU620
 718:Src/register_interface.c ****         rawData++;
 2188              		.loc 1 718 9 view .LVU621
 719:Src/register_interface.c **** 
 2189              		.loc 1 719 9 view .LVU622
 721:Src/register_interface.c ****         {
 2190              		.loc 1 721 9 view .LVU623
 2191 0034 2828     		cmp	r0, #40
 2192 0036 3ED0     		beq	.L222
 2193 0038 1288     		ldrh	r2, [r2]
 2194              	.LVL259:
 721:Src/register_interface.c ****         {
 2195              		.loc 1 721 9 is_stmt 0 view .LVU624
 2196 003a 0232     		adds	r2, r2, #2
 2197 003c 92B2     		uxth	r2, r2
 741:Src/register_interface.c ****             break;
 2198              		.loc 1 741 20 view .LVU625
ARM GAS  /tmp/ccAfo4nU.s 			page 78


 2199 003e 0520     		movs	r0, #5
 2200              	.LVL260:
 2201              	.L223:
 747:Src/register_interface.c ****         break;
 2202              		.loc 1 747 9 is_stmt 1 view .LVU626
 747:Src/register_interface.c ****         break;
 2203              		.loc 1 747 15 is_stmt 0 view .LVU627
 2204 0040 1A80     		strh	r2, [r3]	@ movhi
 748:Src/register_interface.c ****       }
 2205              		.loc 1 748 9 is_stmt 1 view .LVU628
 2206              	.LVL261:
 2207              	.L246:
 748:Src/register_interface.c ****       }
 2208              		.loc 1 748 9 is_stmt 0 view .LVU629
 2209              	.LBE155:
 758:Src/register_interface.c **** 
 2210              		.loc 1 758 1 view .LVU630
 2211 0042 30BC     		pop	{r4, r5}
 2212              	.LCFI32:
 2213              		.cfi_remember_state
 2214              		.cfi_restore 5
 2215              		.cfi_restore 4
 2216              		.cfi_def_cfa_offset 0
 2217              	.LVL262:
 758:Src/register_interface.c **** 
 2218              		.loc 1 758 1 view .LVU631
 2219 0044 7047     		bx	lr
 2220              	.LVL263:
 2221              	.L212:
 2222              	.LCFI33:
 2223              		.cfi_restore_state
 621:Src/register_interface.c ****         {
 2224              		.loc 1 621 9 is_stmt 1 view .LVU632
 621:Src/register_interface.c ****         {
 2225              		.loc 1 621 12 is_stmt 0 view .LVU633
 2226 0046 002D     		cmp	r5, #0
 2227 0048 2FDD     		ble	.L250
 623:Src/register_interface.c ****           {
 2228              		.loc 1 623 11 is_stmt 1 view .LVU634
 627:Src/register_interface.c ****               break;
 2229              		.loc 1 627 15 view .LVU635
 2230              	.LVL264:
 628:Src/register_interface.c ****             }
 2231              		.loc 1 628 15 view .LVU636
 631:Src/register_interface.c ****         }
 2232              		.loc 1 631 11 view .LVU637
 631:Src/register_interface.c ****         }
 2233              		.loc 1 631 17 is_stmt 0 view .LVU638
 2234 004a 0122     		movs	r2, #1
 2235              	.LVL265:
 631:Src/register_interface.c ****         }
 2236              		.loc 1 631 17 view .LVU639
 2237 004c 1A80     		strh	r2, [r3]	@ movhi
 627:Src/register_interface.c ****               break;
 2238              		.loc 1 627 22 view .LVU640
 2239 004e 0520     		movs	r0, #5
 2240              	.LVL266:
ARM GAS  /tmp/ccAfo4nU.s 			page 79


 627:Src/register_interface.c ****               break;
 2241              		.loc 1 627 22 view .LVU641
 2242 0050 F7E7     		b	.L246
 2243              	.LVL267:
 2244              	.L210:
 667:Src/register_interface.c ****         {
 2245              		.loc 1 667 9 is_stmt 1 view .LVU642
 667:Src/register_interface.c ****         {
 2246              		.loc 1 667 12 is_stmt 0 view .LVU643
 2247 0052 032D     		cmp	r5, #3
 2248 0054 2CDD     		ble	.L229
 669:Src/register_interface.c ****           {
 2249              		.loc 1 669 11 is_stmt 1 view .LVU644
 674:Src/register_interface.c ****               break;
 2250              		.loc 1 674 15 view .LVU645
 2251              	.LVL268:
 675:Src/register_interface.c ****             }
 2252              		.loc 1 675 15 view .LVU646
 678:Src/register_interface.c ****         }
 2253              		.loc 1 678 11 view .LVU647
 678:Src/register_interface.c ****         }
 2254              		.loc 1 678 17 is_stmt 0 view .LVU648
 2255 0056 0422     		movs	r2, #4
 2256              	.LVL269:
 678:Src/register_interface.c ****         }
 2257              		.loc 1 678 17 view .LVU649
 2258 0058 1A80     		strh	r2, [r3]	@ movhi
 674:Src/register_interface.c ****               break;
 2259              		.loc 1 674 22 view .LVU650
 2260 005a 0520     		movs	r0, #5
 2261              	.LVL270:
 674:Src/register_interface.c ****               break;
 2262              		.loc 1 674 22 view .LVU651
 2263 005c F1E7     		b	.L246
 2264              	.LVL271:
 2265              	.L211:
 642:Src/register_interface.c ****         {
 2266              		.loc 1 642 9 is_stmt 1 view .LVU652
 642:Src/register_interface.c ****         {
 2267              		.loc 1 642 12 is_stmt 0 view .LVU653
 2268 005e 012D     		cmp	r5, #1
 2269 0060 26DD     		ble	.L229
 644:Src/register_interface.c ****           {
 2270              		.loc 1 644 11 is_stmt 1 view .LVU654
 2271 0062 B0F5656F 		cmp	r0, #3664
 2272 0066 5CD0     		beq	.L227
 652:Src/register_interface.c ****               break;
 2273              		.loc 1 652 22 is_stmt 0 view .LVU655
 2274 0068 B0F5696F 		cmp	r0, #3728
 2275 006c 0CBF     		ite	eq
 2276 006e 0020     		moveq	r0, #0
 2277              	.LVL272:
 652:Src/register_interface.c ****               break;
 2278              		.loc 1 652 22 view .LVU656
 2279 0070 0520     		movne	r0, #5
 2280              	.L213:
 2281              	.LVL273:
ARM GAS  /tmp/ccAfo4nU.s 			page 80


 656:Src/register_interface.c ****         }
 2282              		.loc 1 656 11 is_stmt 1 view .LVU657
 656:Src/register_interface.c ****         }
 2283              		.loc 1 656 17 is_stmt 0 view .LVU658
 2284 0072 0222     		movs	r2, #2
 2285              	.LVL274:
 656:Src/register_interface.c ****         }
 2286              		.loc 1 656 17 view .LVU659
 2287 0074 1A80     		strh	r2, [r3]	@ movhi
 758:Src/register_interface.c **** 
 2288              		.loc 1 758 1 view .LVU660
 2289 0076 30BC     		pop	{r4, r5}
 2290              	.LCFI34:
 2291              		.cfi_remember_state
 2292              		.cfi_restore 5
 2293              		.cfi_restore 4
 2294              		.cfi_def_cfa_offset 0
 2295              	.LVL275:
 758:Src/register_interface.c **** 
 2296              		.loc 1 758 1 view .LVU661
 2297 0078 7047     		bx	lr
 2298              	.LVL276:
 2299              	.L209:
 2300              	.LCFI35:
 2301              		.cfi_restore_state
 2302              	.LBB156:
 689:Src/register_interface.c ****         switch (regID)
 2303              		.loc 1 689 9 is_stmt 1 view .LVU662
 690:Src/register_interface.c ****         {
 2304              		.loc 1 690 9 view .LVU663
 2305 007a 2028     		cmp	r0, #32
 2306 007c 3AD0     		beq	.L214
 2307 007e 6028     		cmp	r0, #96
 2308 0080 21D0     		beq	.L215
 704:Src/register_interface.c ****             *size= 0 ; /* */
 2309              		.loc 1 704 13 view .LVU664
 2310              	.LVL277:
 705:Src/register_interface.c **** 
 2311              		.loc 1 705 13 view .LVU665
 705:Src/register_interface.c **** 
 2312              		.loc 1 705 18 is_stmt 0 view .LVU666
 2313 0082 0022     		movs	r2, #0
 2314              	.LVL278:
 705:Src/register_interface.c **** 
 2315              		.loc 1 705 18 view .LVU667
 2316 0084 1A80     		strh	r2, [r3]	@ movhi
 707:Src/register_interface.c ****           }
 2317              		.loc 1 707 13 is_stmt 1 view .LVU668
 704:Src/register_interface.c ****             *size= 0 ; /* */
 2318              		.loc 1 704 20 is_stmt 0 view .LVU669
 2319 0086 0520     		movs	r0, #5
 2320              	.LVL279:
 707:Src/register_interface.c ****           }
 2321              		.loc 1 707 13 view .LVU670
 2322 0088 DBE7     		b	.L246
 2323              	.LVL280:
 2324              	.L224:
ARM GAS  /tmp/ccAfo4nU.s 			page 81


 707:Src/register_interface.c ****           }
 2325              		.loc 1 707 13 view .LVU671
 2326              	.LBE156:
 753:Src/register_interface.c ****         break;
 2327              		.loc 1 753 16 view .LVU672
 2328 008a 0720     		movs	r0, #7
 2329              	.LVL281:
 753:Src/register_interface.c ****         break;
 2330              		.loc 1 753 16 view .LVU673
 2331 008c D9E7     		b	.L246
 2332              	.LVL282:
 2333              	.L251:
 2334              	.LBB167:
 2335              	.LBB157:
 2336              	.LBB158:
1353:Src/register_interface.c ****   {
 2337              		.loc 1 1353 40 view .LVU674
 2338 008e A942     		cmp	r1, r5
 2339 0090 2ED2     		bcs	.L219
 2340              	.LVL283:
 2341              	.L218:
1355:Src/register_interface.c ****     tempdestString++;
 2342              		.loc 1 1355 5 is_stmt 1 view .LVU675
1355:Src/register_interface.c ****     tempdestString++;
 2343              		.loc 1 1355 21 is_stmt 0 view .LVU676
 2344 0092 02F8010B 		strb	r0, [r2], #1
 2345              	.LVL284:
1356:Src/register_interface.c ****     tempsrcString++;
 2346              		.loc 1 1356 5 is_stmt 1 view .LVU677
1357:Src/register_interface.c ****     *size = *size + 1U;
 2347              		.loc 1 1357 5 view .LVU678
1358:Src/register_interface.c ****   }
 2348              		.loc 1 1358 5 view .LVU679
1358:Src/register_interface.c ****   }
 2349              		.loc 1 1358 19 is_stmt 0 view .LVU680
 2350 0096 1988     		ldrh	r1, [r3]
 2351 0098 0131     		adds	r1, r1, #1
 2352 009a 89B2     		uxth	r1, r1
1358:Src/register_interface.c ****   }
 2353              		.loc 1 1358 11 view .LVU681
 2354 009c 1980     		strh	r1, [r3]	@ movhi
1353:Src/register_interface.c ****   {
 2355              		.loc 1 1353 11 view .LVU682
 2356 009e 14F9010F 		ldrsb	r0, [r4, #1]!
 2357              	.LVL285:
1353:Src/register_interface.c ****   {
 2358              		.loc 1 1353 9 view .LVU683
 2359 00a2 0028     		cmp	r0, #0
 2360 00a4 F3D1     		bne	.L251
 2361              	.LVL286:
 2362              	.L220:
1353:Src/register_interface.c ****   {
 2363              		.loc 1 1353 9 view .LVU684
 2364              	.LBE158:
 2365              	.LBE157:
 2366              	.LBB161:
 2367              	.LBB162:
ARM GAS  /tmp/ccAfo4nU.s 			page 82


1361:Src/register_interface.c ****   { /* Last string char must be 0 */
 2368              		.loc 1 1361 3 is_stmt 1 view .LVU685
 2369              		.loc 1 1367 5 view .LVU686
 2370              		.loc 1 1367 21 is_stmt 0 view .LVU687
 2371 00a6 0021     		movs	r1, #0
 2372 00a8 1170     		strb	r1, [r2]
 2373              	.LVL287:
 2374              	.L250:
1348:Src/register_interface.c ****   const char_t *tempsrcString = srcString;
 2375              		.loc 1 1348 11 view .LVU688
 2376 00aa 0846     		mov	r0, r1
1348:Src/register_interface.c ****   const char_t *tempsrcString = srcString;
 2377              		.loc 1 1348 11 view .LVU689
 2378              	.LBE162:
 2379              	.LBE161:
 2380              	.LBE167:
 757:Src/register_interface.c **** }
 2381              		.loc 1 757 3 is_stmt 1 view .LVU690
 758:Src/register_interface.c **** 
 2382              		.loc 1 758 1 is_stmt 0 view .LVU691
 2383 00ac 30BC     		pop	{r4, r5}
 2384              	.LCFI36:
 2385              		.cfi_remember_state
 2386              		.cfi_restore 5
 2387              		.cfi_restore 4
 2388              		.cfi_def_cfa_offset 0
 2389 00ae 7047     		bx	lr
 2390              	.LVL288:
 2391              	.L229:
 2392              	.LCFI37:
 2393              		.cfi_restore_state
 635:Src/register_interface.c ****         }
 2394              		.loc 1 635 18 view .LVU692
 2395 00b0 0820     		movs	r0, #8
 2396              	.LVL289:
 758:Src/register_interface.c **** 
 2397              		.loc 1 758 1 view .LVU693
 2398 00b2 30BC     		pop	{r4, r5}
 2399              	.LCFI38:
 2400              		.cfi_remember_state
 2401              		.cfi_restore 5
 2402              		.cfi_restore 4
 2403              		.cfi_def_cfa_offset 0
 2404              	.LVL290:
 758:Src/register_interface.c **** 
 2405              		.loc 1 758 1 view .LVU694
 2406 00b4 7047     		bx	lr
 2407              	.LVL291:
 2408              	.L222:
 2409              	.LCFI39:
 2410              		.cfi_restore_state
 2411              	.LBB168:
 725:Src/register_interface.c ****             if (((*rawSize) + 2U) > (uint16_t)freeSpace)
 2412              		.loc 1 725 13 is_stmt 1 view .LVU695
 726:Src/register_interface.c ****             {
 2413              		.loc 1 726 16 is_stmt 0 view .LVU696
 2414 00b6 ADB2     		uxth	r5, r5
ARM GAS  /tmp/ccAfo4nU.s 			page 83


 725:Src/register_interface.c ****             if (((*rawSize) + 2U) > (uint16_t)freeSpace)
 2415              		.loc 1 725 22 view .LVU697
