ARM GAS  /tmp/ccAfo4nU.s 			page 1


   1              		.cpu cortex-m4
   2              		.eabi_attribute 27, 1
   3              		.eabi_attribute 28, 1
   4              		.eabi_attribute 20, 1
   5              		.eabi_attribute 21, 1
   6              		.eabi_attribute 23, 3
   7              		.eabi_attribute 24, 1
   8              		.eabi_attribute 25, 1
   9              		.eabi_attribute 26, 1
  10              		.eabi_attribute 30, 2
  11              		.eabi_attribute 34, 1
  12              		.eabi_attribute 18, 4
  13              		.file	"register_interface.c"
  14              		.text
  15              	.Ltext0:
  16              		.cfi_sections	.debug_frame
  17              		.section	.text.RI_SetRegisterGlobal,"ax",%progbits
  18              		.align	1
  19              		.p2align 2,,3
  20              		.global	RI_SetRegisterGlobal
  21              		.arch armv7e-m
  22              		.syntax unified
  23              		.thumb
  24              		.thumb_func
  25              		.fpu fpv4-sp-d16
  27              	RI_SetRegisterGlobal:
  28              	.LVL0:
  29              	.LFB1466:
  30              		.file 1 "Src/register_interface.c"
   1:Src/register_interface.c **** 
   2:Src/register_interface.c **** /**
   3:Src/register_interface.c ****   ******************************************************************************
   4:Src/register_interface.c ****   * @file    register_interface.c
   5:Src/register_interface.c ****   * @author  Motor Control SDK Team, ST Microelectronics
   6:Src/register_interface.c ****   * @brief   This file provides firmware functions that implement the register access for the MCP p
   7:Src/register_interface.c ****   *
   8:Src/register_interface.c ****   *
   9:Src/register_interface.c ****   ******************************************************************************
  10:Src/register_interface.c ****   * @attention
  11:Src/register_interface.c ****   *
  12:Src/register_interface.c ****   * <h2><center>&copy; Copyright (c) 2024 STMicroelectronics.
  13:Src/register_interface.c ****   * All rights reserved.</center></h2>
  14:Src/register_interface.c ****   *
  15:Src/register_interface.c ****   * This software component is licensed by ST under Ultimate Liberty license
  16:Src/register_interface.c ****   * SLA0044, the "License"; You may not use this file except in compliance with
  17:Src/register_interface.c ****   * the License. You may obtain a copy of the License at:
  18:Src/register_interface.c ****   *                             www.st.com/SLA0044
  19:Src/register_interface.c ****   *
  20:Src/register_interface.c ****   ******************************************************************************
  21:Src/register_interface.c ****   */
  22:Src/register_interface.c **** 
  23:Src/register_interface.c **** #include "mc_type.h"
  24:Src/register_interface.c **** #include "string.h"
  25:Src/register_interface.c **** #include "register_interface.h"
  26:Src/register_interface.c **** #include "mc_config.h"
  27:Src/register_interface.c **** #include "mcp.h"
  28:Src/register_interface.c **** #include "mcp_config.h"
ARM GAS  /tmp/ccAfo4nU.s 			page 2


  29:Src/register_interface.c **** #include "mcpa.h"
  30:Src/register_interface.c **** #include "mc_configuration_registers.h"
  31:Src/register_interface.c **** 
  32:Src/register_interface.c **** uint8_t RI_SetRegisterGlobal(uint16_t regID, uint8_t typeID, uint8_t *data, uint16_t *size, int16_t
  33:Src/register_interface.c **** {
  31              		.loc 1 33 1 view -0
  32              		.cfi_startproc
  33              		@ args = 4, pretend = 0, frame = 0
  34              		@ frame_needed = 0, uses_anonymous_args = 0
  35              		@ link register save eliminated.
  34:Src/register_interface.c ****   uint8_t retVal = MCP_CMD_OK;
  36              		.loc 1 34 3 view .LVU1
  35:Src/register_interface.c ****   switch(typeID)
  37              		.loc 1 35 3 view .LVU2
  33:Src/register_interface.c ****   uint8_t retVal = MCP_CMD_OK;
  38              		.loc 1 33 1 is_stmt 0 view .LVU3
  39 0000 30B4     		push	{r4, r5}
  40              	.LCFI0:
  41              		.cfi_def_cfa_offset 8
  42              		.cfi_offset 4, -8
  43              		.cfi_offset 5, -4
  44              		.loc 1 35 3 view .LVU4
  45 0002 0839     		subs	r1, r1, #8
  46              	.LVL1:
  33:Src/register_interface.c ****   uint8_t retVal = MCP_CMD_OK;
  47              		.loc 1 33 1 view .LVU5
  48 0004 BDF90840 		ldrsh	r4, [sp, #8]
  49              		.loc 1 35 3 view .LVU6
  50 0008 2029     		cmp	r1, #32
  51 000a 66D8     		bhi	.L2
  52 000c DFE801F0 		tbb	[pc, r1]
  53              	.L4:
  54 0010 23       		.byte	(.L8-.L4)/2
  55 0011 65       		.byte	(.L2-.L4)/2
  56 0012 65       		.byte	(.L2-.L4)/2
  57 0013 65       		.byte	(.L2-.L4)/2
  58 0014 65       		.byte	(.L2-.L4)/2
  59 0015 65       		.byte	(.L2-.L4)/2
  60 0016 65       		.byte	(.L2-.L4)/2
  61 0017 65       		.byte	(.L2-.L4)/2
  62 0018 54       		.byte	(.L7-.L4)/2
  63 0019 65       		.byte	(.L2-.L4)/2
  64 001a 65       		.byte	(.L2-.L4)/2
  65 001b 65       		.byte	(.L2-.L4)/2
  66 001c 65       		.byte	(.L2-.L4)/2
  67 001d 65       		.byte	(.L2-.L4)/2
  68 001e 65       		.byte	(.L2-.L4)/2
  69 001f 65       		.byte	(.L2-.L4)/2
  70 0020 2C       		.byte	(.L6-.L4)/2
  71 0021 65       		.byte	(.L2-.L4)/2
  72 0022 65       		.byte	(.L2-.L4)/2
  73 0023 65       		.byte	(.L2-.L4)/2
  74 0024 65       		.byte	(.L2-.L4)/2
  75 0025 65       		.byte	(.L2-.L4)/2
  76 0026 65       		.byte	(.L2-.L4)/2
  77 0027 65       		.byte	(.L2-.L4)/2
  78 0028 35       		.byte	(.L5-.L4)/2
ARM GAS  /tmp/ccAfo4nU.s 			page 3


  79 0029 65       		.byte	(.L2-.L4)/2
  80 002a 65       		.byte	(.L2-.L4)/2
  81 002b 65       		.byte	(.L2-.L4)/2
  82 002c 65       		.byte	(.L2-.L4)/2
  83 002d 65       		.byte	(.L2-.L4)/2
  84 002e 65       		.byte	(.L2-.L4)/2
  85 002f 65       		.byte	(.L2-.L4)/2
  86 0030 11       		.byte	(.L3-.L4)/2
  87 0031 00       		.p2align 1
  88              	.L3:
  89              	.LBB57:
  36:Src/register_interface.c ****   {
  37:Src/register_interface.c ****     case TYPE_DATA_8BIT:
  38:Src/register_interface.c ****     {
  39:Src/register_interface.c ****       switch (regID)
  40:Src/register_interface.c ****       {
  41:Src/register_interface.c ****         case MC_REG_STATUS:
  42:Src/register_interface.c ****         {
  43:Src/register_interface.c ****           retVal = MCP_ERROR_RO_REG;
  44:Src/register_interface.c ****           break;
  45:Src/register_interface.c ****         }
  46:Src/register_interface.c **** 
  47:Src/register_interface.c ****         default:
  48:Src/register_interface.c ****         {
  49:Src/register_interface.c ****           retVal = MCP_ERROR_UNKNOWN_REG;
  50:Src/register_interface.c ****           break;
  51:Src/register_interface.c ****         }
  52:Src/register_interface.c ****       }
  53:Src/register_interface.c ****       *size = 1;
  54:Src/register_interface.c ****       break;
  55:Src/register_interface.c ****     }
  56:Src/register_interface.c **** 
  57:Src/register_interface.c ****     case TYPE_DATA_16BIT:
  58:Src/register_interface.c ****     {
  59:Src/register_interface.c ****       switch (regID)
  60:Src/register_interface.c ****       {
  61:Src/register_interface.c **** 
  62:Src/register_interface.c ****         case MC_REG_BUS_VOLTAGE:
  63:Src/register_interface.c ****         case MC_REG_HEATS_TEMP:
  64:Src/register_interface.c ****         case MC_REG_MOTOR_POWER:
  65:Src/register_interface.c ****         {
  66:Src/register_interface.c ****           retVal = MCP_ERROR_RO_REG;
  67:Src/register_interface.c ****           break;
  68:Src/register_interface.c ****         }
  69:Src/register_interface.c **** 
  70:Src/register_interface.c ****         case MC_REG_DAC_USER1:
  71:Src/register_interface.c ****         case MC_REG_DAC_USER2:
  72:Src/register_interface.c ****         break;
  73:Src/register_interface.c **** 
  74:Src/register_interface.c ****         default:
  75:Src/register_interface.c ****         {
  76:Src/register_interface.c ****           retVal = MCP_ERROR_UNKNOWN_REG;
  77:Src/register_interface.c ****           break;
  78:Src/register_interface.c ****         }
  79:Src/register_interface.c ****       }
  80:Src/register_interface.c ****       *size = 2;
  81:Src/register_interface.c ****       break;
ARM GAS  /tmp/ccAfo4nU.s 			page 4


  82:Src/register_interface.c ****     }
  83:Src/register_interface.c **** 
  84:Src/register_interface.c ****     case TYPE_DATA_32BIT:
  85:Src/register_interface.c ****     {
  86:Src/register_interface.c **** 
  87:Src/register_interface.c ****       switch (regID)
  88:Src/register_interface.c ****       {
  89:Src/register_interface.c ****         case MC_REG_FAULTS_FLAGS:
  90:Src/register_interface.c ****         {
  91:Src/register_interface.c ****           retVal = MCP_ERROR_RO_REG;
  92:Src/register_interface.c ****           break;
  93:Src/register_interface.c ****         }
  94:Src/register_interface.c **** 
  95:Src/register_interface.c ****         default:
  96:Src/register_interface.c ****         {
  97:Src/register_interface.c ****           retVal = MCP_ERROR_UNKNOWN_REG;
  98:Src/register_interface.c ****           break;
  99:Src/register_interface.c ****         }
 100:Src/register_interface.c ****       }
 101:Src/register_interface.c ****       *size = 4;
 102:Src/register_interface.c ****       break;
 103:Src/register_interface.c ****     }
 104:Src/register_interface.c **** 
 105:Src/register_interface.c ****     case TYPE_DATA_STRING:
 106:Src/register_interface.c ****     {
 107:Src/register_interface.c ****       const char_t *charData = (const char_t *)data;
 108:Src/register_interface.c ****       char_t *dummy = (char_t *)data;
 109:Src/register_interface.c ****       retVal = MCP_ERROR_RO_REG;
 110:Src/register_interface.c ****       /* Used to compute String length stored in RXBUFF even if Reg does not exist */
 111:Src/register_interface.c ****       /* It allows to jump to the next command in the buffer */
 112:Src/register_interface.c ****       (void)RI_MovString(charData, dummy, size, dataAvailable);
 113:Src/register_interface.c ****       break;
 114:Src/register_interface.c ****     }
 115:Src/register_interface.c **** 
 116:Src/register_interface.c ****     case TYPE_DATA_RAW:
 117:Src/register_interface.c ****     {
 118:Src/register_interface.c ****       uint16_t rawSize = *(uint16_t *)data; //cstat !MISRAC2012-Rule-11.3
  90              		.loc 1 118 7 is_stmt 1 view .LVU7
  91              	.LVL2:
 119:Src/register_interface.c ****       /* The size consumed by the structure is the structure size + 2 bytes used to store the size 
 120:Src/register_interface.c ****       *size = rawSize + 2U;
  92              		.loc 1 120 7 view .LVU8
  93              		.loc 1 120 23 is_stmt 0 view .LVU9
  94 0032 1288     		ldrh	r2, [r2]
  95              	.LVL3:
  96              		.loc 1 120 23 view .LVU10
  97 0034 0232     		adds	r2, r2, #2
  98 0036 92B2     		uxth	r2, r2
 121:Src/register_interface.c ****       uint8_t *rawData = data; /* rawData points to the first data (after size extraction) */
 122:Src/register_interface.c ****       rawData++;
 123:Src/register_interface.c ****       rawData++;
 124:Src/register_interface.c **** 
 125:Src/register_interface.c ****       if (*size > (uint16_t)dataAvailable)
  99              		.loc 1 125 10 view .LVU11
 100 0038 A4B2     		uxth	r4, r4
 101 003a A242     		cmp	r2, r4
 120:Src/register_interface.c ****       uint8_t *rawData = data; /* rawData points to the first data (after size extraction) */
ARM GAS  /tmp/ccAfo4nU.s 			page 5


 102              		.loc 1 120 13 view .LVU12
 103 003c 1A80     		strh	r2, [r3]	@ movhi
 104              	.LVL4:
 121:Src/register_interface.c ****       uint8_t *rawData = data; /* rawData points to the first data (after size extraction) */
 105              		.loc 1 121 7 is_stmt 1 view .LVU13
 122:Src/register_interface.c ****       rawData++;
 106              		.loc 1 122 7 view .LVU14
 123:Src/register_interface.c **** 
 107              		.loc 1 123 7 view .LVU15
 108              		.loc 1 125 7 view .LVU16
 109              		.loc 1 125 10 is_stmt 0 view .LVU17
 110 003e 62D8     		bhi	.L42
 126:Src/register_interface.c ****       {
 127:Src/register_interface.c ****         /* The decoded size of the raw structure can not match with transmitted buffer, error in bu
 128:Src/register_interface.c ****            construction */
 129:Src/register_interface.c ****         *size = 0;
 130:Src/register_interface.c ****         retVal = MCP_ERROR_BAD_RAW_FORMAT; /* This error stop the parsing of the CMD buffer */
 131:Src/register_interface.c ****       }
 132:Src/register_interface.c ****       else
 133:Src/register_interface.c ****       {
 134:Src/register_interface.c ****         switch (regID)
 111              		.loc 1 134 9 is_stmt 1 view .LVU18
 112 0040 6828     		cmp	r0, #104
 113 0042 36D0     		beq	.L40
 114 0044 57D9     		bls	.L43
 115 0046 A828     		cmp	r0, #168
 116 0048 33D0     		beq	.L40
 135:Src/register_interface.c ****         {
 136:Src/register_interface.c ****           case MC_REG_APPLICATION_CONFIG:
 137:Src/register_interface.c ****           case MC_REG_MOTOR_CONFIG:
 138:Src/register_interface.c ****           case MC_REG_GLOBAL_CONFIG:
 139:Src/register_interface.c ****           case MC_REG_FOCFW_CONFIG:
 140:Src/register_interface.c ****           {
 141:Src/register_interface.c ****             retVal = MCP_ERROR_RO_REG;
 142:Src/register_interface.c ****             break;
 143:Src/register_interface.c ****           }
 144:Src/register_interface.c **** 
 145:Src/register_interface.c ****           default:
 146:Src/register_interface.c ****           {
 147:Src/register_interface.c ****             retVal = MCP_ERROR_UNKNOWN_REG;
 117              		.loc 1 147 20 is_stmt 0 view .LVU19
 118 004a E828     		cmp	r0, #232
 119 004c 0CBF     		ite	eq
 120 004e 0420     		moveq	r0, #4
 121              	.LVL5:
 122              		.loc 1 147 20 view .LVU20
 123 0050 0520     		movne	r0, #5
 124              	.LVL6:
 125              	.L38:
 126              		.loc 1 147 20 view .LVU21
 127              	.LBE57:
 148:Src/register_interface.c ****             break;
 149:Src/register_interface.c ****           }
 150:Src/register_interface.c ****         }
 151:Src/register_interface.c **** 
 152:Src/register_interface.c ****       }
 153:Src/register_interface.c ****       break;
ARM GAS  /tmp/ccAfo4nU.s 			page 6


 154:Src/register_interface.c ****     }
 155:Src/register_interface.c **** 
 156:Src/register_interface.c ****     default:
 157:Src/register_interface.c ****     {
 158:Src/register_interface.c ****       retVal = MCP_ERROR_BAD_DATA_TYPE;
 159:Src/register_interface.c ****       *size =0; /* From this point we are not able anymore to decode the RX buffer */
 160:Src/register_interface.c ****       break;
 161:Src/register_interface.c ****     }
 162:Src/register_interface.c ****   }
 163:Src/register_interface.c ****   return (retVal);
 164:Src/register_interface.c **** }
 128              		.loc 1 164 1 view .LVU22
 129 0052 30BC     		pop	{r4, r5}
 130              	.LCFI1:
 131              		.cfi_remember_state
 132              		.cfi_restore 5
 133              		.cfi_restore 4
 134              		.cfi_def_cfa_offset 0
 135              	.LVL7:
 136              		.loc 1 164 1 view .LVU23
 137 0054 7047     		bx	lr
 138              	.LVL8:
 139              	.L8:
 140              	.LCFI2:
 141              		.cfi_restore_state
  39:Src/register_interface.c ****       {
 142              		.loc 1 39 7 is_stmt 1 view .LVU24
  49:Src/register_interface.c ****           break;
 143              		.loc 1 49 18 is_stmt 0 view .LVU25
 144 0056 4828     		cmp	r0, #72
  53:Src/register_interface.c ****       break;
 145              		.loc 1 53 13 view .LVU26
 146 0058 4FF00102 		mov	r2, #1
 147              	.LVL9:
  49:Src/register_interface.c ****           break;
 148              		.loc 1 49 18 view .LVU27
 149 005c 0CBF     		ite	eq
 150 005e 0420     		moveq	r0, #4
 151              	.LVL10:
  49:Src/register_interface.c ****           break;
 152              		.loc 1 49 18 view .LVU28
 153 0060 0520     		movne	r0, #5
 154              	.LVL11:
  53:Src/register_interface.c ****       break;
 155              		.loc 1 53 7 is_stmt 1 view .LVU29
  53:Src/register_interface.c ****       break;
 156              		.loc 1 53 13 is_stmt 0 view .LVU30
 157 0062 1A80     		strh	r2, [r3]	@ movhi
  54:Src/register_interface.c ****     }
 158              		.loc 1 54 7 is_stmt 1 view .LVU31
 159              		.loc 1 164 1 is_stmt 0 view .LVU32
 160 0064 30BC     		pop	{r4, r5}
 161              	.LCFI3:
 162              		.cfi_remember_state
 163              		.cfi_restore 5
 164              		.cfi_restore 4
 165              		.cfi_def_cfa_offset 0
ARM GAS  /tmp/ccAfo4nU.s 			page 7


 166              	.LVL12:
 167              		.loc 1 164 1 view .LVU33
 168 0066 7047     		bx	lr
 169              	.LVL13:
 170              	.L6:
 171              	.LCFI4:
 172              		.cfi_restore_state
  87:Src/register_interface.c ****       {
 173              		.loc 1 87 7 is_stmt 1 view .LVU34
  97:Src/register_interface.c ****           break;
 174              		.loc 1 97 18 is_stmt 0 view .LVU35
 175 0068 1828     		cmp	r0, #24
 101:Src/register_interface.c ****       break;
 176              		.loc 1 101 13 view .LVU36
 177 006a 4FF00402 		mov	r2, #4
 178              	.LVL14:
  97:Src/register_interface.c ****           break;
 179              		.loc 1 97 18 view .LVU37
 180 006e 0CBF     		ite	eq
 181 0070 1046     		moveq	r0, r2
 182              	.LVL15:
  97:Src/register_interface.c ****           break;
 183              		.loc 1 97 18 view .LVU38
 184 0072 0520     		movne	r0, #5
 185              	.LVL16:
 101:Src/register_interface.c ****       break;
 186              		.loc 1 101 7 is_stmt 1 view .LVU39
 101:Src/register_interface.c ****       break;
 187              		.loc 1 101 13 is_stmt 0 view .LVU40
 188 0074 1A80     		strh	r2, [r3]	@ movhi
 102:Src/register_interface.c ****     }
 189              		.loc 1 102 7 is_stmt 1 view .LVU41
 190              		.loc 1 164 1 is_stmt 0 view .LVU42
 191 0076 30BC     		pop	{r4, r5}
 192              	.LCFI5:
 193              		.cfi_remember_state
 194              		.cfi_restore 5
 195              		.cfi_restore 4
 196              		.cfi_def_cfa_offset 0
 197              	.LVL17:
 198              		.loc 1 164 1 view .LVU43
 199 0078 7047     		bx	lr
 200              	.LVL18:
 201              	.L5:
 202              	.LCFI6:
 203              		.cfi_restore_state
 204              	.LBB58:
 107:Src/register_interface.c ****       char_t *dummy = (char_t *)data;
 205              		.loc 1 107 7 is_stmt 1 view .LVU44
 108:Src/register_interface.c ****       retVal = MCP_ERROR_RO_REG;
 206              		.loc 1 108 7 view .LVU45
 109:Src/register_interface.c ****       /* Used to compute String length stored in RXBUFF even if Reg does not exist */
 207              		.loc 1 109 7 view .LVU46
 112:Src/register_interface.c ****       break;
 208              		.loc 1 112 7 view .LVU47
 209              	.LBB59:
 210              	.LBI59:
ARM GAS  /tmp/ccAfo4nU.s 			page 8


 165:Src/register_interface.c **** 
 166:Src/register_interface.c **** uint8_t RI_SetRegisterMotor1(uint16_t regID, uint8_t typeID, uint8_t *data, uint16_t *size, int16_t
 167:Src/register_interface.c **** {
 168:Src/register_interface.c ****   uint8_t retVal = MCP_CMD_OK;
 169:Src/register_interface.c ****   uint8_t motorID=0;
 170:Src/register_interface.c ****   MCI_Handle_t *pMCIN = &Mci[motorID];
 171:Src/register_interface.c **** 
 172:Src/register_interface.c ****   switch(typeID)
 173:Src/register_interface.c ****   {
 174:Src/register_interface.c ****     case TYPE_DATA_8BIT:
 175:Src/register_interface.c ****     {
 176:Src/register_interface.c ****       switch (regID)
 177:Src/register_interface.c ****       {
 178:Src/register_interface.c ****         case MC_REG_STATUS:
 179:Src/register_interface.c ****           {
 180:Src/register_interface.c ****             retVal = MCP_ERROR_RO_REG;
 181:Src/register_interface.c ****             break;
 182:Src/register_interface.c ****           }
 183:Src/register_interface.c ****         case MC_REG_CONTROL_MODE:
 184:Src/register_interface.c ****         {
 185:Src/register_interface.c ****           uint8_t regdata8 = *data;
 186:Src/register_interface.c **** 
 187:Src/register_interface.c ****           if ((uint8_t)MCM_TORQUE_MODE == regdata8)
 188:Src/register_interface.c ****           {
 189:Src/register_interface.c **** 
 190:Src/register_interface.c ****             MCI_ExecTorqueRamp(pMCIN, MCI_GetTeref(pMCIN), 0);
 191:Src/register_interface.c ****           }
 192:Src/register_interface.c ****           else
 193:Src/register_interface.c ****           {
 194:Src/register_interface.c ****             /* Nothing to do */
 195:Src/register_interface.c ****           }
 196:Src/register_interface.c **** 
 197:Src/register_interface.c ****           if ((uint8_t)MCM_SPEED_MODE == regdata8)
 198:Src/register_interface.c ****           {
 199:Src/register_interface.c ****             MCI_ExecSpeedRamp(pMCIN, MCI_GetMecSpeedRefUnit(pMCIN), 0);
 200:Src/register_interface.c ****           }
 201:Src/register_interface.c ****           else
 202:Src/register_interface.c ****           {
 203:Src/register_interface.c ****             /* Nothing to do */
 204:Src/register_interface.c ****           }
 205:Src/register_interface.c ****           break;
 206:Src/register_interface.c ****         }
 207:Src/register_interface.c **** 
 208:Src/register_interface.c ****         case MC_REG_RUC_STAGE_NBR:
 209:Src/register_interface.c ****         {
 210:Src/register_interface.c ****           retVal = MCP_ERROR_RO_REG;
 211:Src/register_interface.c ****           break;
 212:Src/register_interface.c ****         }
 213:Src/register_interface.c **** 
 214:Src/register_interface.c ****         default:
 215:Src/register_interface.c ****         {
 216:Src/register_interface.c ****           retVal = MCP_ERROR_UNKNOWN_REG;
 217:Src/register_interface.c ****           break;
 218:Src/register_interface.c ****         }
 219:Src/register_interface.c ****       }
 220:Src/register_interface.c ****       *size = 1;
 221:Src/register_interface.c ****       break;
ARM GAS  /tmp/ccAfo4nU.s 			page 9


 222:Src/register_interface.c ****     }
 223:Src/register_interface.c **** 
 224:Src/register_interface.c ****     case TYPE_DATA_16BIT:
 225:Src/register_interface.c ****     {
 226:Src/register_interface.c ****       uint16_t regdata16 = *(uint16_t *)data; //cstat !MISRAC2012-Rule-11.3
 227:Src/register_interface.c ****       switch (regID)
 228:Src/register_interface.c ****       {
 229:Src/register_interface.c ****         case MC_REG_SPEED_KP:
 230:Src/register_interface.c ****         {
 231:Src/register_interface.c ****           PID_SetKP(&PIDSpeedHandle_M1, (int16_t)regdata16);
 232:Src/register_interface.c ****           break;
 233:Src/register_interface.c ****         }
 234:Src/register_interface.c **** 
 235:Src/register_interface.c ****         case MC_REG_SPEED_KI:
 236:Src/register_interface.c ****         {
 237:Src/register_interface.c ****           PID_SetKI(&PIDSpeedHandle_M1, (int16_t)regdata16);
 238:Src/register_interface.c ****           break;
 239:Src/register_interface.c ****         }
 240:Src/register_interface.c **** 
 241:Src/register_interface.c ****         case MC_REG_SPEED_KD:
 242:Src/register_interface.c ****         {
 243:Src/register_interface.c ****           PID_SetKD(&PIDSpeedHandle_M1, (int16_t)regdata16);
 244:Src/register_interface.c ****           break;
 245:Src/register_interface.c ****         }
 246:Src/register_interface.c **** 
 247:Src/register_interface.c ****         case MC_REG_I_Q_KP:
 248:Src/register_interface.c ****         {
 249:Src/register_interface.c ****           PID_SetKP(&PIDIqHandle_M1, (int16_t)regdata16);
 250:Src/register_interface.c ****           break;
 251:Src/register_interface.c ****         }
 252:Src/register_interface.c **** 
 253:Src/register_interface.c ****         case MC_REG_I_Q_KI:
 254:Src/register_interface.c ****         {
 255:Src/register_interface.c ****           PID_SetKI(&PIDIqHandle_M1, (int16_t)regdata16);
 256:Src/register_interface.c ****           break;
 257:Src/register_interface.c ****         }
 258:Src/register_interface.c **** 
 259:Src/register_interface.c ****         case MC_REG_I_Q_KD:
 260:Src/register_interface.c ****         {
 261:Src/register_interface.c ****           PID_SetKD(&PIDIqHandle_M1, (int16_t)regdata16);
 262:Src/register_interface.c ****           break;
 263:Src/register_interface.c ****         }
 264:Src/register_interface.c **** 
 265:Src/register_interface.c ****         case MC_REG_I_D_KP:
 266:Src/register_interface.c ****         {
 267:Src/register_interface.c ****           PID_SetKP(&PIDIdHandle_M1, (int16_t)regdata16);
 268:Src/register_interface.c ****           break;
 269:Src/register_interface.c ****         }
 270:Src/register_interface.c **** 
 271:Src/register_interface.c ****         case MC_REG_I_D_KI:
 272:Src/register_interface.c ****         {
 273:Src/register_interface.c ****           PID_SetKI(&PIDIdHandle_M1, (int16_t)regdata16);
 274:Src/register_interface.c ****           break;
 275:Src/register_interface.c ****         }
 276:Src/register_interface.c **** 
 277:Src/register_interface.c ****         case MC_REG_I_D_KD:
 278:Src/register_interface.c ****         {
ARM GAS  /tmp/ccAfo4nU.s 			page 10


 279:Src/register_interface.c ****           PID_SetKD(&PIDIdHandle_M1, (int16_t)regdata16);
 280:Src/register_interface.c ****           break;
 281:Src/register_interface.c ****         }
 282:Src/register_interface.c **** 
 283:Src/register_interface.c ****         case MC_REG_BUS_VOLTAGE:
 284:Src/register_interface.c ****         case MC_REG_HEATS_TEMP:
 285:Src/register_interface.c ****         case MC_REG_MOTOR_POWER:
 286:Src/register_interface.c ****         {
 287:Src/register_interface.c ****           retVal = MCP_ERROR_RO_REG;
 288:Src/register_interface.c ****           break;
 289:Src/register_interface.c ****         }
 290:Src/register_interface.c **** 
 291:Src/register_interface.c ****         case MC_REG_I_A:
 292:Src/register_interface.c ****         case MC_REG_I_B:
 293:Src/register_interface.c ****         case MC_REG_I_ALPHA_MEAS:
 294:Src/register_interface.c ****         case MC_REG_I_BETA_MEAS:
 295:Src/register_interface.c ****         case MC_REG_I_Q_MEAS:
 296:Src/register_interface.c ****         case MC_REG_I_D_MEAS:
 297:Src/register_interface.c ****         case MC_REG_FLUXWK_BUS_MEAS:
 298:Src/register_interface.c ****         {
 299:Src/register_interface.c ****           retVal = MCP_ERROR_RO_REG;
 300:Src/register_interface.c ****           break;
 301:Src/register_interface.c ****         }
 302:Src/register_interface.c **** 
 303:Src/register_interface.c ****         case MC_REG_I_Q_REF:
 304:Src/register_interface.c ****         {
 305:Src/register_interface.c ****           qd_t currComp;
 306:Src/register_interface.c ****           currComp = MCI_GetIqdref(pMCIN);
 307:Src/register_interface.c ****           currComp.q = (int16_t)regdata16;
 308:Src/register_interface.c ****           MCI_SetCurrentReferences(pMCIN,currComp);
 309:Src/register_interface.c ****           break;
 310:Src/register_interface.c ****         }
 311:Src/register_interface.c **** 
 312:Src/register_interface.c ****         case MC_REG_I_D_REF:
 313:Src/register_interface.c ****         {
 314:Src/register_interface.c ****           qd_t currComp;
 315:Src/register_interface.c ****           currComp = MCI_GetIqdref(pMCIN);
 316:Src/register_interface.c ****           currComp.d = (int16_t)regdata16;
 317:Src/register_interface.c ****           MCI_SetCurrentReferences(pMCIN,currComp);
 318:Src/register_interface.c ****           break;
 319:Src/register_interface.c ****         }
 320:Src/register_interface.c **** 
 321:Src/register_interface.c ****         case MC_REG_V_Q:
 322:Src/register_interface.c ****         case MC_REG_V_D:
 323:Src/register_interface.c ****         case MC_REG_V_ALPHA:
 324:Src/register_interface.c ****         case MC_REG_V_BETA:
 325:Src/register_interface.c ****         {
 326:Src/register_interface.c ****           retVal = MCP_ERROR_RO_REG;
 327:Src/register_interface.c ****           break;
 328:Src/register_interface.c ****         }
 329:Src/register_interface.c **** 
 330:Src/register_interface.c ****         case MC_REG_STOPLL_C1:
 331:Src/register_interface.c ****         {
 332:Src/register_interface.c ****           int16_t hC1;
 333:Src/register_interface.c ****           int16_t hC2;
 334:Src/register_interface.c ****           STO_PLL_GetObserverGains(&STO_PLL_M1, &hC1, &hC2);
 335:Src/register_interface.c ****           STO_PLL_SetObserverGains(&STO_PLL_M1, (int16_t)regdata16, hC2);
ARM GAS  /tmp/ccAfo4nU.s 			page 11


 336:Src/register_interface.c ****           break;
 337:Src/register_interface.c ****         }
 338:Src/register_interface.c **** 
 339:Src/register_interface.c ****         case MC_REG_STOPLL_C2:
 340:Src/register_interface.c ****         {
 341:Src/register_interface.c ****           int16_t hC1;
 342:Src/register_interface.c ****           int16_t hC2;
 343:Src/register_interface.c ****           STO_PLL_GetObserverGains(&STO_PLL_M1, &hC1, &hC2);
 344:Src/register_interface.c ****           STO_PLL_SetObserverGains(&STO_PLL_M1, hC1, (int16_t)regdata16);
 345:Src/register_interface.c ****           break;
 346:Src/register_interface.c ****         }
 347:Src/register_interface.c **** 
 348:Src/register_interface.c ****         case MC_REG_STOPLL_KI:
 349:Src/register_interface.c ****         {
 350:Src/register_interface.c ****           PID_SetKI (&(&STO_PLL_M1)->PIRegulator, (int16_t)regdata16);
 351:Src/register_interface.c ****           break;
 352:Src/register_interface.c ****         }
 353:Src/register_interface.c **** 
 354:Src/register_interface.c ****         case MC_REG_STOPLL_KP:
 355:Src/register_interface.c ****         {
 356:Src/register_interface.c ****           PID_SetKP (&(&STO_PLL_M1)->PIRegulator, (int16_t)regdata16);
 357:Src/register_interface.c ****           break;
 358:Src/register_interface.c ****         }
 359:Src/register_interface.c **** 
 360:Src/register_interface.c ****         case MC_REG_STOPLL_EL_ANGLE:
 361:Src/register_interface.c ****         case MC_REG_STOPLL_ROT_SPEED:
 362:Src/register_interface.c ****         case MC_REG_STOPLL_I_ALPHA:
 363:Src/register_interface.c ****         case MC_REG_STOPLL_I_BETA:
 364:Src/register_interface.c ****         case MC_REG_STOPLL_BEMF_ALPHA:
 365:Src/register_interface.c ****         case MC_REG_STOPLL_BEMF_BETA:
 366:Src/register_interface.c ****         {
 367:Src/register_interface.c ****           retVal = MCP_ERROR_RO_REG;
 368:Src/register_interface.c ****           break;
 369:Src/register_interface.c ****         }
 370:Src/register_interface.c **** 
 371:Src/register_interface.c ****         case MC_REG_DAC_USER1:
 372:Src/register_interface.c ****         case MC_REG_DAC_USER2:
 373:Src/register_interface.c ****           break;
 374:Src/register_interface.c **** 
 375:Src/register_interface.c ****         case MC_REG_SPEED_KP_DIV:
 376:Src/register_interface.c ****         {
 377:Src/register_interface.c ****           PID_SetKPDivisorPOW2(&PIDSpeedHandle_M1, regdata16);
 378:Src/register_interface.c ****           break;
 379:Src/register_interface.c ****         }
 380:Src/register_interface.c **** 
 381:Src/register_interface.c ****         case MC_REG_SPEED_KI_DIV:
 382:Src/register_interface.c ****         {
 383:Src/register_interface.c ****           PID_SetKIDivisorPOW2(&PIDSpeedHandle_M1, regdata16);
 384:Src/register_interface.c ****           break;
 385:Src/register_interface.c ****         }
 386:Src/register_interface.c **** 
 387:Src/register_interface.c ****         case MC_REG_SPEED_KD_DIV:
 388:Src/register_interface.c ****         {
 389:Src/register_interface.c ****           PID_SetKDDivisorPOW2(&PIDSpeedHandle_M1, regdata16);
 390:Src/register_interface.c ****           break;
 391:Src/register_interface.c ****         }
 392:Src/register_interface.c **** 
ARM GAS  /tmp/ccAfo4nU.s 			page 12


 393:Src/register_interface.c ****         case MC_REG_I_D_KP_DIV:
 394:Src/register_interface.c ****         {
 395:Src/register_interface.c ****           PID_SetKPDivisorPOW2(&PIDIdHandle_M1, regdata16);
 396:Src/register_interface.c ****           break;
 397:Src/register_interface.c ****         }
 398:Src/register_interface.c **** 
 399:Src/register_interface.c ****         case MC_REG_I_D_KI_DIV:
 400:Src/register_interface.c ****         {
 401:Src/register_interface.c ****           PID_SetKIDivisorPOW2(&PIDIdHandle_M1, regdata16);
 402:Src/register_interface.c ****           break;
 403:Src/register_interface.c ****         }
 404:Src/register_interface.c **** 
 405:Src/register_interface.c ****         case MC_REG_I_D_KD_DIV:
 406:Src/register_interface.c ****         {
 407:Src/register_interface.c ****           PID_SetKDDivisorPOW2(&PIDIdHandle_M1, regdata16);
 408:Src/register_interface.c ****           break;
 409:Src/register_interface.c ****         }
 410:Src/register_interface.c **** 
 411:Src/register_interface.c ****         case MC_REG_I_Q_KP_DIV:
 412:Src/register_interface.c ****         {
 413:Src/register_interface.c ****           PID_SetKPDivisorPOW2(&PIDIqHandle_M1, regdata16);
 414:Src/register_interface.c ****           break;
 415:Src/register_interface.c ****         }
 416:Src/register_interface.c **** 
 417:Src/register_interface.c ****         case MC_REG_I_Q_KI_DIV:
 418:Src/register_interface.c ****         {
 419:Src/register_interface.c ****           PID_SetKIDivisorPOW2(&PIDIqHandle_M1, regdata16);
 420:Src/register_interface.c ****           break;
 421:Src/register_interface.c ****         }
 422:Src/register_interface.c **** 
 423:Src/register_interface.c ****         case MC_REG_I_Q_KD_DIV:
 424:Src/register_interface.c ****         {
 425:Src/register_interface.c ****           PID_SetKDDivisorPOW2(&PIDIqHandle_M1, regdata16);
 426:Src/register_interface.c ****           break;
 427:Src/register_interface.c ****         }
 428:Src/register_interface.c **** 
 429:Src/register_interface.c ****         case MC_REG_STOPLL_KI_DIV:
 430:Src/register_interface.c ****         {
 431:Src/register_interface.c ****           PID_SetKIDivisorPOW2 (&(&STO_PLL_M1)->PIRegulator,regdata16);
 432:Src/register_interface.c ****           break;
 433:Src/register_interface.c ****         }
 434:Src/register_interface.c **** 
 435:Src/register_interface.c ****         case MC_REG_STOPLL_KP_DIV:
 436:Src/register_interface.c ****         {
 437:Src/register_interface.c ****           PID_SetKPDivisorPOW2 (&(&STO_PLL_M1)->PIRegulator,regdata16);
 438:Src/register_interface.c ****           break;
 439:Src/register_interface.c ****         }
 440:Src/register_interface.c **** 
 441:Src/register_interface.c ****         case MC_REG_PULSE_VALUE:
 442:Src/register_interface.c ****         {
 443:Src/register_interface.c ****           retVal = MCP_ERROR_RO_REG;
 444:Src/register_interface.c ****           break;
 445:Src/register_interface.c ****         }
 446:Src/register_interface.c **** 
 447:Src/register_interface.c ****         default:
 448:Src/register_interface.c ****         {
 449:Src/register_interface.c ****           retVal = MCP_ERROR_UNKNOWN_REG;
ARM GAS  /tmp/ccAfo4nU.s 			page 13


 450:Src/register_interface.c ****           break;
 451:Src/register_interface.c ****         }
 452:Src/register_interface.c ****       }
 453:Src/register_interface.c ****       *size = 2;
 454:Src/register_interface.c ****       break;
 455:Src/register_interface.c ****     }
 456:Src/register_interface.c **** 
 457:Src/register_interface.c ****     case TYPE_DATA_32BIT:
 458:Src/register_interface.c ****     {
 459:Src/register_interface.c ****       uint32_t regdata32 = *(uint32_t *)data; //cstat !MISRAC2012-Rule-11.3
 460:Src/register_interface.c **** 
 461:Src/register_interface.c ****       switch (regID)
 462:Src/register_interface.c ****       {
 463:Src/register_interface.c ****         case MC_REG_FAULTS_FLAGS:
 464:Src/register_interface.c ****         case MC_REG_SPEED_MEAS:
 465:Src/register_interface.c ****         {
 466:Src/register_interface.c ****           retVal = MCP_ERROR_RO_REG;
 467:Src/register_interface.c ****           break;
 468:Src/register_interface.c ****         }
 469:Src/register_interface.c **** 
 470:Src/register_interface.c ****         case MC_REG_SPEED_REF:
 471:Src/register_interface.c ****         {
 472:Src/register_interface.c ****           MCI_ExecSpeedRamp(pMCIN,((((int16_t)regdata32) * ((int16_t)SPEED_UNIT)) / (int16_t)U_RPM)
 473:Src/register_interface.c ****           break;
 474:Src/register_interface.c ****         }
 475:Src/register_interface.c **** 
 476:Src/register_interface.c ****         case MC_REG_STOPLL_EST_BEMF:
 477:Src/register_interface.c ****         case MC_REG_STOPLL_OBS_BEMF:
 478:Src/register_interface.c ****         {
 479:Src/register_interface.c ****           retVal = MCP_ERROR_RO_REG;
 480:Src/register_interface.c ****           break;
 481:Src/register_interface.c ****         }
 482:Src/register_interface.c **** 
 483:Src/register_interface.c ****         default:
 484:Src/register_interface.c ****         {
 485:Src/register_interface.c ****           retVal = MCP_ERROR_UNKNOWN_REG;
 486:Src/register_interface.c ****           break;
 487:Src/register_interface.c ****         }
 488:Src/register_interface.c ****       }
 489:Src/register_interface.c ****       *size = 4;
 490:Src/register_interface.c ****       break;
 491:Src/register_interface.c ****     }
 492:Src/register_interface.c **** 
 493:Src/register_interface.c ****     case TYPE_DATA_STRING:
 494:Src/register_interface.c ****     {
 495:Src/register_interface.c ****       const char_t *charData = (const char_t *)data;
 496:Src/register_interface.c ****       char_t *dummy = (char_t *)data;
 497:Src/register_interface.c ****       retVal = MCP_ERROR_RO_REG;
 498:Src/register_interface.c ****       /* Used to compute String length stored in RXBUFF even if Reg does not exist */
 499:Src/register_interface.c ****       /* It allows to jump to the next command in the buffer */
 500:Src/register_interface.c ****       (void)RI_MovString(charData, dummy, size, dataAvailable);
 501:Src/register_interface.c ****       break;
 502:Src/register_interface.c ****     }
 503:Src/register_interface.c **** 
 504:Src/register_interface.c ****     case TYPE_DATA_RAW:
 505:Src/register_interface.c ****     {
 506:Src/register_interface.c ****       uint16_t rawSize = *(uint16_t *)data; //cstat !MISRAC2012-Rule-11.3
ARM GAS  /tmp/ccAfo4nU.s 			page 14


 507:Src/register_interface.c ****       /* The size consumed by the structure is the structure size + 2 bytes used to store the size 
 508:Src/register_interface.c ****       *size = rawSize + 2U;
 509:Src/register_interface.c ****       uint8_t *rawData = data; /* rawData points to the first data (after size extraction) */
 510:Src/register_interface.c ****       rawData++;
 511:Src/register_interface.c ****       rawData++;
 512:Src/register_interface.c **** 
 513:Src/register_interface.c ****       if (*size > (uint16_t)dataAvailable)
 514:Src/register_interface.c ****       {
 515:Src/register_interface.c ****         /* The decoded size of the raw structure can not match with transmitted buffer, error in bu
 516:Src/register_interface.c ****            construction */
 517:Src/register_interface.c ****         *size = 0;
 518:Src/register_interface.c ****         retVal = MCP_ERROR_BAD_RAW_FORMAT; /* This error stop the parsing of the CMD buffer */
 519:Src/register_interface.c ****       }
 520:Src/register_interface.c ****       else
 521:Src/register_interface.c ****       {
 522:Src/register_interface.c ****         switch (regID)
 523:Src/register_interface.c ****         {
 524:Src/register_interface.c ****           case MC_REG_APPLICATION_CONFIG:
 525:Src/register_interface.c ****           case MC_REG_MOTOR_CONFIG:
 526:Src/register_interface.c ****           case MC_REG_GLOBAL_CONFIG:
 527:Src/register_interface.c ****           case MC_REG_FOCFW_CONFIG:
 528:Src/register_interface.c ****           {
 529:Src/register_interface.c ****             retVal = MCP_ERROR_RO_REG;
 530:Src/register_interface.c ****             break;
 531:Src/register_interface.c ****           }
 532:Src/register_interface.c **** 
 533:Src/register_interface.c ****           case MC_REG_SPEED_RAMP:
 534:Src/register_interface.c ****           {
 535:Src/register_interface.c ****             int32_t rpm;
 536:Src/register_interface.c ****             uint16_t duration;
 537:Src/register_interface.c **** 
 538:Src/register_interface.c ****             rpm = *(int32_t *)rawData; //cstat !MISRAC2012-Rule-11.3
 539:Src/register_interface.c ****             duration = *(uint16_t *)&rawData[4]; //cstat !MISRAC2012-Rule-11.3
 540:Src/register_interface.c ****             MCI_ExecSpeedRamp(pMCIN, (int16_t)((rpm * SPEED_UNIT) / U_RPM), duration);
 541:Src/register_interface.c ****             break;
 542:Src/register_interface.c ****           }
 543:Src/register_interface.c **** 
 544:Src/register_interface.c ****           case MC_REG_TORQUE_RAMP:
 545:Src/register_interface.c ****           {
 546:Src/register_interface.c ****             uint32_t torque;
 547:Src/register_interface.c ****             uint16_t duration;
 548:Src/register_interface.c **** 
 549:Src/register_interface.c ****             torque = *(uint32_t *)rawData; //cstat !MISRAC2012-Rule-11.3
 550:Src/register_interface.c ****             duration = *(uint16_t *)&rawData[4]; //cstat !MISRAC2012-Rule-11.3
 551:Src/register_interface.c ****             MCI_ExecTorqueRamp(pMCIN, (int16_t)torque, duration);
 552:Src/register_interface.c ****             break;
 553:Src/register_interface.c ****           }
 554:Src/register_interface.c **** 
 555:Src/register_interface.c ****           case MC_REG_REVUP_DATA:
 556:Src/register_interface.c ****           {
 557:Src/register_interface.c ****             int32_t rpm;
 558:Src/register_interface.c ****             RevUpCtrl_PhaseParams_t revUpPhase;
 559:Src/register_interface.c ****             uint8_t i;
 560:Src/register_interface.c ****             uint8_t nbrOfPhase = (((uint8_t)rawSize) / 8U);
 561:Src/register_interface.c **** 
 562:Src/register_interface.c ****             if (((0U != ((rawSize) % 8U))) || ((nbrOfPhase > RUC_MAX_PHASE_NUMBER) != 0))
 563:Src/register_interface.c ****             {
ARM GAS  /tmp/ccAfo4nU.s 			page 15


 564:Src/register_interface.c ****               retVal = MCP_ERROR_BAD_RAW_FORMAT;
 565:Src/register_interface.c ****             }
 566:Src/register_interface.c ****             else
 567:Src/register_interface.c ****             {
 568:Src/register_interface.c ****               for (i = 0; i <nbrOfPhase; i++)
 569:Src/register_interface.c ****               {
 570:Src/register_interface.c ****               rpm = *(int32_t *) &rawData[i * 8U]; //cstat !MISRAC2012-Rule-11.3
 571:Src/register_interface.c ****               revUpPhase.hFinalMecSpeedUnit = (((int16_t)rpm) * ((int16_t)SPEED_UNIT)) / ((int16_t)
 572:Src/register_interface.c ****               revUpPhase.hFinalTorque = *((int16_t *) &rawData[4U + (i * 8U)]); //cstat !MISRAC2012
 573:Src/register_interface.c ****               revUpPhase.hDurationms  = *((uint16_t *) &rawData[6U +(i * 8U)]); //cstat !MISRAC2012
 574:Src/register_interface.c ****               (void)RUC_SetPhase(&RevUpControlM1, i, &revUpPhase);
 575:Src/register_interface.c ****               }
 576:Src/register_interface.c ****             }
 577:Src/register_interface.c ****             break;
 578:Src/register_interface.c ****           }
 579:Src/register_interface.c **** 
 580:Src/register_interface.c ****           case MC_REG_CURRENT_REF:
 581:Src/register_interface.c ****           {
 582:Src/register_interface.c ****             qd_t currComp;
 583:Src/register_interface.c ****             currComp.q = *((int16_t *) rawData); //cstat !MISRAC2012-Rule-11.3
 584:Src/register_interface.c ****             currComp.d = *((int16_t *) &rawData[2]); //cstat !MISRAC2012-Rule-11.3
 585:Src/register_interface.c ****             MCI_SetCurrentReferences(pMCIN, currComp);
 586:Src/register_interface.c ****             break;
 587:Src/register_interface.c ****           }
 588:Src/register_interface.c **** 
 589:Src/register_interface.c ****           case MC_REG_ASYNC_UARTA:
 590:Src/register_interface.c ****           {
 591:Src/register_interface.c ****             retVal =  MCPA_cfgLog (&MCPA_UART_A, rawData);
 592:Src/register_interface.c ****             break;
 593:Src/register_interface.c ****           }
 594:Src/register_interface.c **** 
 595:Src/register_interface.c ****           default:
 596:Src/register_interface.c ****           {
 597:Src/register_interface.c ****             retVal = MCP_ERROR_UNKNOWN_REG;
 598:Src/register_interface.c ****             break;
 599:Src/register_interface.c ****           }
 600:Src/register_interface.c ****         }
 601:Src/register_interface.c ****       }
 602:Src/register_interface.c ****       break;
 603:Src/register_interface.c ****     }
 604:Src/register_interface.c **** 
 605:Src/register_interface.c ****     default:
 606:Src/register_interface.c ****     {
 607:Src/register_interface.c ****       retVal = MCP_ERROR_BAD_DATA_TYPE;
 608:Src/register_interface.c ****       *size =0; /* From this point we are not able anymore to decode the RX buffer */
 609:Src/register_interface.c ****       break;
 610:Src/register_interface.c ****     }
 611:Src/register_interface.c ****   }
 612:Src/register_interface.c ****   return (retVal);
 613:Src/register_interface.c **** }
 614:Src/register_interface.c **** 
 615:Src/register_interface.c **** uint8_t RI_GetRegisterGlobal(uint16_t regID,uint8_t typeID,uint8_t * data,uint16_t *size,int16_t fr
 616:Src/register_interface.c ****     uint8_t retVal = MCP_CMD_OK;
 617:Src/register_interface.c ****     switch (typeID)
 618:Src/register_interface.c ****     {
 619:Src/register_interface.c ****       case TYPE_DATA_8BIT:
 620:Src/register_interface.c ****       {
ARM GAS  /tmp/ccAfo4nU.s 			page 16


 621:Src/register_interface.c ****         if (freeSpace > 0)
 622:Src/register_interface.c ****         {
 623:Src/register_interface.c ****           switch (regID)
 624:Src/register_interface.c ****           {
 625:Src/register_interface.c ****             default:
 626:Src/register_interface.c ****             {
 627:Src/register_interface.c ****               retVal = MCP_ERROR_UNKNOWN_REG;
 628:Src/register_interface.c ****               break;
 629:Src/register_interface.c ****             }
 630:Src/register_interface.c ****           }
 631:Src/register_interface.c ****           *size = 1;
 632:Src/register_interface.c ****         }
 633:Src/register_interface.c ****         else
 634:Src/register_interface.c ****         {
 635:Src/register_interface.c ****           retVal = MCP_ERROR_NO_TXSYNC_SPACE;
 636:Src/register_interface.c ****         }
 637:Src/register_interface.c ****         break;
 638:Src/register_interface.c ****       }
 639:Src/register_interface.c **** 
 640:Src/register_interface.c ****       case TYPE_DATA_16BIT:
 641:Src/register_interface.c ****       {
 642:Src/register_interface.c ****         if (freeSpace >= 2)
 643:Src/register_interface.c ****         {
 644:Src/register_interface.c ****           switch (regID)
 645:Src/register_interface.c ****           {
 646:Src/register_interface.c ****             case MC_REG_DAC_USER1:
 647:Src/register_interface.c ****             case MC_REG_DAC_USER2:
 648:Src/register_interface.c ****               break;
 649:Src/register_interface.c **** 
 650:Src/register_interface.c ****             default:
 651:Src/register_interface.c ****             {
 652:Src/register_interface.c ****               retVal = MCP_ERROR_UNKNOWN_REG;
 653:Src/register_interface.c ****               break;
 654:Src/register_interface.c ****             }
 655:Src/register_interface.c ****           }
 656:Src/register_interface.c ****           *size = 2;
 657:Src/register_interface.c ****         }
 658:Src/register_interface.c ****         else
 659:Src/register_interface.c ****         {
 660:Src/register_interface.c ****           retVal = MCP_ERROR_NO_TXSYNC_SPACE;
 661:Src/register_interface.c ****         }
 662:Src/register_interface.c ****         break;
 663:Src/register_interface.c ****       }
 664:Src/register_interface.c **** 
 665:Src/register_interface.c ****       case TYPE_DATA_32BIT:
 666:Src/register_interface.c ****       {
 667:Src/register_interface.c ****         if (freeSpace >= 4)
 668:Src/register_interface.c ****         {
 669:Src/register_interface.c ****           switch (regID)
 670:Src/register_interface.c ****           {
 671:Src/register_interface.c **** 
 672:Src/register_interface.c ****             default:
 673:Src/register_interface.c ****             {
 674:Src/register_interface.c ****               retVal = MCP_ERROR_UNKNOWN_REG;
 675:Src/register_interface.c ****               break;
 676:Src/register_interface.c ****             }
 677:Src/register_interface.c ****           }
ARM GAS  /tmp/ccAfo4nU.s 			page 17


 678:Src/register_interface.c ****           *size = 4;
 679:Src/register_interface.c ****         }
 680:Src/register_interface.c ****         else
 681:Src/register_interface.c ****         {
 682:Src/register_interface.c ****           retVal = MCP_ERROR_NO_TXSYNC_SPACE;
 683:Src/register_interface.c ****         }
 684:Src/register_interface.c ****         break;
 685:Src/register_interface.c ****       }
 686:Src/register_interface.c **** 
 687:Src/register_interface.c ****       case TYPE_DATA_STRING:
 688:Src/register_interface.c ****       {
 689:Src/register_interface.c ****         char_t *charData = (char_t *)data;
 690:Src/register_interface.c ****         switch (regID)
 691:Src/register_interface.c ****         {
 692:Src/register_interface.c ****           case MC_REG_FW_NAME:
 693:Src/register_interface.c ****             retVal = RI_MovString (FIRMWARE_NAME ,charData, size, freeSpace);
 694:Src/register_interface.c ****             break;
 695:Src/register_interface.c **** 
 696:Src/register_interface.c ****           case MC_REG_CTRL_STAGE_NAME:
 697:Src/register_interface.c ****           {
 698:Src/register_interface.c ****             retVal = RI_MovString (CTL_BOARD ,charData, size, freeSpace);
 699:Src/register_interface.c ****             break;
 700:Src/register_interface.c ****           }
 701:Src/register_interface.c ****           default:
 702:Src/register_interface.c ****           {
 703:Src/register_interface.c **** 
 704:Src/register_interface.c ****             retVal = MCP_ERROR_UNKNOWN_REG;
 705:Src/register_interface.c ****             *size= 0 ; /* */
 706:Src/register_interface.c **** 
 707:Src/register_interface.c ****             break;
 708:Src/register_interface.c ****           }
 709:Src/register_interface.c ****         }
 710:Src/register_interface.c ****         break;
 711:Src/register_interface.c **** 
 712:Src/register_interface.c ****       }
 713:Src/register_interface.c ****       case TYPE_DATA_RAW:
 714:Src/register_interface.c ****       {
 715:Src/register_interface.c ****         /* First 2 bytes of the answer is reserved to the size */
 716:Src/register_interface.c ****         uint16_t *rawSize = (uint16_t *)data; //cstat !MISRAC2012-Rule-11.3
 717:Src/register_interface.c ****         uint8_t * rawData = data;
 718:Src/register_interface.c ****         rawData++;
 719:Src/register_interface.c ****         rawData++;
 720:Src/register_interface.c **** 
 721:Src/register_interface.c ****         switch (regID)
 722:Src/register_interface.c ****         {
 723:Src/register_interface.c ****           case MC_REG_GLOBAL_CONFIG:
 724:Src/register_interface.c ****           {
 725:Src/register_interface.c ****             *rawSize = (uint16_t)sizeof(GlobalConfig_reg_t);
 726:Src/register_interface.c ****             if (((*rawSize) + 2U) > (uint16_t)freeSpace)
 727:Src/register_interface.c ****             {
 728:Src/register_interface.c ****               retVal = MCP_ERROR_NO_TXSYNC_SPACE;
 729:Src/register_interface.c ****             }
 730:Src/register_interface.c ****             else
 731:Src/register_interface.c ****             {
 732:Src/register_interface.c ****               (void)memcpy(rawData, &globalConfig_reg, sizeof(GlobalConfig_reg_t));
 733:Src/register_interface.c ****             }
 734:Src/register_interface.c ****             break;
ARM GAS  /tmp/ccAfo4nU.s 			page 18


 735:Src/register_interface.c ****           }
 736:Src/register_interface.c ****           case MC_REG_ASYNC_UARTA:
 737:Src/register_interface.c ****           case MC_REG_ASYNC_UARTB:
 738:Src/register_interface.c ****           case MC_REG_ASYNC_STLNK:
 739:Src/register_interface.c ****           default:
 740:Src/register_interface.c ****           {
 741:Src/register_interface.c ****             retVal = MCP_ERROR_UNKNOWN_REG;
 742:Src/register_interface.c ****             break;
 743:Src/register_interface.c ****           }
 744:Src/register_interface.c ****         }
 745:Src/register_interface.c **** 
 746:Src/register_interface.c ****         /* Size of the answer is size of the data + 2 bytes containing data size */
 747:Src/register_interface.c ****         *size = (*rawSize) + 2U;
 748:Src/register_interface.c ****         break;
 749:Src/register_interface.c ****       }
 750:Src/register_interface.c **** 
 751:Src/register_interface.c ****       default:
 752:Src/register_interface.c ****       {
 753:Src/register_interface.c ****         retVal = MCP_ERROR_BAD_DATA_TYPE;
 754:Src/register_interface.c ****         break;
 755:Src/register_interface.c ****       }
 756:Src/register_interface.c ****     }
 757:Src/register_interface.c ****   return (retVal);
 758:Src/register_interface.c **** }
 759:Src/register_interface.c **** 
 760:Src/register_interface.c ****   uint8_t RI_GetRegisterMotor1(uint16_t regID,uint8_t typeID,uint8_t * data,uint16_t *size,int16_t 
 761:Src/register_interface.c ****     uint8_t retVal = MCP_CMD_OK;
 762:Src/register_interface.c ****     uint8_t motorID=0;
 763:Src/register_interface.c ****     MCI_Handle_t *pMCIN = &Mci[motorID];
 764:Src/register_interface.c ****     BusVoltageSensor_Handle_t* BusVoltageSensor= &BusVoltageSensor_M1._Super;
 765:Src/register_interface.c ****     switch (typeID)
 766:Src/register_interface.c ****     {
 767:Src/register_interface.c ****       case TYPE_DATA_8BIT:
 768:Src/register_interface.c ****       {
 769:Src/register_interface.c ****         if (freeSpace > 0)
 770:Src/register_interface.c ****         {
 771:Src/register_interface.c ****           switch (regID)
 772:Src/register_interface.c ****           {
 773:Src/register_interface.c ****             case MC_REG_STATUS:
 774:Src/register_interface.c ****             {
 775:Src/register_interface.c ****               *data = (uint8_t)MCI_GetSTMState(pMCIN);
 776:Src/register_interface.c ****               break;
 777:Src/register_interface.c ****             }
 778:Src/register_interface.c **** 
 779:Src/register_interface.c ****             case MC_REG_CONTROL_MODE:
 780:Src/register_interface.c ****             {
 781:Src/register_interface.c ****               *data = (uint8_t)MCI_GetControlMode(pMCIN);
 782:Src/register_interface.c ****               break;
 783:Src/register_interface.c ****             }
 784:Src/register_interface.c **** 
 785:Src/register_interface.c ****             case MC_REG_RUC_STAGE_NBR:
 786:Src/register_interface.c ****             {
 787:Src/register_interface.c ****               *data = (uint8_t)RUC_GetNumberOfPhases(&RevUpControlM1);
 788:Src/register_interface.c ****               break;
 789:Src/register_interface.c ****             }
 790:Src/register_interface.c **** 
 791:Src/register_interface.c ****             default:
ARM GAS  /tmp/ccAfo4nU.s 			page 19


 792:Src/register_interface.c ****             {
 793:Src/register_interface.c ****               retVal = MCP_ERROR_UNKNOWN_REG;
 794:Src/register_interface.c ****               break;
 795:Src/register_interface.c ****             }
 796:Src/register_interface.c ****           }
 797:Src/register_interface.c ****           *size = 1;
 798:Src/register_interface.c ****         }
 799:Src/register_interface.c ****         else
 800:Src/register_interface.c ****         {
 801:Src/register_interface.c ****           retVal = MCP_ERROR_NO_TXSYNC_SPACE;
 802:Src/register_interface.c ****         }
 803:Src/register_interface.c ****         break;
 804:Src/register_interface.c ****       }
 805:Src/register_interface.c **** 
 806:Src/register_interface.c ****       case TYPE_DATA_16BIT:
 807:Src/register_interface.c ****       {
 808:Src/register_interface.c ****         uint16_t *regdataU16 = (uint16_t *)data; //cstat !MISRAC2012-Rule-11.3
 809:Src/register_interface.c ****         int16_t *regdata16 = (int16_t *) data; //cstat !MISRAC2012-Rule-11.3
 810:Src/register_interface.c **** 
 811:Src/register_interface.c ****         if (freeSpace >= 2)
 812:Src/register_interface.c ****         {
 813:Src/register_interface.c ****           switch (regID)
 814:Src/register_interface.c ****           {
 815:Src/register_interface.c ****             case MC_REG_SPEED_KP:
 816:Src/register_interface.c ****             {
 817:Src/register_interface.c ****               *regdata16 = PID_GetKP(&PIDSpeedHandle_M1);
 818:Src/register_interface.c ****               break;
 819:Src/register_interface.c ****             }
 820:Src/register_interface.c **** 
 821:Src/register_interface.c ****             case MC_REG_SPEED_KI:
 822:Src/register_interface.c ****             {
 823:Src/register_interface.c ****               *regdata16 = PID_GetKI(&PIDSpeedHandle_M1);
 824:Src/register_interface.c ****               break;
 825:Src/register_interface.c ****             }
 826:Src/register_interface.c **** 
 827:Src/register_interface.c ****             case MC_REG_SPEED_KD:
 828:Src/register_interface.c ****             {
 829:Src/register_interface.c ****               *regdata16 = PID_GetKD(&PIDSpeedHandle_M1);
 830:Src/register_interface.c ****               break;
 831:Src/register_interface.c ****             }
 832:Src/register_interface.c **** 
 833:Src/register_interface.c ****             case MC_REG_I_Q_KP:
 834:Src/register_interface.c ****             {
 835:Src/register_interface.c ****               *regdata16 = PID_GetKP(&PIDIqHandle_M1);
 836:Src/register_interface.c ****               break;
 837:Src/register_interface.c ****             }
 838:Src/register_interface.c **** 
 839:Src/register_interface.c ****             case MC_REG_I_Q_KI:
 840:Src/register_interface.c ****             {
 841:Src/register_interface.c ****               *regdata16 = PID_GetKI(&PIDIqHandle_M1);
 842:Src/register_interface.c ****               break;
 843:Src/register_interface.c ****             }
 844:Src/register_interface.c **** 
 845:Src/register_interface.c ****             case MC_REG_I_Q_KD:
 846:Src/register_interface.c ****             {
 847:Src/register_interface.c ****               *regdata16 = PID_GetKD(&PIDIqHandle_M1);
 848:Src/register_interface.c ****               break;
ARM GAS  /tmp/ccAfo4nU.s 			page 20


 849:Src/register_interface.c ****             }
 850:Src/register_interface.c **** 
 851:Src/register_interface.c ****             case MC_REG_I_D_KP:
 852:Src/register_interface.c ****             {
 853:Src/register_interface.c ****               *regdata16 = PID_GetKP(&PIDIdHandle_M1);
 854:Src/register_interface.c ****               break;
 855:Src/register_interface.c ****             }
 856:Src/register_interface.c **** 
 857:Src/register_interface.c ****             case MC_REG_I_D_KI:
 858:Src/register_interface.c ****             {
 859:Src/register_interface.c ****               *regdata16 = PID_GetKI(&PIDIdHandle_M1);
 860:Src/register_interface.c ****               break;
 861:Src/register_interface.c ****             }
 862:Src/register_interface.c **** 
 863:Src/register_interface.c ****             case MC_REG_I_D_KD:
 864:Src/register_interface.c ****             {
 865:Src/register_interface.c ****               *regdata16 = PID_GetKD(&PIDIdHandle_M1);
 866:Src/register_interface.c ****               break;
 867:Src/register_interface.c ****             }
 868:Src/register_interface.c **** 
 869:Src/register_interface.c ****             case MC_REG_BUS_VOLTAGE:
 870:Src/register_interface.c ****             {
 871:Src/register_interface.c ****               *regdataU16 = VBS_GetAvBusVoltage_V(BusVoltageSensor);
 872:Src/register_interface.c ****               break;
 873:Src/register_interface.c ****             }
 874:Src/register_interface.c **** 
 875:Src/register_interface.c ****             case MC_REG_HEATS_TEMP:
 876:Src/register_interface.c ****             {
 877:Src/register_interface.c ****               *regdata16 = NTC_GetAvTemp_C(&TempSensor_M1);
 878:Src/register_interface.c ****               break;
 879:Src/register_interface.c ****             }
 880:Src/register_interface.c **** 
 881:Src/register_interface.c ****             case MC_REG_I_A:
 882:Src/register_interface.c ****             {
 883:Src/register_interface.c ****               *regdata16 = MCI_GetIab(pMCIN).a;
 884:Src/register_interface.c ****               break;
 885:Src/register_interface.c ****             }
 886:Src/register_interface.c **** 
 887:Src/register_interface.c ****             case MC_REG_I_B:
 888:Src/register_interface.c ****             {
 889:Src/register_interface.c ****               *regdata16 = MCI_GetIab(pMCIN).b;
 890:Src/register_interface.c ****               break;
 891:Src/register_interface.c ****             }
 892:Src/register_interface.c **** 
 893:Src/register_interface.c ****             case MC_REG_I_ALPHA_MEAS:
 894:Src/register_interface.c ****             {
 895:Src/register_interface.c ****               *regdata16 = MCI_GetIalphabeta(pMCIN).alpha;
 896:Src/register_interface.c ****               break;
 897:Src/register_interface.c ****             }
 898:Src/register_interface.c **** 
 899:Src/register_interface.c ****             case MC_REG_I_BETA_MEAS:
 900:Src/register_interface.c ****             {
 901:Src/register_interface.c ****               *regdata16 = MCI_GetIalphabeta(pMCIN).beta;
 902:Src/register_interface.c ****               break;
 903:Src/register_interface.c ****             }
 904:Src/register_interface.c **** 
 905:Src/register_interface.c ****             case MC_REG_I_Q_MEAS:
ARM GAS  /tmp/ccAfo4nU.s 			page 21


 906:Src/register_interface.c ****             {
 907:Src/register_interface.c ****               *regdata16 = MCI_GetIqd(pMCIN).q;
 908:Src/register_interface.c ****               break;
 909:Src/register_interface.c ****             }
 910:Src/register_interface.c **** 
 911:Src/register_interface.c ****             case MC_REG_I_D_MEAS:
 912:Src/register_interface.c ****             {
 913:Src/register_interface.c ****               *regdata16 = MCI_GetIqd(pMCIN).d;
 914:Src/register_interface.c ****               break;
 915:Src/register_interface.c ****             }
 916:Src/register_interface.c **** 
 917:Src/register_interface.c ****             case MC_REG_I_Q_REF:
 918:Src/register_interface.c ****             {
 919:Src/register_interface.c ****               *regdata16 = MCI_GetIqdref(pMCIN).q;
 920:Src/register_interface.c ****               break;
 921:Src/register_interface.c ****             }
 922:Src/register_interface.c **** 
 923:Src/register_interface.c ****             case MC_REG_I_D_REF:
 924:Src/register_interface.c ****             {
 925:Src/register_interface.c ****               *regdata16 = MCI_GetIqdref(pMCIN).d;
 926:Src/register_interface.c ****               break;
 927:Src/register_interface.c ****             }
 928:Src/register_interface.c **** 
 929:Src/register_interface.c ****             case MC_REG_V_Q:
 930:Src/register_interface.c ****             {
 931:Src/register_interface.c ****               *regdata16 = MCI_GetVqd(pMCIN).q;
 932:Src/register_interface.c ****               break;
 933:Src/register_interface.c ****             }
 934:Src/register_interface.c **** 
 935:Src/register_interface.c ****             case MC_REG_V_D:
 936:Src/register_interface.c ****             {
 937:Src/register_interface.c ****               *regdata16 = MCI_GetVqd(pMCIN).d;
 938:Src/register_interface.c ****               break;
 939:Src/register_interface.c ****             }
 940:Src/register_interface.c **** 
 941:Src/register_interface.c ****             case MC_REG_V_ALPHA:
 942:Src/register_interface.c ****             {
 943:Src/register_interface.c ****               *regdata16 = MCI_GetValphabeta(pMCIN).alpha;
 944:Src/register_interface.c ****               break;
 945:Src/register_interface.c ****             }
 946:Src/register_interface.c **** 
 947:Src/register_interface.c ****             case MC_REG_V_BETA:
 948:Src/register_interface.c ****             {
 949:Src/register_interface.c ****               *regdata16 = MCI_GetValphabeta(pMCIN).beta;
 950:Src/register_interface.c ****               break;
 951:Src/register_interface.c ****             }
 952:Src/register_interface.c **** 
 953:Src/register_interface.c ****             case MC_REG_STOPLL_EL_ANGLE:
 954:Src/register_interface.c ****             {
 955:Src/register_interface.c ****               //cstat !MISRAC2012-Rule-11.3
 956:Src/register_interface.c ****               *regdata16 = SPD_GetElAngle((SpeednPosFdbk_Handle_t *)&STO_PLL_M1);
 957:Src/register_interface.c ****               break;
 958:Src/register_interface.c ****             }
 959:Src/register_interface.c **** 
 960:Src/register_interface.c ****             case MC_REG_STOPLL_ROT_SPEED:
 961:Src/register_interface.c ****             {
 962:Src/register_interface.c ****               //cstat !MISRAC2012-Rule-11.3
ARM GAS  /tmp/ccAfo4nU.s 			page 22


 963:Src/register_interface.c ****               *regdata16 = SPD_GetS16Speed((SpeednPosFdbk_Handle_t *)&STO_PLL_M1);
 964:Src/register_interface.c ****               break;
 965:Src/register_interface.c ****             }
 966:Src/register_interface.c **** 
 967:Src/register_interface.c ****             case MC_REG_STOPLL_I_ALPHA:
 968:Src/register_interface.c ****             {
 969:Src/register_interface.c ****               *regdata16 = STO_PLL_GetEstimatedCurrent(&STO_PLL_M1).alpha;
 970:Src/register_interface.c ****               break;
 971:Src/register_interface.c ****             }
 972:Src/register_interface.c **** 
 973:Src/register_interface.c ****             case MC_REG_STOPLL_I_BETA:
 974:Src/register_interface.c ****             {
 975:Src/register_interface.c ****               *regdata16 = STO_PLL_GetEstimatedCurrent(&STO_PLL_M1).beta;
 976:Src/register_interface.c ****               break;
 977:Src/register_interface.c ****             }
 978:Src/register_interface.c **** 
 979:Src/register_interface.c ****             case MC_REG_STOPLL_BEMF_ALPHA:
 980:Src/register_interface.c ****             {
 981:Src/register_interface.c ****               *regdata16 = STO_PLL_GetEstimatedBemf(&STO_PLL_M1).alpha;
 982:Src/register_interface.c ****               break;
 983:Src/register_interface.c ****             }
 984:Src/register_interface.c **** 
 985:Src/register_interface.c ****             case MC_REG_STOPLL_BEMF_BETA:
 986:Src/register_interface.c ****             {
 987:Src/register_interface.c ****               *regdata16 = STO_PLL_GetEstimatedBemf(&STO_PLL_M1).beta;
 988:Src/register_interface.c ****               break;
 989:Src/register_interface.c ****             }
 990:Src/register_interface.c **** 
 991:Src/register_interface.c ****             case MC_REG_STOPLL_C1:
 992:Src/register_interface.c ****             {
 993:Src/register_interface.c ****               int16_t hC1;
 994:Src/register_interface.c ****               int16_t hC2;
 995:Src/register_interface.c ****               STO_PLL_GetObserverGains(&STO_PLL_M1, &hC1, &hC2);
 996:Src/register_interface.c ****               *regdata16 = hC1;
 997:Src/register_interface.c ****               break;
 998:Src/register_interface.c ****             }
 999:Src/register_interface.c **** 
1000:Src/register_interface.c ****             case MC_REG_STOPLL_C2:
1001:Src/register_interface.c ****             {
1002:Src/register_interface.c ****               int16_t hC1;
1003:Src/register_interface.c ****               int16_t hC2;
1004:Src/register_interface.c ****               STO_PLL_GetObserverGains(&STO_PLL_M1, &hC1, &hC2);
1005:Src/register_interface.c ****               *regdata16 = hC2;
1006:Src/register_interface.c ****               break;
1007:Src/register_interface.c ****             }
1008:Src/register_interface.c **** 
1009:Src/register_interface.c ****             case MC_REG_STOPLL_KI:
1010:Src/register_interface.c ****             {
1011:Src/register_interface.c ****               *regdata16 = PID_GetKI (&(&STO_PLL_M1)->PIRegulator);
1012:Src/register_interface.c ****               break;
1013:Src/register_interface.c ****             }
1014:Src/register_interface.c **** 
1015:Src/register_interface.c ****             case MC_REG_STOPLL_KP:
1016:Src/register_interface.c ****             {
1017:Src/register_interface.c ****               *regdata16 = PID_GetKP (&(&STO_PLL_M1)->PIRegulator);
1018:Src/register_interface.c ****               break;
1019:Src/register_interface.c ****             }
ARM GAS  /tmp/ccAfo4nU.s 			page 23


1020:Src/register_interface.c **** 
1021:Src/register_interface.c ****             case MC_REG_DAC_USER1:
1022:Src/register_interface.c ****             case MC_REG_DAC_USER2:
1023:Src/register_interface.c ****               break;
1024:Src/register_interface.c **** 
1025:Src/register_interface.c ****             case MC_REG_SPEED_KP_DIV:
1026:Src/register_interface.c ****             {
1027:Src/register_interface.c ****               *regdataU16 = (uint16_t)PID_GetKPDivisorPOW2(&PIDSpeedHandle_M1);
1028:Src/register_interface.c ****               break;
1029:Src/register_interface.c ****             }
1030:Src/register_interface.c **** 
1031:Src/register_interface.c ****             case MC_REG_SPEED_KI_DIV:
1032:Src/register_interface.c ****             {
1033:Src/register_interface.c ****               *regdataU16 = (uint16_t)PID_GetKIDivisorPOW2(&PIDSpeedHandle_M1);
1034:Src/register_interface.c ****               break;
1035:Src/register_interface.c ****             }
1036:Src/register_interface.c **** 
1037:Src/register_interface.c ****             case MC_REG_SPEED_KD_DIV:
1038:Src/register_interface.c ****             {
1039:Src/register_interface.c ****               *regdataU16 = PID_GetKDDivisorPOW2(&PIDSpeedHandle_M1);
1040:Src/register_interface.c ****               break;
1041:Src/register_interface.c ****             }
1042:Src/register_interface.c ****             case MC_REG_I_D_KP_DIV:
1043:Src/register_interface.c ****             {
1044:Src/register_interface.c ****               *regdataU16 = PID_GetKPDivisorPOW2(&PIDIdHandle_M1);
1045:Src/register_interface.c ****               break;
1046:Src/register_interface.c ****             }
1047:Src/register_interface.c **** 
1048:Src/register_interface.c ****             case MC_REG_I_D_KI_DIV:
1049:Src/register_interface.c ****             {
1050:Src/register_interface.c ****               *regdataU16 = PID_GetKIDivisorPOW2(&PIDIdHandle_M1);
1051:Src/register_interface.c ****               break;
1052:Src/register_interface.c ****             }
1053:Src/register_interface.c **** 
1054:Src/register_interface.c ****             case MC_REG_I_D_KD_DIV:
1055:Src/register_interface.c ****             {
1056:Src/register_interface.c ****               *regdataU16 = PID_GetKDDivisorPOW2(&PIDIdHandle_M1);
1057:Src/register_interface.c ****               break;
1058:Src/register_interface.c ****             }
1059:Src/register_interface.c **** 
1060:Src/register_interface.c ****             case MC_REG_I_Q_KP_DIV:
1061:Src/register_interface.c ****             {
1062:Src/register_interface.c ****               *regdataU16 = PID_GetKPDivisorPOW2(&PIDIqHandle_M1);
1063:Src/register_interface.c ****               break;
1064:Src/register_interface.c ****             }
1065:Src/register_interface.c **** 
1066:Src/register_interface.c ****             case MC_REG_I_Q_KI_DIV:
1067:Src/register_interface.c ****             {
1068:Src/register_interface.c ****               *regdataU16 = PID_GetKIDivisorPOW2(&PIDIqHandle_M1);
1069:Src/register_interface.c ****               break;
1070:Src/register_interface.c ****             }
1071:Src/register_interface.c **** 
1072:Src/register_interface.c ****             case MC_REG_I_Q_KD_DIV:
1073:Src/register_interface.c ****             {
1074:Src/register_interface.c ****               *regdataU16 = PID_GetKDDivisorPOW2(&PIDIqHandle_M1);
1075:Src/register_interface.c ****               break;
1076:Src/register_interface.c ****             }
ARM GAS  /tmp/ccAfo4nU.s 			page 24


1077:Src/register_interface.c **** 
1078:Src/register_interface.c ****             case MC_REG_STOPLL_KI_DIV:
1079:Src/register_interface.c ****             {
1080:Src/register_interface.c ****               *regdataU16 = PID_GetKIDivisorPOW2(&(&STO_PLL_M1)->PIRegulator);
1081:Src/register_interface.c ****               break;
1082:Src/register_interface.c ****             }
1083:Src/register_interface.c **** 
1084:Src/register_interface.c ****             case MC_REG_STOPLL_KP_DIV:
1085:Src/register_interface.c ****             {
1086:Src/register_interface.c ****               *regdataU16 = PID_GetKPDivisorPOW2(&(&STO_PLL_M1)->PIRegulator);
1087:Src/register_interface.c ****               break;
1088:Src/register_interface.c ****             }
1089:Src/register_interface.c **** 
1090:Src/register_interface.c ****             default:
1091:Src/register_interface.c ****             {
1092:Src/register_interface.c ****               retVal = MCP_ERROR_UNKNOWN_REG;
1093:Src/register_interface.c ****               break;
1094:Src/register_interface.c ****             }
1095:Src/register_interface.c ****           }
1096:Src/register_interface.c ****           *size = 2;
1097:Src/register_interface.c ****         }
1098:Src/register_interface.c ****         else
1099:Src/register_interface.c ****         {
1100:Src/register_interface.c ****           retVal = MCP_ERROR_NO_TXSYNC_SPACE;
1101:Src/register_interface.c ****         }
1102:Src/register_interface.c ****         break;
1103:Src/register_interface.c ****       }
1104:Src/register_interface.c **** 
1105:Src/register_interface.c ****       case TYPE_DATA_32BIT:
1106:Src/register_interface.c ****       {
1107:Src/register_interface.c ****         uint32_t *regdataU32 = (uint32_t *)data; //cstat !MISRAC2012-Rule-11.3
1108:Src/register_interface.c ****         int32_t *regdata32 = (int32_t *)data; //cstat !MISRAC2012-Rule-11.3
1109:Src/register_interface.c **** 
1110:Src/register_interface.c ****         if (freeSpace >= 4)
1111:Src/register_interface.c ****         {
1112:Src/register_interface.c ****           switch (regID)
1113:Src/register_interface.c ****           {
1114:Src/register_interface.c ****             case MC_REG_FAULTS_FLAGS:
1115:Src/register_interface.c ****             {
1116:Src/register_interface.c ****               *regdataU32 = MCI_GetFaultState(pMCIN);
1117:Src/register_interface.c ****               break;
1118:Src/register_interface.c ****             }
1119:Src/register_interface.c ****             case MC_REG_SPEED_MEAS:
1120:Src/register_interface.c ****             {
1121:Src/register_interface.c ****               *regdata32 = (((int32_t)MCI_GetAvrgMecSpeedUnit(pMCIN) * U_RPM) / SPEED_UNIT);
1122:Src/register_interface.c ****               break;
1123:Src/register_interface.c ****             }
1124:Src/register_interface.c **** 
1125:Src/register_interface.c ****             case MC_REG_SPEED_REF:
1126:Src/register_interface.c ****             {
1127:Src/register_interface.c ****               *regdata32 = (((int32_t)MCI_GetMecSpeedRefUnit(pMCIN) * U_RPM) / SPEED_UNIT);
1128:Src/register_interface.c ****               break;
1129:Src/register_interface.c ****             }
1130:Src/register_interface.c **** 
1131:Src/register_interface.c ****             case MC_REG_STOPLL_EST_BEMF:
1132:Src/register_interface.c ****             {
1133:Src/register_interface.c ****               *regdata32 = STO_PLL_GetEstimatedBemfLevel(&STO_PLL_M1);
ARM GAS  /tmp/ccAfo4nU.s 			page 25


1134:Src/register_interface.c ****               break;
1135:Src/register_interface.c ****             }
1136:Src/register_interface.c **** 
1137:Src/register_interface.c ****             case MC_REG_STOPLL_OBS_BEMF:
1138:Src/register_interface.c ****             {
1139:Src/register_interface.c ****               *regdata32 = STO_PLL_GetObservedBemfLevel(&STO_PLL_M1);
1140:Src/register_interface.c ****               break;
1141:Src/register_interface.c ****             }
1142:Src/register_interface.c **** 
1143:Src/register_interface.c ****             case MC_REG_MOTOR_POWER:
1144:Src/register_interface.c ****             {
1145:Src/register_interface.c ****               FloatToU32 ReadVal; //cstat !MISRAC2012-Rule-19.2
1146:Src/register_interface.c ****               ReadVal.Float_Val = PQD_GetAvrgElMotorPowerW(pMPM[M1]);
1147:Src/register_interface.c ****               *regdataU32 = ReadVal.U32_Val; //cstat !UNION-type-punning
1148:Src/register_interface.c ****               break;
1149:Src/register_interface.c ****             }
1150:Src/register_interface.c **** 
1151:Src/register_interface.c ****             default:
1152:Src/register_interface.c ****             {
1153:Src/register_interface.c ****               retVal = MCP_ERROR_UNKNOWN_REG;
1154:Src/register_interface.c ****               break;
1155:Src/register_interface.c ****             }
1156:Src/register_interface.c ****           }
1157:Src/register_interface.c ****           *size = 4;
1158:Src/register_interface.c ****         }
1159:Src/register_interface.c ****         else
1160:Src/register_interface.c ****         {
1161:Src/register_interface.c ****           retVal = MCP_ERROR_NO_TXSYNC_SPACE;
1162:Src/register_interface.c ****         }
1163:Src/register_interface.c ****         break;
1164:Src/register_interface.c ****       }
1165:Src/register_interface.c **** 
1166:Src/register_interface.c ****       case TYPE_DATA_STRING:
1167:Src/register_interface.c ****       {
1168:Src/register_interface.c ****         char_t *charData = (char_t *)data;
1169:Src/register_interface.c ****         switch (regID)
1170:Src/register_interface.c ****         {
1171:Src/register_interface.c ****           case MC_REG_PWR_STAGE_NAME:
1172:Src/register_interface.c ****           {
1173:Src/register_interface.c ****             retVal = RI_MovString (PWR_BOARD_NAME[motorID], charData, size, freeSpace);
1174:Src/register_interface.c ****             break;
1175:Src/register_interface.c ****           }
1176:Src/register_interface.c **** 
1177:Src/register_interface.c ****           case MC_REG_MOTOR_NAME:
1178:Src/register_interface.c ****           {
1179:Src/register_interface.c ****             retVal = RI_MovString (MotorConfig_reg[motorID]->name ,charData, size, freeSpace);
1180:Src/register_interface.c ****             break;
1181:Src/register_interface.c ****           }
1182:Src/register_interface.c **** 
1183:Src/register_interface.c ****           default:
1184:Src/register_interface.c ****           {
1185:Src/register_interface.c ****             retVal = MCP_ERROR_UNKNOWN_REG;
1186:Src/register_interface.c ****             *size= 0 ; /* */
1187:Src/register_interface.c ****             break;
1188:Src/register_interface.c ****           }
1189:Src/register_interface.c ****         }
1190:Src/register_interface.c ****         break;
ARM GAS  /tmp/ccAfo4nU.s 			page 26


1191:Src/register_interface.c ****       }
1192:Src/register_interface.c **** 
1193:Src/register_interface.c ****       case TYPE_DATA_RAW:
1194:Src/register_interface.c ****       {
1195:Src/register_interface.c ****         /* First 2 bytes of the answer is reserved to the size */
1196:Src/register_interface.c ****         uint16_t *rawSize = (uint16_t *)data; //cstat !MISRAC2012-Rule-11.3
1197:Src/register_interface.c ****         uint8_t * rawData = data;
1198:Src/register_interface.c ****         rawData++;
1199:Src/register_interface.c ****         rawData++;
1200:Src/register_interface.c **** 
1201:Src/register_interface.c ****         switch (regID)
1202:Src/register_interface.c ****         {
1203:Src/register_interface.c ****           case MC_REG_APPLICATION_CONFIG:
1204:Src/register_interface.c ****           {
1205:Src/register_interface.c ****             *rawSize = (uint16_t)sizeof(ApplicationConfig_reg_t);
1206:Src/register_interface.c ****             if (((*rawSize) + 2U) > (uint16_t)freeSpace)
1207:Src/register_interface.c ****             {
1208:Src/register_interface.c ****               retVal = MCP_ERROR_NO_TXSYNC_SPACE;
1209:Src/register_interface.c ****             }
1210:Src/register_interface.c ****             else
1211:Src/register_interface.c ****             {
1212:Src/register_interface.c ****               ApplicationConfig_reg_t const *pApplicationConfig_reg = ApplicationConfig_reg[motorID
1213:Src/register_interface.c ****               (void)memcpy(rawData, (const uint8_t *)pApplicationConfig_reg, sizeof(ApplicationConf
1214:Src/register_interface.c ****             }
1215:Src/register_interface.c ****             break;
1216:Src/register_interface.c ****           }
1217:Src/register_interface.c **** 
1218:Src/register_interface.c ****           case MC_REG_MOTOR_CONFIG:
1219:Src/register_interface.c ****           {
1220:Src/register_interface.c ****             *rawSize = (uint16_t)sizeof(MotorConfig_reg_t);
1221:Src/register_interface.c ****             if (((*rawSize) + 2U) > (uint16_t)freeSpace)
1222:Src/register_interface.c ****             {
1223:Src/register_interface.c ****               retVal = MCP_ERROR_NO_TXSYNC_SPACE;
1224:Src/register_interface.c ****             }
1225:Src/register_interface.c ****             else
1226:Src/register_interface.c ****             {
1227:Src/register_interface.c ****               MotorConfig_reg_t const *pMotorConfig_reg = MotorConfig_reg[motorID];
1228:Src/register_interface.c ****               (void)memcpy(rawData, (const uint8_t *)pMotorConfig_reg, sizeof(MotorConfig_reg_t));
1229:Src/register_interface.c ****             }
1230:Src/register_interface.c ****             break;
1231:Src/register_interface.c ****           }
1232:Src/register_interface.c **** 
1233:Src/register_interface.c ****           case MC_REG_FOCFW_CONFIG:
1234:Src/register_interface.c ****           {
1235:Src/register_interface.c ****             *rawSize = (uint16_t)sizeof(FOCFwConfig_reg_t);
1236:Src/register_interface.c ****             if (((*rawSize) + 2U) > (uint16_t)freeSpace)
1237:Src/register_interface.c ****             {
1238:Src/register_interface.c ****               retVal = MCP_ERROR_NO_TXSYNC_SPACE;
1239:Src/register_interface.c ****             }
1240:Src/register_interface.c ****             else
1241:Src/register_interface.c ****             {
1242:Src/register_interface.c ****               FOCFwConfig_reg_t const *pFOCConfig_reg = FOCConfig_reg[motorID];
1243:Src/register_interface.c ****               (void)memcpy(rawData, (const uint8_t *)pFOCConfig_reg, sizeof(FOCFwConfig_reg_t));
1244:Src/register_interface.c ****             }
1245:Src/register_interface.c **** 
1246:Src/register_interface.c ****             break;
1247:Src/register_interface.c ****           }
ARM GAS  /tmp/ccAfo4nU.s 			page 27


1248:Src/register_interface.c ****           case MC_REG_SCALE_CONFIG:
1249:Src/register_interface.c ****           {
1250:Src/register_interface.c ****             *rawSize = 12;
1251:Src/register_interface.c ****             if ((*rawSize) +2U > (uint16_t)freeSpace)
1252:Src/register_interface.c ****             {
1253:Src/register_interface.c ****               retVal = MCP_ERROR_NO_TXSYNC_SPACE;
1254:Src/register_interface.c ****             }
1255:Src/register_interface.c ****             else
1256:Src/register_interface.c ****             {
1257:Src/register_interface.c ****               memcpy(rawData, &scaleParams_M1, sizeof(ScaleParams_t) );
1258:Src/register_interface.c ****             }
1259:Src/register_interface.c ****             break;
1260:Src/register_interface.c ****           }
1261:Src/register_interface.c ****           case MC_REG_SPEED_RAMP:
1262:Src/register_interface.c ****           {
1263:Src/register_interface.c ****             int32_t *rpm = (int32_t *)rawData; //cstat !MISRAC2012-Rule-11.3
1264:Src/register_interface.c ****             uint16_t *duration = (uint16_t *)&rawData[4]; //cstat !MISRAC2012-Rule-11.3
1265:Src/register_interface.c ****             *rpm = (((int32_t)MCI_GetLastRampFinalSpeed(pMCIN) * U_RPM) / (int32_t)SPEED_UNIT);
1266:Src/register_interface.c ****             *duration = MCI_GetLastRampFinalDuration(pMCIN);
1267:Src/register_interface.c ****             *rawSize = 6;
1268:Src/register_interface.c ****             break;
1269:Src/register_interface.c ****           }
1270:Src/register_interface.c **** 
1271:Src/register_interface.c ****           case MC_REG_TORQUE_RAMP:
1272:Src/register_interface.c ****           {
1273:Src/register_interface.c ****             int16_t *torque = (int16_t *)rawData; //cstat !MISRAC2012-Rule-11.3
1274:Src/register_interface.c ****             uint16_t *duration = (uint16_t *)&rawData[2]; //cstat !MISRAC2012-Rule-11.3
1275:Src/register_interface.c **** 
1276:Src/register_interface.c ****             *rawSize = 4;
1277:Src/register_interface.c ****             *torque = MCI_GetLastRampFinalTorque(pMCIN);
1278:Src/register_interface.c ****             *duration = MCI_GetLastRampFinalDuration(pMCIN) ;
1279:Src/register_interface.c ****             break;
1280:Src/register_interface.c ****           }
1281:Src/register_interface.c **** 
1282:Src/register_interface.c ****           case MC_REG_REVUP_DATA:
1283:Src/register_interface.c ****           {
1284:Src/register_interface.c ****             int32_t *rpm;
1285:Src/register_interface.c ****             uint16_t *finalTorque;
1286:Src/register_interface.c ****             uint16_t *durationms;
1287:Src/register_interface.c ****             RevUpCtrl_PhaseParams_t revUpPhase;
1288:Src/register_interface.c ****             uint8_t i;
1289:Src/register_interface.c **** 
1290:Src/register_interface.c ****             *rawSize = (uint16_t)RUC_MAX_PHASE_NUMBER*8U;
1291:Src/register_interface.c ****             if (((*rawSize) + 2U) > (uint16_t)freeSpace)
1292:Src/register_interface.c ****             {
1293:Src/register_interface.c ****               retVal = MCP_ERROR_NO_TXSYNC_SPACE;
1294:Src/register_interface.c ****             }
1295:Src/register_interface.c ****             else
1296:Src/register_interface.c ****             {
1297:Src/register_interface.c ****               for (i = 0; i <RUC_MAX_PHASE_NUMBER; i++)
1298:Src/register_interface.c ****               {
1299:Src/register_interface.c ****                 (void)RUC_GetPhase( &RevUpControlM1 ,i, &revUpPhase);
1300:Src/register_interface.c ****                 rpm = (int32_t *)&data[2U + (i * 8U)];  //cstat !MISRAC2012-Rule-11.3
1301:Src/register_interface.c ****                 *rpm = (((int32_t)revUpPhase.hFinalMecSpeedUnit) * U_RPM) / SPEED_UNIT; //cstat !MI
1302:Src/register_interface.c ****                 finalTorque = (uint16_t *)&data[6U + (i * 8U)]; //cstat !MISRAC2012-Rule-11.3
1303:Src/register_interface.c ****                 *finalTorque = (uint16_t)revUpPhase.hFinalTorque; //cstat !MISRAC2012-Rule-11.3
1304:Src/register_interface.c ****                 durationms  = (uint16_t *)&data[8U + (i * 8U)]; //cstat !MISRAC2012-Rule-11.3
ARM GAS  /tmp/ccAfo4nU.s 			page 28


1305:Src/register_interface.c ****                 *durationms  = revUpPhase.hDurationms;
1306:Src/register_interface.c ****               }
1307:Src/register_interface.c ****             }
1308:Src/register_interface.c ****             break;
1309:Src/register_interface.c ****           }
1310:Src/register_interface.c **** 
1311:Src/register_interface.c ****           case MC_REG_CURRENT_REF:
1312:Src/register_interface.c ****           {
1313:Src/register_interface.c ****             uint16_t *iqref = (uint16_t *)rawData; //cstat !MISRAC2012-Rule-11.3
1314:Src/register_interface.c ****             uint16_t *idref = (uint16_t *)&rawData[2]; //cstat !MISRAC2012-Rule-11.3
1315:Src/register_interface.c **** 
1316:Src/register_interface.c ****             *rawSize = 4;
1317:Src/register_interface.c ****             *iqref = (uint16_t)MCI_GetIqdref(pMCIN).q;
1318:Src/register_interface.c ****             *idref = (uint16_t)MCI_GetIqdref(pMCIN).d;
1319:Src/register_interface.c ****             break;
1320:Src/register_interface.c ****           }
1321:Src/register_interface.c **** 
1322:Src/register_interface.c ****           case MC_REG_ASYNC_UARTA:
1323:Src/register_interface.c ****           case MC_REG_ASYNC_UARTB:
1324:Src/register_interface.c ****           case MC_REG_ASYNC_STLNK:
1325:Src/register_interface.c ****           default:
1326:Src/register_interface.c ****           {
1327:Src/register_interface.c ****             retVal = MCP_ERROR_UNKNOWN_REG;
1328:Src/register_interface.c ****             break;
1329:Src/register_interface.c ****           }
1330:Src/register_interface.c ****         }
1331:Src/register_interface.c **** 
1332:Src/register_interface.c ****         /* Size of the answer is size of the data + 2 bytes containing data size */
1333:Src/register_interface.c ****         *size = (*rawSize) + 2U;
1334:Src/register_interface.c ****         break;
1335:Src/register_interface.c ****       }
1336:Src/register_interface.c **** 
1337:Src/register_interface.c ****       default:
1338:Src/register_interface.c ****       {
1339:Src/register_interface.c ****         retVal = MCP_ERROR_BAD_DATA_TYPE;
1340:Src/register_interface.c ****         break;
1341:Src/register_interface.c ****       }
1342:Src/register_interface.c ****     }
1343:Src/register_interface.c ****     return (retVal);
1344:Src/register_interface.c ****   }
1345:Src/register_interface.c **** 
1346:Src/register_interface.c **** uint8_t RI_MovString(const char_t *srcString, char_t *destString, uint16_t *size, int16_t maxSize)
 211              		.loc 1 1346 9 view .LVU48
 212              	.LBB60:
1347:Src/register_interface.c **** {
1348:Src/register_interface.c ****   uint8_t retVal = MCP_CMD_OK;
 213              		.loc 1 1348 3 view .LVU49
1349:Src/register_interface.c ****   const char_t *tempsrcString = srcString;
 214              		.loc 1 1349 3 view .LVU50
1350:Src/register_interface.c ****   char_t *tempdestString = destString;
 215              		.loc 1 1350 3 view .LVU51
1351:Src/register_interface.c ****   *size= 1U ; /* /0 is the min String size */
 216              		.loc 1 1351 3 view .LVU52
 217              		.loc 1 1351 8 is_stmt 0 view .LVU53
 218 007a 0121     		movs	r1, #1
 219 007c 1980     		strh	r1, [r3]	@ movhi
1352:Src/register_interface.c **** 
ARM GAS  /tmp/ccAfo4nU.s 			page 29


1353:Src/register_interface.c ****   while ((*tempsrcString != (char_t)0) && (*size < (uint16_t)maxSize))
 220              		.loc 1 1353 3 is_stmt 1 view .LVU54
 221              		.loc 1 1353 9 is_stmt 0 view .LVU55
 222 007e 92F90010 		ldrsb	r1, [r2]
 223 0082 A1B1     		cbz	r1, .L14
 224              		.loc 1 1353 50 view .LVU56
 225 0084 A4B2     		uxth	r4, r4
 226              		.loc 1 1353 40 view .LVU57
 227 0086 012C     		cmp	r4, #1
 228 0088 13D9     		bls	.L40
 229 008a 023C     		subs	r4, r4, #2
 230              	.LVL19:
 231              		.loc 1 1353 40 view .LVU58
 232 008c 901C     		adds	r0, r2, #2
 233              	.LVL20:
 234              		.loc 1 1353 40 view .LVU59
 235 008e 511C     		adds	r1, r2, #1
 236 0090 10FA84F0 		uxtah	r0, r0, r4
 237 0094 C1F10205 		rsb	r5, r1, #2
 238 0098 01E0     		b	.L16
 239              	.LVL21:
 240              	.L44:
 241              		.loc 1 1353 40 view .LVU60
 242 009a 8142     		cmp	r1, r0
 243 009c 09D0     		beq	.L40
 244              	.L16:
 245              	.LVL22:
1354:Src/register_interface.c ****   {
1355:Src/register_interface.c ****     *tempdestString = *tempsrcString;
 246              		.loc 1 1355 5 is_stmt 1 view .LVU61
1356:Src/register_interface.c ****     tempdestString++;
 247              		.loc 1 1356 5 view .LVU62
1357:Src/register_interface.c ****     tempsrcString++;
1358:Src/register_interface.c ****     *size = *size + 1U;
 248              		.loc 1 1358 11 is_stmt 0 view .LVU63
 249 009e 6C18     		adds	r4, r5, r1
 250 00a0 1C80     		strh	r4, [r3]	@ movhi
1353:Src/register_interface.c ****   {
 251              		.loc 1 1353 9 view .LVU64
 252 00a2 91F90040 		ldrsb	r4, [r1]
1356:Src/register_interface.c ****     tempdestString++;
 253              		.loc 1 1356 19 view .LVU65
 254 00a6 0A46     		mov	r2, r1
 255              	.LVL23:
1357:Src/register_interface.c ****     tempsrcString++;
 256              		.loc 1 1357 5 is_stmt 1 view .LVU66
 257              		.loc 1 1358 5 view .LVU67
 258              		.loc 1 1358 5 is_stmt 0 view .LVU68
 259 00a8 0131     		adds	r1, r1, #1
 260              	.LVL24:
1353:Src/register_interface.c ****   {
 261              		.loc 1 1353 9 view .LVU69
 262 00aa 002C     		cmp	r4, #0
 263 00ac F5D1     		bne	.L44
 264              	.L14:
1359:Src/register_interface.c ****   }
1360:Src/register_interface.c **** 
ARM GAS  /tmp/ccAfo4nU.s 			page 30


1361:Src/register_interface.c ****   if (*tempsrcString != (char_t)0)
 265              		.loc 1 1361 3 is_stmt 1 view .LVU70
1362:Src/register_interface.c ****   { /* Last string char must be 0 */
1363:Src/register_interface.c ****     retVal = MCP_ERROR_STRING_FORMAT;
1364:Src/register_interface.c ****   }
1365:Src/register_interface.c ****   else
1366:Src/register_interface.c ****   {
1367:Src/register_interface.c ****     *tempdestString = (int8_t)0;
 266              		.loc 1 1367 5 view .LVU71
 267              		.loc 1 1367 21 is_stmt 0 view .LVU72
 268 00ae 0023     		movs	r3, #0
 269              	.LVL25:
 270              		.loc 1 1367 21 view .LVU73
 271 00b0 1370     		strb	r3, [r2]
 272              	.LVL26:
 273              	.L40:
 274              		.loc 1 1367 21 view .LVU74
 275              	.LBE60:
 276              	.LBE59:
 109:Src/register_interface.c ****       /* Used to compute String length stored in RXBUFF even if Reg does not exist */
 277              		.loc 1 109 14 view .LVU75
 278 00b2 0420     		movs	r0, #4
 279              	.LVL27:
 109:Src/register_interface.c ****       /* Used to compute String length stored in RXBUFF even if Reg does not exist */
 280              		.loc 1 109 14 view .LVU76
 281              	.LBE58:
 163:Src/register_interface.c **** }
 282              		.loc 1 163 3 is_stmt 1 view .LVU77
 164:Src/register_interface.c **** 
 283              		.loc 1 164 1 is_stmt 0 view .LVU78
 284 00b4 30BC     		pop	{r4, r5}
 285              	.LCFI7:
 286              		.cfi_remember_state
 287              		.cfi_restore 5
 288              		.cfi_restore 4
 289              		.cfi_def_cfa_offset 0
 290              	.LVL28:
 164:Src/register_interface.c **** 
 291              		.loc 1 164 1 view .LVU79
 292 00b6 7047     		bx	lr
 293              	.LVL29:
 294              	.L7:
 295              	.LCFI8:
 296              		.cfi_restore_state
  59:Src/register_interface.c ****       {
 297              		.loc 1 59 7 is_stmt 1 view .LVU80
 298 00b8 B0F5656F 		cmp	r0, #3664
 299 00bc 21D0     		beq	.L24
 300 00be 11D9     		bls	.L45
 301 00c0 B0F5696F 		cmp	r0, #3728
 302 00c4 1DD0     		beq	.L24
 303 00c6 41F65832 		movw	r2, #7000
 304              	.LVL30:
  76:Src/register_interface.c ****           break;
 305              		.loc 1 76 18 is_stmt 0 view .LVU81
 306 00ca 9042     		cmp	r0, r2
 307 00cc 0CBF     		ite	eq
ARM GAS  /tmp/ccAfo4nU.s 			page 31


 308 00ce 0420     		moveq	r0, #4
 309 00d0 0520     		movne	r0, #5
 310              	.LVL31:
 311              	.L11:
  80:Src/register_interface.c ****       break;
 312              		.loc 1 80 7 is_stmt 1 view .LVU82
  80:Src/register_interface.c ****       break;
 313              		.loc 1 80 13 is_stmt 0 view .LVU83
 314 00d2 0222     		movs	r2, #2
 315 00d4 1A80     		strh	r2, [r3]	@ movhi
  81:Src/register_interface.c ****     }
 316              		.loc 1 81 7 is_stmt 1 view .LVU84
 164:Src/register_interface.c **** 
 317              		.loc 1 164 1 is_stmt 0 view .LVU85
 318 00d6 30BC     		pop	{r4, r5}
 319              	.LCFI9:
 320              		.cfi_remember_state
 321              		.cfi_restore 5
 322              		.cfi_restore 4
 323              		.cfi_def_cfa_offset 0
 324              	.LVL32:
 164:Src/register_interface.c **** 
 325              		.loc 1 164 1 view .LVU86
 326 00d8 7047     		bx	lr
 327              	.LVL33:
 328              	.L2:
 329              	.LCFI10:
 330              		.cfi_restore_state
 158:Src/register_interface.c ****       *size =0; /* From this point we are not able anymore to decode the RX buffer */
 331              		.loc 1 158 7 is_stmt 1 view .LVU87
 159:Src/register_interface.c ****       break;
 332              		.loc 1 159 7 view .LVU88
 159:Src/register_interface.c ****       break;
 333              		.loc 1 159 13 is_stmt 0 view .LVU89
 334 00da 0022     		movs	r2, #0
 335              	.LVL34:
 158:Src/register_interface.c ****       *size =0; /* From this point we are not able anymore to decode the RX buffer */
 336              		.loc 1 158 14 view .LVU90
 337 00dc 0720     		movs	r0, #7
 338              	.LVL35:
 159:Src/register_interface.c ****       break;
 339              		.loc 1 159 13 view .LVU91
 340 00de 1A80     		strh	r2, [r3]	@ movhi
 160:Src/register_interface.c ****     }
 341              		.loc 1 160 7 is_stmt 1 view .LVU92
 164:Src/register_interface.c **** 
 342              		.loc 1 164 1 is_stmt 0 view .LVU93
 343 00e0 30BC     		pop	{r4, r5}
 344              	.LCFI11:
 345              		.cfi_remember_state
 346              		.cfi_restore 5
 347              		.cfi_restore 4
 348              		.cfi_def_cfa_offset 0
 349              	.LVL36:
 164:Src/register_interface.c **** 
 350              		.loc 1 164 1 view .LVU94
 351 00e2 7047     		bx	lr
ARM GAS  /tmp/ccAfo4nU.s 			page 32


 352              	.LVL37:
 353              	.L45:
 354              	.LCFI12:
 355              		.cfi_restore_state
 164:Src/register_interface.c **** 
 356              		.loc 1 164 1 view .LVU95
 357 00e4 B0F5B26F 		cmp	r0, #1424
 358 00e8 11D0     		beq	.L22
  76:Src/register_interface.c ****           break;
 359              		.loc 1 76 18 view .LVU96
 360 00ea B0F5BA6F 		cmp	r0, #1488
 361 00ee 0CBF     		ite	eq
 362 00f0 0420     		moveq	r0, #4
 363              	.LVL38:
  76:Src/register_interface.c ****           break;
 364              		.loc 1 76 18 view .LVU97
 365 00f2 0520     		movne	r0, #5
 366 00f4 EDE7     		b	.L11
 367              	.LVL39:
 368              	.L43:
 369              	.LBB61:
 147:Src/register_interface.c ****             break;
 370              		.loc 1 147 20 view .LVU98
 371 00f6 2828     		cmp	r0, #40
 372 00f8 0CBF     		ite	eq
 373 00fa 0420     		moveq	r0, #4
 374              	.LVL40:
 147:Src/register_interface.c ****             break;
 375              		.loc 1 147 20 view .LVU99
 376 00fc 0520     		movne	r0, #5
 377              	.LBE61:
 164:Src/register_interface.c **** 
 378              		.loc 1 164 1 view .LVU100
 379 00fe 30BC     		pop	{r4, r5}
 380              	.LCFI13:
 381              		.cfi_remember_state
 382              		.cfi_restore 5
 383              		.cfi_restore 4
 384              		.cfi_def_cfa_offset 0
 385              	.LVL41:
 164:Src/register_interface.c **** 
 386              		.loc 1 164 1 view .LVU101
 387 0100 7047     		bx	lr
 388              	.LVL42:
 389              	.L24:
 390              	.LCFI14:
 391              		.cfi_restore_state
  34:Src/register_interface.c ****   switch(typeID)
 392              		.loc 1 34 11 view .LVU102
 393 0102 0020     		movs	r0, #0
 394              	.LVL43:
  34:Src/register_interface.c ****   switch(typeID)
 395              		.loc 1 34 11 view .LVU103
 396 0104 E5E7     		b	.L11
 397              	.LVL44:
 398              	.L42:
 399              	.LBB62:
ARM GAS  /tmp/ccAfo4nU.s 			page 33


 129:Src/register_interface.c ****         retVal = MCP_ERROR_BAD_RAW_FORMAT; /* This error stop the parsing of the CMD buffer */
 400              		.loc 1 129 9 is_stmt 1 view .LVU104
 129:Src/register_interface.c ****         retVal = MCP_ERROR_BAD_RAW_FORMAT; /* This error stop the parsing of the CMD buffer */
 401              		.loc 1 129 15 is_stmt 0 view .LVU105
 402 0106 0022     		movs	r2, #0
 403 0108 1A80     		strh	r2, [r3]	@ movhi
 130:Src/register_interface.c ****       }
 404              		.loc 1 130 9 is_stmt 1 view .LVU106
 405              	.LVL45:
 130:Src/register_interface.c ****       }
 406              		.loc 1 130 16 is_stmt 0 view .LVU107
 407 010a 0A20     		movs	r0, #10
 408              	.LVL46:
 130:Src/register_interface.c ****       }
 409              		.loc 1 130 16 view .LVU108
 410 010c A1E7     		b	.L38
 411              	.LVL47:
 412              	.L22:
 130:Src/register_interface.c ****       }
 413              		.loc 1 130 16 view .LVU109
 414              	.LBE62:
  66:Src/register_interface.c ****           break;
 415              		.loc 1 66 18 view .LVU110
 416 010e 0420     		movs	r0, #4
 417              	.LVL48:
  66:Src/register_interface.c ****           break;
 418              		.loc 1 66 18 view .LVU111
 419 0110 DFE7     		b	.L11
 420              		.cfi_endproc
 421              	.LFE1466:
 423 0112 00BF     		.section	.text.RI_SetRegisterMotor1,"ax",%progbits
 424              		.align	1
 425              		.p2align 2,,3
 426              		.global	RI_SetRegisterMotor1
 427              		.syntax unified
 428              		.thumb
 429              		.thumb_func
 430              		.fpu fpv4-sp-d16
 432              	RI_SetRegisterMotor1:
 433              	.LVL49:
 434              	.LFB1467:
 167:Src/register_interface.c ****   uint8_t retVal = MCP_CMD_OK;
 435              		.loc 1 167 1 is_stmt 1 view -0
 436              		.cfi_startproc
 437              		@ args = 4, pretend = 0, frame = 16
 438              		@ frame_needed = 0, uses_anonymous_args = 0
 168:Src/register_interface.c ****   uint8_t motorID=0;
 439              		.loc 1 168 3 view .LVU113
 169:Src/register_interface.c ****   MCI_Handle_t *pMCIN = &Mci[motorID];
 440              		.loc 1 169 3 view .LVU114
 170:Src/register_interface.c **** 
 441              		.loc 1 170 3 view .LVU115
 172:Src/register_interface.c ****   {
 442              		.loc 1 172 3 view .LVU116
 167:Src/register_interface.c ****   uint8_t retVal = MCP_CMD_OK;
 443              		.loc 1 167 1 is_stmt 0 view .LVU117
 444 0000 70B5     		push	{r4, r5, r6, lr}
ARM GAS  /tmp/ccAfo4nU.s 			page 34


 445              	.LCFI15:
 446              		.cfi_def_cfa_offset 16
 447              		.cfi_offset 4, -16
 448              		.cfi_offset 5, -12
 449              		.cfi_offset 6, -8
 450              		.cfi_offset 14, -4
 451 0002 84B0     		sub	sp, sp, #16
 452              	.LCFI16:
 453              		.cfi_def_cfa_offset 32
 172:Src/register_interface.c ****   {
 454              		.loc 1 172 3 view .LVU118
 455 0004 0839     		subs	r1, r1, #8
 456              	.LVL50:
 167:Src/register_interface.c ****   uint8_t retVal = MCP_CMD_OK;
 457              		.loc 1 167 1 view .LVU119
 458 0006 1446     		mov	r4, r2
 459 0008 BDF92020 		ldrsh	r2, [sp, #32]
 460              	.LVL51:
 172:Src/register_interface.c ****   {
 461              		.loc 1 172 3 view .LVU120
 462 000c 2029     		cmp	r1, #32
 463 000e 00F29580 		bhi	.L47
 464 0012 DFE801F0 		tbb	[pc, r1]
 465              	.L49:
 466 0016 34       		.byte	(.L53-.L49)/2
 467 0017 93       		.byte	(.L47-.L49)/2
 468 0018 93       		.byte	(.L47-.L49)/2
 469 0019 93       		.byte	(.L47-.L49)/2
 470 001a 93       		.byte	(.L47-.L49)/2
 471 001b 93       		.byte	(.L47-.L49)/2
 472 001c 93       		.byte	(.L47-.L49)/2
 473 001d 93       		.byte	(.L47-.L49)/2
 474 001e 70       		.byte	(.L52-.L49)/2
 475 001f 93       		.byte	(.L47-.L49)/2
 476 0020 93       		.byte	(.L47-.L49)/2
 477 0021 93       		.byte	(.L47-.L49)/2
 478 0022 93       		.byte	(.L47-.L49)/2
 479 0023 93       		.byte	(.L47-.L49)/2
 480 0024 93       		.byte	(.L47-.L49)/2
 481 0025 93       		.byte	(.L47-.L49)/2
 482 0026 42       		.byte	(.L51-.L49)/2
 483 0027 93       		.byte	(.L47-.L49)/2
 484 0028 93       		.byte	(.L47-.L49)/2
 485 0029 93       		.byte	(.L47-.L49)/2
 486 002a 93       		.byte	(.L47-.L49)/2
 487 002b 93       		.byte	(.L47-.L49)/2
 488 002c 93       		.byte	(.L47-.L49)/2
 489 002d 93       		.byte	(.L47-.L49)/2
 490 002e 51       		.byte	(.L50-.L49)/2
 491 002f 93       		.byte	(.L47-.L49)/2
 492 0030 93       		.byte	(.L47-.L49)/2
 493 0031 93       		.byte	(.L47-.L49)/2
 494 0032 93       		.byte	(.L47-.L49)/2
 495 0033 93       		.byte	(.L47-.L49)/2
 496 0034 93       		.byte	(.L47-.L49)/2
 497 0035 93       		.byte	(.L47-.L49)/2
 498 0036 11       		.byte	(.L48-.L49)/2
ARM GAS  /tmp/ccAfo4nU.s 			page 35


 499 0037 00       		.p2align 1
 500              	.L48:
 501              	.LBB63:
 506:Src/register_interface.c ****       /* The size consumed by the structure is the structure size + 2 bytes used to store the size 
 502              		.loc 1 506 7 is_stmt 1 view .LVU121
 506:Src/register_interface.c ****       /* The size consumed by the structure is the structure size + 2 bytes used to store the size 
 503              		.loc 1 506 16 is_stmt 0 view .LVU122
 504 0038 2588     		ldrh	r5, [r4]
 505              	.LVL52:
 508:Src/register_interface.c ****       uint8_t *rawData = data; /* rawData points to the first data (after size extraction) */
 506              		.loc 1 508 7 is_stmt 1 view .LVU123
 508:Src/register_interface.c ****       uint8_t *rawData = data; /* rawData points to the first data (after size extraction) */
 507              		.loc 1 508 23 is_stmt 0 view .LVU124
 508 003a A91C     		adds	r1, r5, #2
 509 003c 89B2     		uxth	r1, r1
 513:Src/register_interface.c ****       {
 510              		.loc 1 513 10 view .LVU125
 511 003e 92B2     		uxth	r2, r2
 512 0040 9142     		cmp	r1, r2
 508:Src/register_interface.c ****       uint8_t *rawData = data; /* rawData points to the first data (after size extraction) */
 513              		.loc 1 508 13 view .LVU126
 514 0042 1980     		strh	r1, [r3]	@ movhi
 509:Src/register_interface.c ****       rawData++;
 515              		.loc 1 509 7 is_stmt 1 view .LVU127
 516              	.LVL53:
 510:Src/register_interface.c ****       rawData++;
 517              		.loc 1 510 7 view .LVU128
 511:Src/register_interface.c **** 
 518              		.loc 1 511 7 view .LVU129
 513:Src/register_interface.c ****       {
 519              		.loc 1 513 7 view .LVU130
 513:Src/register_interface.c ****       {
 520              		.loc 1 513 10 is_stmt 0 view .LVU131
 521 0044 00F22782 		bhi	.L177
 522 0048 B0F5D47F 		cmp	r0, #424
 511:Src/register_interface.c **** 
 523              		.loc 1 511 14 view .LVU132
 524 004c 04F10201 		add	r1, r4, #2
 525              	.LVL54:
 522:Src/register_interface.c ****         {
 526              		.loc 1 522 9 is_stmt 1 view .LVU133
 527 0050 00F0A582 		beq	.L108
 528 0054 40F2FC81 		bls	.L178
 529 0058 B0F50A7F 		cmp	r0, #552
 530 005c 00F04F82 		beq	.L111
 531 0060 40F20382 		bls	.L179
 532 0064 B0F55A7F 		cmp	r0, #872
 533 0068 00F04182 		beq	.L114
 534 006c B0F5A56F 		cmp	r0, #1320
 535 0070 40F03982 		bne	.L175
 591:Src/register_interface.c ****             break;
 536              		.loc 1 591 13 view .LVU134
 591:Src/register_interface.c ****             break;
 537              		.loc 1 591 23 is_stmt 0 view .LVU135
 538 0074 B548     		ldr	r0, .L199
 539              	.LVL55:
 591:Src/register_interface.c ****             break;
ARM GAS  /tmp/ccAfo4nU.s 			page 36


 540              		.loc 1 591 23 view .LVU136
 541 0076 FFF7FEFF 		bl	MCPA_cfgLog
 542              	.LVL56:
 592:Src/register_interface.c ****           }
 543              		.loc 1 592 13 is_stmt 1 view .LVU137
 544              	.L170:
 592:Src/register_interface.c ****           }
 545              		.loc 1 592 13 is_stmt 0 view .LVU138
 546              	.LBE63:
 613:Src/register_interface.c **** 
 547              		.loc 1 613 1 view .LVU139
 548 007a 04B0     		add	sp, sp, #16
 549              	.LCFI17:
 550              		.cfi_remember_state
 551              		.cfi_def_cfa_offset 16
 552              		@ sp needed
 553 007c 70BD     		pop	{r4, r5, r6, pc}
 554              	.LVL57:
 555              	.L53:
 556              	.LCFI18:
 557              		.cfi_restore_state
 176:Src/register_interface.c ****       {
 558              		.loc 1 176 7 is_stmt 1 view .LVU140
 559 007e 8828     		cmp	r0, #136
 560 0080 00F00D82 		beq	.L54
 561 0084 C828     		cmp	r0, #200
 562 0086 00F03082 		beq	.L118
 216:Src/register_interface.c ****           break;
 563              		.loc 1 216 18 is_stmt 0 view .LVU141
 564 008a 4828     		cmp	r0, #72
 565 008c 0CBF     		ite	eq
 566 008e 0420     		moveq	r0, #4
 567              	.LVL58:
 216:Src/register_interface.c ****           break;
 568              		.loc 1 216 18 view .LVU142
 569 0090 0520     		movne	r0, #5
 570              	.LVL59:
 571              	.L55:
 220:Src/register_interface.c ****       break;
 572              		.loc 1 220 7 is_stmt 1 view .LVU143
 220:Src/register_interface.c ****       break;
 573              		.loc 1 220 13 is_stmt 0 view .LVU144
 574 0092 0122     		movs	r2, #1
 575 0094 1A80     		strh	r2, [r3]	@ movhi
 221:Src/register_interface.c ****     }
 576              		.loc 1 221 7 is_stmt 1 view .LVU145
 613:Src/register_interface.c **** 
 577              		.loc 1 613 1 is_stmt 0 view .LVU146
 578 0096 04B0     		add	sp, sp, #16
 579              	.LCFI19:
 580              		.cfi_remember_state
 581              		.cfi_def_cfa_offset 16
 582              		@ sp needed
 583 0098 70BD     		pop	{r4, r5, r6, pc}
 584              	.LVL60:
 585              	.L51:
 586              	.LCFI20:
ARM GAS  /tmp/ccAfo4nU.s 			page 37


 587              		.cfi_restore_state
 588              	.LBB101:
 459:Src/register_interface.c **** 
 589              		.loc 1 459 7 is_stmt 1 view .LVU147
 461:Src/register_interface.c ****       {
 590              		.loc 1 461 7 view .LVU148
 591 009a 9828     		cmp	r0, #152
 592 009c 00F00782 		beq	.L100
 593 00a0 55D8     		bhi	.L101
 594 00a2 1828     		cmp	r0, #24
 595 00a4 00F0F381 		beq	.L146
 485:Src/register_interface.c ****           break;
 596              		.loc 1 485 18 is_stmt 0 view .LVU149
 597 00a8 5828     		cmp	r0, #88
 598 00aa 0CBF     		ite	eq
 599 00ac 0420     		moveq	r0, #4
 600              	.LVL61:
 485:Src/register_interface.c ****           break;
 601              		.loc 1 485 18 view .LVU150
 602 00ae 0520     		movne	r0, #5
 603              	.LVL62:
 604              	.L102:
 489:Src/register_interface.c ****       break;
 605              		.loc 1 489 7 is_stmt 1 view .LVU151
 489:Src/register_interface.c ****       break;
 606              		.loc 1 489 13 is_stmt 0 view .LVU152
 607 00b0 0422     		movs	r2, #4
 608 00b2 1A80     		strh	r2, [r3]	@ movhi
 490:Src/register_interface.c ****     }
 609              		.loc 1 490 7 is_stmt 1 view .LVU153
 610              	.LBE101:
 613:Src/register_interface.c **** 
 611              		.loc 1 613 1 is_stmt 0 view .LVU154
 612 00b4 04B0     		add	sp, sp, #16
 613              	.LCFI21:
 614              		.cfi_remember_state
 615              		.cfi_def_cfa_offset 16
 616              		@ sp needed
 617 00b6 70BD     		pop	{r4, r5, r6, pc}
 618              	.LVL63:
 619              	.L50:
 620              	.LCFI22:
 621              		.cfi_restore_state
 622              	.LBB102:
 495:Src/register_interface.c ****       char_t *dummy = (char_t *)data;
 623              		.loc 1 495 7 is_stmt 1 view .LVU155
 496:Src/register_interface.c ****       retVal = MCP_ERROR_RO_REG;
 624              		.loc 1 496 7 view .LVU156
 497:Src/register_interface.c ****       /* Used to compute String length stored in RXBUFF even if Reg does not exist */
 625              		.loc 1 497 7 view .LVU157
 500:Src/register_interface.c ****       break;
 626              		.loc 1 500 7 view .LVU158
 627              	.LBB103:
 628              	.LBI103:
1346:Src/register_interface.c **** {
 629              		.loc 1 1346 9 view .LVU159
 630              	.LBB104:
ARM GAS  /tmp/ccAfo4nU.s 			page 38


1348:Src/register_interface.c ****   const char_t *tempsrcString = srcString;
 631              		.loc 1 1348 3 view .LVU160
1349:Src/register_interface.c ****   char_t *tempdestString = destString;
 632              		.loc 1 1349 3 view .LVU161
1350:Src/register_interface.c ****   *size= 1U ; /* /0 is the min String size */
 633              		.loc 1 1350 3 view .LVU162
1351:Src/register_interface.c **** 
 634              		.loc 1 1351 3 view .LVU163
1351:Src/register_interface.c **** 
 635              		.loc 1 1351 8 is_stmt 0 view .LVU164
 636 00b8 0121     		movs	r1, #1
 637 00ba 1980     		strh	r1, [r3]	@ movhi
1353:Src/register_interface.c ****   {
 638              		.loc 1 1353 3 is_stmt 1 view .LVU165
1353:Src/register_interface.c ****   {
 639              		.loc 1 1353 9 is_stmt 0 view .LVU166
 640 00bc 94F90010 		ldrsb	r1, [r4]
 641 00c0 A1B1     		cbz	r1, .L103
1353:Src/register_interface.c ****   {
 642              		.loc 1 1353 50 view .LVU167
 643 00c2 92B2     		uxth	r2, r2
1353:Src/register_interface.c ****   {
 644              		.loc 1 1353 40 view .LVU168
 645 00c4 012A     		cmp	r2, #1
 646 00c6 13D9     		bls	.L174
 647 00c8 023A     		subs	r2, r2, #2
 648              	.LVL64:
1353:Src/register_interface.c ****   {
 649              		.loc 1 1353 40 view .LVU169
 650 00ca 14FA82F1 		uxtah	r1, r4, r2
 651 00ce 621C     		adds	r2, r4, #1
 652              	.LVL65:
1353:Src/register_interface.c ****   {
 653              		.loc 1 1353 40 view .LVU170
 654 00d0 0231     		adds	r1, r1, #2
 655 00d2 C2F10205 		rsb	r5, r2, #2
 656 00d6 01E0     		b	.L105
 657              	.LVL66:
 658              	.L180:
1353:Src/register_interface.c ****   {
 659              		.loc 1 1353 40 view .LVU171
 660 00d8 8A42     		cmp	r2, r1
 661 00da 09D0     		beq	.L174
 662              	.L105:
 663              	.LVL67:
1355:Src/register_interface.c ****     tempdestString++;
 664              		.loc 1 1355 5 is_stmt 1 view .LVU172
1356:Src/register_interface.c ****     tempsrcString++;
 665              		.loc 1 1356 5 view .LVU173
1358:Src/register_interface.c ****   }
 666              		.loc 1 1358 11 is_stmt 0 view .LVU174
 667 00dc A818     		adds	r0, r5, r2
 668 00de 1880     		strh	r0, [r3]	@ movhi
1353:Src/register_interface.c ****   {
 669              		.loc 1 1353 9 view .LVU175
 670 00e0 92F90000 		ldrsb	r0, [r2]
1356:Src/register_interface.c ****     tempsrcString++;
ARM GAS  /tmp/ccAfo4nU.s 			page 39


 671              		.loc 1 1356 19 view .LVU176
 672 00e4 1446     		mov	r4, r2
 673              	.LVL68:
1357:Src/register_interface.c ****     *size = *size + 1U;
 674              		.loc 1 1357 5 is_stmt 1 view .LVU177
1358:Src/register_interface.c ****   }
 675              		.loc 1 1358 5 view .LVU178
1358:Src/register_interface.c ****   }
 676              		.loc 1 1358 5 is_stmt 0 view .LVU179
 677 00e6 0132     		adds	r2, r2, #1
 678              	.LVL69:
1353:Src/register_interface.c ****   {
 679              		.loc 1 1353 9 view .LVU180
 680 00e8 0028     		cmp	r0, #0
 681 00ea F5D1     		bne	.L180
 682              	.L103:
1361:Src/register_interface.c ****   { /* Last string char must be 0 */
 683              		.loc 1 1361 3 is_stmt 1 view .LVU181
 684              		.loc 1 1367 5 view .LVU182
 685              		.loc 1 1367 21 is_stmt 0 view .LVU183
 686 00ec 0023     		movs	r3, #0
 687              	.LVL70:
 688              		.loc 1 1367 21 view .LVU184
 689 00ee 2370     		strb	r3, [r4]
 690              	.LVL71:
 691              	.L174:
 692              		.loc 1 1367 21 view .LVU185
 693              	.LBE104:
 694              	.LBE103:
 497:Src/register_interface.c ****       /* Used to compute String length stored in RXBUFF even if Reg does not exist */
 695              		.loc 1 497 14 view .LVU186
 696 00f0 0420     		movs	r0, #4
 697              	.LVL72:
 497:Src/register_interface.c ****       /* Used to compute String length stored in RXBUFF even if Reg does not exist */
 698              		.loc 1 497 14 view .LVU187
 699              	.LBE102:
 612:Src/register_interface.c **** }
 700              		.loc 1 612 3 is_stmt 1 view .LVU188
 613:Src/register_interface.c **** 
 701              		.loc 1 613 1 is_stmt 0 view .LVU189
 702 00f2 04B0     		add	sp, sp, #16
 703              	.LCFI23:
 704              		.cfi_remember_state
 705              		.cfi_def_cfa_offset 16
 706              		@ sp needed
 707 00f4 70BD     		pop	{r4, r5, r6, pc}
 708              	.LVL73:
 709              	.L52:
 710              	.LCFI24:
 711              		.cfi_restore_state
 712              	.LBB105:
 226:Src/register_interface.c ****       switch (regID)
 713              		.loc 1 226 7 is_stmt 1 view .LVU190
 714 00f6 B0F51D6F 		cmp	r0, #2512
 226:Src/register_interface.c ****       switch (regID)
 715              		.loc 1 226 16 is_stmt 0 view .LVU191
 716 00fa 2488     		ldrh	r4, [r4]
ARM GAS  /tmp/ccAfo4nU.s 			page 40


 717              	.LVL74:
 227:Src/register_interface.c ****       {
 718              		.loc 1 227 7 is_stmt 1 view .LVU192
 719 00fc 23D0     		beq	.L143
 720 00fe 2FD8     		bhi	.L59
 721 0100 B0F58A6F 		cmp	r0, #1104
 722 0104 00F08782 		beq	.L60
 723 0108 5BD8     		bhi	.L61
 724 010a B0F5047F 		cmp	r0, #528
 725 010e 00F07A82 		beq	.L62
 726 0112 46D8     		bhi	.L63
 727 0114 B0F5887F 		cmp	r0, #272
 728 0118 00F0AC82 		beq	.L64
 729 011c 00F2A180 		bhi	.L65
 730 0120 9028     		cmp	r0, #144
 731 0122 40F09380 		bne	.L181
 231:Src/register_interface.c ****           break;
 732              		.loc 1 231 11 view .LVU193
 733 0126 8A48     		ldr	r0, .L199+4
 734              	.LVL75:
 231:Src/register_interface.c ****           break;
 735              		.loc 1 231 11 is_stmt 0 view .LVU194
 736 0128 0193     		str	r3, [sp, #4]
 737 012a 21B2     		sxth	r1, r4
 738 012c FFF7FEFF 		bl	PID_SetKP
 739              	.LVL76:
 232:Src/register_interface.c ****         }
 740              		.loc 1 232 11 is_stmt 1 view .LVU195
 741 0130 019B     		ldr	r3, [sp, #4]
 742              	.LBE105:
 168:Src/register_interface.c ****   uint8_t motorID=0;
 743              		.loc 1 168 11 is_stmt 0 view .LVU196
 744 0132 0020     		movs	r0, #0
 745              	.LVL77:
 746              	.L58:
 747              	.LBB110:
 453:Src/register_interface.c ****       break;
 748              		.loc 1 453 7 is_stmt 1 view .LVU197
 453:Src/register_interface.c ****       break;
 749              		.loc 1 453 13 is_stmt 0 view .LVU198
 750 0134 0222     		movs	r2, #2
 751 0136 1A80     		strh	r2, [r3]	@ movhi
 454:Src/register_interface.c ****     }
 752              		.loc 1 454 7 is_stmt 1 view .LVU199
 753              	.L182:
 454:Src/register_interface.c ****     }
 754              		.loc 1 454 7 is_stmt 0 view .LVU200
 755              	.LBE110:
 613:Src/register_interface.c **** 
 756              		.loc 1 613 1 view .LVU201
 757 0138 04B0     		add	sp, sp, #16
 758              	.LCFI25:
 759              		.cfi_remember_state
 760              		.cfi_def_cfa_offset 16
 761              		@ sp needed
 762 013a 70BD     		pop	{r4, r5, r6, pc}
 763              	.LVL78:
ARM GAS  /tmp/ccAfo4nU.s 			page 41


 764              	.L47:
 765              	.LCFI26:
 766              		.cfi_restore_state
 607:Src/register_interface.c ****       *size =0; /* From this point we are not able anymore to decode the RX buffer */
 767              		.loc 1 607 7 is_stmt 1 view .LVU202
 608:Src/register_interface.c ****       break;
 768              		.loc 1 608 7 view .LVU203
 608:Src/register_interface.c ****       break;
 769              		.loc 1 608 13 is_stmt 0 view .LVU204
 770 013c 0022     		movs	r2, #0
 607:Src/register_interface.c ****       *size =0; /* From this point we are not able anymore to decode the RX buffer */
 771              		.loc 1 607 14 view .LVU205
 772 013e 0720     		movs	r0, #7
 773              	.LVL79:
 608:Src/register_interface.c ****       break;
 774              		.loc 1 608 13 view .LVU206
 775 0140 1A80     		strh	r2, [r3]	@ movhi
 609:Src/register_interface.c ****     }
 776              		.loc 1 609 7 is_stmt 1 view .LVU207
 613:Src/register_interface.c **** 
 777              		.loc 1 613 1 is_stmt 0 view .LVU208
 778 0142 04B0     		add	sp, sp, #16
 779              	.LCFI27:
 780              		.cfi_remember_state
 781              		.cfi_def_cfa_offset 16
 782              		@ sp needed
 783 0144 70BD     		pop	{r4, r5, r6, pc}
 784              	.LVL80:
 785              	.L143:
 786              	.LCFI28:
 787              		.cfi_restore_state
 788              	.LBB111:
 453:Src/register_interface.c ****       break;
 789              		.loc 1 453 13 view .LVU209
 790 0146 0222     		movs	r2, #2
 287:Src/register_interface.c ****           break;
 791              		.loc 1 287 18 view .LVU210
 792 0148 0420     		movs	r0, #4
 793              	.LVL81:
 453:Src/register_interface.c ****       break;
 794              		.loc 1 453 7 is_stmt 1 view .LVU211
 453:Src/register_interface.c ****       break;
 795              		.loc 1 453 13 is_stmt 0 view .LVU212
 796 014a 1A80     		strh	r2, [r3]	@ movhi
 454:Src/register_interface.c ****     }
 797              		.loc 1 454 7 is_stmt 1 view .LVU213
 798 014c F4E7     		b	.L182
 799              	.LVL82:
 800              	.L101:
 454:Src/register_interface.c ****     }
 801              		.loc 1 454 7 is_stmt 0 view .LVU214
 802              	.LBE111:
 803              	.LBB112:
 804 014e D828     		cmp	r0, #216
 805 0150 00F09D81 		beq	.L146
 485:Src/register_interface.c ****           break;
 806              		.loc 1 485 18 view .LVU215
ARM GAS  /tmp/ccAfo4nU.s 			page 42


 807 0154 B0F58C7F 		cmp	r0, #280
 808 0158 0CBF     		ite	eq
 809 015a 0420     		moveq	r0, #4
 810              	.LVL83:
 485:Src/register_interface.c ****           break;
 811              		.loc 1 485 18 view .LVU216
 812 015c 0520     		movne	r0, #5
 813 015e A7E7     		b	.L102
 814              	.LVL84:
 815              	.L59:
 485:Src/register_interface.c ****           break;
 816              		.loc 1 485 18 view .LVU217
 817              	.LBE112:
 818              	.LBB113:
 819 0160 41F25042 		movw	r2, #5200
 820 0164 9042     		cmp	r0, r2
 821 0166 00F07D82 		beq	.L82
 822 016a 40F2A680 		bls	.L183
 823 016e 41F2D052 		movw	r2, #5584
 824 0172 9042     		cmp	r0, r2
 825 0174 00F06E82 		beq	.L87
 826 0178 00F28C80 		bhi	.L88
 827 017c 41F21052 		movw	r2, #5392
 828 0180 9042     		cmp	r0, r2
 829 0182 00F05082 		beq	.L89
 830 0186 00F2AD80 		bhi	.L90
 831 018a 41F29042 		movw	r2, #5264
 832 018e 9042     		cmp	r0, r2
 833 0190 73D1     		bne	.L184
 383:Src/register_interface.c ****           break;
 834              		.loc 1 383 11 view .LVU218
 835 0192 6F48     		ldr	r0, .L199+4
 836              	.LVL85:
 383:Src/register_interface.c ****           break;
 837              		.loc 1 383 11 view .LVU219
 838 0194 0193     		str	r3, [sp, #4]
 383:Src/register_interface.c ****           break;
 839              		.loc 1 383 11 is_stmt 1 view .LVU220
 840 0196 2146     		mov	r1, r4
 841 0198 FFF7FEFF 		bl	PID_SetKIDivisorPOW2
 842              	.LVL86:
 384:Src/register_interface.c ****         }
 843              		.loc 1 384 11 view .LVU221
 844              	.LBE113:
 168:Src/register_interface.c ****   uint8_t motorID=0;
 845              		.loc 1 168 11 is_stmt 0 view .LVU222
 846 019c 0020     		movs	r0, #0
 847              	.LBB114:
 384:Src/register_interface.c ****         }
 848              		.loc 1 384 11 view .LVU223
 849 019e 019B     		ldr	r3, [sp, #4]
 850 01a0 C8E7     		b	.L58
 851              	.LVL87:
 852              	.L63:
 384:Src/register_interface.c ****         }
 853              		.loc 1 384 11 view .LVU224
 854 01a2 B0F5447F 		cmp	r0, #784
ARM GAS  /tmp/ccAfo4nU.s 			page 43


 855 01a6 00F01E82 		beq	.L70
 856 01aa 35D8     		bhi	.L71
 857 01ac B0F5247F 		cmp	r0, #656
 858 01b0 26D1     		bne	.L185
 267:Src/register_interface.c ****           break;
 859              		.loc 1 267 11 is_stmt 1 view .LVU225
 860 01b2 6848     		ldr	r0, .L199+8
 861              	.LVL88:
 267:Src/register_interface.c ****           break;
 862              		.loc 1 267 11 is_stmt 0 view .LVU226
 863 01b4 0193     		str	r3, [sp, #4]
 864 01b6 21B2     		sxth	r1, r4
 865 01b8 FFF7FEFF 		bl	PID_SetKP
 866              	.LVL89:
 268:Src/register_interface.c ****         }
 867              		.loc 1 268 11 is_stmt 1 view .LVU227
 868              	.LBE114:
 168:Src/register_interface.c ****   uint8_t motorID=0;
 869              		.loc 1 168 11 is_stmt 0 view .LVU228
 870 01bc 0020     		movs	r0, #0
 871              	.LBB115:
 268:Src/register_interface.c ****         }
 872              		.loc 1 268 11 view .LVU229
 873 01be 019B     		ldr	r3, [sp, #4]
 874 01c0 B8E7     		b	.L58
 875              	.LVL90:
 876              	.L61:
 268:Src/register_interface.c ****         }
 877              		.loc 1 268 11 view .LVU230
 878 01c2 B0F5016F 		cmp	r0, #2064
 879 01c6 BED0     		beq	.L143
 880 01c8 40F2B080 		bls	.L186
 881 01cc B0F50D6F 		cmp	r0, #2256
 882 01d0 B9D0     		beq	.L143
 883 01d2 40F2A180 		bls	.L187
 884 01d6 B0F5156F 		cmp	r0, #2384
 885 01da 00F00C82 		beq	.L80
 886 01de B0F5196F 		cmp	r0, #2448
 887 01e2 2DD1     		bne	.L188
 888              	.LBB106:
 314:Src/register_interface.c ****           currComp = MCI_GetIqdref(pMCIN);
 889              		.loc 1 314 11 is_stmt 1 view .LVU231
 315:Src/register_interface.c ****           currComp.d = (int16_t)regdata16;
 890              		.loc 1 315 11 view .LVU232
 315:Src/register_interface.c ****           currComp.d = (int16_t)regdata16;
 891              		.loc 1 315 22 is_stmt 0 view .LVU233
 892 01e4 5C48     		ldr	r0, .L199+12
 893              	.LVL91:
 315:Src/register_interface.c ****           currComp.d = (int16_t)regdata16;
 894              		.loc 1 315 22 view .LVU234
 895 01e6 0193     		str	r3, [sp, #4]
 896 01e8 FFF7FEFF 		bl	MCI_GetIqdref
 897              	.LVL92:
 315:Src/register_interface.c ****           currComp.d = (int16_t)regdata16;
 898              		.loc 1 315 22 view .LVU235
 899 01ec 0390     		str	r0, [sp, #12]
 316:Src/register_interface.c ****           MCI_SetCurrentReferences(pMCIN,currComp);
ARM GAS  /tmp/ccAfo4nU.s 			page 44


 900              		.loc 1 316 11 is_stmt 1 view .LVU236
 316:Src/register_interface.c ****           MCI_SetCurrentReferences(pMCIN,currComp);
 901              		.loc 1 316 22 is_stmt 0 view .LVU237
 902 01ee ADF80E40 		strh	r4, [sp, #14]	@ movhi
 903              	.L172:
 317:Src/register_interface.c ****           break;
 904              		.loc 1 317 11 is_stmt 1 view .LVU238
 905 01f2 5948     		ldr	r0, .L199+12
 906 01f4 0399     		ldr	r1, [sp, #12]
 907 01f6 FFF7FEFF 		bl	MCI_SetCurrentReferences
 908              	.LVL93:
 318:Src/register_interface.c ****         }
 909              		.loc 1 318 11 view .LVU239
 910              	.LBE106:
 911              	.LBE115:
 168:Src/register_interface.c ****   uint8_t motorID=0;
 912              		.loc 1 168 11 is_stmt 0 view .LVU240
 913 01fa 0020     		movs	r0, #0
 914 01fc 019B     		ldr	r3, [sp, #4]
 915 01fe 99E7     		b	.L58
 916              	.LVL94:
 917              	.L185:
 918              	.LBB116:
 168:Src/register_interface.c ****   uint8_t motorID=0;
 919              		.loc 1 168 11 view .LVU241
 920 0200 B0F5347F 		cmp	r0, #720
 921 0204 40F04181 		bne	.L173
 273:Src/register_interface.c ****           break;
 922              		.loc 1 273 11 is_stmt 1 view .LVU242
 923 0208 5248     		ldr	r0, .L199+8
 924              	.LVL95:
 273:Src/register_interface.c ****           break;
 925              		.loc 1 273 11 is_stmt 0 view .LVU243
 926 020a 0193     		str	r3, [sp, #4]
 927 020c 21B2     		sxth	r1, r4
 928 020e FFF7FEFF 		bl	PID_SetKI
 929              	.LVL96:
 274:Src/register_interface.c ****         }
 930              		.loc 1 274 11 is_stmt 1 view .LVU244
 931              	.LBE116:
 168:Src/register_interface.c ****   uint8_t motorID=0;
 932              		.loc 1 168 11 is_stmt 0 view .LVU245
 933 0212 0020     		movs	r0, #0
 934              	.LBB117:
 274:Src/register_interface.c ****         }
 935              		.loc 1 274 11 view .LVU246
 936 0214 019B     		ldr	r3, [sp, #4]
 937 0216 8DE7     		b	.L58
 938              	.LVL97:
 939              	.L71:
 274:Src/register_interface.c ****         }
 940              		.loc 1 274 11 view .LVU247
 941 0218 B0F5547F 		cmp	r0, #848
 942 021c 40F0A480 		bne	.L189
 943              	.LBB107:
 332:Src/register_interface.c ****           int16_t hC2;
 944              		.loc 1 332 11 is_stmt 1 view .LVU248
ARM GAS  /tmp/ccAfo4nU.s 			page 45


 333:Src/register_interface.c ****           STO_PLL_GetObserverGains(&STO_PLL_M1, &hC1, &hC2);
 945              		.loc 1 333 11 view .LVU249
 334:Src/register_interface.c ****           STO_PLL_SetObserverGains(&STO_PLL_M1, (int16_t)regdata16, hC2);
 946              		.loc 1 334 11 view .LVU250
 947 0220 03AA     		add	r2, sp, #12
 948 0222 0DF10A01 		add	r1, sp, #10
 949 0226 4D48     		ldr	r0, .L199+16
 950              	.LVL98:
 334:Src/register_interface.c ****           STO_PLL_SetObserverGains(&STO_PLL_M1, (int16_t)regdata16, hC2);
 951              		.loc 1 334 11 is_stmt 0 view .LVU251
 952 0228 0193     		str	r3, [sp, #4]
 953 022a FFF7FEFF 		bl	STO_PLL_GetObserverGains
 954              	.LVL99:
 335:Src/register_interface.c ****           break;
 955              		.loc 1 335 11 is_stmt 1 view .LVU252
 956 022e 4B48     		ldr	r0, .L199+16
 957 0230 BDF90C20 		ldrsh	r2, [sp, #12]
 958 0234 21B2     		sxth	r1, r4
 959 0236 FFF7FEFF 		bl	STO_PLL_SetObserverGains
 960              	.LVL100:
 336:Src/register_interface.c ****         }
 961              		.loc 1 336 11 view .LVU253
 962              	.LBE107:
 963              	.LBE117:
 168:Src/register_interface.c ****   uint8_t motorID=0;
 964              		.loc 1 168 11 is_stmt 0 view .LVU254
 965 023a 0020     		movs	r0, #0
 966 023c 019B     		ldr	r3, [sp, #4]
 967 023e 79E7     		b	.L58
 968              	.LVL101:
 969              	.L188:
 970              	.LBB118:
 449:Src/register_interface.c ****           break;
 971              		.loc 1 449 18 view .LVU255
 972 0240 B0F5116F 		cmp	r0, #2320
 973 0244 0CBF     		ite	eq
 974 0246 0420     		moveq	r0, #4
 975              	.LVL102:
 449:Src/register_interface.c ****           break;
 976              		.loc 1 449 18 view .LVU256
 977 0248 0520     		movne	r0, #5
 978 024a 73E7     		b	.L58
 979              	.LVL103:
 980              	.L181:
 449:Src/register_interface.c ****           break;
 981              		.loc 1 449 18 view .LVU257
 982 024c D028     		cmp	r0, #208
 983 024e 40F01C81 		bne	.L173
 237:Src/register_interface.c ****           break;
 984              		.loc 1 237 11 is_stmt 1 view .LVU258
 985 0252 3F48     		ldr	r0, .L199+4
 986              	.LVL104:
 237:Src/register_interface.c ****           break;
 987              		.loc 1 237 11 is_stmt 0 view .LVU259
 988 0254 0193     		str	r3, [sp, #4]
 989 0256 21B2     		sxth	r1, r4
 990 0258 FFF7FEFF 		bl	PID_SetKI
ARM GAS  /tmp/ccAfo4nU.s 			page 46


 991              	.LVL105:
 238:Src/register_interface.c ****         }
 992              		.loc 1 238 11 is_stmt 1 view .LVU260
 993              	.LBE118:
 168:Src/register_interface.c ****   uint8_t motorID=0;
 994              		.loc 1 168 11 is_stmt 0 view .LVU261
 995 025c 0020     		movs	r0, #0
 996              	.LBB119:
 238:Src/register_interface.c ****         }
 997              		.loc 1 238 11 view .LVU262
 998 025e 019B     		ldr	r3, [sp, #4]
 999 0260 68E7     		b	.L58
 1000              	.LVL106:
 1001              	.L65:
 238:Src/register_interface.c ****         }
 1002              		.loc 1 238 11 view .LVU263
 1003 0262 B0F5C87F 		cmp	r0, #400
 1004 0266 40F0A380 		bne	.L190
 249:Src/register_interface.c ****           break;
 1005              		.loc 1 249 11 is_stmt 1 view .LVU264
 1006 026a 3D48     		ldr	r0, .L199+20
 1007              	.LVL107:
 249:Src/register_interface.c ****           break;
 1008              		.loc 1 249 11 is_stmt 0 view .LVU265
 1009 026c 0193     		str	r3, [sp, #4]
 1010 026e 21B2     		sxth	r1, r4
 1011 0270 FFF7FEFF 		bl	PID_SetKP
 1012              	.LVL108:
 250:Src/register_interface.c ****         }
 1013              		.loc 1 250 11 is_stmt 1 view .LVU266
 1014              	.LBE119:
 168:Src/register_interface.c ****   uint8_t motorID=0;
 1015              		.loc 1 168 11 is_stmt 0 view .LVU267
 1016 0274 0020     		movs	r0, #0
 1017              	.LBB120:
 250:Src/register_interface.c ****         }
 1018              		.loc 1 250 11 view .LVU268
 1019 0276 019B     		ldr	r3, [sp, #4]
 1020 0278 5CE7     		b	.L58
 1021              	.LVL109:
 1022              	.L184:
 250:Src/register_interface.c ****         }
 1023              		.loc 1 250 11 view .LVU269
 1024 027a 41F2D042 		movw	r2, #5328
 1025 027e 9042     		cmp	r0, r2
 1026 0280 40F00381 		bne	.L173
 389:Src/register_interface.c ****           break;
 1027              		.loc 1 389 11 view .LVU270
 1028 0284 3248     		ldr	r0, .L199+4
 1029              	.LVL110:
 389:Src/register_interface.c ****           break;
 1030              		.loc 1 389 11 view .LVU271
 1031 0286 0193     		str	r3, [sp, #4]
 389:Src/register_interface.c ****           break;
 1032              		.loc 1 389 11 is_stmt 1 view .LVU272
 1033 0288 2146     		mov	r1, r4
 1034 028a FFF7FEFF 		bl	PID_SetKDDivisorPOW2
ARM GAS  /tmp/ccAfo4nU.s 			page 47


 1035              	.LVL111:
 390:Src/register_interface.c ****         }
 1036              		.loc 1 390 11 view .LVU273
 1037              	.LBE120:
 168:Src/register_interface.c ****   uint8_t motorID=0;
 1038              		.loc 1 168 11 is_stmt 0 view .LVU274
 1039 028e 0020     		movs	r0, #0
 1040              	.LBB121:
 390:Src/register_interface.c ****         }
 1041              		.loc 1 390 11 view .LVU275
 1042 0290 019B     		ldr	r3, [sp, #4]
 1043 0292 4FE7     		b	.L58
 1044              	.LVL112:
 1045              	.L88:
 390:Src/register_interface.c ****         }
 1046              		.loc 1 390 11 view .LVU276
 1047 0294 41F6D002 		movw	r2, #6352
 1048 0298 9042     		cmp	r0, r2
 1049 029a 00F09C81 		beq	.L95
 1050 029e 00F2AB80 		bhi	.L96
 1051 02a2 41F21062 		movw	r2, #5648
 1052 02a6 9042     		cmp	r0, r2
 1053 02a8 29D1     		bne	.L191
 419:Src/register_interface.c ****           break;
 1054              		.loc 1 419 11 view .LVU277
 1055 02aa 2D48     		ldr	r0, .L199+20
 1056              	.LVL113:
 419:Src/register_interface.c ****           break;
 1057              		.loc 1 419 11 view .LVU278
 1058 02ac 0193     		str	r3, [sp, #4]
 419:Src/register_interface.c ****           break;
 1059              		.loc 1 419 11 is_stmt 1 view .LVU279
 1060 02ae 2146     		mov	r1, r4
 1061 02b0 FFF7FEFF 		bl	PID_SetKIDivisorPOW2
 1062              	.LVL114:
 420:Src/register_interface.c ****         }
 1063              		.loc 1 420 11 view .LVU280
 1064              	.LBE121:
 168:Src/register_interface.c ****   uint8_t motorID=0;
 1065              		.loc 1 168 11 is_stmt 0 view .LVU281
 1066 02b4 0020     		movs	r0, #0
 1067              	.LBB122:
 420:Src/register_interface.c ****         }
 1068              		.loc 1 420 11 view .LVU282
 1069 02b6 019B     		ldr	r3, [sp, #4]
 1070 02b8 3CE7     		b	.L58
 1071              	.LVL115:
 1072              	.L183:
 420:Src/register_interface.c ****         }
 1073              		.loc 1 420 11 view .LVU283
 1074 02ba B0F53D6F 		cmp	r0, #3024
 1075 02be 3FF442AF 		beq	.L143
 1076 02c2 40F28A80 		bls	.L192
 1077 02c6 B0F5496F 		cmp	r0, #3216
 1078 02ca 3FF43CAF 		beq	.L143
 1079 02ce 7AD9     		bls	.L193
 1080 02d0 B0F5656F 		cmp	r0, #3664
ARM GAS  /tmp/ccAfo4nU.s 			page 48


 1081 02d4 00F0DD80 		beq	.L140
 449:Src/register_interface.c ****           break;
 1082              		.loc 1 449 18 view .LVU284
 1083 02d8 B0F5696F 		cmp	r0, #3728
 1084 02dc 0CBF     		ite	eq
 1085 02de 0020     		moveq	r0, #0
 1086              	.LVL116:
 449:Src/register_interface.c ****           break;
 1087              		.loc 1 449 18 view .LVU285
 1088 02e0 0520     		movne	r0, #5
 1089 02e2 27E7     		b	.L58
 1090              	.LVL117:
 1091              	.L90:
 449:Src/register_interface.c ****           break;
 1092              		.loc 1 449 18 view .LVU286
 1093 02e4 41F25052 		movw	r2, #5456
 1094 02e8 9042     		cmp	r0, r2
 1095 02ea 40F09B80 		bne	.L194
 401:Src/register_interface.c ****           break;
 1096              		.loc 1 401 11 view .LVU287
 1097 02ee 1948     		ldr	r0, .L199+8
 1098              	.LVL118:
 401:Src/register_interface.c ****           break;
 1099              		.loc 1 401 11 view .LVU288
 1100 02f0 0193     		str	r3, [sp, #4]
 401:Src/register_interface.c ****           break;
 1101              		.loc 1 401 11 is_stmt 1 view .LVU289
 1102 02f2 2146     		mov	r1, r4
 1103 02f4 FFF7FEFF 		bl	PID_SetKIDivisorPOW2
 1104              	.LVL119:
 402:Src/register_interface.c ****         }
 1105              		.loc 1 402 11 view .LVU290
 1106              	.LBE122:
 168:Src/register_interface.c ****   uint8_t motorID=0;
 1107              		.loc 1 168 11 is_stmt 0 view .LVU291
 1108 02f8 0020     		movs	r0, #0
 1109              	.LBB123:
 402:Src/register_interface.c ****         }
 1110              		.loc 1 402 11 view .LVU292
 1111 02fa 019B     		ldr	r3, [sp, #4]
 1112 02fc 1AE7     		b	.L58
 1113              	.LVL120:
 1114              	.L191:
 402:Src/register_interface.c ****         }
 1115              		.loc 1 402 11 view .LVU293
 1116 02fe 41F25062 		movw	r2, #5712
 1117 0302 9042     		cmp	r0, r2
 1118 0304 40F0C180 		bne	.L173
 425:Src/register_interface.c ****           break;
 1119              		.loc 1 425 11 view .LVU294
 1120 0308 1548     		ldr	r0, .L199+20
 1121              	.LVL121:
 425:Src/register_interface.c ****           break;
 1122              		.loc 1 425 11 view .LVU295
 1123 030a 0193     		str	r3, [sp, #4]
 425:Src/register_interface.c ****           break;
 1124              		.loc 1 425 11 is_stmt 1 view .LVU296
ARM GAS  /tmp/ccAfo4nU.s 			page 49


 1125 030c 2146     		mov	r1, r4
 1126 030e FFF7FEFF 		bl	PID_SetKDDivisorPOW2
 1127              	.LVL122:
 426:Src/register_interface.c ****         }
 1128              		.loc 1 426 11 view .LVU297
 1129              	.LBE123:
 168:Src/register_interface.c ****   uint8_t motorID=0;
 1130              		.loc 1 168 11 is_stmt 0 view .LVU298
 1131 0312 0020     		movs	r0, #0
 1132              	.LBB124:
 426:Src/register_interface.c ****         }
 1133              		.loc 1 426 11 view .LVU299
 1134 0314 019B     		ldr	r3, [sp, #4]
 1135 0316 0DE7     		b	.L58
 1136              	.LVL123:
 1137              	.L187:
 426:Src/register_interface.c ****         }
 1138              		.loc 1 426 11 view .LVU300
 1139 0318 B0F5056F 		cmp	r0, #2128
 1140 031c 3FF413AF 		beq	.L143
 449:Src/register_interface.c ****           break;
 1141              		.loc 1 449 18 view .LVU301
 1142 0320 B0F5096F 		cmp	r0, #2192
 1143 0324 0CBF     		ite	eq
 1144 0326 0420     		moveq	r0, #4
 1145              	.LVL124:
 449:Src/register_interface.c ****           break;
 1146              		.loc 1 449 18 view .LVU302
 1147 0328 0520     		movne	r0, #5
 1148 032a 03E7     		b	.L58
 1149              	.LVL125:
 1150              	.L186:
 449:Src/register_interface.c ****           break;
 1151              		.loc 1 449 18 view .LVU303
 1152 032c B0F5BA6F 		cmp	r0, #1488
 1153 0330 3FF409AF 		beq	.L143
 1154 0334 32D8     		bhi	.L77
 1155 0336 B0F5926F 		cmp	r0, #1168
 1156 033a 29D1     		bne	.L195
 356:Src/register_interface.c ****           break;
 1157              		.loc 1 356 11 is_stmt 1 view .LVU304
 1158 033c 0948     		ldr	r0, .L199+24
 1159              	.LVL126:
 356:Src/register_interface.c ****           break;
 1160              		.loc 1 356 11 is_stmt 0 view .LVU305
 1161 033e 0193     		str	r3, [sp, #4]
 1162 0340 21B2     		sxth	r1, r4
 1163 0342 FFF7FEFF 		bl	PID_SetKP
 1164              	.LVL127:
 357:Src/register_interface.c ****         }
 1165              		.loc 1 357 11 is_stmt 1 view .LVU306
 1166              	.LBE124:
 168:Src/register_interface.c ****   uint8_t motorID=0;
 1167              		.loc 1 168 11 is_stmt 0 view .LVU307
 1168 0346 0020     		movs	r0, #0
 1169              	.LBB125:
 357:Src/register_interface.c ****         }
ARM GAS  /tmp/ccAfo4nU.s 			page 50


 1170              		.loc 1 357 11 view .LVU308
 1171 0348 019B     		ldr	r3, [sp, #4]
 1172 034a F3E6     		b	.L58
 1173              	.L200:
 1174              		.align	2
 1175              	.L199:
 1176 034c 00000000 		.word	MCPA_UART_A
 1177 0350 00000000 		.word	PIDSpeedHandle_M1
 1178 0354 00000000 		.word	PIDIdHandle_M1
 1179 0358 00000000 		.word	Mci
 1180 035c 00000000 		.word	STO_PLL_M1
 1181 0360 00000000 		.word	PIDIqHandle_M1
 1182 0364 34000000 		.word	STO_PLL_M1+52
 1183              	.LVL128:
 1184              	.L189:
 357:Src/register_interface.c ****         }
 1185              		.loc 1 357 11 view .LVU309
 1186 0368 B0F5647F 		cmp	r0, #912
 1187 036c 40F08D80 		bne	.L173
 1188              	.LBB108:
 341:Src/register_interface.c ****           int16_t hC2;
 1189              		.loc 1 341 11 is_stmt 1 view .LVU310
 342:Src/register_interface.c ****           STO_PLL_GetObserverGains(&STO_PLL_M1, &hC1, &hC2);
 1190              		.loc 1 342 11 view .LVU311
 343:Src/register_interface.c ****           STO_PLL_SetObserverGains(&STO_PLL_M1, hC1, (int16_t)regdata16);
 1191              		.loc 1 343 11 view .LVU312
 1192 0370 03AA     		add	r2, sp, #12
 1193 0372 0DF10A01 		add	r1, sp, #10
 1194 0376 B048     		ldr	r0, .L201
 1195              	.LVL129:
 343:Src/register_interface.c ****           STO_PLL_SetObserverGains(&STO_PLL_M1, hC1, (int16_t)regdata16);
 1196              		.loc 1 343 11 is_stmt 0 view .LVU313
 1197 0378 0193     		str	r3, [sp, #4]
 1198 037a FFF7FEFF 		bl	STO_PLL_GetObserverGains
 1199              	.LVL130:
 344:Src/register_interface.c ****           break;
 1200              		.loc 1 344 11 is_stmt 1 view .LVU314
 1201 037e AE48     		ldr	r0, .L201
 1202 0380 BDF90A10 		ldrsh	r1, [sp, #10]
 1203 0384 22B2     		sxth	r2, r4
 1204 0386 FFF7FEFF 		bl	STO_PLL_SetObserverGains
 1205              	.LVL131:
 345:Src/register_interface.c ****         }
 1206              		.loc 1 345 11 view .LVU315
 1207              	.LBE108:
 1208              	.LBE125:
 168:Src/register_interface.c ****   uint8_t motorID=0;
 1209              		.loc 1 168 11 is_stmt 0 view .LVU316
 1210 038a 0020     		movs	r0, #0
 1211 038c 019B     		ldr	r3, [sp, #4]
 1212 038e D1E6     		b	.L58
 1213              	.LVL132:
 1214              	.L195:
 1215              	.LBB126:
 449:Src/register_interface.c ****           break;
 1216              		.loc 1 449 18 view .LVU317
 1217 0390 B0F5B26F 		cmp	r0, #1424
ARM GAS  /tmp/ccAfo4nU.s 			page 51


 1218 0394 0CBF     		ite	eq
 1219 0396 0420     		moveq	r0, #4
 1220              	.LVL133:
 449:Src/register_interface.c ****           break;
 1221              		.loc 1 449 18 view .LVU318
 1222 0398 0520     		movne	r0, #5
 1223 039a CBE6     		b	.L58
 1224              	.LVL134:
 1225              	.L77:
 449:Src/register_interface.c ****           break;
 1226              		.loc 1 449 18 view .LVU319
 1227 039c B0F5F26F 		cmp	r0, #1936
 1228 03a0 3FF4D1AE 		beq	.L143
 1229 03a4 B0F5FA6F 		cmp	r0, #2000
 1230 03a8 0CBF     		ite	eq
 1231 03aa 0420     		moveq	r0, #4
 1232              	.LVL135:
 449:Src/register_interface.c ****           break;
 1233              		.loc 1 449 18 view .LVU320
 1234 03ac 0520     		movne	r0, #5
 1235 03ae C1E6     		b	.L58
 1236              	.LVL136:
 1237              	.L190:
 449:Src/register_interface.c ****           break;
 1238              		.loc 1 449 18 view .LVU321
 1239 03b0 B0F5E87F 		cmp	r0, #464
 1240 03b4 69D1     		bne	.L173
 255:Src/register_interface.c ****           break;
 1241              		.loc 1 255 11 is_stmt 1 view .LVU322
 1242 03b6 A148     		ldr	r0, .L201+4
 1243              	.LVL137:
 255:Src/register_interface.c ****           break;
 1244              		.loc 1 255 11 is_stmt 0 view .LVU323
 1245 03b8 0193     		str	r3, [sp, #4]
 1246 03ba 21B2     		sxth	r1, r4
 1247 03bc FFF7FEFF 		bl	PID_SetKI
 1248              	.LVL138:
 256:Src/register_interface.c ****         }
 1249              		.loc 1 256 11 is_stmt 1 view .LVU324
 1250              	.LBE126:
 168:Src/register_interface.c ****   uint8_t motorID=0;
 1251              		.loc 1 168 11 is_stmt 0 view .LVU325
 1252 03c0 0020     		movs	r0, #0
 1253              	.LBB127:
 256:Src/register_interface.c ****         }
 1254              		.loc 1 256 11 view .LVU326
 1255 03c2 019B     		ldr	r3, [sp, #4]
 1256 03c4 B6E6     		b	.L58
 1257              	.LVL139:
 1258              	.L193:
 256:Src/register_interface.c ****         }
 1259              		.loc 1 256 11 view .LVU327
 1260 03c6 B0F5416F 		cmp	r0, #3088
 1261 03ca 3FF4BCAE 		beq	.L143
 449:Src/register_interface.c ****           break;
 1262              		.loc 1 449 18 view .LVU328
 1263 03ce B0F5456F 		cmp	r0, #3152
ARM GAS  /tmp/ccAfo4nU.s 			page 52


 1264 03d2 0CBF     		ite	eq
 1265 03d4 0420     		moveq	r0, #4
 1266              	.LVL140:
 449:Src/register_interface.c ****           break;
 1267              		.loc 1 449 18 view .LVU329
 1268 03d6 0520     		movne	r0, #5
 1269 03d8 ACE6     		b	.L58
 1270              	.LVL141:
 1271              	.L192:
 449:Src/register_interface.c ****           break;
 1272              		.loc 1 449 18 view .LVU330
 1273 03da B0F5296F 		cmp	r0, #2704
 1274 03de 3FF4B2AE 		beq	.L143
 1275 03e2 2BD8     		bhi	.L85
 1276 03e4 B0F5216F 		cmp	r0, #2576
 1277 03e8 3FF4ADAE 		beq	.L143
 1278 03ec B0F5256F 		cmp	r0, #2640
 1279 03f0 0CBF     		ite	eq
 1280 03f2 0420     		moveq	r0, #4
 1281              	.LVL142:
 449:Src/register_interface.c ****           break;
 1282              		.loc 1 449 18 view .LVU331
 1283 03f4 0520     		movne	r0, #5
 1284 03f6 9DE6     		b	.L58
 1285              	.LVL143:
 1286              	.L96:
 449:Src/register_interface.c ****           break;
 1287              		.loc 1 449 18 view .LVU332
 1288 03f8 41F69022 		movw	r2, #6800
 1289 03fc 9042     		cmp	r0, r2
 1290 03fe 3FF4A2AE 		beq	.L143
 1291 0402 41F65832 		movw	r2, #7000
 1292 0406 9042     		cmp	r0, r2
 1293 0408 3FF49DAE 		beq	.L143
 1294 040c 41F61012 		movw	r2, #6416
 1295 0410 9042     		cmp	r0, r2
 1296 0412 3AD1     		bne	.L173
 437:Src/register_interface.c ****           break;
 1297              		.loc 1 437 11 view .LVU333
 1298 0414 8A48     		ldr	r0, .L201+8
 1299              	.LVL144:
 437:Src/register_interface.c ****           break;
 1300              		.loc 1 437 11 view .LVU334
 1301 0416 0193     		str	r3, [sp, #4]
 437:Src/register_interface.c ****           break;
 1302              		.loc 1 437 11 is_stmt 1 view .LVU335
 1303 0418 2146     		mov	r1, r4
 1304 041a FFF7FEFF 		bl	PID_SetKPDivisorPOW2
 1305              	.LVL145:
 438:Src/register_interface.c ****         }
 1306              		.loc 1 438 11 view .LVU336
 1307              	.LBE127:
 168:Src/register_interface.c ****   uint8_t motorID=0;
 1308              		.loc 1 168 11 is_stmt 0 view .LVU337
 1309 041e 0020     		movs	r0, #0
 1310              	.LBB128:
 438:Src/register_interface.c ****         }
ARM GAS  /tmp/ccAfo4nU.s 			page 53


 1311              		.loc 1 438 11 view .LVU338
 1312 0420 019B     		ldr	r3, [sp, #4]
 1313 0422 87E6     		b	.L58
 1314              	.LVL146:
 1315              	.L194:
 438:Src/register_interface.c ****         }
 1316              		.loc 1 438 11 view .LVU339
 1317 0424 41F29052 		movw	r2, #5520
 1318 0428 9042     		cmp	r0, r2
 1319 042a 2ED1     		bne	.L173
 407:Src/register_interface.c ****           break;
 1320              		.loc 1 407 11 view .LVU340
 1321 042c 8548     		ldr	r0, .L201+12
 1322              	.LVL147:
 407:Src/register_interface.c ****           break;
 1323              		.loc 1 407 11 view .LVU341
 1324 042e 0193     		str	r3, [sp, #4]
 407:Src/register_interface.c ****           break;
 1325              		.loc 1 407 11 is_stmt 1 view .LVU342
 1326 0430 2146     		mov	r1, r4
 1327 0432 FFF7FEFF 		bl	PID_SetKDDivisorPOW2
 1328              	.LVL148:
 408:Src/register_interface.c ****         }
 1329              		.loc 1 408 11 view .LVU343
 1330              	.LBE128:
 168:Src/register_interface.c ****   uint8_t motorID=0;
 1331              		.loc 1 168 11 is_stmt 0 view .LVU344
 1332 0436 0020     		movs	r0, #0
 1333              	.LBB129:
 408:Src/register_interface.c ****         }
 1334              		.loc 1 408 11 view .LVU345
 1335 0438 019B     		ldr	r3, [sp, #4]
 1336 043a 7BE6     		b	.L58
 1337              	.LVL149:
 1338              	.L85:
 408:Src/register_interface.c ****         }
 1339              		.loc 1 408 11 view .LVU346
 1340 043c B0F5356F 		cmp	r0, #2896
 1341 0440 3FF481AE 		beq	.L143
 449:Src/register_interface.c ****           break;
 1342              		.loc 1 449 18 view .LVU347
 1343 0444 B0F5396F 		cmp	r0, #2960
 1344 0448 0CBF     		ite	eq
 1345 044a 0420     		moveq	r0, #4
 1346              	.LVL150:
 449:Src/register_interface.c ****           break;
 1347              		.loc 1 449 18 view .LVU348
 1348 044c 0520     		movne	r0, #5
 1349 044e 71E6     		b	.L58
 1350              	.LVL151:
 1351              	.L178:
 449:Src/register_interface.c ****           break;
 1352              		.loc 1 449 18 view .LVU349
 1353              	.LBE129:
 1354              	.LBB130:
 1355 0450 6828     		cmp	r0, #104
 1356 0452 3FF44DAE 		beq	.L174
ARM GAS  /tmp/ccAfo4nU.s 			page 54


 1357 0456 13D9     		bls	.L196
 1358 0458 A828     		cmp	r0, #168
 1359 045a 3FF449AE 		beq	.L174
 597:Src/register_interface.c ****             break;
 1360              		.loc 1 597 20 view .LVU350
 1361 045e E828     		cmp	r0, #232
 1362 0460 0CBF     		ite	eq
 1363 0462 0420     		moveq	r0, #4
 1364              	.LVL152:
 597:Src/register_interface.c ****             break;
 1365              		.loc 1 597 20 view .LVU351
 1366 0464 0520     		movne	r0, #5
 1367              	.LBE130:
 613:Src/register_interface.c **** 
 1368              		.loc 1 613 1 view .LVU352
 1369 0466 04B0     		add	sp, sp, #16
 1370              	.LCFI29:
 1371              		.cfi_remember_state
 1372              		.cfi_def_cfa_offset 16
 1373              		@ sp needed
 1374 0468 70BD     		pop	{r4, r5, r6, pc}
 1375              	.LVL153:
 1376              	.L179:
 1377              	.LCFI30:
 1378              		.cfi_restore_state
 1379              	.LBB131:
 613:Src/register_interface.c **** 
 1380              		.loc 1 613 1 view .LVU353
 1381 046a B0F5F47F 		cmp	r0, #488
 1382 046e 3AD1     		bne	.L175
 1383              	.LBB64:
 546:Src/register_interface.c ****             uint16_t duration;
 1384              		.loc 1 546 13 is_stmt 1 view .LVU354
 547:Src/register_interface.c **** 
 1385              		.loc 1 547 13 view .LVU355
 549:Src/register_interface.c ****             duration = *(uint16_t *)&rawData[4]; //cstat !MISRAC2012-Rule-11.3
 1386              		.loc 1 549 13 view .LVU356
 1387              	.LVL154:
 550:Src/register_interface.c ****             MCI_ExecTorqueRamp(pMCIN, (int16_t)torque, duration);
 1388              		.loc 1 550 13 view .LVU357
 551:Src/register_interface.c ****             break;
 1389              		.loc 1 551 13 view .LVU358
 1390 0470 7548     		ldr	r0, .L201+16
 1391              	.LVL155:
 551:Src/register_interface.c ****             break;
 1392              		.loc 1 551 13 is_stmt 0 view .LVU359
 1393 0472 E288     		ldrh	r2, [r4, #6]
 1394 0474 B4F90210 		ldrsh	r1, [r4, #2]
 1395              	.LVL156:
 551:Src/register_interface.c ****             break;
 1396              		.loc 1 551 13 view .LVU360
 1397 0478 FFF7FEFF 		bl	MCI_ExecTorqueRamp
 1398              	.LVL157:
 552:Src/register_interface.c ****           }
 1399              		.loc 1 552 13 is_stmt 1 view .LVU361
 1400              	.LBE64:
 1401              	.LBE131:
ARM GAS  /tmp/ccAfo4nU.s 			page 55


 168:Src/register_interface.c ****   uint8_t motorID=0;
 1402              		.loc 1 168 11 is_stmt 0 view .LVU362
 1403 047c 0020     		movs	r0, #0
 1404              	.LBB132:
 1405              	.LBB65:
 552:Src/register_interface.c ****           }
 1406              		.loc 1 552 13 view .LVU363
 1407 047e FCE5     		b	.L170
 1408              	.LVL158:
 1409              	.L196:
 552:Src/register_interface.c ****           }
 1410              		.loc 1 552 13 view .LVU364
 1411              	.LBE65:
 597:Src/register_interface.c ****             break;
 1412              		.loc 1 597 20 view .LVU365
 1413 0480 2828     		cmp	r0, #40
 1414 0482 0CBF     		ite	eq
 1415 0484 0420     		moveq	r0, #4
 1416              	.LVL159:
 597:Src/register_interface.c ****             break;
 1417              		.loc 1 597 20 view .LVU366
 1418 0486 0520     		movne	r0, #5
 1419 0488 F7E5     		b	.L170
 1420              	.LVL160:
 1421              	.L173:
 597:Src/register_interface.c ****             break;
 1422              		.loc 1 597 20 view .LVU367
 1423              	.LBE132:
 1424              	.LBB133:
 449:Src/register_interface.c ****           break;
 1425              		.loc 1 449 18 view .LVU368
 1426 048a 0520     		movs	r0, #5
 1427              	.LVL161:
 449:Src/register_interface.c ****           break;
 1428              		.loc 1 449 18 view .LVU369
 1429 048c 52E6     		b	.L58
 1430              	.LVL162:
 1431              	.L146:
 449:Src/register_interface.c ****           break;
 1432              		.loc 1 449 18 view .LVU370
 1433              	.LBE133:
 1434              	.LBB134:
 466:Src/register_interface.c ****           break;
 1435              		.loc 1 466 18 view .LVU371
 1436 048e 0420     		movs	r0, #4
 1437              	.LVL163:
 466:Src/register_interface.c ****           break;
 1438              		.loc 1 466 18 view .LVU372
 1439 0490 0EE6     		b	.L102
 1440              	.LVL164:
 1441              	.L140:
 466:Src/register_interface.c ****           break;
 1442              		.loc 1 466 18 view .LVU373
 1443              	.LBE134:
 168:Src/register_interface.c ****   uint8_t motorID=0;
 1444              		.loc 1 168 11 view .LVU374
 1445 0492 0020     		movs	r0, #0
ARM GAS  /tmp/ccAfo4nU.s 			page 56


 1446              	.LVL165:
 168:Src/register_interface.c ****   uint8_t motorID=0;
 1447              		.loc 1 168 11 view .LVU375
 1448 0494 4EE6     		b	.L58
 1449              	.LVL166:
 1450              	.L177:
 1451              	.LBB135:
 517:Src/register_interface.c ****         retVal = MCP_ERROR_BAD_RAW_FORMAT; /* This error stop the parsing of the CMD buffer */
 1452              		.loc 1 517 9 is_stmt 1 view .LVU376
 517:Src/register_interface.c ****         retVal = MCP_ERROR_BAD_RAW_FORMAT; /* This error stop the parsing of the CMD buffer */
 1453              		.loc 1 517 15 is_stmt 0 view .LVU377
 1454 0496 0022     		movs	r2, #0
 1455 0498 1A80     		strh	r2, [r3]	@ movhi
 518:Src/register_interface.c ****       }
 1456              		.loc 1 518 9 is_stmt 1 view .LVU378
 1457              	.LVL167:
 518:Src/register_interface.c ****       }
 1458              		.loc 1 518 16 is_stmt 0 view .LVU379
 1459 049a 0A20     		movs	r0, #10
 1460              	.LVL168:
 518:Src/register_interface.c ****       }
 1461              		.loc 1 518 16 view .LVU380
 1462 049c EDE5     		b	.L170
 1463              	.LVL169:
 1464              	.L54:
 518:Src/register_interface.c ****       }
 1465              		.loc 1 518 16 view .LVU381
 1466              	.LBE135:
 1467              	.LBB136:
 185:Src/register_interface.c **** 
 1468              		.loc 1 185 11 is_stmt 1 view .LVU382
 185:Src/register_interface.c **** 
 1469              		.loc 1 185 19 is_stmt 0 view .LVU383
 1470 049e 2278     		ldrb	r2, [r4]	@ zero_extendqisi2
 1471              	.LVL170:
 187:Src/register_interface.c ****           {
 1472              		.loc 1 187 11 is_stmt 1 view .LVU384
 187:Src/register_interface.c ****           {
 1473              		.loc 1 187 14 is_stmt 0 view .LVU385
 1474 04a0 042A     		cmp	r2, #4
 1475 04a2 14D0     		beq	.L197
 195:Src/register_interface.c **** 
 1476              		.loc 1 195 11 is_stmt 1 view .LVU386
 197:Src/register_interface.c ****           {
 1477              		.loc 1 197 11 view .LVU387
 197:Src/register_interface.c ****           {
 1478              		.loc 1 197 14 is_stmt 0 view .LVU388
 1479 04a4 032A     		cmp	r2, #3
 1480 04a6 00F08A80 		beq	.L198
 1481              	.LBE136:
 168:Src/register_interface.c ****   uint8_t motorID=0;
 1482              		.loc 1 168 11 view .LVU389
 1483 04aa 0020     		movs	r0, #0
 1484              	.LVL171:
 168:Src/register_interface.c ****   uint8_t motorID=0;
 1485              		.loc 1 168 11 view .LVU390
 1486 04ac F1E5     		b	.L55
ARM GAS  /tmp/ccAfo4nU.s 			page 57


 1487              	.LVL172:
 1488              	.L100:
 1489              	.LBB137:
 472:Src/register_interface.c ****           break;
 1490              		.loc 1 472 11 is_stmt 1 view .LVU391
 1491 04ae B4F90020 		ldrsh	r2, [r4]
 1492 04b2 6649     		ldr	r1, .L201+20
 1493 04b4 0193     		str	r3, [sp, #4]
 1494 04b6 81FB0231 		smull	r3, r1, r1, r2
 1495              	.LVL173:
 472:Src/register_interface.c ****           break;
 1496              		.loc 1 472 11 is_stmt 0 view .LVU392
 1497 04ba A1EBE271 		sub	r1, r1, r2, asr #31
 1498 04be 6248     		ldr	r0, .L201+16
 1499              	.LVL174:
 472:Src/register_interface.c ****           break;
 1500              		.loc 1 472 11 view .LVU393
 1501 04c0 09B2     		sxth	r1, r1
 1502 04c2 0022     		movs	r2, #0
 1503 04c4 FFF7FEFF 		bl	MCI_ExecSpeedRamp
 1504              	.LVL175:
 473:Src/register_interface.c ****         }
 1505              		.loc 1 473 11 is_stmt 1 view .LVU394
 1506              	.LBE137:
 168:Src/register_interface.c ****   uint8_t motorID=0;
 1507              		.loc 1 168 11 is_stmt 0 view .LVU395
 1508 04c8 0020     		movs	r0, #0
 1509              	.LBB138:
 473:Src/register_interface.c ****         }
 1510              		.loc 1 473 11 view .LVU396
 1511 04ca 019B     		ldr	r3, [sp, #4]
 1512 04cc F0E5     		b	.L102
 1513              	.LVL176:
 1514              	.L197:
 473:Src/register_interface.c ****         }
 1515              		.loc 1 473 11 view .LVU397
 1516              	.LBE138:
 1517              	.LBB139:
 190:Src/register_interface.c ****           }
 1518              		.loc 1 190 13 is_stmt 1 view .LVU398
 1519 04ce 5E48     		ldr	r0, .L201+16
 1520              	.LVL177:
 190:Src/register_interface.c ****           }
 1521              		.loc 1 190 13 is_stmt 0 view .LVU399
 1522 04d0 0193     		str	r3, [sp, #4]
 1523 04d2 FFF7FEFF 		bl	MCI_GetTeref
 1524              	.LVL178:
 190:Src/register_interface.c ****           }
 1525              		.loc 1 190 13 view .LVU400
 1526 04d6 0022     		movs	r2, #0
 1527 04d8 0146     		mov	r1, r0
 1528 04da 5B48     		ldr	r0, .L201+16
 1529 04dc FFF7FEFF 		bl	MCI_ExecTorqueRamp
 1530              	.LVL179:
 195:Src/register_interface.c **** 
 1531              		.loc 1 195 11 is_stmt 1 view .LVU401
 197:Src/register_interface.c ****           {
ARM GAS  /tmp/ccAfo4nU.s 			page 58


 1532              		.loc 1 197 11 view .LVU402
 1533              	.LBE139:
 168:Src/register_interface.c ****   uint8_t motorID=0;
 1534              		.loc 1 168 11 is_stmt 0 view .LVU403
 1535 04e0 0020     		movs	r0, #0
 1536 04e2 019B     		ldr	r3, [sp, #4]
 1537 04e4 D5E5     		b	.L55
 1538              	.LVL180:
 1539              	.L175:
 1540              	.LBB140:
 597:Src/register_interface.c ****             break;
 1541              		.loc 1 597 20 view .LVU404
 1542 04e6 0520     		movs	r0, #5
 1543              	.LVL181:
 597:Src/register_interface.c ****             break;
 1544              		.loc 1 597 20 view .LVU405
 1545 04e8 C7E5     		b	.L170
 1546              	.LVL182:
 1547              	.L118:
 597:Src/register_interface.c ****             break;
 1548              		.loc 1 597 20 view .LVU406
 1549              	.LBE140:
 180:Src/register_interface.c ****             break;
 1550              		.loc 1 180 20 view .LVU407
 1551 04ea 0420     		movs	r0, #4
 1552              	.LVL183:
 180:Src/register_interface.c ****             break;
 1553              		.loc 1 180 20 view .LVU408
 1554 04ec D1E5     		b	.L55
 1555              	.LVL184:
 1556              	.L114:
 1557              	.LBB141:
 1558              	.LBB66:
 582:Src/register_interface.c ****             currComp.q = *((int16_t *) rawData); //cstat !MISRAC2012-Rule-11.3
 1559              		.loc 1 582 13 is_stmt 1 view .LVU409
 583:Src/register_interface.c ****             currComp.d = *((int16_t *) &rawData[2]); //cstat !MISRAC2012-Rule-11.3
 1560              		.loc 1 583 13 view .LVU410
 584:Src/register_interface.c ****             MCI_SetCurrentReferences(pMCIN, currComp);
 1561              		.loc 1 584 13 view .LVU411
 583:Src/register_interface.c ****             currComp.d = *((int16_t *) &rawData[2]); //cstat !MISRAC2012-Rule-11.3
 1562              		.loc 1 583 26 is_stmt 0 view .LVU412
 1563 04ee D4F80210 		ldr	r1, [r4, #2]	@ unaligned
 1564              	.LVL185:
 585:Src/register_interface.c ****             break;
 1565              		.loc 1 585 13 view .LVU413
 1566 04f2 5548     		ldr	r0, .L201+16
 1567              	.LVL186:
 583:Src/register_interface.c ****             currComp.d = *((int16_t *) &rawData[2]); //cstat !MISRAC2012-Rule-11.3
 1568              		.loc 1 583 24 view .LVU414
 1569 04f4 0391     		str	r1, [sp, #12]
 585:Src/register_interface.c ****             break;
 1570              		.loc 1 585 13 is_stmt 1 view .LVU415
 1571 04f6 FFF7FEFF 		bl	MCI_SetCurrentReferences
 1572              	.LVL187:
 1573              	.L176:
 586:Src/register_interface.c ****           }
 1574              		.loc 1 586 13 view .LVU416
ARM GAS  /tmp/ccAfo4nU.s 			page 59


 1575              	.LBE66:
 1576              	.LBE141:
 168:Src/register_interface.c ****   uint8_t motorID=0;
 1577              		.loc 1 168 11 is_stmt 0 view .LVU417
 1578 04fa 0020     		movs	r0, #0
 1579 04fc BDE5     		b	.L170
 1580              	.LVL188:
 1581              	.L111:
 1582              	.LBB142:
 1583              	.LBB67:
 557:Src/register_interface.c ****             RevUpCtrl_PhaseParams_t revUpPhase;
 1584              		.loc 1 557 13 is_stmt 1 view .LVU418
 558:Src/register_interface.c ****             uint8_t i;
 1585              		.loc 1 558 13 view .LVU419
 559:Src/register_interface.c ****             uint8_t nbrOfPhase = (((uint8_t)rawSize) / 8U);
 1586              		.loc 1 559 13 view .LVU420
 560:Src/register_interface.c **** 
 1587              		.loc 1 560 13 view .LVU421
 562:Src/register_interface.c ****             {
 1588              		.loc 1 562 13 view .LVU422
 562:Src/register_interface.c ****             {
 1589              		.loc 1 562 16 is_stmt 0 view .LVU423
 1590 04fe 6B07     		lsls	r3, r5, #29
 1591              	.LVL189:
 562:Src/register_interface.c ****             {
 1592              		.loc 1 562 16 view .LVU424
 1593 0500 5BD1     		bne	.L153
 560:Src/register_interface.c **** 
 1594              		.loc 1 560 36 discriminator 1 view .LVU425
 1595 0502 EDB2     		uxtb	r5, r5
 1596              	.LVL190:
 562:Src/register_interface.c ****             {
 1597              		.loc 1 562 44 discriminator 1 view .LVU426
 1598 0504 2F2D     		cmp	r5, #47
 1599 0506 58D8     		bhi	.L153
 1600              	.LVL191:
 568:Src/register_interface.c ****               {
 1601              		.loc 1 568 15 view .LVU427
 1602 0508 ED08     		lsrs	r5, r5, #3
 1603              	.LVL192:
 568:Src/register_interface.c ****               {
 1604              		.loc 1 568 15 view .LVU428
 1605 050a F6D0     		beq	.L176
 570:Src/register_interface.c ****               revUpPhase.hFinalMecSpeedUnit = (((int16_t)rpm) * ((int16_t)SPEED_UNIT)) / ((int16_t)
 1606              		.loc 1 570 15 is_stmt 1 view .LVU429
 1607              	.LVL193:
 571:Src/register_interface.c ****               revUpPhase.hFinalTorque = *((int16_t *) &rawData[4U + (i * 8U)]); //cstat !MISRAC2012
 1608              		.loc 1 571 15 view .LVU430
 571:Src/register_interface.c ****               revUpPhase.hFinalTorque = *((int16_t *) &rawData[4U + (i * 8U)]); //cstat !MISRAC2012
 1609              		.loc 1 571 88 is_stmt 0 view .LVU431
 1610 050c B4F90200 		ldrsh	r0, [r4, #2]
 1611              	.LVL194:
 1612              	.LBB68:
 1613              	.LBB69:
 1614              		.file 2 "MCSDK_v6.3.0-Full/MotorControl/MCSDK/MCLib/Any/Inc/revup_ctrl.h"
   1:MCSDK_v6.3.0-Full/MotorControl/MCSDK/MCLib/Any/Inc/revup_ctrl.h **** /**
   2:MCSDK_v6.3.0-Full/MotorControl/MCSDK/MCLib/Any/Inc/revup_ctrl.h ****   ******************************************************************************
ARM GAS  /tmp/ccAfo4nU.s 			page 60


   3:MCSDK_v6.3.0-Full/MotorControl/MCSDK/MCLib/Any/Inc/revup_ctrl.h ****   * @file    revup_ctrl.h
   4:MCSDK_v6.3.0-Full/MotorControl/MCSDK/MCLib/Any/Inc/revup_ctrl.h ****   * @author  Motor Control SDK Team, ST Microelectronics
   5:MCSDK_v6.3.0-Full/MotorControl/MCSDK/MCLib/Any/Inc/revup_ctrl.h ****   * @brief   This file contains all definitions and functions prototypes for the
   6:MCSDK_v6.3.0-Full/MotorControl/MCSDK/MCLib/Any/Inc/revup_ctrl.h ****   *          RevUpCtrl component of the Motor Control SDK.
   7:MCSDK_v6.3.0-Full/MotorControl/MCSDK/MCLib/Any/Inc/revup_ctrl.h ****   ******************************************************************************
   8:MCSDK_v6.3.0-Full/MotorControl/MCSDK/MCLib/Any/Inc/revup_ctrl.h ****   * @attention
   9:MCSDK_v6.3.0-Full/MotorControl/MCSDK/MCLib/Any/Inc/revup_ctrl.h ****   *
  10:MCSDK_v6.3.0-Full/MotorControl/MCSDK/MCLib/Any/Inc/revup_ctrl.h ****   * <h2><center>&copy; Copyright (c) 2024 STMicroelectronics.
  11:MCSDK_v6.3.0-Full/MotorControl/MCSDK/MCLib/Any/Inc/revup_ctrl.h ****   * All rights reserved.</center></h2>
  12:MCSDK_v6.3.0-Full/MotorControl/MCSDK/MCLib/Any/Inc/revup_ctrl.h ****   *
  13:MCSDK_v6.3.0-Full/MotorControl/MCSDK/MCLib/Any/Inc/revup_ctrl.h ****   * This software component is licensed by ST under Ultimate Liberty license
  14:MCSDK_v6.3.0-Full/MotorControl/MCSDK/MCLib/Any/Inc/revup_ctrl.h ****   * SLA0044, the "License"; You may not use this file except in compliance with
  15:MCSDK_v6.3.0-Full/MotorControl/MCSDK/MCLib/Any/Inc/revup_ctrl.h ****   * the License. You may obtain a copy of the License at:
  16:MCSDK_v6.3.0-Full/MotorControl/MCSDK/MCLib/Any/Inc/revup_ctrl.h ****   *                             www.st.com/SLA0044
  17:MCSDK_v6.3.0-Full/MotorControl/MCSDK/MCLib/Any/Inc/revup_ctrl.h ****   *
  18:MCSDK_v6.3.0-Full/MotorControl/MCSDK/MCLib/Any/Inc/revup_ctrl.h ****   ******************************************************************************
  19:MCSDK_v6.3.0-Full/MotorControl/MCSDK/MCLib/Any/Inc/revup_ctrl.h ****   * @ingroup RevUpCtrlFOC
  20:MCSDK_v6.3.0-Full/MotorControl/MCSDK/MCLib/Any/Inc/revup_ctrl.h ****   */
  21:MCSDK_v6.3.0-Full/MotorControl/MCSDK/MCLib/Any/Inc/revup_ctrl.h **** 
  22:MCSDK_v6.3.0-Full/MotorControl/MCSDK/MCLib/Any/Inc/revup_ctrl.h **** /* Define to prevent recursive inclusion -------------------------------------*/
  23:MCSDK_v6.3.0-Full/MotorControl/MCSDK/MCLib/Any/Inc/revup_ctrl.h **** #ifndef REVUP_CTRL_H
  24:MCSDK_v6.3.0-Full/MotorControl/MCSDK/MCLib/Any/Inc/revup_ctrl.h **** #define REVUP_CTRL_H
  25:MCSDK_v6.3.0-Full/MotorControl/MCSDK/MCLib/Any/Inc/revup_ctrl.h **** 
  26:MCSDK_v6.3.0-Full/MotorControl/MCSDK/MCLib/Any/Inc/revup_ctrl.h **** #ifdef __cplusplus
  27:MCSDK_v6.3.0-Full/MotorControl/MCSDK/MCLib/Any/Inc/revup_ctrl.h **** extern "C" {
  28:MCSDK_v6.3.0-Full/MotorControl/MCSDK/MCLib/Any/Inc/revup_ctrl.h **** #endif /* __cplusplus */
  29:MCSDK_v6.3.0-Full/MotorControl/MCSDK/MCLib/Any/Inc/revup_ctrl.h **** 
  30:MCSDK_v6.3.0-Full/MotorControl/MCSDK/MCLib/Any/Inc/revup_ctrl.h **** /* Includes ------------------------------------------------------------------*/
  31:MCSDK_v6.3.0-Full/MotorControl/MCSDK/MCLib/Any/Inc/revup_ctrl.h **** #include "mc_type.h"
  32:MCSDK_v6.3.0-Full/MotorControl/MCSDK/MCLib/Any/Inc/revup_ctrl.h **** #include "speed_torq_ctrl.h"
  33:MCSDK_v6.3.0-Full/MotorControl/MCSDK/MCLib/Any/Inc/revup_ctrl.h **** #include "virtual_speed_sensor.h"
  34:MCSDK_v6.3.0-Full/MotorControl/MCSDK/MCLib/Any/Inc/revup_ctrl.h **** #include "sto_speed_pos_fdbk.h"
  35:MCSDK_v6.3.0-Full/MotorControl/MCSDK/MCLib/Any/Inc/revup_ctrl.h **** #include "pwm_curr_fdbk.h"
  36:MCSDK_v6.3.0-Full/MotorControl/MCSDK/MCLib/Any/Inc/revup_ctrl.h **** 
  37:MCSDK_v6.3.0-Full/MotorControl/MCSDK/MCLib/Any/Inc/revup_ctrl.h **** /** @addtogroup MCSDK
  38:MCSDK_v6.3.0-Full/MotorControl/MCSDK/MCLib/Any/Inc/revup_ctrl.h ****   * @{
  39:MCSDK_v6.3.0-Full/MotorControl/MCSDK/MCLib/Any/Inc/revup_ctrl.h ****   */
  40:MCSDK_v6.3.0-Full/MotorControl/MCSDK/MCLib/Any/Inc/revup_ctrl.h **** 
  41:MCSDK_v6.3.0-Full/MotorControl/MCSDK/MCLib/Any/Inc/revup_ctrl.h **** /** @addtogroup RevUpCtrl
  42:MCSDK_v6.3.0-Full/MotorControl/MCSDK/MCLib/Any/Inc/revup_ctrl.h ****   * @{
  43:MCSDK_v6.3.0-Full/MotorControl/MCSDK/MCLib/Any/Inc/revup_ctrl.h ****   */
  44:MCSDK_v6.3.0-Full/MotorControl/MCSDK/MCLib/Any/Inc/revup_ctrl.h **** 
  45:MCSDK_v6.3.0-Full/MotorControl/MCSDK/MCLib/Any/Inc/revup_ctrl.h **** /** @addtogroup RevUpCtrlFOC
  46:MCSDK_v6.3.0-Full/MotorControl/MCSDK/MCLib/Any/Inc/revup_ctrl.h ****   * @{
  47:MCSDK_v6.3.0-Full/MotorControl/MCSDK/MCLib/Any/Inc/revup_ctrl.h ****   */
  48:MCSDK_v6.3.0-Full/MotorControl/MCSDK/MCLib/Any/Inc/revup_ctrl.h **** 
  49:MCSDK_v6.3.0-Full/MotorControl/MCSDK/MCLib/Any/Inc/revup_ctrl.h **** /* Exported constants --------------------------------------------------------*/
  50:MCSDK_v6.3.0-Full/MotorControl/MCSDK/MCLib/Any/Inc/revup_ctrl.h **** /**
  51:MCSDK_v6.3.0-Full/MotorControl/MCSDK/MCLib/Any/Inc/revup_ctrl.h ****   * @brief Maximum number of phases allowed for RevUp process.
  52:MCSDK_v6.3.0-Full/MotorControl/MCSDK/MCLib/Any/Inc/revup_ctrl.h ****   *
  53:MCSDK_v6.3.0-Full/MotorControl/MCSDK/MCLib/Any/Inc/revup_ctrl.h ****   */
  54:MCSDK_v6.3.0-Full/MotorControl/MCSDK/MCLib/Any/Inc/revup_ctrl.h **** #define RUC_MAX_PHASE_NUMBER 5u
  55:MCSDK_v6.3.0-Full/MotorControl/MCSDK/MCLib/Any/Inc/revup_ctrl.h **** 
  56:MCSDK_v6.3.0-Full/MotorControl/MCSDK/MCLib/Any/Inc/revup_ctrl.h **** /**
  57:MCSDK_v6.3.0-Full/MotorControl/MCSDK/MCLib/Any/Inc/revup_ctrl.h ****   * @brief RevUpCtrl_PhaseParams_t structure used for phases definition
  58:MCSDK_v6.3.0-Full/MotorControl/MCSDK/MCLib/Any/Inc/revup_ctrl.h ****   *
  59:MCSDK_v6.3.0-Full/MotorControl/MCSDK/MCLib/Any/Inc/revup_ctrl.h ****   */
ARM GAS  /tmp/ccAfo4nU.s 			page 61


  60:MCSDK_v6.3.0-Full/MotorControl/MCSDK/MCLib/Any/Inc/revup_ctrl.h **** typedef struct
  61:MCSDK_v6.3.0-Full/MotorControl/MCSDK/MCLib/Any/Inc/revup_ctrl.h **** {
  62:MCSDK_v6.3.0-Full/MotorControl/MCSDK/MCLib/Any/Inc/revup_ctrl.h ****   uint16_t hDurationms;       /**< @brief Duration of the RevUp phase. This parameter is expressed 
  63:MCSDK_v6.3.0-Full/MotorControl/MCSDK/MCLib/Any/Inc/revup_ctrl.h ****   int16_t hFinalMecSpeedUnit; /**< @brief Mechanical speed assumed by VSS at the end of the RevUp p
  64:MCSDK_v6.3.0-Full/MotorControl/MCSDK/MCLib/Any/Inc/revup_ctrl.h ****                                    the unit defined by #SPEED_UNIT */
  65:MCSDK_v6.3.0-Full/MotorControl/MCSDK/MCLib/Any/Inc/revup_ctrl.h ****   int16_t hFinalTorque;       /**< @brief Motor torque reference imposed by STC at the end of RevUp
  66:MCSDK_v6.3.0-Full/MotorControl/MCSDK/MCLib/Any/Inc/revup_ctrl.h ****                                    represents actually the Iq current expressed in digit.*/
  67:MCSDK_v6.3.0-Full/MotorControl/MCSDK/MCLib/Any/Inc/revup_ctrl.h ****   void *pNext;                /**< @brief Pointer on the next phase section to proceed
  68:MCSDK_v6.3.0-Full/MotorControl/MCSDK/MCLib/Any/Inc/revup_ctrl.h ****                                    This parameter is NULL for the last element. */
  69:MCSDK_v6.3.0-Full/MotorControl/MCSDK/MCLib/Any/Inc/revup_ctrl.h **** } RevUpCtrl_PhaseParams_t;
  70:MCSDK_v6.3.0-Full/MotorControl/MCSDK/MCLib/Any/Inc/revup_ctrl.h **** 
  71:MCSDK_v6.3.0-Full/MotorControl/MCSDK/MCLib/Any/Inc/revup_ctrl.h **** /**
  72:MCSDK_v6.3.0-Full/MotorControl/MCSDK/MCLib/Any/Inc/revup_ctrl.h ****   * @brief  Handle structure of the RevUpCtrl.
  73:MCSDK_v6.3.0-Full/MotorControl/MCSDK/MCLib/Any/Inc/revup_ctrl.h ****   *
  74:MCSDK_v6.3.0-Full/MotorControl/MCSDK/MCLib/Any/Inc/revup_ctrl.h ****   */
  75:MCSDK_v6.3.0-Full/MotorControl/MCSDK/MCLib/Any/Inc/revup_ctrl.h **** 
  76:MCSDK_v6.3.0-Full/MotorControl/MCSDK/MCLib/Any/Inc/revup_ctrl.h **** typedef struct
  77:MCSDK_v6.3.0-Full/MotorControl/MCSDK/MCLib/Any/Inc/revup_ctrl.h **** {
  78:MCSDK_v6.3.0-Full/MotorControl/MCSDK/MCLib/Any/Inc/revup_ctrl.h ****   uint16_t hRUCFrequencyHz;                                 /**< @brief Frequency call to main RevU
  79:MCSDK_v6.3.0-Full/MotorControl/MCSDK/MCLib/Any/Inc/revup_ctrl.h ****                                                                  This parameter is equal to speed l
  80:MCSDK_v6.3.0-Full/MotorControl/MCSDK/MCLib/Any/Inc/revup_ctrl.h **** 
  81:MCSDK_v6.3.0-Full/MotorControl/MCSDK/MCLib/Any/Inc/revup_ctrl.h ****   int16_t hStartingMecAngle;                                /**< @brief Starting angle of programme
  82:MCSDK_v6.3.0-Full/MotorControl/MCSDK/MCLib/Any/Inc/revup_ctrl.h **** 
  83:MCSDK_v6.3.0-Full/MotorControl/MCSDK/MCLib/Any/Inc/revup_ctrl.h ****   uint16_t hPhaseRemainingTicks;                            /**< @brief Number of clock events rema
  84:MCSDK_v6.3.0-Full/MotorControl/MCSDK/MCLib/Any/Inc/revup_ctrl.h ****                                                                  phase. */
  85:MCSDK_v6.3.0-Full/MotorControl/MCSDK/MCLib/Any/Inc/revup_ctrl.h **** 
  86:MCSDK_v6.3.0-Full/MotorControl/MCSDK/MCLib/Any/Inc/revup_ctrl.h ****   int16_t hDirection;                                       /**< @brief Motor direction.
  87:MCSDK_v6.3.0-Full/MotorControl/MCSDK/MCLib/Any/Inc/revup_ctrl.h ****                                                                  This parameter can be any value -1
  88:MCSDK_v6.3.0-Full/MotorControl/MCSDK/MCLib/Any/Inc/revup_ctrl.h **** 
  89:MCSDK_v6.3.0-Full/MotorControl/MCSDK/MCLib/Any/Inc/revup_ctrl.h ****   RevUpCtrl_PhaseParams_t *pCurrentPhaseParams;             /**< @brief Pointer on the current RevU
  90:MCSDK_v6.3.0-Full/MotorControl/MCSDK/MCLib/Any/Inc/revup_ctrl.h **** 
  91:MCSDK_v6.3.0-Full/MotorControl/MCSDK/MCLib/Any/Inc/revup_ctrl.h ****   RevUpCtrl_PhaseParams_t ParamsData[RUC_MAX_PHASE_NUMBER]; /**< @brief Start up Phases sequences u
  92:MCSDK_v6.3.0-Full/MotorControl/MCSDK/MCLib/Any/Inc/revup_ctrl.h ****                                                                  controller. Up to five phases can 
  93:MCSDK_v6.3.0-Full/MotorControl/MCSDK/MCLib/Any/Inc/revup_ctrl.h ****                                                                   up. */
  94:MCSDK_v6.3.0-Full/MotorControl/MCSDK/MCLib/Any/Inc/revup_ctrl.h **** 
  95:MCSDK_v6.3.0-Full/MotorControl/MCSDK/MCLib/Any/Inc/revup_ctrl.h ****   uint8_t bPhaseNbr;                                        /**< @brief Number of phases relative t
  96:MCSDK_v6.3.0-Full/MotorControl/MCSDK/MCLib/Any/Inc/revup_ctrl.h ****                                                                  RevUp sequence. This parameter can
  97:MCSDK_v6.3.0-Full/MotorControl/MCSDK/MCLib/Any/Inc/revup_ctrl.h ****                                                                  to 5 */
  98:MCSDK_v6.3.0-Full/MotorControl/MCSDK/MCLib/Any/Inc/revup_ctrl.h **** 
  99:MCSDK_v6.3.0-Full/MotorControl/MCSDK/MCLib/Any/Inc/revup_ctrl.h ****   uint8_t bFirstAccelerationStage;                          /**< @brief Indicates the phase to star
 100:MCSDK_v6.3.0-Full/MotorControl/MCSDK/MCLib/Any/Inc/revup_ctrl.h ****                                                                  acceleration.
 101:MCSDK_v6.3.0-Full/MotorControl/MCSDK/MCLib/Any/Inc/revup_ctrl.h ****                                                                  At start of this stage sensor-less
 102:MCSDK_v6.3.0-Full/MotorControl/MCSDK/MCLib/Any/Inc/revup_ctrl.h ****   uint16_t hMinStartUpValidSpeed;                           /**< @brief Minimum rotor speed require
 103:MCSDK_v6.3.0-Full/MotorControl/MCSDK/MCLib/Any/Inc/revup_ctrl.h ****                                                                  startup.
 104:MCSDK_v6.3.0-Full/MotorControl/MCSDK/MCLib/Any/Inc/revup_ctrl.h ****                                                                  This parameter is expressed in SPP
 105:MCSDK_v6.3.0-Full/MotorControl/MCSDK/MCLib/Any/Inc/revup_ctrl.h ****   uint16_t hMinStartUpFlySpeed;                             /**< @brief Minimum rotor speed require
 106:MCSDK_v6.3.0-Full/MotorControl/MCSDK/MCLib/Any/Inc/revup_ctrl.h ****                                                                  the fly. This parameter is express
 107:MCSDK_v6.3.0-Full/MotorControl/MCSDK/MCLib/Any/Inc/revup_ctrl.h ****                                                                  defined by #SPEED_UNIT */
 108:MCSDK_v6.3.0-Full/MotorControl/MCSDK/MCLib/Any/Inc/revup_ctrl.h ****   int16_t hOTFFinalRevUpCurrent;                            /**< @brief Final targetted torque for 
 109:MCSDK_v6.3.0-Full/MotorControl/MCSDK/MCLib/Any/Inc/revup_ctrl.h **** 
 110:MCSDK_v6.3.0-Full/MotorControl/MCSDK/MCLib/Any/Inc/revup_ctrl.h ****   uint16_t hOTFSection1Duration;                            /**< @brief On-the-fly phase duration, 
 111:MCSDK_v6.3.0-Full/MotorControl/MCSDK/MCLib/Any/Inc/revup_ctrl.h ****                                                                  This parameter is expressed in mil
 112:MCSDK_v6.3.0-Full/MotorControl/MCSDK/MCLib/Any/Inc/revup_ctrl.h ****   bool OTFStartupEnabled;                                   /**< @brief Flag for OTF feature activa
 113:MCSDK_v6.3.0-Full/MotorControl/MCSDK/MCLib/Any/Inc/revup_ctrl.h ****                                                                  Feature disabled when set to false
 114:MCSDK_v6.3.0-Full/MotorControl/MCSDK/MCLib/Any/Inc/revup_ctrl.h ****   uint8_t bOTFRelCounter;                                   /**< @brief Counts the number of reliab
 115:MCSDK_v6.3.0-Full/MotorControl/MCSDK/MCLib/Any/Inc/revup_ctrl.h ****                                                                  observer */
 116:MCSDK_v6.3.0-Full/MotorControl/MCSDK/MCLib/Any/Inc/revup_ctrl.h **** 
ARM GAS  /tmp/ccAfo4nU.s 			page 62


 117:MCSDK_v6.3.0-Full/MotorControl/MCSDK/MCLib/Any/Inc/revup_ctrl.h ****   bool OTFSCLowside;                                        /**< @brief Flag to indicate status of 
 118:MCSDK_v6.3.0-Full/MotorControl/MCSDK/MCLib/Any/Inc/revup_ctrl.h ****                                                                  This parameter can be true when Lo
 119:MCSDK_v6.3.0-Full/MotorControl/MCSDK/MCLib/Any/Inc/revup_ctrl.h ****                                                                  otherwise set to false. */
 120:MCSDK_v6.3.0-Full/MotorControl/MCSDK/MCLib/Any/Inc/revup_ctrl.h ****   bool EnteredZone1;                                        /**< @brief Flag to indicate that the m
 121:MCSDK_v6.3.0-Full/MotorControl/MCSDK/MCLib/Any/Inc/revup_ctrl.h ****                                                                  has been reached. */
 122:MCSDK_v6.3.0-Full/MotorControl/MCSDK/MCLib/Any/Inc/revup_ctrl.h **** 
 123:MCSDK_v6.3.0-Full/MotorControl/MCSDK/MCLib/Any/Inc/revup_ctrl.h ****   uint8_t bResetPLLTh;                                      /**< @brief Threshold to reset PLL duri
 124:MCSDK_v6.3.0-Full/MotorControl/MCSDK/MCLib/Any/Inc/revup_ctrl.h **** 
 125:MCSDK_v6.3.0-Full/MotorControl/MCSDK/MCLib/Any/Inc/revup_ctrl.h ****   uint8_t bResetPLLCnt;                                     /**< @brief Counter to reset PLL during
 126:MCSDK_v6.3.0-Full/MotorControl/MCSDK/MCLib/Any/Inc/revup_ctrl.h ****                                                                  threshold is reached. */
 127:MCSDK_v6.3.0-Full/MotorControl/MCSDK/MCLib/Any/Inc/revup_ctrl.h **** 
 128:MCSDK_v6.3.0-Full/MotorControl/MCSDK/MCLib/Any/Inc/revup_ctrl.h ****   uint8_t bStageCnt;                                        /**< @brief Counter of executed phases.
 129:MCSDK_v6.3.0-Full/MotorControl/MCSDK/MCLib/Any/Inc/revup_ctrl.h ****                                                                  This parameter can be any value fr
 130:MCSDK_v6.3.0-Full/MotorControl/MCSDK/MCLib/Any/Inc/revup_ctrl.h **** 
 131:MCSDK_v6.3.0-Full/MotorControl/MCSDK/MCLib/Any/Inc/revup_ctrl.h ****   RevUpCtrl_PhaseParams_t OTFPhaseParams;                   /**< @brief RevUp phase parameter of OT
 132:MCSDK_v6.3.0-Full/MotorControl/MCSDK/MCLib/Any/Inc/revup_ctrl.h **** 
 133:MCSDK_v6.3.0-Full/MotorControl/MCSDK/MCLib/Any/Inc/revup_ctrl.h ****   SpeednTorqCtrl_Handle_t *pSTC;                            /**< @brief Speed and torque controller
 134:MCSDK_v6.3.0-Full/MotorControl/MCSDK/MCLib/Any/Inc/revup_ctrl.h ****                                                                  RevUpCtrl.*/
 135:MCSDK_v6.3.0-Full/MotorControl/MCSDK/MCLib/Any/Inc/revup_ctrl.h **** 
 136:MCSDK_v6.3.0-Full/MotorControl/MCSDK/MCLib/Any/Inc/revup_ctrl.h ****   VirtualSpeedSensor_Handle_t *pVSS;                        /**< @brief Virtual speed sensor object
 137:MCSDK_v6.3.0-Full/MotorControl/MCSDK/MCLib/Any/Inc/revup_ctrl.h **** 
 138:MCSDK_v6.3.0-Full/MotorControl/MCSDK/MCLib/Any/Inc/revup_ctrl.h ****   STO_Handle_t *pSNSL;                                      /**< @brief STO sensor object used by O
 139:MCSDK_v6.3.0-Full/MotorControl/MCSDK/MCLib/Any/Inc/revup_ctrl.h **** 
 140:MCSDK_v6.3.0-Full/MotorControl/MCSDK/MCLib/Any/Inc/revup_ctrl.h ****   PWMC_Handle_t *pPWM;                                      /**< @brief PWM object used by OTF star
 141:MCSDK_v6.3.0-Full/MotorControl/MCSDK/MCLib/Any/Inc/revup_ctrl.h **** 
 142:MCSDK_v6.3.0-Full/MotorControl/MCSDK/MCLib/Any/Inc/revup_ctrl.h **** } RevUpCtrl_Handle_t;
 143:MCSDK_v6.3.0-Full/MotorControl/MCSDK/MCLib/Any/Inc/revup_ctrl.h **** 
 144:MCSDK_v6.3.0-Full/MotorControl/MCSDK/MCLib/Any/Inc/revup_ctrl.h **** 
 145:MCSDK_v6.3.0-Full/MotorControl/MCSDK/MCLib/Any/Inc/revup_ctrl.h **** /* Exported functions ------------------------------------------------------- */
 146:MCSDK_v6.3.0-Full/MotorControl/MCSDK/MCLib/Any/Inc/revup_ctrl.h **** 
 147:MCSDK_v6.3.0-Full/MotorControl/MCSDK/MCLib/Any/Inc/revup_ctrl.h **** /*  Initializes and configures the RevUpCtrl Component */
 148:MCSDK_v6.3.0-Full/MotorControl/MCSDK/MCLib/Any/Inc/revup_ctrl.h **** void RUC_Init(RevUpCtrl_Handle_t *pHandle, SpeednTorqCtrl_Handle_t *pSTC, VirtualSpeedSensor_Handle
 149:MCSDK_v6.3.0-Full/MotorControl/MCSDK/MCLib/Any/Inc/revup_ctrl.h ****               STO_Handle_t *pSNSL, PWMC_Handle_t *pPWM);
 150:MCSDK_v6.3.0-Full/MotorControl/MCSDK/MCLib/Any/Inc/revup_ctrl.h **** 
 151:MCSDK_v6.3.0-Full/MotorControl/MCSDK/MCLib/Any/Inc/revup_ctrl.h **** /* Initializes the internal RevUp controller state */
 152:MCSDK_v6.3.0-Full/MotorControl/MCSDK/MCLib/Any/Inc/revup_ctrl.h **** void RUC_Clear(RevUpCtrl_Handle_t *pHandle, int16_t hMotorDirection);
 153:MCSDK_v6.3.0-Full/MotorControl/MCSDK/MCLib/Any/Inc/revup_ctrl.h **** 
 154:MCSDK_v6.3.0-Full/MotorControl/MCSDK/MCLib/Any/Inc/revup_ctrl.h **** /* Main Rev-Up controller procedure executing overall programmed phases */
 155:MCSDK_v6.3.0-Full/MotorControl/MCSDK/MCLib/Any/Inc/revup_ctrl.h **** bool RUC_Exec(RevUpCtrl_Handle_t *pHandle);
 156:MCSDK_v6.3.0-Full/MotorControl/MCSDK/MCLib/Any/Inc/revup_ctrl.h **** 
 157:MCSDK_v6.3.0-Full/MotorControl/MCSDK/MCLib/Any/Inc/revup_ctrl.h **** /* Main Rev-Up controller procedure that executes overall programmed phases and on-the-fly startup 
 158:MCSDK_v6.3.0-Full/MotorControl/MCSDK/MCLib/Any/Inc/revup_ctrl.h **** bool RUC_OTF_Exec(RevUpCtrl_Handle_t *pHandle);
 159:MCSDK_v6.3.0-Full/MotorControl/MCSDK/MCLib/Any/Inc/revup_ctrl.h **** 
 160:MCSDK_v6.3.0-Full/MotorControl/MCSDK/MCLib/Any/Inc/revup_ctrl.h **** /* Checks that alignment and first acceleration stage are completed */
 161:MCSDK_v6.3.0-Full/MotorControl/MCSDK/MCLib/Any/Inc/revup_ctrl.h **** bool RUC_FirstAccelerationStageReached(RevUpCtrl_Handle_t *pHandle);
 162:MCSDK_v6.3.0-Full/MotorControl/MCSDK/MCLib/Any/Inc/revup_ctrl.h **** 
 163:MCSDK_v6.3.0-Full/MotorControl/MCSDK/MCLib/Any/Inc/revup_ctrl.h **** /* Allows to modify duration (ms unit) of a selected phase */
 164:MCSDK_v6.3.0-Full/MotorControl/MCSDK/MCLib/Any/Inc/revup_ctrl.h **** void RUC_SetPhaseDurationms(RevUpCtrl_Handle_t *pHandle, uint8_t bPhase, uint16_t hDurationms);
 165:MCSDK_v6.3.0-Full/MotorControl/MCSDK/MCLib/Any/Inc/revup_ctrl.h **** 
 166:MCSDK_v6.3.0-Full/MotorControl/MCSDK/MCLib/Any/Inc/revup_ctrl.h **** /* Allows to modify targeted mechanical speed of a selected phase */
 167:MCSDK_v6.3.0-Full/MotorControl/MCSDK/MCLib/Any/Inc/revup_ctrl.h **** void RUC_SetPhaseFinalMecSpeedUnit(RevUpCtrl_Handle_t *pHandle, uint8_t bPhase, int16_t hFinalMecSp
 168:MCSDK_v6.3.0-Full/MotorControl/MCSDK/MCLib/Any/Inc/revup_ctrl.h **** 
 169:MCSDK_v6.3.0-Full/MotorControl/MCSDK/MCLib/Any/Inc/revup_ctrl.h **** /* Allows to modify targeted the motor torque of a selected phase */
 170:MCSDK_v6.3.0-Full/MotorControl/MCSDK/MCLib/Any/Inc/revup_ctrl.h **** void RUC_SetPhaseFinalTorque(RevUpCtrl_Handle_t *pHandle, uint8_t bPhase, int16_t hFinalTorque);
 171:MCSDK_v6.3.0-Full/MotorControl/MCSDK/MCLib/Any/Inc/revup_ctrl.h **** 
 172:MCSDK_v6.3.0-Full/MotorControl/MCSDK/MCLib/Any/Inc/revup_ctrl.h **** /* Allows to read duration set in selected phase */
 173:MCSDK_v6.3.0-Full/MotorControl/MCSDK/MCLib/Any/Inc/revup_ctrl.h **** uint16_t RUC_GetPhaseDurationms(RevUpCtrl_Handle_t *pHandle, uint8_t bPhase);
ARM GAS  /tmp/ccAfo4nU.s 			page 63


 174:MCSDK_v6.3.0-Full/MotorControl/MCSDK/MCLib/Any/Inc/revup_ctrl.h **** 
 175:MCSDK_v6.3.0-Full/MotorControl/MCSDK/MCLib/Any/Inc/revup_ctrl.h **** /* Allows to read targeted Rotor speed set in selected phase */
 176:MCSDK_v6.3.0-Full/MotorControl/MCSDK/MCLib/Any/Inc/revup_ctrl.h **** int16_t RUC_GetPhaseFinalMecSpeedUnit(RevUpCtrl_Handle_t *pHandle, uint8_t bPhase);
 177:MCSDK_v6.3.0-Full/MotorControl/MCSDK/MCLib/Any/Inc/revup_ctrl.h **** 
 178:MCSDK_v6.3.0-Full/MotorControl/MCSDK/MCLib/Any/Inc/revup_ctrl.h **** /* Allows to read targeted motor torque set in selected phase */
 179:MCSDK_v6.3.0-Full/MotorControl/MCSDK/MCLib/Any/Inc/revup_ctrl.h **** int16_t RUC_GetPhaseFinalTorque(RevUpCtrl_Handle_t *pHandle, uint8_t bPhase);
 180:MCSDK_v6.3.0-Full/MotorControl/MCSDK/MCLib/Any/Inc/revup_ctrl.h **** 
 181:MCSDK_v6.3.0-Full/MotorControl/MCSDK/MCLib/Any/Inc/revup_ctrl.h **** /* @brief  It checks if this stage is used for align motor. */
 182:MCSDK_v6.3.0-Full/MotorControl/MCSDK/MCLib/Any/Inc/revup_ctrl.h **** uint8_t RUC_IsAlignStageNow(RevUpCtrl_Handle_t *pHandle);
 183:MCSDK_v6.3.0-Full/MotorControl/MCSDK/MCLib/Any/Inc/revup_ctrl.h **** 
 184:MCSDK_v6.3.0-Full/MotorControl/MCSDK/MCLib/Any/Inc/revup_ctrl.h **** /**
 185:MCSDK_v6.3.0-Full/MotorControl/MCSDK/MCLib/Any/Inc/revup_ctrl.h ****   * @brief  Allow to exit from Rev-Up process at the current rotor speed.
 186:MCSDK_v6.3.0-Full/MotorControl/MCSDK/MCLib/Any/Inc/revup_ctrl.h ****   * @param  pHandle: Pointer on Handle structure of RevUp controller.
 187:MCSDK_v6.3.0-Full/MotorControl/MCSDK/MCLib/Any/Inc/revup_ctrl.h ****   */
 188:MCSDK_v6.3.0-Full/MotorControl/MCSDK/MCLib/Any/Inc/revup_ctrl.h **** static inline void RUC_Stop(RevUpCtrl_Handle_t *pHandle)
 189:MCSDK_v6.3.0-Full/MotorControl/MCSDK/MCLib/Any/Inc/revup_ctrl.h **** {
 190:MCSDK_v6.3.0-Full/MotorControl/MCSDK/MCLib/Any/Inc/revup_ctrl.h **** #ifdef NULL_PTR_CHECK_REV_UP_CTL
 191:MCSDK_v6.3.0-Full/MotorControl/MCSDK/MCLib/Any/Inc/revup_ctrl.h ****   if (MC_NULL == pHandle)
 192:MCSDK_v6.3.0-Full/MotorControl/MCSDK/MCLib/Any/Inc/revup_ctrl.h ****   {
 193:MCSDK_v6.3.0-Full/MotorControl/MCSDK/MCLib/Any/Inc/revup_ctrl.h ****     /* Nothing to do */
 194:MCSDK_v6.3.0-Full/MotorControl/MCSDK/MCLib/Any/Inc/revup_ctrl.h ****   }
 195:MCSDK_v6.3.0-Full/MotorControl/MCSDK/MCLib/Any/Inc/revup_ctrl.h ****   else
 196:MCSDK_v6.3.0-Full/MotorControl/MCSDK/MCLib/Any/Inc/revup_ctrl.h ****   {
 197:MCSDK_v6.3.0-Full/MotorControl/MCSDK/MCLib/Any/Inc/revup_ctrl.h **** #endif
 198:MCSDK_v6.3.0-Full/MotorControl/MCSDK/MCLib/Any/Inc/revup_ctrl.h ****     VirtualSpeedSensor_Handle_t *pVSS = pHandle->pVSS;
 199:MCSDK_v6.3.0-Full/MotorControl/MCSDK/MCLib/Any/Inc/revup_ctrl.h ****     pHandle->pCurrentPhaseParams = MC_NULL;
 200:MCSDK_v6.3.0-Full/MotorControl/MCSDK/MCLib/Any/Inc/revup_ctrl.h ****     pHandle->hPhaseRemainingTicks = 0U;
 201:MCSDK_v6.3.0-Full/MotorControl/MCSDK/MCLib/Any/Inc/revup_ctrl.h ****     VSS_SetMecAcceleration(pVSS, SPD_GetAvrgMecSpeedUnit(&pVSS->_Super), 0U);
 202:MCSDK_v6.3.0-Full/MotorControl/MCSDK/MCLib/Any/Inc/revup_ctrl.h **** #ifdef NULL_PTR_CHECK_REV_UP_CTL
 203:MCSDK_v6.3.0-Full/MotorControl/MCSDK/MCLib/Any/Inc/revup_ctrl.h ****   }
 204:MCSDK_v6.3.0-Full/MotorControl/MCSDK/MCLib/Any/Inc/revup_ctrl.h **** #endif
 205:MCSDK_v6.3.0-Full/MotorControl/MCSDK/MCLib/Any/Inc/revup_ctrl.h **** }
 206:MCSDK_v6.3.0-Full/MotorControl/MCSDK/MCLib/Any/Inc/revup_ctrl.h **** 
 207:MCSDK_v6.3.0-Full/MotorControl/MCSDK/MCLib/Any/Inc/revup_ctrl.h **** /**
 208:MCSDK_v6.3.0-Full/MotorControl/MCSDK/MCLib/Any/Inc/revup_ctrl.h ****   * @brief  Provide current state of Rev-Up controller procedure.
 209:MCSDK_v6.3.0-Full/MotorControl/MCSDK/MCLib/Any/Inc/revup_ctrl.h ****   * @param  pHandle: Pointer on Handle structure of RevUp controller.
 210:MCSDK_v6.3.0-Full/MotorControl/MCSDK/MCLib/Any/Inc/revup_ctrl.h ****   *  @retval Boolean set to true when entire Rev-Up phases have been completed.
 211:MCSDK_v6.3.0-Full/MotorControl/MCSDK/MCLib/Any/Inc/revup_ctrl.h ****   */
 212:MCSDK_v6.3.0-Full/MotorControl/MCSDK/MCLib/Any/Inc/revup_ctrl.h **** static inline bool RUC_Completed(RevUpCtrl_Handle_t *pHandle)
 213:MCSDK_v6.3.0-Full/MotorControl/MCSDK/MCLib/Any/Inc/revup_ctrl.h **** {
 214:MCSDK_v6.3.0-Full/MotorControl/MCSDK/MCLib/Any/Inc/revup_ctrl.h ****   bool retVal = false;
 215:MCSDK_v6.3.0-Full/MotorControl/MCSDK/MCLib/Any/Inc/revup_ctrl.h **** #ifdef NULL_PTR_CHECK_REV_UP_CTL
 216:MCSDK_v6.3.0-Full/MotorControl/MCSDK/MCLib/Any/Inc/revup_ctrl.h ****   if (MC_NULL == pHandle)
 217:MCSDK_v6.3.0-Full/MotorControl/MCSDK/MCLib/Any/Inc/revup_ctrl.h ****   {
 218:MCSDK_v6.3.0-Full/MotorControl/MCSDK/MCLib/Any/Inc/revup_ctrl.h ****     /* Nothing to do */
 219:MCSDK_v6.3.0-Full/MotorControl/MCSDK/MCLib/Any/Inc/revup_ctrl.h ****   }
 220:MCSDK_v6.3.0-Full/MotorControl/MCSDK/MCLib/Any/Inc/revup_ctrl.h ****   else
 221:MCSDK_v6.3.0-Full/MotorControl/MCSDK/MCLib/Any/Inc/revup_ctrl.h ****   {
 222:MCSDK_v6.3.0-Full/MotorControl/MCSDK/MCLib/Any/Inc/revup_ctrl.h **** #endif
 223:MCSDK_v6.3.0-Full/MotorControl/MCSDK/MCLib/Any/Inc/revup_ctrl.h ****     if (MC_NULL == pHandle->pCurrentPhaseParams)
 224:MCSDK_v6.3.0-Full/MotorControl/MCSDK/MCLib/Any/Inc/revup_ctrl.h ****     {
 225:MCSDK_v6.3.0-Full/MotorControl/MCSDK/MCLib/Any/Inc/revup_ctrl.h ****       retVal = true;
 226:MCSDK_v6.3.0-Full/MotorControl/MCSDK/MCLib/Any/Inc/revup_ctrl.h ****     }
 227:MCSDK_v6.3.0-Full/MotorControl/MCSDK/MCLib/Any/Inc/revup_ctrl.h ****     else
 228:MCSDK_v6.3.0-Full/MotorControl/MCSDK/MCLib/Any/Inc/revup_ctrl.h ****     {
 229:MCSDK_v6.3.0-Full/MotorControl/MCSDK/MCLib/Any/Inc/revup_ctrl.h ****       /* Nothing to do */
 230:MCSDK_v6.3.0-Full/MotorControl/MCSDK/MCLib/Any/Inc/revup_ctrl.h ****     }
ARM GAS  /tmp/ccAfo4nU.s 			page 64


 231:MCSDK_v6.3.0-Full/MotorControl/MCSDK/MCLib/Any/Inc/revup_ctrl.h **** #ifdef NULL_PTR_CHECK_REV_UP_CTL
 232:MCSDK_v6.3.0-Full/MotorControl/MCSDK/MCLib/Any/Inc/revup_ctrl.h ****   }
 233:MCSDK_v6.3.0-Full/MotorControl/MCSDK/MCLib/Any/Inc/revup_ctrl.h **** #endif
 234:MCSDK_v6.3.0-Full/MotorControl/MCSDK/MCLib/Any/Inc/revup_ctrl.h ****   return (retVal);
 235:MCSDK_v6.3.0-Full/MotorControl/MCSDK/MCLib/Any/Inc/revup_ctrl.h **** }
 236:MCSDK_v6.3.0-Full/MotorControl/MCSDK/MCLib/Any/Inc/revup_ctrl.h **** 
 237:MCSDK_v6.3.0-Full/MotorControl/MCSDK/MCLib/Any/Inc/revup_ctrl.h **** /**
 238:MCSDK_v6.3.0-Full/MotorControl/MCSDK/MCLib/Any/Inc/revup_ctrl.h ****   * @brief  Allow to configure a Rev-Up phase.
 239:MCSDK_v6.3.0-Full/MotorControl/MCSDK/MCLib/Any/Inc/revup_ctrl.h ****   * @param  pHandle: Pointer on Handle structure of Rev-Up controller.
 240:MCSDK_v6.3.0-Full/MotorControl/MCSDK/MCLib/Any/Inc/revup_ctrl.h ****   * @param  phaseNumber : number of phases relative to the programmed Rev-Up
 241:MCSDK_v6.3.0-Full/MotorControl/MCSDK/MCLib/Any/Inc/revup_ctrl.h ****   * @param  phaseData:
 242:MCSDK_v6.3.0-Full/MotorControl/MCSDK/MCLib/Any/Inc/revup_ctrl.h ****   *       - RevUp phase where new motor torque shall be modified.
 243:MCSDK_v6.3.0-Full/MotorControl/MCSDK/MCLib/Any/Inc/revup_ctrl.h ****   *              This parameter must be a number between 0 and 6.
 244:MCSDK_v6.3.0-Full/MotorControl/MCSDK/MCLib/Any/Inc/revup_ctrl.h ****   *            - RevUp phase where new mechanical speed shall be modified.
 245:MCSDK_v6.3.0-Full/MotorControl/MCSDK/MCLib/Any/Inc/revup_ctrl.h ****   *             This parameter must be a number between 0 and 6.
 246:MCSDK_v6.3.0-Full/MotorControl/MCSDK/MCLib/Any/Inc/revup_ctrl.h ****   *            - New duration value required for associated phase in ms unit.
 247:MCSDK_v6.3.0-Full/MotorControl/MCSDK/MCLib/Any/Inc/revup_ctrl.h ****   *  @retval Boolean set to true
 248:MCSDK_v6.3.0-Full/MotorControl/MCSDK/MCLib/Any/Inc/revup_ctrl.h ****   */
 249:MCSDK_v6.3.0-Full/MotorControl/MCSDK/MCLib/Any/Inc/revup_ctrl.h **** static inline bool RUC_SetPhase(RevUpCtrl_Handle_t *pHandle, uint8_t phaseNumber, RevUpCtrl_PhasePa
 250:MCSDK_v6.3.0-Full/MotorControl/MCSDK/MCLib/Any/Inc/revup_ctrl.h **** {
 251:MCSDK_v6.3.0-Full/MotorControl/MCSDK/MCLib/Any/Inc/revup_ctrl.h ****   bool retValue = true;
 252:MCSDK_v6.3.0-Full/MotorControl/MCSDK/MCLib/Any/Inc/revup_ctrl.h **** #ifdef NULL_PTR_CHECK_REV_UP_CTL
 253:MCSDK_v6.3.0-Full/MotorControl/MCSDK/MCLib/Any/Inc/revup_ctrl.h ****   if ((MC_NULL == pHandle) || (MC_NULL == phaseData))
 254:MCSDK_v6.3.0-Full/MotorControl/MCSDK/MCLib/Any/Inc/revup_ctrl.h ****   {
 255:MCSDK_v6.3.0-Full/MotorControl/MCSDK/MCLib/Any/Inc/revup_ctrl.h ****     retValue = false;
 256:MCSDK_v6.3.0-Full/MotorControl/MCSDK/MCLib/Any/Inc/revup_ctrl.h ****   }
 257:MCSDK_v6.3.0-Full/MotorControl/MCSDK/MCLib/Any/Inc/revup_ctrl.h ****   else
 258:MCSDK_v6.3.0-Full/MotorControl/MCSDK/MCLib/Any/Inc/revup_ctrl.h ****   {
 259:MCSDK_v6.3.0-Full/MotorControl/MCSDK/MCLib/Any/Inc/revup_ctrl.h **** #endif
 260:MCSDK_v6.3.0-Full/MotorControl/MCSDK/MCLib/Any/Inc/revup_ctrl.h ****     pHandle->ParamsData[phaseNumber].hFinalTorque = phaseData->hFinalTorque;
 1615              		.loc 2 260 51 view .LVU432
 1616 0510 4F4B     		ldr	r3, .L201+24
 1617              	.LBE69:
 1618              	.LBE68:
 571:Src/register_interface.c ****               revUpPhase.hFinalTorque = *((int16_t *) &rawData[4U + (i * 8U)]); //cstat !MISRAC2012
 1619              		.loc 1 571 88 view .LVU433
 1620 0512 4E4A     		ldr	r2, .L201+20
 573:Src/register_interface.c ****               (void)RUC_SetPhase(&RevUpControlM1, i, &revUpPhase);
 1621              		.loc 1 573 41 view .LVU434
 1622 0514 2189     		ldrh	r1, [r4, #8]
 1623              	.LVL195:
 572:Src/register_interface.c ****               revUpPhase.hDurationms  = *((uint16_t *) &rawData[6U +(i * 8U)]); //cstat !MISRAC2012
 1624              		.loc 1 572 41 view .LVU435
 1625 0516 B4F90660 		ldrsh	r6, [r4, #6]
 1626              	.LBB84:
 1627              	.LBB70:
 261:MCSDK_v6.3.0-Full/MotorControl/MCSDK/MCLib/Any/Inc/revup_ctrl.h ****     pHandle->ParamsData[phaseNumber].hFinalMecSpeedUnit = phaseData->hFinalMecSpeedUnit;
 262:MCSDK_v6.3.0-Full/MotorControl/MCSDK/MCLib/Any/Inc/revup_ctrl.h ****     pHandle->ParamsData[phaseNumber].hDurationms = phaseData->hDurationms;
 1628              		.loc 2 262 50 view .LVU436
 1629 051a 9981     		strh	r1, [r3, #12]	@ movhi
 1630              	.LBE70:
 1631              	.LBE84:
 571:Src/register_interface.c ****               revUpPhase.hFinalTorque = *((int16_t *) &rawData[4U + (i * 8U)]); //cstat !MISRAC2012
 1632              		.loc 1 571 88 view .LVU437
 1633 051c 82FB00C1 		smull	ip, r1, r2, r0
 1634 0520 A1EBE071 		sub	r1, r1, r0, asr #31
 1635              	.LVL196:
ARM GAS  /tmp/ccAfo4nU.s 			page 65


 572:Src/register_interface.c ****               revUpPhase.hDurationms  = *((uint16_t *) &rawData[6U +(i * 8U)]); //cstat !MISRAC2012
 1636              		.loc 1 572 15 is_stmt 1 view .LVU438
 573:Src/register_interface.c ****               (void)RUC_SetPhase(&RevUpControlM1, i, &revUpPhase);
 1637              		.loc 1 573 15 view .LVU439
 574:Src/register_interface.c ****               }
 1638              		.loc 1 574 15 view .LVU440
 1639              	.LBB85:
 1640              	.LBI68:
 249:MCSDK_v6.3.0-Full/MotorControl/MCSDK/MCLib/Any/Inc/revup_ctrl.h **** {
 1641              		.loc 2 249 20 view .LVU441
 1642              	.LBB71:
 251:MCSDK_v6.3.0-Full/MotorControl/MCSDK/MCLib/Any/Inc/revup_ctrl.h **** #ifdef NULL_PTR_CHECK_REV_UP_CTL
 1643              		.loc 2 251 3 view .LVU442
 260:MCSDK_v6.3.0-Full/MotorControl/MCSDK/MCLib/Any/Inc/revup_ctrl.h ****     pHandle->ParamsData[phaseNumber].hFinalMecSpeedUnit = phaseData->hFinalMecSpeedUnit;
 1644              		.loc 2 260 5 view .LVU443
 1645              	.LBE71:
 1646              	.LBE85:
 568:Src/register_interface.c ****               {
 1647              		.loc 1 568 15 is_stmt 0 view .LVU444
 1648 0524 012D     		cmp	r5, #1
 1649              	.LBB86:
 1650              	.LBB72:
 261:MCSDK_v6.3.0-Full/MotorControl/MCSDK/MCLib/Any/Inc/revup_ctrl.h ****     pHandle->ParamsData[phaseNumber].hDurationms = phaseData->hDurationms;
 1651              		.loc 2 261 57 view .LVU445
 1652 0526 D981     		strh	r1, [r3, #14]	@ movhi
 260:MCSDK_v6.3.0-Full/MotorControl/MCSDK/MCLib/Any/Inc/revup_ctrl.h ****     pHandle->ParamsData[phaseNumber].hFinalMecSpeedUnit = phaseData->hFinalMecSpeedUnit;
 1653              		.loc 2 260 51 view .LVU446
 1654 0528 1E82     		strh	r6, [r3, #16]	@ movhi
 261:MCSDK_v6.3.0-Full/MotorControl/MCSDK/MCLib/Any/Inc/revup_ctrl.h ****     pHandle->ParamsData[phaseNumber].hDurationms = phaseData->hDurationms;
 1655              		.loc 2 261 5 is_stmt 1 view .LVU447
 1656              		.loc 2 262 5 view .LVU448
 263:MCSDK_v6.3.0-Full/MotorControl/MCSDK/MCLib/Any/Inc/revup_ctrl.h **** #ifdef NULL_PTR_CHECK_REV_UP_CTL
 264:MCSDK_v6.3.0-Full/MotorControl/MCSDK/MCLib/Any/Inc/revup_ctrl.h ****   }
 265:MCSDK_v6.3.0-Full/MotorControl/MCSDK/MCLib/Any/Inc/revup_ctrl.h **** #endif
 266:MCSDK_v6.3.0-Full/MotorControl/MCSDK/MCLib/Any/Inc/revup_ctrl.h ****   return (retValue);
 1657              		.loc 2 266 3 view .LVU449
 1658              	.LVL197:
 1659              		.loc 2 266 3 is_stmt 0 view .LVU450
 1660              	.LBE72:
 1661              	.LBE86:
 568:Src/register_interface.c ****               {
 1662              		.loc 1 568 15 view .LVU451
 1663 052a E6D0     		beq	.L176
 570:Src/register_interface.c ****               revUpPhase.hFinalMecSpeedUnit = (((int16_t)rpm) * ((int16_t)SPEED_UNIT)) / ((int16_t)
 1664              		.loc 1 570 15 is_stmt 1 view .LVU452
 1665              	.LVL198:
 571:Src/register_interface.c ****               revUpPhase.hFinalTorque = *((int16_t *) &rawData[4U + (i * 8U)]); //cstat !MISRAC2012
 1666              		.loc 1 571 15 view .LVU453
 571:Src/register_interface.c ****               revUpPhase.hFinalTorque = *((int16_t *) &rawData[4U + (i * 8U)]); //cstat !MISRAC2012
 1667              		.loc 1 571 88 is_stmt 0 view .LVU454
 1668 052c B4F90A00 		ldrsh	r0, [r4, #10]
 573:Src/register_interface.c ****               (void)RUC_SetPhase(&RevUpControlM1, i, &revUpPhase);
 1669              		.loc 1 573 41 view .LVU455
 1670 0530 218A     		ldrh	r1, [r4, #16]
 1671              	.LVL199:
 572:Src/register_interface.c ****               revUpPhase.hDurationms  = *((uint16_t *) &rawData[6U +(i * 8U)]); //cstat !MISRAC2012
 1672              		.loc 1 572 41 view .LVU456
ARM GAS  /tmp/ccAfo4nU.s 			page 66


 1673 0532 B4F90E60 		ldrsh	r6, [r4, #14]
 1674              	.LVL200:
 1675              	.LBB87:
 1676              	.LBB73:
 262:MCSDK_v6.3.0-Full/MotorControl/MCSDK/MCLib/Any/Inc/revup_ctrl.h **** #ifdef NULL_PTR_CHECK_REV_UP_CTL
 1677              		.loc 2 262 50 view .LVU457
 1678 0536 1983     		strh	r1, [r3, #24]	@ movhi
 1679              	.LBE73:
 1680              	.LBE87:
 571:Src/register_interface.c ****               revUpPhase.hFinalTorque = *((int16_t *) &rawData[4U + (i * 8U)]); //cstat !MISRAC2012
 1681              		.loc 1 571 88 view .LVU458
 1682 0538 82FB00C1 		smull	ip, r1, r2, r0
 1683 053c A1EBE071 		sub	r1, r1, r0, asr #31
 1684              	.LVL201:
 572:Src/register_interface.c ****               revUpPhase.hDurationms  = *((uint16_t *) &rawData[6U +(i * 8U)]); //cstat !MISRAC2012
 1685              		.loc 1 572 15 is_stmt 1 view .LVU459
 573:Src/register_interface.c ****               (void)RUC_SetPhase(&RevUpControlM1, i, &revUpPhase);
 1686              		.loc 1 573 15 view .LVU460
 574:Src/register_interface.c ****               }
 1687              		.loc 1 574 15 view .LVU461
 1688              	.LBB88:
 249:MCSDK_v6.3.0-Full/MotorControl/MCSDK/MCLib/Any/Inc/revup_ctrl.h **** {
 1689              		.loc 2 249 20 view .LVU462
 1690              	.LBB74:
 251:MCSDK_v6.3.0-Full/MotorControl/MCSDK/MCLib/Any/Inc/revup_ctrl.h **** #ifdef NULL_PTR_CHECK_REV_UP_CTL
 1691              		.loc 2 251 3 view .LVU463
 260:MCSDK_v6.3.0-Full/MotorControl/MCSDK/MCLib/Any/Inc/revup_ctrl.h ****     pHandle->ParamsData[phaseNumber].hFinalMecSpeedUnit = phaseData->hFinalMecSpeedUnit;
 1692              		.loc 2 260 5 view .LVU464
 1693              	.LBE74:
 1694              	.LBE88:
 568:Src/register_interface.c ****               {
 1695              		.loc 1 568 15 is_stmt 0 view .LVU465
 1696 0540 022D     		cmp	r5, #2
 1697              	.LBB89:
 1698              	.LBB75:
 261:MCSDK_v6.3.0-Full/MotorControl/MCSDK/MCLib/Any/Inc/revup_ctrl.h ****     pHandle->ParamsData[phaseNumber].hDurationms = phaseData->hDurationms;
 1699              		.loc 2 261 57 view .LVU466
 1700 0542 5983     		strh	r1, [r3, #26]	@ movhi
 260:MCSDK_v6.3.0-Full/MotorControl/MCSDK/MCLib/Any/Inc/revup_ctrl.h ****     pHandle->ParamsData[phaseNumber].hFinalMecSpeedUnit = phaseData->hFinalMecSpeedUnit;
 1701              		.loc 2 260 51 view .LVU467
 1702 0544 9E83     		strh	r6, [r3, #28]	@ movhi
 261:MCSDK_v6.3.0-Full/MotorControl/MCSDK/MCLib/Any/Inc/revup_ctrl.h ****     pHandle->ParamsData[phaseNumber].hDurationms = phaseData->hDurationms;
 1703              		.loc 2 261 5 is_stmt 1 view .LVU468
 262:MCSDK_v6.3.0-Full/MotorControl/MCSDK/MCLib/Any/Inc/revup_ctrl.h **** #ifdef NULL_PTR_CHECK_REV_UP_CTL
 1704              		.loc 2 262 5 view .LVU469
 1705              		.loc 2 266 3 view .LVU470
 1706              	.LVL202:
 1707              		.loc 2 266 3 is_stmt 0 view .LVU471
 1708              	.LBE75:
 1709              	.LBE89:
 568:Src/register_interface.c ****               {
 1710              		.loc 1 568 15 view .LVU472
 1711 0546 D8D0     		beq	.L176
 570:Src/register_interface.c ****               revUpPhase.hFinalMecSpeedUnit = (((int16_t)rpm) * ((int16_t)SPEED_UNIT)) / ((int16_t)
 1712              		.loc 1 570 15 is_stmt 1 view .LVU473
 1713              	.LVL203:
 571:Src/register_interface.c ****               revUpPhase.hFinalTorque = *((int16_t *) &rawData[4U + (i * 8U)]); //cstat !MISRAC2012
ARM GAS  /tmp/ccAfo4nU.s 			page 67


 1714              		.loc 1 571 15 view .LVU474
 571:Src/register_interface.c ****               revUpPhase.hFinalTorque = *((int16_t *) &rawData[4U + (i * 8U)]); //cstat !MISRAC2012
 1715              		.loc 1 571 88 is_stmt 0 view .LVU475
 1716 0548 B4F91210 		ldrsh	r1, [r4, #18]
 1717              	.LVL204:
 573:Src/register_interface.c ****               (void)RUC_SetPhase(&RevUpControlM1, i, &revUpPhase);
 1718              		.loc 1 573 41 view .LVU476
 1719 054c 268B     		ldrh	r6, [r4, #24]
 1720              	.LVL205:
 572:Src/register_interface.c ****               revUpPhase.hDurationms  = *((uint16_t *) &rawData[6U +(i * 8U)]); //cstat !MISRAC2012
 1721              		.loc 1 572 41 view .LVU477
 1722 054e B4F91600 		ldrsh	r0, [r4, #22]
 1723              	.LBB90:
 1724              	.LBB76:
 262:MCSDK_v6.3.0-Full/MotorControl/MCSDK/MCLib/Any/Inc/revup_ctrl.h **** #ifdef NULL_PTR_CHECK_REV_UP_CTL
 1725              		.loc 2 262 50 view .LVU478
 1726 0552 9E84     		strh	r6, [r3, #36]	@ movhi
 1727              	.LBE76:
 1728              	.LBE90:
 571:Src/register_interface.c ****               revUpPhase.hFinalTorque = *((int16_t *) &rawData[4U + (i * 8U)]); //cstat !MISRAC2012
 1729              		.loc 1 571 88 view .LVU479
 1730 0554 82FB0162 		smull	r6, r2, r2, r1
 1731 0558 A2EBE172 		sub	r2, r2, r1, asr #31
 1732              	.LVL206:
 572:Src/register_interface.c ****               revUpPhase.hDurationms  = *((uint16_t *) &rawData[6U +(i * 8U)]); //cstat !MISRAC2012
 1733              		.loc 1 572 15 is_stmt 1 view .LVU480
 573:Src/register_interface.c ****               (void)RUC_SetPhase(&RevUpControlM1, i, &revUpPhase);
 1734              		.loc 1 573 15 view .LVU481
 574:Src/register_interface.c ****               }
 1735              		.loc 1 574 15 view .LVU482
 1736              	.LBB91:
 249:MCSDK_v6.3.0-Full/MotorControl/MCSDK/MCLib/Any/Inc/revup_ctrl.h **** {
 1737              		.loc 2 249 20 view .LVU483
 1738              	.LBB77:
 251:MCSDK_v6.3.0-Full/MotorControl/MCSDK/MCLib/Any/Inc/revup_ctrl.h **** #ifdef NULL_PTR_CHECK_REV_UP_CTL
 1739              		.loc 2 251 3 view .LVU484
 260:MCSDK_v6.3.0-Full/MotorControl/MCSDK/MCLib/Any/Inc/revup_ctrl.h ****     pHandle->ParamsData[phaseNumber].hFinalMecSpeedUnit = phaseData->hFinalMecSpeedUnit;
 1740              		.loc 2 260 5 view .LVU485
 1741              	.LBE77:
 1742              	.LBE91:
 568:Src/register_interface.c ****               {
 1743              		.loc 1 568 15 is_stmt 0 view .LVU486
 1744 055c 032D     		cmp	r5, #3
 1745              	.LBB92:
 1746              	.LBB78:
 261:MCSDK_v6.3.0-Full/MotorControl/MCSDK/MCLib/Any/Inc/revup_ctrl.h ****     pHandle->ParamsData[phaseNumber].hDurationms = phaseData->hDurationms;
 1747              		.loc 2 261 57 view .LVU487
 1748 055e DA84     		strh	r2, [r3, #38]	@ movhi
 260:MCSDK_v6.3.0-Full/MotorControl/MCSDK/MCLib/Any/Inc/revup_ctrl.h ****     pHandle->ParamsData[phaseNumber].hFinalMecSpeedUnit = phaseData->hFinalMecSpeedUnit;
 1749              		.loc 2 260 51 view .LVU488
 1750 0560 1885     		strh	r0, [r3, #40]	@ movhi
 261:MCSDK_v6.3.0-Full/MotorControl/MCSDK/MCLib/Any/Inc/revup_ctrl.h ****     pHandle->ParamsData[phaseNumber].hDurationms = phaseData->hDurationms;
 1751              		.loc 2 261 5 is_stmt 1 view .LVU489
 262:MCSDK_v6.3.0-Full/MotorControl/MCSDK/MCLib/Any/Inc/revup_ctrl.h **** #ifdef NULL_PTR_CHECK_REV_UP_CTL
 1752              		.loc 2 262 5 view .LVU490
 1753              		.loc 2 266 3 view .LVU491
 1754              	.LVL207:
ARM GAS  /tmp/ccAfo4nU.s 			page 68


 1755              		.loc 2 266 3 is_stmt 0 view .LVU492
 1756              	.LBE78:
 1757              	.LBE92:
 568:Src/register_interface.c ****               {
 1758              		.loc 1 568 15 view .LVU493
 1759 0562 CAD0     		beq	.L176
 570:Src/register_interface.c ****               revUpPhase.hFinalMecSpeedUnit = (((int16_t)rpm) * ((int16_t)SPEED_UNIT)) / ((int16_t)
 1760              		.loc 1 570 15 is_stmt 1 view .LVU494
 1761              	.LVL208:
 571:Src/register_interface.c ****               revUpPhase.hFinalTorque = *((int16_t *) &rawData[4U + (i * 8U)]); //cstat !MISRAC2012
 1762              		.loc 1 571 15 view .LVU495
 571:Src/register_interface.c ****               revUpPhase.hFinalTorque = *((int16_t *) &rawData[4U + (i * 8U)]); //cstat !MISRAC2012
 1763              		.loc 1 571 88 is_stmt 0 view .LVU496
 1764 0564 B4F91A00 		ldrsh	r0, [r4, #26]
 1765              	.LVL209:
 571:Src/register_interface.c ****               revUpPhase.hFinalTorque = *((int16_t *) &rawData[4U + (i * 8U)]); //cstat !MISRAC2012
 1766              		.loc 1 571 88 view .LVU497
 1767 0568 384A     		ldr	r2, .L201+20
 1768              	.LVL210:
 573:Src/register_interface.c ****               (void)RUC_SetPhase(&RevUpControlM1, i, &revUpPhase);
 1769              		.loc 1 573 41 view .LVU498
 1770 056a 218C     		ldrh	r1, [r4, #32]
 572:Src/register_interface.c ****               revUpPhase.hDurationms  = *((uint16_t *) &rawData[6U +(i * 8U)]); //cstat !MISRAC2012
 1771              		.loc 1 572 41 view .LVU499
 1772 056c B4F91E60 		ldrsh	r6, [r4, #30]
 1773              	.LBB93:
 1774              	.LBB79:
 262:MCSDK_v6.3.0-Full/MotorControl/MCSDK/MCLib/Any/Inc/revup_ctrl.h **** #ifdef NULL_PTR_CHECK_REV_UP_CTL
 1775              		.loc 2 262 50 view .LVU500
 1776 0570 1986     		strh	r1, [r3, #48]	@ movhi
 1777              	.LBE79:
 1778              	.LBE93:
 571:Src/register_interface.c ****               revUpPhase.hFinalTorque = *((int16_t *) &rawData[4U + (i * 8U)]); //cstat !MISRAC2012
 1779              		.loc 1 571 88 view .LVU501
 1780 0572 82FB00C1 		smull	ip, r1, r2, r0
 1781 0576 A1EBE071 		sub	r1, r1, r0, asr #31
 1782              	.LVL211:
 572:Src/register_interface.c ****               revUpPhase.hDurationms  = *((uint16_t *) &rawData[6U +(i * 8U)]); //cstat !MISRAC2012
 1783              		.loc 1 572 15 is_stmt 1 view .LVU502
 573:Src/register_interface.c ****               (void)RUC_SetPhase(&RevUpControlM1, i, &revUpPhase);
 1784              		.loc 1 573 15 view .LVU503
 574:Src/register_interface.c ****               }
 1785              		.loc 1 574 15 view .LVU504
 1786              	.LBB94:
 249:MCSDK_v6.3.0-Full/MotorControl/MCSDK/MCLib/Any/Inc/revup_ctrl.h **** {
 1787              		.loc 2 249 20 view .LVU505
 1788              	.LBB80:
 251:MCSDK_v6.3.0-Full/MotorControl/MCSDK/MCLib/Any/Inc/revup_ctrl.h **** #ifdef NULL_PTR_CHECK_REV_UP_CTL
 1789              		.loc 2 251 3 view .LVU506
 260:MCSDK_v6.3.0-Full/MotorControl/MCSDK/MCLib/Any/Inc/revup_ctrl.h ****     pHandle->ParamsData[phaseNumber].hFinalMecSpeedUnit = phaseData->hFinalMecSpeedUnit;
 1790              		.loc 2 260 5 view .LVU507
 1791              	.LBE80:
 1792              	.LBE94:
 568:Src/register_interface.c ****               {
 1793              		.loc 1 568 15 is_stmt 0 view .LVU508
 1794 057a 052D     		cmp	r5, #5
 1795              	.LBB95:
ARM GAS  /tmp/ccAfo4nU.s 			page 69


 1796              	.LBB81:
 261:MCSDK_v6.3.0-Full/MotorControl/MCSDK/MCLib/Any/Inc/revup_ctrl.h ****     pHandle->ParamsData[phaseNumber].hDurationms = phaseData->hDurationms;
 1797              		.loc 2 261 57 view .LVU509
 1798 057c 5986     		strh	r1, [r3, #50]	@ movhi
 260:MCSDK_v6.3.0-Full/MotorControl/MCSDK/MCLib/Any/Inc/revup_ctrl.h ****     pHandle->ParamsData[phaseNumber].hFinalMecSpeedUnit = phaseData->hFinalMecSpeedUnit;
 1799              		.loc 2 260 51 view .LVU510
 1800 057e 9E86     		strh	r6, [r3, #52]	@ movhi
 261:MCSDK_v6.3.0-Full/MotorControl/MCSDK/MCLib/Any/Inc/revup_ctrl.h ****     pHandle->ParamsData[phaseNumber].hDurationms = phaseData->hDurationms;
 1801              		.loc 2 261 5 is_stmt 1 view .LVU511
 262:MCSDK_v6.3.0-Full/MotorControl/MCSDK/MCLib/Any/Inc/revup_ctrl.h **** #ifdef NULL_PTR_CHECK_REV_UP_CTL
 1802              		.loc 2 262 5 view .LVU512
 1803              		.loc 2 266 3 view .LVU513
 1804              	.LVL212:
 1805              		.loc 2 266 3 is_stmt 0 view .LVU514
 1806              	.LBE81:
 1807              	.LBE95:
 568:Src/register_interface.c ****               {
 1808              		.loc 1 568 15 view .LVU515
 1809 0580 BBD1     		bne	.L176
 570:Src/register_interface.c ****               revUpPhase.hFinalMecSpeedUnit = (((int16_t)rpm) * ((int16_t)SPEED_UNIT)) / ((int16_t)
 1810              		.loc 1 570 15 is_stmt 1 discriminator 3 view .LVU516
 1811              	.LVL213:
 571:Src/register_interface.c ****               revUpPhase.hFinalTorque = *((int16_t *) &rawData[4U + (i * 8U)]); //cstat !MISRAC2012
 1812              		.loc 1 571 15 discriminator 3 view .LVU517
 571:Src/register_interface.c ****               revUpPhase.hFinalTorque = *((int16_t *) &rawData[4U + (i * 8U)]); //cstat !MISRAC2012
 1813              		.loc 1 571 88 is_stmt 0 discriminator 3 view .LVU518
 1814 0582 B4F92210 		ldrsh	r1, [r4, #34]
 1815              	.LVL214:
 572:Src/register_interface.c ****               revUpPhase.hDurationms  = *((uint16_t *) &rawData[6U +(i * 8U)]); //cstat !MISRAC2012
 1816              		.loc 1 572 41 discriminator 3 view .LVU519
 1817 0586 B4F92600 		ldrsh	r0, [r4, #38]
 573:Src/register_interface.c ****               (void)RUC_SetPhase(&RevUpControlM1, i, &revUpPhase);
 1818              		.loc 1 573 41 discriminator 3 view .LVU520
 1819 058a 248D     		ldrh	r4, [r4, #40]
 1820              	.LVL215:
 1821              	.LBB96:
 1822              	.LBB82:
 262:MCSDK_v6.3.0-Full/MotorControl/MCSDK/MCLib/Any/Inc/revup_ctrl.h **** #ifdef NULL_PTR_CHECK_REV_UP_CTL
 1823              		.loc 2 262 50 discriminator 3 view .LVU521
 1824 058c 9C87     		strh	r4, [r3, #60]	@ movhi
 1825              	.LBE82:
 1826              	.LBE96:
 571:Src/register_interface.c ****               revUpPhase.hFinalTorque = *((int16_t *) &rawData[4U + (i * 8U)]); //cstat !MISRAC2012
 1827              		.loc 1 571 88 discriminator 3 view .LVU522
 1828 058e 82FB0142 		smull	r4, r2, r2, r1
 1829 0592 A2EBE172 		sub	r2, r2, r1, asr #31
 1830              	.LVL216:
 572:Src/register_interface.c ****               revUpPhase.hDurationms  = *((uint16_t *) &rawData[6U +(i * 8U)]); //cstat !MISRAC2012
 1831              		.loc 1 572 15 is_stmt 1 discriminator 3 view .LVU523
 573:Src/register_interface.c ****               (void)RUC_SetPhase(&RevUpControlM1, i, &revUpPhase);
 1832              		.loc 1 573 15 discriminator 3 view .LVU524
 574:Src/register_interface.c ****               }
 1833              		.loc 1 574 15 discriminator 3 view .LVU525
 1834              	.LBB97:
 249:MCSDK_v6.3.0-Full/MotorControl/MCSDK/MCLib/Any/Inc/revup_ctrl.h **** {
 1835              		.loc 2 249 20 discriminator 3 view .LVU526
 1836              	.LBB83:
ARM GAS  /tmp/ccAfo4nU.s 			page 70


 251:MCSDK_v6.3.0-Full/MotorControl/MCSDK/MCLib/Any/Inc/revup_ctrl.h **** #ifdef NULL_PTR_CHECK_REV_UP_CTL
 1837              		.loc 2 251 3 discriminator 3 view .LVU527
 260:MCSDK_v6.3.0-Full/MotorControl/MCSDK/MCLib/Any/Inc/revup_ctrl.h ****     pHandle->ParamsData[phaseNumber].hFinalMecSpeedUnit = phaseData->hFinalMecSpeedUnit;
 1838              		.loc 2 260 5 discriminator 3 view .LVU528
 261:MCSDK_v6.3.0-Full/MotorControl/MCSDK/MCLib/Any/Inc/revup_ctrl.h ****     pHandle->ParamsData[phaseNumber].hDurationms = phaseData->hDurationms;
 1839              		.loc 2 261 57 is_stmt 0 discriminator 3 view .LVU529
 1840 0596 DA87     		strh	r2, [r3, #62]	@ movhi
 260:MCSDK_v6.3.0-Full/MotorControl/MCSDK/MCLib/Any/Inc/revup_ctrl.h ****     pHandle->ParamsData[phaseNumber].hFinalMecSpeedUnit = phaseData->hFinalMecSpeedUnit;
 1841              		.loc 2 260 51 discriminator 3 view .LVU530
 1842 0598 A3F84000 		strh	r0, [r3, #64]	@ movhi
 261:MCSDK_v6.3.0-Full/MotorControl/MCSDK/MCLib/Any/Inc/revup_ctrl.h ****     pHandle->ParamsData[phaseNumber].hDurationms = phaseData->hDurationms;
 1843              		.loc 2 261 5 is_stmt 1 discriminator 3 view .LVU531
 262:MCSDK_v6.3.0-Full/MotorControl/MCSDK/MCLib/Any/Inc/revup_ctrl.h **** #ifdef NULL_PTR_CHECK_REV_UP_CTL
 1844              		.loc 2 262 5 discriminator 3 view .LVU532
 1845              		.loc 2 266 3 discriminator 3 view .LVU533
 1846              	.LVL217:
 1847              		.loc 2 266 3 is_stmt 0 discriminator 3 view .LVU534
 1848              	.LBE83:
 1849              	.LBE97:
 1850 059c ADE7     		b	.L176
 1851              	.LVL218:
 1852              	.L108:
 1853              		.loc 2 266 3 discriminator 3 view .LVU535
 1854              	.LBE67:
 1855              	.LBB98:
 535:Src/register_interface.c ****             uint16_t duration;
 1856              		.loc 1 535 13 is_stmt 1 view .LVU536
 536:Src/register_interface.c **** 
 1857              		.loc 1 536 13 view .LVU537
 538:Src/register_interface.c ****             duration = *(uint16_t *)&rawData[4]; //cstat !MISRAC2012-Rule-11.3
 1858              		.loc 1 538 13 view .LVU538
 539:Src/register_interface.c ****             MCI_ExecSpeedRamp(pMCIN, (int16_t)((rpm * SPEED_UNIT) / U_RPM), duration);
 1859              		.loc 1 539 13 view .LVU539
 540:Src/register_interface.c ****             break;
 1860              		.loc 1 540 13 view .LVU540
 540:Src/register_interface.c ****             break;
 1861              		.loc 1 540 67 is_stmt 0 view .LVU541
 1862 059e D4F80230 		ldr	r3, [r4, #2]
 1863              	.LVL219:
 540:Src/register_interface.c ****             break;
 1864              		.loc 1 540 67 view .LVU542
 1865 05a2 2A49     		ldr	r1, .L201+20
 1866              	.LVL220:
 540:Src/register_interface.c ****             break;
 1867              		.loc 1 540 13 view .LVU543
 1868 05a4 E288     		ldrh	r2, [r4, #6]
 1869 05a6 2848     		ldr	r0, .L201+16
 1870              	.LVL221:
 540:Src/register_interface.c ****             break;
 1871              		.loc 1 540 67 view .LVU544
 1872 05a8 81FB0341 		smull	r4, r1, r1, r3
 1873              	.LVL222:
 540:Src/register_interface.c ****             break;
 1874              		.loc 1 540 67 view .LVU545
 1875 05ac A1EBE371 		sub	r1, r1, r3, asr #31
 540:Src/register_interface.c ****             break;
 1876              		.loc 1 540 13 view .LVU546
ARM GAS  /tmp/ccAfo4nU.s 			page 71


 1877 05b0 09B2     		sxth	r1, r1
 1878 05b2 FFF7FEFF 		bl	MCI_ExecSpeedRamp
 1879              	.LVL223:
 541:Src/register_interface.c ****           }
 1880              		.loc 1 541 13 is_stmt 1 view .LVU547
 1881              	.LBE98:
 1882              	.LBE142:
 168:Src/register_interface.c ****   uint8_t motorID=0;
 1883              		.loc 1 168 11 is_stmt 0 view .LVU548
 1884 05b6 0020     		movs	r0, #0
 1885              	.LBB143:
 1886              	.LBB99:
 541:Src/register_interface.c ****           }
 1887              		.loc 1 541 13 view .LVU549
 1888 05b8 5FE5     		b	.L170
 1889              	.LVL224:
 1890              	.L153:
 541:Src/register_interface.c ****           }
 1891              		.loc 1 541 13 view .LVU550
 1892              	.LBE99:
 1893              	.LBB100:
 564:Src/register_interface.c ****             }
 1894              		.loc 1 564 22 view .LVU551
 1895 05ba 0A20     		movs	r0, #10
 1896              	.LVL225:
 564:Src/register_interface.c ****             }
 1897              		.loc 1 564 22 view .LVU552
 1898 05bc 5DE5     		b	.L170
 1899              	.LVL226:
 1900              	.L198:
 564:Src/register_interface.c ****             }
 1901              		.loc 1 564 22 view .LVU553
 1902              	.LBE100:
 1903              	.LBE143:
 1904              	.LBB144:
 199:Src/register_interface.c ****           }
 1905              		.loc 1 199 13 is_stmt 1 view .LVU554
 1906 05be 2248     		ldr	r0, .L201+16
 1907              	.LVL227:
 199:Src/register_interface.c ****           }
 1908              		.loc 1 199 13 is_stmt 0 view .LVU555
 1909 05c0 0193     		str	r3, [sp, #4]
 1910 05c2 FFF7FEFF 		bl	MCI_GetMecSpeedRefUnit
 1911              	.LVL228:
 199:Src/register_interface.c ****           }
 1912              		.loc 1 199 13 view .LVU556
 1913 05c6 0022     		movs	r2, #0
 1914 05c8 0146     		mov	r1, r0
 1915 05ca 1F48     		ldr	r0, .L201+16
 1916 05cc FFF7FEFF 		bl	MCI_ExecSpeedRamp
 1917              	.LVL229:
 1918              	.LBE144:
 168:Src/register_interface.c ****   uint8_t motorID=0;
 1919              		.loc 1 168 11 view .LVU557
 1920 05d0 0020     		movs	r0, #0
 1921              	.LBB145:
 1922 05d2 019B     		ldr	r3, [sp, #4]
ARM GAS  /tmp/ccAfo4nU.s 			page 72


 1923 05d4 5DE5     		b	.L55
 1924              	.LVL230:
 1925              	.L95:
 168:Src/register_interface.c ****   uint8_t motorID=0;
 1926              		.loc 1 168 11 view .LVU558
 1927              	.LBE145:
 1928              	.LBB146:
 431:Src/register_interface.c ****           break;
 1929              		.loc 1 431 11 view .LVU559
 1930 05d6 1A48     		ldr	r0, .L201+8
 1931              	.LVL231:
 431:Src/register_interface.c ****           break;
 1932              		.loc 1 431 11 view .LVU560
 1933 05d8 0193     		str	r3, [sp, #4]
 431:Src/register_interface.c ****           break;
 1934              		.loc 1 431 11 is_stmt 1 view .LVU561
 1935 05da 2146     		mov	r1, r4
 1936 05dc FFF7FEFF 		bl	PID_SetKIDivisorPOW2
 1937              	.LVL232:
 432:Src/register_interface.c ****         }
 1938              		.loc 1 432 11 view .LVU562
 1939              	.LBE146:
 168:Src/register_interface.c ****   uint8_t motorID=0;
 1940              		.loc 1 168 11 is_stmt 0 view .LVU563
 1941 05e0 0020     		movs	r0, #0
 1942              	.LBB147:
 432:Src/register_interface.c ****         }
 1943              		.loc 1 432 11 view .LVU564
 1944 05e2 019B     		ldr	r3, [sp, #4]
 1945 05e4 A6E5     		b	.L58
 1946              	.LVL233:
 1947              	.L70:
 279:Src/register_interface.c ****           break;
 1948              		.loc 1 279 11 is_stmt 1 view .LVU565
 1949 05e6 1748     		ldr	r0, .L201+12
 1950              	.LVL234:
 279:Src/register_interface.c ****           break;
 1951              		.loc 1 279 11 is_stmt 0 view .LVU566
 1952 05e8 0193     		str	r3, [sp, #4]
 1953 05ea 21B2     		sxth	r1, r4
 1954 05ec FFF7FEFF 		bl	PID_SetKD
 1955              	.LVL235:
 280:Src/register_interface.c ****         }
 1956              		.loc 1 280 11 is_stmt 1 view .LVU567
 1957              	.LBE147:
 168:Src/register_interface.c ****   uint8_t motorID=0;
 1958              		.loc 1 168 11 is_stmt 0 view .LVU568
 1959 05f0 0020     		movs	r0, #0
 1960              	.LBB148:
 280:Src/register_interface.c ****         }
 1961              		.loc 1 280 11 view .LVU569
 1962 05f2 019B     		ldr	r3, [sp, #4]
 1963 05f4 9EE5     		b	.L58
 1964              	.LVL236:
 1965              	.L80:
 1966              	.LBB109:
 305:Src/register_interface.c ****           currComp = MCI_GetIqdref(pMCIN);
ARM GAS  /tmp/ccAfo4nU.s 			page 73


 1967              		.loc 1 305 11 is_stmt 1 view .LVU570
 306:Src/register_interface.c ****           currComp.q = (int16_t)regdata16;
 1968              		.loc 1 306 11 view .LVU571
 306:Src/register_interface.c ****           currComp.q = (int16_t)regdata16;
 1969              		.loc 1 306 22 is_stmt 0 view .LVU572
 1970 05f6 1448     		ldr	r0, .L201+16
 1971              	.LVL237:
 306:Src/register_interface.c ****           currComp.q = (int16_t)regdata16;
 1972              		.loc 1 306 22 view .LVU573
 1973 05f8 0193     		str	r3, [sp, #4]
 1974 05fa FFF7FEFF 		bl	MCI_GetIqdref
 1975              	.LVL238:
 306:Src/register_interface.c ****           currComp.q = (int16_t)regdata16;
 1976              		.loc 1 306 22 view .LVU574
 1977 05fe 0390     		str	r0, [sp, #12]
 307:Src/register_interface.c ****           MCI_SetCurrentReferences(pMCIN,currComp);
 1978              		.loc 1 307 11 is_stmt 1 view .LVU575
 307:Src/register_interface.c ****           MCI_SetCurrentReferences(pMCIN,currComp);
 1979              		.loc 1 307 22 is_stmt 0 view .LVU576
 1980 0600 ADF80C40 		strh	r4, [sp, #12]	@ movhi
 308:Src/register_interface.c ****           break;
 1981              		.loc 1 308 11 is_stmt 1 view .LVU577
 1982 0604 F5E5     		b	.L172
 1983              	.LVL239:
 1984              	.L62:
 308:Src/register_interface.c ****           break;
 1985              		.loc 1 308 11 is_stmt 0 view .LVU578
 1986              	.LBE109:
 261:Src/register_interface.c ****           break;
 1987              		.loc 1 261 11 is_stmt 1 view .LVU579
 1988 0606 0D48     		ldr	r0, .L201+4
 1989              	.LVL240:
 261:Src/register_interface.c ****           break;
 1990              		.loc 1 261 11 is_stmt 0 view .LVU580
 1991 0608 0193     		str	r3, [sp, #4]
 1992 060a 21B2     		sxth	r1, r4
 1993 060c FFF7FEFF 		bl	PID_SetKD
 1994              	.LVL241:
 262:Src/register_interface.c ****         }
 1995              		.loc 1 262 11 is_stmt 1 view .LVU581
 1996              	.LBE148:
 168:Src/register_interface.c ****   uint8_t motorID=0;
 1997              		.loc 1 168 11 is_stmt 0 view .LVU582
 1998 0610 0020     		movs	r0, #0
 1999              	.LBB149:
 262:Src/register_interface.c ****         }
 2000              		.loc 1 262 11 view .LVU583
 2001 0612 019B     		ldr	r3, [sp, #4]
 2002 0614 8EE5     		b	.L58
 2003              	.LVL242:
 2004              	.L60:
 350:Src/register_interface.c ****           break;
 2005              		.loc 1 350 11 is_stmt 1 view .LVU584
 2006 0616 0A48     		ldr	r0, .L201+8
 2007              	.LVL243:
 350:Src/register_interface.c ****           break;
 2008              		.loc 1 350 11 is_stmt 0 view .LVU585
ARM GAS  /tmp/ccAfo4nU.s 			page 74


 2009 0618 0193     		str	r3, [sp, #4]
 2010 061a 21B2     		sxth	r1, r4
 2011 061c FFF7FEFF 		bl	PID_SetKI
 2012              	.LVL244:
 351:Src/register_interface.c ****         }
 2013              		.loc 1 351 11 is_stmt 1 view .LVU586
 2014              	.LBE149:
 168:Src/register_interface.c ****   uint8_t motorID=0;
 2015              		.loc 1 168 11 is_stmt 0 view .LVU587
 2016 0620 0020     		movs	r0, #0
 2017              	.LBB150:
 351:Src/register_interface.c ****         }
 2018              		.loc 1 351 11 view .LVU588
 2019 0622 019B     		ldr	r3, [sp, #4]
 2020 0624 86E5     		b	.L58
 2021              	.LVL245:
 2022              	.L89:
 395:Src/register_interface.c ****           break;
 2023              		.loc 1 395 11 view .LVU589
 2024 0626 0748     		ldr	r0, .L201+12
 2025              	.LVL246:
 395:Src/register_interface.c ****           break;
 2026              		.loc 1 395 11 view .LVU590
 2027 0628 0193     		str	r3, [sp, #4]
 395:Src/register_interface.c ****           break;
 2028              		.loc 1 395 11 is_stmt 1 view .LVU591
 2029 062a 2146     		mov	r1, r4
 2030 062c FFF7FEFF 		bl	PID_SetKPDivisorPOW2
 2031              	.LVL247:
 396:Src/register_interface.c ****         }
 2032              		.loc 1 396 11 view .LVU592
 2033              	.LBE150:
 168:Src/register_interface.c ****   uint8_t motorID=0;
 2034              		.loc 1 168 11 is_stmt 0 view .LVU593
 2035 0630 0020     		movs	r0, #0
 2036              	.LBB151:
 396:Src/register_interface.c ****         }
 2037              		.loc 1 396 11 view .LVU594
 2038 0632 019B     		ldr	r3, [sp, #4]
 2039 0634 7EE5     		b	.L58
 2040              	.L202:
 2041 0636 00BF     		.align	2
 2042              	.L201:
 2043 0638 00000000 		.word	STO_PLL_M1
 2044 063c 00000000 		.word	PIDIqHandle_M1
 2045 0640 34000000 		.word	STO_PLL_M1+52
 2046 0644 00000000 		.word	PIDIdHandle_M1
 2047 0648 00000000 		.word	Mci
 2048 064c ABAAAA2A 		.word	715827883
 2049 0650 00000000 		.word	RevUpControlM1
 2050              	.LVL248:
 2051              	.L87:
 413:Src/register_interface.c ****           break;
 2052              		.loc 1 413 11 view .LVU595
 2053 0654 0B48     		ldr	r0, .L203
 2054              	.LVL249:
 413:Src/register_interface.c ****           break;
ARM GAS  /tmp/ccAfo4nU.s 			page 75


 2055              		.loc 1 413 11 view .LVU596
 2056 0656 0193     		str	r3, [sp, #4]
 413:Src/register_interface.c ****           break;
 2057              		.loc 1 413 11 is_stmt 1 view .LVU597
 2058 0658 2146     		mov	r1, r4
 2059 065a FFF7FEFF 		bl	PID_SetKPDivisorPOW2
 2060              	.LVL250:
 414:Src/register_interface.c ****         }
 2061              		.loc 1 414 11 view .LVU598
 2062              	.LBE151:
 168:Src/register_interface.c ****   uint8_t motorID=0;
 2063              		.loc 1 168 11 is_stmt 0 view .LVU599
 2064 065e 0020     		movs	r0, #0
 2065              	.LBB152:
 414:Src/register_interface.c ****         }
 2066              		.loc 1 414 11 view .LVU600
 2067 0660 019B     		ldr	r3, [sp, #4]
 2068 0662 67E5     		b	.L58
 2069              	.LVL251:
 2070              	.L82:
 377:Src/register_interface.c ****           break;
 2071              		.loc 1 377 11 view .LVU601
 2072 0664 0848     		ldr	r0, .L203+4
 2073              	.LVL252:
 377:Src/register_interface.c ****           break;
 2074              		.loc 1 377 11 view .LVU602
 2075 0666 0193     		str	r3, [sp, #4]
 377:Src/register_interface.c ****           break;
 2076              		.loc 1 377 11 is_stmt 1 view .LVU603
 2077 0668 2146     		mov	r1, r4
 2078 066a FFF7FEFF 		bl	PID_SetKPDivisorPOW2
 2079              	.LVL253:
 378:Src/register_interface.c ****         }
 2080              		.loc 1 378 11 view .LVU604
 2081              	.LBE152:
 168:Src/register_interface.c ****   uint8_t motorID=0;
 2082              		.loc 1 168 11 is_stmt 0 view .LVU605
 2083 066e 0020     		movs	r0, #0
 2084              	.LBB153:
 378:Src/register_interface.c ****         }
 2085              		.loc 1 378 11 view .LVU606
 2086 0670 019B     		ldr	r3, [sp, #4]
 2087 0672 5FE5     		b	.L58
 2088              	.LVL254:
 2089              	.L64:
 243:Src/register_interface.c ****           break;
 2090              		.loc 1 243 11 is_stmt 1 view .LVU607
 2091 0674 0448     		ldr	r0, .L203+4
 2092              	.LVL255:
 243:Src/register_interface.c ****           break;
 2093              		.loc 1 243 11 is_stmt 0 view .LVU608
 2094 0676 0193     		str	r3, [sp, #4]
 2095 0678 21B2     		sxth	r1, r4
 2096 067a FFF7FEFF 		bl	PID_SetKD
 2097              	.LVL256:
 244:Src/register_interface.c ****         }
 2098              		.loc 1 244 11 is_stmt 1 view .LVU609
ARM GAS  /tmp/ccAfo4nU.s 			page 76


 2099              	.LBE153:
 168:Src/register_interface.c ****   uint8_t motorID=0;
 2100              		.loc 1 168 11 is_stmt 0 view .LVU610
 2101 067e 0020     		movs	r0, #0
 2102              	.LBB154:
 244:Src/register_interface.c ****         }
 2103              		.loc 1 244 11 view .LVU611
 2104 0680 019B     		ldr	r3, [sp, #4]
 2105 0682 57E5     		b	.L58
 2106              	.L204:
 2107              		.align	2
 2108              	.L203:
 2109 0684 00000000 		.word	PIDIqHandle_M1
 2110 0688 00000000 		.word	PIDSpeedHandle_M1
 2111              	.LBE154:
 2112              		.cfi_endproc
 2113              	.LFE1467:
 2115              		.section	.text.RI_GetRegisterGlobal,"ax",%progbits
 2116              		.align	1
 2117              		.p2align 2,,3
 2118              		.global	RI_GetRegisterGlobal
 2119              		.syntax unified
 2120              		.thumb
 2121              		.thumb_func
 2122              		.fpu fpv4-sp-d16
 2124              	RI_GetRegisterGlobal:
 2125              	.LVL257:
 2126              	.LFB1468:
 615:Src/register_interface.c ****     uint8_t retVal = MCP_CMD_OK;
 2127              		.loc 1 615 108 is_stmt 1 view -0
 2128              		.cfi_startproc
 2129              		@ args = 4, pretend = 0, frame = 0
 2130              		@ frame_needed = 0, uses_anonymous_args = 0
 2131              		@ link register save eliminated.
 616:Src/register_interface.c ****     switch (typeID)
 2132              		.loc 1 616 5 view .LVU613
 617:Src/register_interface.c ****     {
 2133              		.loc 1 617 5 view .LVU614
 615:Src/register_interface.c ****     uint8_t retVal = MCP_CMD_OK;
 2134              		.loc 1 615 108 is_stmt 0 view .LVU615
 2135 0000 30B4     		push	{r4, r5}
 2136              	.LCFI31:
 2137              		.cfi_def_cfa_offset 8
 2138              		.cfi_offset 4, -8
 2139              		.cfi_offset 5, -4
 617:Src/register_interface.c ****     {
 2140              		.loc 1 617 5 view .LVU616
 2141 0002 A1F10804 		sub	r4, r1, #8
 615:Src/register_interface.c ****     uint8_t retVal = MCP_CMD_OK;
 2142              		.loc 1 615 108 view .LVU617
 2143 0006 BDF90850 		ldrsh	r5, [sp, #8]
 617:Src/register_interface.c ****     {
 2144              		.loc 1 617 5 view .LVU618
 2145 000a 202C     		cmp	r4, #32
 2146 000c 3DD8     		bhi	.L224
 2147 000e DFE804F0 		tbb	[pc, r4]
 2148              	.L208:
ARM GAS  /tmp/ccAfo4nU.s 			page 77


 2149 0012 1A       		.byte	(.L212-.L208)/2
 2150 0013 3C       		.byte	(.L224-.L208)/2
 2151 0014 3C       		.byte	(.L224-.L208)/2
 2152 0015 3C       		.byte	(.L224-.L208)/2
 2153 0016 3C       		.byte	(.L224-.L208)/2
 2154 0017 3C       		.byte	(.L224-.L208)/2
 2155 0018 3C       		.byte	(.L224-.L208)/2
 2156 0019 3C       		.byte	(.L224-.L208)/2
 2157 001a 26       		.byte	(.L211-.L208)/2
 2158 001b 3C       		.byte	(.L224-.L208)/2
 2159 001c 3C       		.byte	(.L224-.L208)/2
 2160 001d 3C       		.byte	(.L224-.L208)/2
 2161 001e 3C       		.byte	(.L224-.L208)/2
 2162 001f 3C       		.byte	(.L224-.L208)/2
 2163 0020 3C       		.byte	(.L224-.L208)/2
 2164 0021 3C       		.byte	(.L224-.L208)/2
 2165 0022 20       		.byte	(.L210-.L208)/2
 2166 0023 3C       		.byte	(.L224-.L208)/2
 2167 0024 3C       		.byte	(.L224-.L208)/2
 2168 0025 3C       		.byte	(.L224-.L208)/2
 2169 0026 3C       		.byte	(.L224-.L208)/2
 2170 0027 3C       		.byte	(.L224-.L208)/2
 2171 0028 3C       		.byte	(.L224-.L208)/2
 2172 0029 3C       		.byte	(.L224-.L208)/2
 2173 002a 34       		.byte	(.L209-.L208)/2
 2174 002b 3C       		.byte	(.L224-.L208)/2
 2175 002c 3C       		.byte	(.L224-.L208)/2
 2176 002d 3C       		.byte	(.L224-.L208)/2
 2177 002e 3C       		.byte	(.L224-.L208)/2
 2178 002f 3C       		.byte	(.L224-.L208)/2
 2179 0030 3C       		.byte	(.L224-.L208)/2
 2180 0031 3C       		.byte	(.L224-.L208)/2
 2181 0032 11       		.byte	(.L207-.L208)/2
 2182 0033 00       		.p2align 1
 2183              	.L207:
 2184              	.LBB155:
 716:Src/register_interface.c ****         uint8_t * rawData = data;
 2185              		.loc 1 716 9 is_stmt 1 view .LVU619
 2186              	.LVL258:
 717:Src/register_interface.c ****         rawData++;
 2187              		.loc 1 717 9 view .LVU620
 718:Src/register_interface.c ****         rawData++;
 2188              		.loc 1 718 9 view .LVU621
 719:Src/register_interface.c **** 
 2189              		.loc 1 719 9 view .LVU622
 721:Src/register_interface.c ****         {
 2190              		.loc 1 721 9 view .LVU623
 2191 0034 2828     		cmp	r0, #40
 2192 0036 3ED0     		beq	.L222
 2193 0038 1288     		ldrh	r2, [r2]
 2194              	.LVL259:
 721:Src/register_interface.c ****         {
 2195              		.loc 1 721 9 is_stmt 0 view .LVU624
 2196 003a 0232     		adds	r2, r2, #2
 2197 003c 92B2     		uxth	r2, r2
 741:Src/register_interface.c ****             break;
 2198              		.loc 1 741 20 view .LVU625
ARM GAS  /tmp/ccAfo4nU.s 			page 78


 2199 003e 0520     		movs	r0, #5
 2200              	.LVL260:
 2201              	.L223:
 747:Src/register_interface.c ****         break;
 2202              		.loc 1 747 9 is_stmt 1 view .LVU626
 747:Src/register_interface.c ****         break;
 2203              		.loc 1 747 15 is_stmt 0 view .LVU627
 2204 0040 1A80     		strh	r2, [r3]	@ movhi
 748:Src/register_interface.c ****       }
 2205              		.loc 1 748 9 is_stmt 1 view .LVU628
 2206              	.LVL261:
 2207              	.L246:
 748:Src/register_interface.c ****       }
 2208              		.loc 1 748 9 is_stmt 0 view .LVU629
 2209              	.LBE155:
 758:Src/register_interface.c **** 
 2210              		.loc 1 758 1 view .LVU630
 2211 0042 30BC     		pop	{r4, r5}
 2212              	.LCFI32:
 2213              		.cfi_remember_state
 2214              		.cfi_restore 5
 2215              		.cfi_restore 4
 2216              		.cfi_def_cfa_offset 0
 2217              	.LVL262:
 758:Src/register_interface.c **** 
 2218              		.loc 1 758 1 view .LVU631
 2219 0044 7047     		bx	lr
 2220              	.LVL263:
 2221              	.L212:
 2222              	.LCFI33:
 2223              		.cfi_restore_state
 621:Src/register_interface.c ****         {
 2224              		.loc 1 621 9 is_stmt 1 view .LVU632
 621:Src/register_interface.c ****         {
 2225              		.loc 1 621 12 is_stmt 0 view .LVU633
 2226 0046 002D     		cmp	r5, #0
 2227 0048 2FDD     		ble	.L250
 623:Src/register_interface.c ****           {
 2228              		.loc 1 623 11 is_stmt 1 view .LVU634
 627:Src/register_interface.c ****               break;
 2229              		.loc 1 627 15 view .LVU635
 2230              	.LVL264:
 628:Src/register_interface.c ****             }
 2231              		.loc 1 628 15 view .LVU636
 631:Src/register_interface.c ****         }
 2232              		.loc 1 631 11 view .LVU637
 631:Src/register_interface.c ****         }
 2233              		.loc 1 631 17 is_stmt 0 view .LVU638
 2234 004a 0122     		movs	r2, #1
 2235              	.LVL265:
 631:Src/register_interface.c ****         }
 2236              		.loc 1 631 17 view .LVU639
 2237 004c 1A80     		strh	r2, [r3]	@ movhi
 627:Src/register_interface.c ****               break;
 2238              		.loc 1 627 22 view .LVU640
 2239 004e 0520     		movs	r0, #5
 2240              	.LVL266:
ARM GAS  /tmp/ccAfo4nU.s 			page 79


 627:Src/register_interface.c ****               break;
 2241              		.loc 1 627 22 view .LVU641
 2242 0050 F7E7     		b	.L246
 2243              	.LVL267:
 2244              	.L210:
 667:Src/register_interface.c ****         {
 2245              		.loc 1 667 9 is_stmt 1 view .LVU642
 667:Src/register_interface.c ****         {
 2246              		.loc 1 667 12 is_stmt 0 view .LVU643
 2247 0052 032D     		cmp	r5, #3
 2248 0054 2CDD     		ble	.L229
 669:Src/register_interface.c ****           {
 2249              		.loc 1 669 11 is_stmt 1 view .LVU644
 674:Src/register_interface.c ****               break;
 2250              		.loc 1 674 15 view .LVU645
 2251              	.LVL268:
 675:Src/register_interface.c ****             }
 2252              		.loc 1 675 15 view .LVU646
 678:Src/register_interface.c ****         }
 2253              		.loc 1 678 11 view .LVU647
 678:Src/register_interface.c ****         }
 2254              		.loc 1 678 17 is_stmt 0 view .LVU648
 2255 0056 0422     		movs	r2, #4
 2256              	.LVL269:
 678:Src/register_interface.c ****         }
 2257              		.loc 1 678 17 view .LVU649
 2258 0058 1A80     		strh	r2, [r3]	@ movhi
 674:Src/register_interface.c ****               break;
 2259              		.loc 1 674 22 view .LVU650
 2260 005a 0520     		movs	r0, #5
 2261              	.LVL270:
 674:Src/register_interface.c ****               break;
 2262              		.loc 1 674 22 view .LVU651
 2263 005c F1E7     		b	.L246
 2264              	.LVL271:
 2265              	.L211:
 642:Src/register_interface.c ****         {
 2266              		.loc 1 642 9 is_stmt 1 view .LVU652
 642:Src/register_interface.c ****         {
 2267              		.loc 1 642 12 is_stmt 0 view .LVU653
 2268 005e 012D     		cmp	r5, #1
 2269 0060 26DD     		ble	.L229
 644:Src/register_interface.c ****           {
 2270              		.loc 1 644 11 is_stmt 1 view .LVU654
 2271 0062 B0F5656F 		cmp	r0, #3664
 2272 0066 5CD0     		beq	.L227
 652:Src/register_interface.c ****               break;
 2273              		.loc 1 652 22 is_stmt 0 view .LVU655
 2274 0068 B0F5696F 		cmp	r0, #3728
 2275 006c 0CBF     		ite	eq
 2276 006e 0020     		moveq	r0, #0
 2277              	.LVL272:
 652:Src/register_interface.c ****               break;
 2278              		.loc 1 652 22 view .LVU656
 2279 0070 0520     		movne	r0, #5
 2280              	.L213:
 2281              	.LVL273:
ARM GAS  /tmp/ccAfo4nU.s 			page 80


 656:Src/register_interface.c ****         }
 2282              		.loc 1 656 11 is_stmt 1 view .LVU657
 656:Src/register_interface.c ****         }
 2283              		.loc 1 656 17 is_stmt 0 view .LVU658
 2284 0072 0222     		movs	r2, #2
 2285              	.LVL274:
 656:Src/register_interface.c ****         }
 2286              		.loc 1 656 17 view .LVU659
 2287 0074 1A80     		strh	r2, [r3]	@ movhi
 758:Src/register_interface.c **** 
 2288              		.loc 1 758 1 view .LVU660
 2289 0076 30BC     		pop	{r4, r5}
 2290              	.LCFI34:
 2291              		.cfi_remember_state
 2292              		.cfi_restore 5
 2293              		.cfi_restore 4
 2294              		.cfi_def_cfa_offset 0
 2295              	.LVL275:
 758:Src/register_interface.c **** 
 2296              		.loc 1 758 1 view .LVU661
 2297 0078 7047     		bx	lr
 2298              	.LVL276:
 2299              	.L209:
 2300              	.LCFI35:
 2301              		.cfi_restore_state
 2302              	.LBB156:
 689:Src/register_interface.c ****         switch (regID)
 2303              		.loc 1 689 9 is_stmt 1 view .LVU662
 690:Src/register_interface.c ****         {
 2304              		.loc 1 690 9 view .LVU663
 2305 007a 2028     		cmp	r0, #32
 2306 007c 3AD0     		beq	.L214
 2307 007e 6028     		cmp	r0, #96
 2308 0080 21D0     		beq	.L215
 704:Src/register_interface.c ****             *size= 0 ; /* */
 2309              		.loc 1 704 13 view .LVU664
 2310              	.LVL277:
 705:Src/register_interface.c **** 
 2311              		.loc 1 705 13 view .LVU665
 705:Src/register_interface.c **** 
 2312              		.loc 1 705 18 is_stmt 0 view .LVU666
 2313 0082 0022     		movs	r2, #0
 2314              	.LVL278:
 705:Src/register_interface.c **** 
 2315              		.loc 1 705 18 view .LVU667
 2316 0084 1A80     		strh	r2, [r3]	@ movhi
 707:Src/register_interface.c ****           }
 2317              		.loc 1 707 13 is_stmt 1 view .LVU668
 704:Src/register_interface.c ****             *size= 0 ; /* */
 2318              		.loc 1 704 20 is_stmt 0 view .LVU669
 2319 0086 0520     		movs	r0, #5
 2320              	.LVL279:
 707:Src/register_interface.c ****           }
 2321              		.loc 1 707 13 view .LVU670
 2322 0088 DBE7     		b	.L246
 2323              	.LVL280:
 2324              	.L224:
ARM GAS  /tmp/ccAfo4nU.s 			page 81


 707:Src/register_interface.c ****           }
 2325              		.loc 1 707 13 view .LVU671
 2326              	.LBE156:
 753:Src/register_interface.c ****         break;
 2327              		.loc 1 753 16 view .LVU672
 2328 008a 0720     		movs	r0, #7
 2329              	.LVL281:
 753:Src/register_interface.c ****         break;
 2330              		.loc 1 753 16 view .LVU673
 2331 008c D9E7     		b	.L246
 2332              	.LVL282:
 2333              	.L251:
 2334              	.LBB167:
 2335              	.LBB157:
 2336              	.LBB158:
1353:Src/register_interface.c ****   {
 2337              		.loc 1 1353 40 view .LVU674
 2338 008e A942     		cmp	r1, r5
 2339 0090 2ED2     		bcs	.L219
 2340              	.LVL283:
 2341              	.L218:
1355:Src/register_interface.c ****     tempdestString++;
 2342              		.loc 1 1355 5 is_stmt 1 view .LVU675
1355:Src/register_interface.c ****     tempdestString++;
 2343              		.loc 1 1355 21 is_stmt 0 view .LVU676
 2344 0092 02F8010B 		strb	r0, [r2], #1
 2345              	.LVL284:
1356:Src/register_interface.c ****     tempsrcString++;
 2346              		.loc 1 1356 5 is_stmt 1 view .LVU677
1357:Src/register_interface.c ****     *size = *size + 1U;
 2347              		.loc 1 1357 5 view .LVU678
1358:Src/register_interface.c ****   }
 2348              		.loc 1 1358 5 view .LVU679
1358:Src/register_interface.c ****   }
 2349              		.loc 1 1358 19 is_stmt 0 view .LVU680
 2350 0096 1988     		ldrh	r1, [r3]
 2351 0098 0131     		adds	r1, r1, #1
 2352 009a 89B2     		uxth	r1, r1
1358:Src/register_interface.c ****   }
 2353              		.loc 1 1358 11 view .LVU681
 2354 009c 1980     		strh	r1, [r3]	@ movhi
1353:Src/register_interface.c ****   {
 2355              		.loc 1 1353 11 view .LVU682
 2356 009e 14F9010F 		ldrsb	r0, [r4, #1]!
 2357              	.LVL285:
1353:Src/register_interface.c ****   {
 2358              		.loc 1 1353 9 view .LVU683
 2359 00a2 0028     		cmp	r0, #0
 2360 00a4 F3D1     		bne	.L251
 2361              	.LVL286:
 2362              	.L220:
1353:Src/register_interface.c ****   {
 2363              		.loc 1 1353 9 view .LVU684
 2364              	.LBE158:
 2365              	.LBE157:
 2366              	.LBB161:
 2367              	.LBB162:
ARM GAS  /tmp/ccAfo4nU.s 			page 82


1361:Src/register_interface.c ****   { /* Last string char must be 0 */
 2368              		.loc 1 1361 3 is_stmt 1 view .LVU685
 2369              		.loc 1 1367 5 view .LVU686
 2370              		.loc 1 1367 21 is_stmt 0 view .LVU687
 2371 00a6 0021     		movs	r1, #0
 2372 00a8 1170     		strb	r1, [r2]
 2373              	.LVL287:
 2374              	.L250:
1348:Src/register_interface.c ****   const char_t *tempsrcString = srcString;
 2375              		.loc 1 1348 11 view .LVU688
 2376 00aa 0846     		mov	r0, r1
1348:Src/register_interface.c ****   const char_t *tempsrcString = srcString;
 2377              		.loc 1 1348 11 view .LVU689
 2378              	.LBE162:
 2379              	.LBE161:
 2380              	.LBE167:
 757:Src/register_interface.c **** }
 2381              		.loc 1 757 3 is_stmt 1 view .LVU690
 758:Src/register_interface.c **** 
 2382              		.loc 1 758 1 is_stmt 0 view .LVU691
 2383 00ac 30BC     		pop	{r4, r5}
 2384              	.LCFI36:
 2385              		.cfi_remember_state
 2386              		.cfi_restore 5
 2387              		.cfi_restore 4
 2388              		.cfi_def_cfa_offset 0
 2389 00ae 7047     		bx	lr
 2390              	.LVL288:
 2391              	.L229:
 2392              	.LCFI37:
 2393              		.cfi_restore_state
 635:Src/register_interface.c ****         }
 2394              		.loc 1 635 18 view .LVU692
 2395 00b0 0820     		movs	r0, #8
 2396              	.LVL289:
 758:Src/register_interface.c **** 
 2397              		.loc 1 758 1 view .LVU693
 2398 00b2 30BC     		pop	{r4, r5}
 2399              	.LCFI38:
 2400              		.cfi_remember_state
 2401              		.cfi_restore 5
 2402              		.cfi_restore 4
 2403              		.cfi_def_cfa_offset 0
 2404              	.LVL290:
 758:Src/register_interface.c **** 
 2405              		.loc 1 758 1 view .LVU694
 2406 00b4 7047     		bx	lr
 2407              	.LVL291:
 2408              	.L222:
 2409              	.LCFI39:
 2410              		.cfi_restore_state
 2411              	.LBB168:
 725:Src/register_interface.c ****             if (((*rawSize) + 2U) > (uint16_t)freeSpace)
 2412              		.loc 1 725 13 is_stmt 1 view .LVU695
 726:Src/register_interface.c ****             {
 2413              		.loc 1 726 16 is_stmt 0 view .LVU696
 2414 00b6 ADB2     		uxth	r5, r5
ARM GAS  /tmp/ccAfo4nU.s 			page 83


 725:Src/register_interface.c ****             if (((*rawSize) + 2U) > (uint16_t)freeSpace)
 2415              		.loc 1 725 22 view .LVU697
 2416 00b8 0A21     		movs	r1, #10
 2417              	.LVL292:
 726:Src/register_interface.c ****             {
 2418              		.loc 1 726 16 view .LVU698
 2419 00ba 0B2D     		cmp	r5, #11
 725:Src/register_interface.c ****             if (((*rawSize) + 2U) > (uint16_t)freeSpace)
 2420              		.loc 1 725 22 view .LVU699
 2421 00bc 1180     		strh	r1, [r2]	@ movhi
 726:Src/register_interface.c ****             {
 2422              		.loc 1 726 13 is_stmt 1 view .LVU700
 726:Src/register_interface.c ****             {
 2423              		.loc 1 726 16 is_stmt 0 view .LVU701
 2424 00be 24D8     		bhi	.L252
 2425 00c0 0C22     		movs	r2, #12
 2426              	.LVL293:
 728:Src/register_interface.c ****             }
 2427              		.loc 1 728 22 view .LVU702
 2428 00c2 0820     		movs	r0, #8
 2429              	.LVL294:
 728:Src/register_interface.c ****             }
 2430              		.loc 1 728 22 view .LVU703
 2431 00c4 BCE7     		b	.L223
 2432              	.LVL295:
 2433              	.L215:
 728:Src/register_interface.c ****             }
 2434              		.loc 1 728 22 view .LVU704
 2435              	.LBE168:
 2436              	.LBB169:
 698:Src/register_interface.c ****             break;
 2437              		.loc 1 698 13 is_stmt 1 view .LVU705
 2438              	.LBB164:
 2439              	.LBI161:
1346:Src/register_interface.c **** {
 2440              		.loc 1 1346 9 view .LVU706
 2441              	.LBB163:
1348:Src/register_interface.c ****   const char_t *tempsrcString = srcString;
 2442              		.loc 1 1348 3 view .LVU707
1349:Src/register_interface.c ****   char_t *tempdestString = destString;
 2443              		.loc 1 1349 3 view .LVU708
1350:Src/register_interface.c ****   *size= 1U ; /* /0 is the min String size */
 2444              		.loc 1 1350 3 view .LVU709
1351:Src/register_interface.c **** 
 2445              		.loc 1 1351 3 view .LVU710
1353:Src/register_interface.c ****   {
 2446              		.loc 1 1353 11 is_stmt 0 view .LVU711
 2447 00c6 184C     		ldr	r4, .L254
 2448 00c8 94F90000 		ldrsb	r0, [r4]
 2449              	.LVL296:
1351:Src/register_interface.c **** 
 2450              		.loc 1 1351 8 view .LVU712
 2451 00cc 0121     		movs	r1, #1
 2452              	.LVL297:
1351:Src/register_interface.c **** 
 2453              		.loc 1 1351 8 view .LVU713
 2454 00ce 1980     		strh	r1, [r3]	@ movhi
ARM GAS  /tmp/ccAfo4nU.s 			page 84


1353:Src/register_interface.c ****   {
 2455              		.loc 1 1353 3 is_stmt 1 view .LVU714
1353:Src/register_interface.c ****   {
 2456              		.loc 1 1353 9 is_stmt 0 view .LVU715
 2457 00d0 0028     		cmp	r0, #0
 2458 00d2 E8D0     		beq	.L220
1353:Src/register_interface.c ****   {
 2459              		.loc 1 1353 50 view .LVU716
 2460 00d4 ADB2     		uxth	r5, r5
1353:Src/register_interface.c ****   {
 2461              		.loc 1 1353 50 view .LVU717
 2462 00d6 09E0     		b	.L249
 2463              	.LVL298:
 2464              	.L253:
1355:Src/register_interface.c ****     tempdestString++;
 2465              		.loc 1 1355 5 is_stmt 1 view .LVU718
1355:Src/register_interface.c ****     tempdestString++;
 2466              		.loc 1 1355 21 is_stmt 0 view .LVU719
 2467 00d8 02F8010B 		strb	r0, [r2], #1
 2468              	.LVL299:
1356:Src/register_interface.c ****     tempsrcString++;
 2469              		.loc 1 1356 5 is_stmt 1 view .LVU720
1357:Src/register_interface.c ****     *size = *size + 1U;
 2470              		.loc 1 1357 5 view .LVU721
1358:Src/register_interface.c ****   }
 2471              		.loc 1 1358 5 view .LVU722
1358:Src/register_interface.c ****   }
 2472              		.loc 1 1358 19 is_stmt 0 view .LVU723
 2473 00dc 1988     		ldrh	r1, [r3]
 2474 00de 0131     		adds	r1, r1, #1
 2475 00e0 89B2     		uxth	r1, r1
1358:Src/register_interface.c ****   }
 2476              		.loc 1 1358 11 view .LVU724
 2477 00e2 1980     		strh	r1, [r3]	@ movhi
1353:Src/register_interface.c ****   {
 2478              		.loc 1 1353 11 view .LVU725
 2479 00e4 14F9010F 		ldrsb	r0, [r4, #1]!
 2480              	.LVL300:
1353:Src/register_interface.c ****   {
 2481              		.loc 1 1353 9 view .LVU726
 2482 00e8 0028     		cmp	r0, #0
 2483 00ea DCD0     		beq	.L220
 2484              	.LVL301:
 2485              	.L249:
1353:Src/register_interface.c ****   {
 2486              		.loc 1 1353 40 view .LVU727
 2487 00ec 8D42     		cmp	r5, r1
 2488 00ee F3D8     		bhi	.L253
 2489              	.LVL302:
 2490              	.L219:
1353:Src/register_interface.c ****   {
 2491              		.loc 1 1353 40 view .LVU728
 2492              	.LBE163:
 2493              	.LBE164:
 2494              	.LBB165:
 2495              	.LBB159:
1363:Src/register_interface.c ****   }
ARM GAS  /tmp/ccAfo4nU.s 			page 85


 2496              		.loc 1 1363 12 view .LVU729
 2497 00f0 0620     		movs	r0, #6
 2498 00f2 A6E7     		b	.L246
 2499              	.LVL303:
 2500              	.L214:
1363:Src/register_interface.c ****   }
 2501              		.loc 1 1363 12 view .LVU730
 2502              	.LBE159:
 2503              	.LBE165:
 693:Src/register_interface.c ****             break;
 2504              		.loc 1 693 13 is_stmt 1 view .LVU731
 2505              	.LBB166:
 2506              	.LBI157:
1346:Src/register_interface.c **** {
 2507              		.loc 1 1346 9 view .LVU732
 2508              	.LBB160:
1348:Src/register_interface.c ****   const char_t *tempsrcString = srcString;
 2509              		.loc 1 1348 3 view .LVU733
1349:Src/register_interface.c ****   char_t *tempdestString = destString;
 2510              		.loc 1 1349 3 view .LVU734
1350:Src/register_interface.c ****   *size= 1U ; /* /0 is the min String size */
 2511              		.loc 1 1350 3 view .LVU735
1351:Src/register_interface.c **** 
 2512              		.loc 1 1351 3 view .LVU736
1353:Src/register_interface.c ****   {
 2513              		.loc 1 1353 11 is_stmt 0 view .LVU737
 2514 00f4 0D4C     		ldr	r4, .L254+4
 2515 00f6 94F90000 		ldrsb	r0, [r4]
 2516              	.LVL304:
1351:Src/register_interface.c **** 
 2517              		.loc 1 1351 8 view .LVU738
 2518 00fa 0121     		movs	r1, #1
 2519              	.LVL305:
1351:Src/register_interface.c **** 
 2520              		.loc 1 1351 8 view .LVU739
 2521 00fc 1980     		strh	r1, [r3]	@ movhi
1353:Src/register_interface.c ****   {
 2522              		.loc 1 1353 3 is_stmt 1 view .LVU740
1353:Src/register_interface.c ****   {
 2523              		.loc 1 1353 9 is_stmt 0 view .LVU741
 2524 00fe 0028     		cmp	r0, #0
 2525 0100 D1D0     		beq	.L220
1353:Src/register_interface.c ****   {
 2526              		.loc 1 1353 50 view .LVU742
 2527 0102 ADB2     		uxth	r5, r5
1353:Src/register_interface.c ****   {
 2528              		.loc 1 1353 40 view .LVU743
 2529 0104 8D42     		cmp	r5, r1
 2530 0106 C4D8     		bhi	.L218
 2531 0108 F2E7     		b	.L219
 2532              	.LVL306:
 2533              	.L252:
1353:Src/register_interface.c ****   {
 2534              		.loc 1 1353 40 view .LVU744
 2535              	.LBE160:
 2536              	.LBE166:
 2537              	.LBE169:
ARM GAS  /tmp/ccAfo4nU.s 			page 86


 2538              	.LBB170:
 732:Src/register_interface.c ****             }
 2539              		.loc 1 732 15 is_stmt 1 view .LVU745
 732:Src/register_interface.c ****             }
 2540              		.loc 1 732 21 is_stmt 0 view .LVU746
 2541 010a 0949     		ldr	r1, .L254+8
 2542 010c 901C     		adds	r0, r2, #2
 2543              	.LVL307:
 732:Src/register_interface.c ****             }
 2544              		.loc 1 732 21 view .LVU747
 2545 010e 0D68     		ldr	r5, [r1]	@ unaligned
 2546 0110 4C68     		ldr	r4, [r1, #4]	@ unaligned
 2547 0112 0989     		ldrh	r1, [r1, #8]	@ unaligned
 2548 0114 C2F80250 		str	r5, [r2, #2]	@ unaligned
 2549 0118 4460     		str	r4, [r0, #4]	@ unaligned
 2550 011a 0181     		strh	r1, [r0, #8]	@ unaligned
 2551 011c 0C22     		movs	r2, #12
 2552              	.LVL308:
 732:Src/register_interface.c ****             }
 2553              		.loc 1 732 21 view .LVU748
 2554              	.LBE170:
 616:Src/register_interface.c ****     switch (typeID)
 2555              		.loc 1 616 13 view .LVU749
 2556 011e 0020     		movs	r0, #0
 2557              	.LVL309:
 616:Src/register_interface.c ****     switch (typeID)
 2558              		.loc 1 616 13 view .LVU750
 2559 0120 8EE7     		b	.L223
 2560              	.LVL310:
 2561              	.L227:
 616:Src/register_interface.c ****     switch (typeID)
 2562              		.loc 1 616 13 view .LVU751
 2563 0122 0020     		movs	r0, #0
 2564              	.LVL311:
 616:Src/register_interface.c ****     switch (typeID)
 2565              		.loc 1 616 13 view .LVU752
 2566 0124 A5E7     		b	.L213
 2567              	.L255:
 2568 0126 00BF     		.align	2
 2569              	.L254:
 2570 0128 00000000 		.word	CTL_BOARD
 2571 012c 00000000 		.word	FIRMWARE_NAME
 2572 0130 00000000 		.word	globalConfig_reg
 2573              		.cfi_endproc
 2574              	.LFE1468:
 2576              		.section	.text.RI_GetRegisterMotor1,"ax",%progbits
 2577              		.align	1
 2578              		.p2align 2,,3
 2579              		.global	RI_GetRegisterMotor1
 2580              		.syntax unified
 2581              		.thumb
 2582              		.thumb_func
 2583              		.fpu fpv4-sp-d16
 2585              	RI_GetRegisterMotor1:
 2586              	.LVL312:
 2587              	.LFB1469:
 760:Src/register_interface.c ****     uint8_t retVal = MCP_CMD_OK;
ARM GAS  /tmp/ccAfo4nU.s 			page 87


 2588              		.loc 1 760 111 is_stmt 1 view -0
 2589              		.cfi_startproc
 2590              		@ args = 4, pretend = 0, frame = 72
 2591              		@ frame_needed = 0, uses_anonymous_args = 0
 761:Src/register_interface.c ****     uint8_t motorID=0;
 2592              		.loc 1 761 5 view .LVU754
 762:Src/register_interface.c ****     MCI_Handle_t *pMCIN = &Mci[motorID];
 2593              		.loc 1 762 5 view .LVU755
 763:Src/register_interface.c ****     BusVoltageSensor_Handle_t* BusVoltageSensor= &BusVoltageSensor_M1._Super;
 2594              		.loc 1 763 5 view .LVU756
 764:Src/register_interface.c ****     switch (typeID)
 2595              		.loc 1 764 5 view .LVU757
 765:Src/register_interface.c ****     {
 2596              		.loc 1 765 5 view .LVU758
 760:Src/register_interface.c ****     uint8_t retVal = MCP_CMD_OK;
 2597              		.loc 1 760 111 is_stmt 0 view .LVU759
 2598 0000 F0B5     		push	{r4, r5, r6, r7, lr}
 2599              	.LCFI40:
 2600              		.cfi_def_cfa_offset 20
 2601              		.cfi_offset 4, -20
 2602              		.cfi_offset 5, -16
 2603              		.cfi_offset 6, -12
 2604              		.cfi_offset 7, -8
 2605              		.cfi_offset 14, -4
 2606 0002 93B0     		sub	sp, sp, #76
 2607              	.LCFI41:
 2608              		.cfi_def_cfa_offset 96
 765:Src/register_interface.c ****     {
 2609              		.loc 1 765 5 view .LVU760
 2610 0004 A1F10806 		sub	r6, r1, #8
 760:Src/register_interface.c ****     uint8_t retVal = MCP_CMD_OK;
 2611              		.loc 1 760 111 view .LVU761
 2612 0008 1D46     		mov	r5, r3
 2613 000a 1446     		mov	r4, r2
 2614 000c BDF96030 		ldrsh	r3, [sp, #96]
 2615              	.LVL313:
 765:Src/register_interface.c ****     {
 2616              		.loc 1 765 5 view .LVU762
 2617 0010 202E     		cmp	r6, #32
 2618 0012 00F29980 		bhi	.L356
 2619 0016 DFE806F0 		tbb	[pc, r6]
 2620              	.LVL314:
 2621              	.L259:
 2622 001a 3C       		.byte	(.L263-.L259)/2
 2623 001b 97       		.byte	(.L356-.L259)/2
 2624 001c 97       		.byte	(.L356-.L259)/2
 2625 001d 97       		.byte	(.L356-.L259)/2
 2626 001e 97       		.byte	(.L356-.L259)/2
 2627 001f 97       		.byte	(.L356-.L259)/2
 2628 0020 97       		.byte	(.L356-.L259)/2
 2629 0021 97       		.byte	(.L356-.L259)/2
 2630 0022 4D       		.byte	(.L262-.L259)/2
 2631 0023 97       		.byte	(.L356-.L259)/2
 2632 0024 97       		.byte	(.L356-.L259)/2
 2633 0025 97       		.byte	(.L356-.L259)/2
 2634 0026 97       		.byte	(.L356-.L259)/2
 2635 0027 97       		.byte	(.L356-.L259)/2
ARM GAS  /tmp/ccAfo4nU.s 			page 88


 2636 0028 97       		.byte	(.L356-.L259)/2
 2637 0029 97       		.byte	(.L356-.L259)/2
 2638 002a 73       		.byte	(.L261-.L259)/2
 2639 002b 97       		.byte	(.L356-.L259)/2
 2640 002c 97       		.byte	(.L356-.L259)/2
 2641 002d 97       		.byte	(.L356-.L259)/2
 2642 002e 97       		.byte	(.L356-.L259)/2
 2643 002f 97       		.byte	(.L356-.L259)/2
 2644 0030 97       		.byte	(.L356-.L259)/2
 2645 0031 97       		.byte	(.L356-.L259)/2
 2646 0032 8D       		.byte	(.L260-.L259)/2
 2647 0033 97       		.byte	(.L356-.L259)/2
 2648 0034 97       		.byte	(.L356-.L259)/2
 2649 0035 97       		.byte	(.L356-.L259)/2
 2650 0036 97       		.byte	(.L356-.L259)/2
 2651 0037 97       		.byte	(.L356-.L259)/2
 2652 0038 97       		.byte	(.L356-.L259)/2
 2653 0039 97       		.byte	(.L356-.L259)/2
 2654 003a 11       		.byte	(.L258-.L259)/2
 2655 003b 00       		.p2align 1
 2656              	.L258:
 2657              	.LBB171:
1196:Src/register_interface.c ****         uint8_t * rawData = data;
 2658              		.loc 1 1196 9 is_stmt 1 view .LVU763
1197:Src/register_interface.c ****         rawData++;
 2659              		.loc 1 1197 9 view .LVU764
1198:Src/register_interface.c ****         rawData++;
 2660              		.loc 1 1198 9 view .LVU765
1199:Src/register_interface.c **** 
 2661              		.loc 1 1199 9 view .LVU766
 2662 003c B0F5947F 		cmp	r0, #296
1199:Src/register_interface.c **** 
 2663              		.loc 1 1199 16 is_stmt 0 view .LVU767
 2664 0040 04F10202 		add	r2, r4, #2
 2665              	.LVL315:
1201:Src/register_interface.c ****         {
 2666              		.loc 1 1201 9 is_stmt 1 view .LVU768
 2667 0044 00F08B82 		beq	.L343
 2668 0048 40F29480 		bls	.L389
 2669 004c B0F5F47F 		cmp	r0, #488
 2670 0050 00F07682 		beq	.L349
 2671 0054 7AD9     		bls	.L390
 2672 0056 B0F50A7F 		cmp	r0, #552
 2673 005a 00F0AD82 		beq	.L352
 2674 005e B0F55A7F 		cmp	r0, #872
 2675 0062 40F09080 		bne	.L348
 2676              	.LBB172:
1313:Src/register_interface.c ****             uint16_t *idref = (uint16_t *)&rawData[2]; //cstat !MISRAC2012-Rule-11.3
 2677              		.loc 1 1313 13 view .LVU769
 2678              	.LVL316:
1314:Src/register_interface.c **** 
 2679              		.loc 1 1314 13 view .LVU770
1316:Src/register_interface.c ****             *iqref = (uint16_t)MCI_GetIqdref(pMCIN).q;
 2680              		.loc 1 1316 13 view .LVU771
1316:Src/register_interface.c ****             *iqref = (uint16_t)MCI_GetIqdref(pMCIN).q;
 2681              		.loc 1 1316 22 is_stmt 0 view .LVU772
 2682 0066 0423     		movs	r3, #4
ARM GAS  /tmp/ccAfo4nU.s 			page 89


 2683 0068 2380     		strh	r3, [r4]	@ movhi
1317:Src/register_interface.c ****             *idref = (uint16_t)MCI_GetIqdref(pMCIN).d;
 2684              		.loc 1 1317 13 is_stmt 1 view .LVU773
1317:Src/register_interface.c ****             *idref = (uint16_t)MCI_GetIqdref(pMCIN).d;
 2685              		.loc 1 1317 32 is_stmt 0 view .LVU774
 2686 006a C648     		ldr	r0, .L417
 2687              	.LVL317:
1317:Src/register_interface.c ****             *idref = (uint16_t)MCI_GetIqdref(pMCIN).d;
 2688              		.loc 1 1317 32 view .LVU775
 2689 006c FFF7FEFF 		bl	MCI_GetIqdref
 2690              	.LVL318:
1317:Src/register_interface.c ****             *idref = (uint16_t)MCI_GetIqdref(pMCIN).d;
 2691              		.loc 1 1317 32 view .LVU776
 2692 0070 0346     		mov	r3, r0
1317:Src/register_interface.c ****             *idref = (uint16_t)MCI_GetIqdref(pMCIN).d;
 2693              		.loc 1 1317 20 view .LVU777
 2694 0072 6080     		strh	r0, [r4, #2]	@ movhi
1318:Src/register_interface.c ****             break;
 2695              		.loc 1 1318 13 is_stmt 1 view .LVU778
1318:Src/register_interface.c ****             break;
 2696              		.loc 1 1318 32 is_stmt 0 view .LVU779
 2697 0074 C348     		ldr	r0, .L417
1317:Src/register_interface.c ****             *idref = (uint16_t)MCI_GetIqdref(pMCIN).d;
 2698              		.loc 1 1317 32 view .LVU780
 2699 0076 1093     		str	r3, [sp, #64]
1318:Src/register_interface.c ****             break;
 2700              		.loc 1 1318 32 view .LVU781
 2701 0078 FFF7FEFF 		bl	MCI_GetIqdref
 2702              	.LVL319:
 2703 007c 2388     		ldrh	r3, [r4]
1318:Src/register_interface.c ****             break;
 2704              		.loc 1 1318 20 view .LVU782
 2705 007e C0F30F40 		ubfx	r0, r0, #16, #16
 2706 0082 0233     		adds	r3, r3, #2
 2707 0084 A080     		strh	r0, [r4, #4]	@ movhi
1319:Src/register_interface.c ****           }
 2708              		.loc 1 1319 13 is_stmt 1 view .LVU783
 2709 0086 9BB2     		uxth	r3, r3
 2710              	.LBE172:
 2711              	.LBE171:
 761:Src/register_interface.c ****     uint8_t motorID=0;
 2712              		.loc 1 761 13 is_stmt 0 view .LVU784
 2713 0088 0021     		movs	r1, #0
 2714              	.LVL320:
 2715              	.L354:
 2716              	.LBB201:
1333:Src/register_interface.c ****         break;
 2717              		.loc 1 1333 9 is_stmt 1 view .LVU785
 2718              	.LBE201:
1344:Src/register_interface.c **** 
 2719              		.loc 1 1344 3 is_stmt 0 view .LVU786
 2720 008a 0846     		mov	r0, r1
 2721              	.LBB202:
1333:Src/register_interface.c ****         break;
 2722              		.loc 1 1333 15 view .LVU787
 2723 008c 2B80     		strh	r3, [r5]	@ movhi
1334:Src/register_interface.c ****       }
ARM GAS  /tmp/ccAfo4nU.s 			page 90


 2724              		.loc 1 1334 9 is_stmt 1 view .LVU788
 2725              	.LBE202:
1344:Src/register_interface.c **** 
 2726              		.loc 1 1344 3 is_stmt 0 view .LVU789
 2727 008e 13B0     		add	sp, sp, #76
 2728              	.LCFI42:
 2729              		.cfi_remember_state
 2730              		.cfi_def_cfa_offset 20
 2731              		@ sp needed
 2732 0090 F0BD     		pop	{r4, r5, r6, r7, pc}
 2733              	.LVL321:
 2734              	.L263:
 2735              	.LCFI43:
 2736              		.cfi_restore_state
 769:Src/register_interface.c ****         {
 2737              		.loc 1 769 9 is_stmt 1 view .LVU790
 769:Src/register_interface.c ****         {
 2738              		.loc 1 769 12 is_stmt 0 view .LVU791
 2739 0092 002B     		cmp	r3, #0
 2740 0094 0BDD     		ble	.L384
 771:Src/register_interface.c ****           {
 2741              		.loc 1 771 11 is_stmt 1 view .LVU792
 2742 0096 8828     		cmp	r0, #136
 2743 0098 00F04C82 		beq	.L264
 2744 009c C828     		cmp	r0, #200
 2745 009e 00F04382 		beq	.L265
 2746 00a2 4828     		cmp	r0, #72
 2747 00a4 00F03A82 		beq	.L391
 793:Src/register_interface.c ****               break;
 2748              		.loc 1 793 22 is_stmt 0 view .LVU793
 2749 00a8 0521     		movs	r1, #5
 2750              	.LVL322:
 2751              	.L266:
 797:Src/register_interface.c ****         }
 2752              		.loc 1 797 11 is_stmt 1 view .LVU794
 797:Src/register_interface.c ****         }
 2753              		.loc 1 797 17 is_stmt 0 view .LVU795
 2754 00aa 0123     		movs	r3, #1
 2755 00ac 2B80     		strh	r3, [r5]	@ movhi
 2756              	.LVL323:
 2757              	.L384:
1344:Src/register_interface.c **** 
 2758              		.loc 1 1344 3 view .LVU796
 2759 00ae 0846     		mov	r0, r1
 2760 00b0 13B0     		add	sp, sp, #76
 2761              	.LCFI44:
 2762              		.cfi_remember_state
 2763              		.cfi_def_cfa_offset 20
 2764              		@ sp needed
 2765 00b2 F0BD     		pop	{r4, r5, r6, r7, pc}
 2766              	.LVL324:
 2767              	.L262:
 2768              	.LCFI45:
 2769              		.cfi_restore_state
 2770              	.LBB203:
 808:Src/register_interface.c ****         int16_t *regdata16 = (int16_t *) data; //cstat !MISRAC2012-Rule-11.3
 2771              		.loc 1 808 9 is_stmt 1 view .LVU797
ARM GAS  /tmp/ccAfo4nU.s 			page 91


 809:Src/register_interface.c **** 
 2772              		.loc 1 809 9 view .LVU798
 811:Src/register_interface.c ****         {
 2773              		.loc 1 811 9 view .LVU799
 811:Src/register_interface.c ****         {
 2774              		.loc 1 811 12 is_stmt 0 view .LVU800
 2775 00b4 012B     		cmp	r3, #1
 2776 00b6 40F3F881 		ble	.L362
 813:Src/register_interface.c ****           {
 2777              		.loc 1 813 11 is_stmt 1 view .LVU801
 2778 00ba B0F5196F 		cmp	r0, #2448
 2779 00be 00F05F83 		beq	.L267
 2780 00c2 00F28780 		bhi	.L268
 2781 00c6 B0F5647F 		cmp	r0, #912
 2782 00ca 00F03783 		beq	.L269
 2783 00ce 00F29D80 		bhi	.L270
 2784 00d2 B0F5E87F 		cmp	r0, #464
 2785 00d6 00F02B83 		beq	.L271
 2786 00da 6CD9     		bls	.L392
 2787 00dc B0F5347F 		cmp	r0, #720
 2788 00e0 00F03683 		beq	.L279
 2789 00e4 5ED8     		bhi	.L280
 2790 00e6 B0F5047F 		cmp	r0, #528
 2791 00ea 51D1     		bne	.L393
 847:Src/register_interface.c ****               break;
 2792              		.loc 1 847 15 view .LVU802
 847:Src/register_interface.c ****               break;
 2793              		.loc 1 847 28 is_stmt 0 view .LVU803
 2794 00ec A648     		ldr	r0, .L417+4
 2795              	.LVL325:
 847:Src/register_interface.c ****               break;
 2796              		.loc 1 847 28 view .LVU804
 2797 00ee FFF7FEFF 		bl	PID_GetKD
 2798              	.LVL326:
 847:Src/register_interface.c ****               break;
 2799              		.loc 1 847 28 view .LVU805
 2800              	.LBE203:
 761:Src/register_interface.c ****     uint8_t motorID=0;
 2801              		.loc 1 761 13 view .LVU806
 2802 00f2 0021     		movs	r1, #0
 2803              	.LBB206:
 847:Src/register_interface.c ****               break;
 2804              		.loc 1 847 26 view .LVU807
 2805 00f4 2080     		strh	r0, [r4]	@ movhi
 2806              	.LVL327:
 848:Src/register_interface.c ****             }
 2807              		.loc 1 848 15 is_stmt 1 view .LVU808
 2808              	.L276:
1096:Src/register_interface.c ****         }
 2809              		.loc 1 1096 11 view .LVU809
1096:Src/register_interface.c ****         }
 2810              		.loc 1 1096 17 is_stmt 0 view .LVU810
 2811 00f6 0223     		movs	r3, #2
 2812 00f8 2B80     		strh	r3, [r5]	@ movhi
 2813              	.L411:
1096:Src/register_interface.c ****         }
 2814              		.loc 1 1096 17 view .LVU811
ARM GAS  /tmp/ccAfo4nU.s 			page 92


 2815              	.LBE206:
1344:Src/register_interface.c **** 
 2816              		.loc 1 1344 3 view .LVU812
 2817 00fa 0846     		mov	r0, r1
 2818 00fc 13B0     		add	sp, sp, #76
 2819              	.LCFI46:
 2820              		.cfi_remember_state
 2821              		.cfi_def_cfa_offset 20
 2822              		@ sp needed
 2823 00fe F0BD     		pop	{r4, r5, r6, r7, pc}
 2824              	.LVL328:
 2825              	.L261:
 2826              	.LCFI47:
 2827              		.cfi_restore_state
 2828              	.LBB207:
1107:Src/register_interface.c ****         int32_t *regdata32 = (int32_t *)data; //cstat !MISRAC2012-Rule-11.3
 2829              		.loc 1 1107 9 is_stmt 1 view .LVU813
1108:Src/register_interface.c **** 
 2830              		.loc 1 1108 9 view .LVU814
1110:Src/register_interface.c ****         {
 2831              		.loc 1 1110 9 view .LVU815
1110:Src/register_interface.c ****         {
 2832              		.loc 1 1110 12 is_stmt 0 view .LVU816
 2833 0100 032B     		cmp	r3, #3
 2834 0102 40F3D281 		ble	.L362
1112:Src/register_interface.c ****           {
 2835              		.loc 1 1112 11 is_stmt 1 view .LVU817
 2836 0106 9828     		cmp	r0, #152
 2837 0108 00F09C82 		beq	.L327
 2838 010c 40F2BC81 		bls	.L394
 2839 0110 B0F58C7F 		cmp	r0, #280
 2840 0114 00F0A782 		beq	.L332
 2841 0118 41F65833 		movw	r3, #7000
 2842 011c 9842     		cmp	r0, r3
 2843 011e 00F09A82 		beq	.L333
 2844 0122 D828     		cmp	r0, #216
 2845 0124 00F0A582 		beq	.L334
 2846              	.L388:
1153:Src/register_interface.c ****               break;
 2847              		.loc 1 1153 22 is_stmt 0 view .LVU818
 2848 0128 0521     		movs	r1, #5
 2849              	.LVL329:
 2850              	.L331:
1157:Src/register_interface.c ****         }
 2851              		.loc 1 1157 11 is_stmt 1 view .LVU819
1157:Src/register_interface.c ****         }
 2852              		.loc 1 1157 17 is_stmt 0 view .LVU820
 2853 012a 0423     		movs	r3, #4
 2854              	.LBE207:
1344:Src/register_interface.c **** 
 2855              		.loc 1 1344 3 view .LVU821
 2856 012c 0846     		mov	r0, r1
 2857              	.LBB210:
1157:Src/register_interface.c ****         }
 2858              		.loc 1 1157 17 view .LVU822
 2859 012e 2B80     		strh	r3, [r5]	@ movhi
 2860              	.LBE210:
ARM GAS  /tmp/ccAfo4nU.s 			page 93


1344:Src/register_interface.c **** 
 2861              		.loc 1 1344 3 view .LVU823
 2862 0130 13B0     		add	sp, sp, #76
 2863              	.LCFI48:
 2864              		.cfi_remember_state
 2865              		.cfi_def_cfa_offset 20
 2866              		@ sp needed
 2867 0132 F0BD     		pop	{r4, r5, r6, r7, pc}
 2868              	.LVL330:
 2869              	.L260:
 2870              	.LCFI49:
 2871              		.cfi_restore_state
 2872              	.LBB211:
1168:Src/register_interface.c ****         switch (regID)
 2873              		.loc 1 1168 9 is_stmt 1 view .LVU824
1169:Src/register_interface.c ****         {
 2874              		.loc 1 1169 9 view .LVU825
 2875 0134 A028     		cmp	r0, #160
 2876 0136 00F0D881 		beq	.L335
 2877 013a E028     		cmp	r0, #224
 2878 013c 00F0B981 		beq	.L336
1185:Src/register_interface.c ****             *size= 0 ; /* */
 2879              		.loc 1 1185 13 view .LVU826
 2880              	.LVL331:
1186:Src/register_interface.c ****             break;
 2881              		.loc 1 1186 13 view .LVU827
1186:Src/register_interface.c ****             break;
 2882              		.loc 1 1186 18 is_stmt 0 view .LVU828
 2883 0140 0023     		movs	r3, #0
 2884 0142 2B80     		strh	r3, [r5]	@ movhi
1187:Src/register_interface.c ****           }
 2885              		.loc 1 1187 13 is_stmt 1 view .LVU829
1185:Src/register_interface.c ****             *size= 0 ; /* */
 2886              		.loc 1 1185 20 is_stmt 0 view .LVU830
 2887 0144 0521     		movs	r1, #5
 2888              	.LVL332:
1187:Src/register_interface.c ****           }
 2889              		.loc 1 1187 13 view .LVU831
 2890 0146 B2E7     		b	.L384
 2891              	.LVL333:
 2892              	.L356:
1187:Src/register_interface.c ****           }
 2893              		.loc 1 1187 13 view .LVU832
 2894              	.LBE211:
1339:Src/register_interface.c ****         break;
 2895              		.loc 1 1339 16 view .LVU833
 2896 0148 0721     		movs	r1, #7
 2897              	.LVL334:
1339:Src/register_interface.c ****         break;
 2898              		.loc 1 1339 16 view .LVU834
 2899 014a B0E7     		b	.L384
 2900              	.LVL335:
 2901              	.L390:
 2902              	.LBB226:
1339:Src/register_interface.c ****         break;
 2903              		.loc 1 1339 16 view .LVU835
 2904 014c B0F5D47F 		cmp	r0, #424
ARM GAS  /tmp/ccAfo4nU.s 			page 94


 2905 0150 19D1     		bne	.L348
 2906              	.LBB173:
1263:Src/register_interface.c ****             uint16_t *duration = (uint16_t *)&rawData[4]; //cstat !MISRAC2012-Rule-11.3
 2907              		.loc 1 1263 13 is_stmt 1 view .LVU836
 2908              	.LVL336:
1264:Src/register_interface.c ****             *rpm = (((int32_t)MCI_GetLastRampFinalSpeed(pMCIN) * U_RPM) / (int32_t)SPEED_UNIT);
 2909              		.loc 1 1264 13 view .LVU837
1265:Src/register_interface.c ****             *duration = MCI_GetLastRampFinalDuration(pMCIN);
 2910              		.loc 1 1265 13 view .LVU838
1265:Src/register_interface.c ****             *duration = MCI_GetLastRampFinalDuration(pMCIN);
 2911              		.loc 1 1265 31 is_stmt 0 view .LVU839
 2912 0152 8C48     		ldr	r0, .L417
 2913              	.LVL337:
1265:Src/register_interface.c ****             *duration = MCI_GetLastRampFinalDuration(pMCIN);
 2914              		.loc 1 1265 31 view .LVU840
 2915 0154 FFF7FEFF 		bl	MCI_GetLastRampFinalSpeed
 2916              	.LVL338:
1265:Src/register_interface.c ****             *duration = MCI_GetLastRampFinalDuration(pMCIN);
 2917              		.loc 1 1265 73 view .LVU841
 2918 0158 00EB4000 		add	r0, r0, r0, lsl #1
 2919 015c 4000     		lsls	r0, r0, #1
1265:Src/register_interface.c ****             *duration = MCI_GetLastRampFinalDuration(pMCIN);
 2920              		.loc 1 1265 18 view .LVU842
 2921 015e C4F80200 		str	r0, [r4, #2]
1266:Src/register_interface.c ****             *rawSize = 6;
 2922              		.loc 1 1266 13 is_stmt 1 view .LVU843
1266:Src/register_interface.c ****             *rawSize = 6;
 2923              		.loc 1 1266 25 is_stmt 0 view .LVU844
 2924 0162 8848     		ldr	r0, .L417
 2925 0164 FFF7FEFF 		bl	MCI_GetLastRampFinalDuration
 2926              	.LVL339:
1267:Src/register_interface.c ****             break;
 2927              		.loc 1 1267 22 view .LVU845
 2928 0168 0623     		movs	r3, #6
 2929 016a 2380     		strh	r3, [r4]	@ movhi
1266:Src/register_interface.c ****             *rawSize = 6;
 2930              		.loc 1 1266 23 view .LVU846
 2931 016c E080     		strh	r0, [r4, #6]	@ movhi
1267:Src/register_interface.c ****             break;
 2932              		.loc 1 1267 13 is_stmt 1 view .LVU847
1268:Src/register_interface.c ****           }
 2933              		.loc 1 1268 13 view .LVU848
 2934 016e 0823     		movs	r3, #8
 2935              	.LBE173:
 2936              	.LBE226:
 761:Src/register_interface.c ****     uint8_t motorID=0;
 2937              		.loc 1 761 13 is_stmt 0 view .LVU849
 2938 0170 0021     		movs	r1, #0
 2939              	.LBB227:
 2940              	.LBB174:
1268:Src/register_interface.c ****           }
 2941              		.loc 1 1268 13 view .LVU850
 2942 0172 8AE7     		b	.L354
 2943              	.LVL340:
 2944              	.L389:
1268:Src/register_interface.c ****           }
 2945              		.loc 1 1268 13 view .LVU851
ARM GAS  /tmp/ccAfo4nU.s 			page 95


 2946              	.LBE174:
 2947 0174 A828     		cmp	r0, #168
 2948 0176 00F00482 		beq	.L345
 2949 017a E828     		cmp	r0, #232
 2950 017c 00F00A82 		beq	.L346
 2951 0180 6828     		cmp	r0, #104
 2952 0182 00F01082 		beq	.L395
 2953              	.L348:
1268:Src/register_interface.c ****           }
 2954              		.loc 1 1268 13 view .LVU852
 2955 0186 2388     		ldrh	r3, [r4]
 2956 0188 0233     		adds	r3, r3, #2
 2957 018a 9BB2     		uxth	r3, r3
1327:Src/register_interface.c ****             break;
 2958              		.loc 1 1327 20 view .LVU853
 2959 018c 0521     		movs	r1, #5
 2960              	.LVL341:
1327:Src/register_interface.c ****             break;
 2961              		.loc 1 1327 20 view .LVU854
 2962 018e 7CE7     		b	.L354
 2963              	.LVL342:
 2964              	.L393:
1327:Src/register_interface.c ****             break;
 2965              		.loc 1 1327 20 view .LVU855
 2966              	.LBE227:
 2967              	.LBB228:
 2968 0190 B0F5247F 		cmp	r0, #656
 2969 0194 40F08781 		bne	.L387
 853:Src/register_interface.c ****               break;
 2970              		.loc 1 853 15 is_stmt 1 view .LVU856
 853:Src/register_interface.c ****               break;
 2971              		.loc 1 853 28 is_stmt 0 view .LVU857
 2972 0198 7C48     		ldr	r0, .L417+8
 2973              	.LVL343:
 853:Src/register_interface.c ****               break;
 2974              		.loc 1 853 28 view .LVU858
 2975 019a FFF7FEFF 		bl	PID_GetKP
 2976              	.LVL344:
 853:Src/register_interface.c ****               break;
 2977              		.loc 1 853 28 view .LVU859
 2978              	.LBE228:
 761:Src/register_interface.c ****     uint8_t motorID=0;
 2979              		.loc 1 761 13 view .LVU860
 2980 019e 0021     		movs	r1, #0
 2981              	.LBB229:
 853:Src/register_interface.c ****               break;
 2982              		.loc 1 853 26 view .LVU861
 2983 01a0 2080     		strh	r0, [r4]	@ movhi
 2984              	.LVL345:
 854:Src/register_interface.c ****             }
 2985              		.loc 1 854 15 is_stmt 1 view .LVU862
 2986 01a2 A8E7     		b	.L276
 2987              	.LVL346:
 2988              	.L280:
 854:Src/register_interface.c ****             }
 2989              		.loc 1 854 15 is_stmt 0 view .LVU863
 2990 01a4 B0F5447F 		cmp	r0, #784
ARM GAS  /tmp/ccAfo4nU.s 			page 96


 2991 01a8 43D1     		bne	.L396
 865:Src/register_interface.c ****               break;
 2992              		.loc 1 865 15 is_stmt 1 view .LVU864
 865:Src/register_interface.c ****               break;
 2993              		.loc 1 865 28 is_stmt 0 view .LVU865
 2994 01aa 7848     		ldr	r0, .L417+8
 2995              	.LVL347:
 865:Src/register_interface.c ****               break;
 2996              		.loc 1 865 28 view .LVU866
 2997 01ac FFF7FEFF 		bl	PID_GetKD
 2998              	.LVL348:
 865:Src/register_interface.c ****               break;
 2999              		.loc 1 865 28 view .LVU867
 3000              	.LBE229:
 761:Src/register_interface.c ****     uint8_t motorID=0;
 3001              		.loc 1 761 13 view .LVU868
 3002 01b0 0021     		movs	r1, #0
 3003              	.LBB230:
 865:Src/register_interface.c ****               break;
 3004              		.loc 1 865 26 view .LVU869
 3005 01b2 2080     		strh	r0, [r4]	@ movhi
 3006              	.LVL349:
 866:Src/register_interface.c ****             }
 3007              		.loc 1 866 15 is_stmt 1 view .LVU870
 3008 01b4 9FE7     		b	.L276
 3009              	.LVL350:
 3010              	.L392:
 866:Src/register_interface.c ****             }
 3011              		.loc 1 866 15 is_stmt 0 view .LVU871
 3012 01b6 D028     		cmp	r0, #208
 3013 01b8 00F0EA82 		beq	.L273
 3014 01bc 40F29380 		bls	.L397
 3015 01c0 B0F5887F 		cmp	r0, #272
 3016 01c4 40F08580 		bne	.L398
 829:Src/register_interface.c ****               break;
 3017              		.loc 1 829 15 is_stmt 1 view .LVU872
 829:Src/register_interface.c ****               break;
 3018              		.loc 1 829 28 is_stmt 0 view .LVU873
 3019 01c8 7148     		ldr	r0, .L417+12
 3020              	.LVL351:
 829:Src/register_interface.c ****               break;
 3021              		.loc 1 829 28 view .LVU874
 3022 01ca FFF7FEFF 		bl	PID_GetKD
 3023              	.LVL352:
 829:Src/register_interface.c ****               break;
 3024              		.loc 1 829 28 view .LVU875
 3025              	.LBE230:
 761:Src/register_interface.c ****     uint8_t motorID=0;
 3026              		.loc 1 761 13 view .LVU876
 3027 01ce 0021     		movs	r1, #0
 3028              	.LBB231:
 829:Src/register_interface.c ****               break;
 3029              		.loc 1 829 26 view .LVU877
 3030 01d0 2080     		strh	r0, [r4]	@ movhi
 3031              	.LVL353:
 830:Src/register_interface.c ****             }
 3032              		.loc 1 830 15 is_stmt 1 view .LVU878
ARM GAS  /tmp/ccAfo4nU.s 			page 97


 3033 01d2 90E7     		b	.L276
 3034              	.LVL354:
 3035              	.L268:
 830:Src/register_interface.c ****             }
 3036              		.loc 1 830 15 is_stmt 0 view .LVU879
 3037 01d4 B0F5696F 		cmp	r0, #3728
 3038 01d8 00F0A882 		beq	.L360
 3039 01dc 00F2BC80 		bhi	.L299
 3040 01e0 B0F5396F 		cmp	r0, #2960
 3041 01e4 00F0E082 		beq	.L300
 3042 01e8 00F2A780 		bhi	.L301
 3043 01ec B0F5256F 		cmp	r0, #2640
 3044 01f0 00F0D482 		beq	.L302
 3045 01f4 00F29680 		bhi	.L303
 3046 01f8 B0F51D6F 		cmp	r0, #2512
 3047 01fc 40F08680 		bne	.L399
 931:Src/register_interface.c ****               break;
 3048              		.loc 1 931 15 is_stmt 1 view .LVU880
 931:Src/register_interface.c ****               break;
 3049              		.loc 1 931 28 is_stmt 0 view .LVU881
 3050 0200 6048     		ldr	r0, .L417
 3051              	.LVL355:
 931:Src/register_interface.c ****               break;
 3052              		.loc 1 931 28 view .LVU882
 3053 0202 FFF7FEFF 		bl	MCI_GetVqd
 3054              	.LVL356:
 931:Src/register_interface.c ****               break;
 3055              		.loc 1 931 28 view .LVU883
 3056              	.LBE231:
 761:Src/register_interface.c ****     uint8_t motorID=0;
 3057              		.loc 1 761 13 view .LVU884
 3058 0206 0021     		movs	r1, #0
 3059              	.LBB232:
 931:Src/register_interface.c ****               break;
 3060              		.loc 1 931 26 view .LVU885
 3061 0208 2080     		strh	r0, [r4]	@ movhi
 3062              	.LVL357:
 932:Src/register_interface.c ****             }
 3063              		.loc 1 932 15 is_stmt 1 view .LVU886
 3064 020a 74E7     		b	.L276
 3065              	.LVL358:
 3066              	.L270:
 932:Src/register_interface.c ****             }
 3067              		.loc 1 932 15 is_stmt 0 view .LVU887
 3068 020c B0F5016F 		cmp	r0, #2064
 3069 0210 00F0E282 		beq	.L285
 3070 0214 2ED8     		bhi	.L286
 3071 0216 B0F5B26F 		cmp	r0, #1424
 3072 021a 00F0D782 		beq	.L287
 3073 021e 20D8     		bhi	.L288
 3074 0220 B0F58A6F 		cmp	r0, #1104
 3075 0224 13D1     		bne	.L400
1011:Src/register_interface.c ****               break;
 3076              		.loc 1 1011 15 is_stmt 1 view .LVU888
1011:Src/register_interface.c ****               break;
 3077              		.loc 1 1011 28 is_stmt 0 view .LVU889
 3078 0226 5B48     		ldr	r0, .L417+16
ARM GAS  /tmp/ccAfo4nU.s 			page 98


 3079              	.LVL359:
1011:Src/register_interface.c ****               break;
 3080              		.loc 1 1011 28 view .LVU890
 3081 0228 FFF7FEFF 		bl	PID_GetKI
 3082              	.LVL360:
1011:Src/register_interface.c ****               break;
 3083              		.loc 1 1011 28 view .LVU891
 3084              	.LBE232:
 761:Src/register_interface.c ****     uint8_t motorID=0;
 3085              		.loc 1 761 13 view .LVU892
 3086 022c 0021     		movs	r1, #0
 3087              	.LBB233:
1011:Src/register_interface.c ****               break;
 3088              		.loc 1 1011 26 view .LVU893
 3089 022e 2080     		strh	r0, [r4]	@ movhi
 3090              	.LVL361:
1012:Src/register_interface.c ****             }
 3091              		.loc 1 1012 15 is_stmt 1 view .LVU894
 3092 0230 61E7     		b	.L276
 3093              	.LVL362:
 3094              	.L396:
1012:Src/register_interface.c ****             }
 3095              		.loc 1 1012 15 is_stmt 0 view .LVU895
 3096 0232 B0F5547F 		cmp	r0, #848
 3097 0236 40F03681 		bne	.L387
 3098              	.LBB204:
 993:Src/register_interface.c ****               int16_t hC2;
 3099              		.loc 1 993 15 is_stmt 1 view .LVU896
 994:Src/register_interface.c ****               STO_PLL_GetObserverGains(&STO_PLL_M1, &hC1, &hC2);
 3100              		.loc 1 994 15 view .LVU897
 995:Src/register_interface.c ****               *regdata16 = hC1;
 3101              		.loc 1 995 15 view .LVU898
 3102 023a 10A9     		add	r1, sp, #64
 3103              	.LVL363:
 995:Src/register_interface.c ****               *regdata16 = hC1;
 3104              		.loc 1 995 15 is_stmt 0 view .LVU899
 3105 023c 11AA     		add	r2, sp, #68
 3106 023e 5648     		ldr	r0, .L417+20
 3107              	.LVL364:
 995:Src/register_interface.c ****               *regdata16 = hC1;
 3108              		.loc 1 995 15 view .LVU900
 3109 0240 FFF7FEFF 		bl	STO_PLL_GetObserverGains
 3110              	.LVL365:
 996:Src/register_interface.c ****               break;
 3111              		.loc 1 996 15 is_stmt 1 view .LVU901
 996:Src/register_interface.c ****               break;
 3112              		.loc 1 996 26 is_stmt 0 view .LVU902
 3113 0244 BDF84030 		ldrh	r3, [sp, #64]
 3114 0248 2380     		strh	r3, [r4]	@ movhi
 997:Src/register_interface.c ****             }
 3115              		.loc 1 997 15 is_stmt 1 view .LVU903
 3116              	.LBE204:
 3117              	.LBE233:
 761:Src/register_interface.c ****     uint8_t motorID=0;
 3118              		.loc 1 761 13 is_stmt 0 view .LVU904
 3119 024a 0021     		movs	r1, #0
 3120 024c 53E7     		b	.L276
ARM GAS  /tmp/ccAfo4nU.s 			page 99


 3121              	.LVL366:
 3122              	.L400:
 3123              	.LBB234:
 761:Src/register_interface.c ****     uint8_t motorID=0;
 3124              		.loc 1 761 13 view .LVU905
 3125 024e B0F5926F 		cmp	r0, #1168
 3126 0252 40F02881 		bne	.L387
1017:Src/register_interface.c ****               break;
 3127              		.loc 1 1017 15 is_stmt 1 view .LVU906
1017:Src/register_interface.c ****               break;
 3128              		.loc 1 1017 28 is_stmt 0 view .LVU907
 3129 0256 4F48     		ldr	r0, .L417+16
 3130              	.LVL367:
1017:Src/register_interface.c ****               break;
 3131              		.loc 1 1017 28 view .LVU908
 3132 0258 FFF7FEFF 		bl	PID_GetKP
 3133              	.LVL368:
1017:Src/register_interface.c ****               break;
 3134              		.loc 1 1017 28 view .LVU909
 3135              	.LBE234:
 761:Src/register_interface.c ****     uint8_t motorID=0;
 3136              		.loc 1 761 13 view .LVU910
 3137 025c 0021     		movs	r1, #0
 3138              	.LBB235:
1017:Src/register_interface.c ****               break;
 3139              		.loc 1 1017 26 view .LVU911
 3140 025e 2080     		strh	r0, [r4]	@ movhi
 3141              	.LVL369:
1018:Src/register_interface.c ****             }
 3142              		.loc 1 1018 15 is_stmt 1 view .LVU912
 3143 0260 49E7     		b	.L276
 3144              	.LVL370:
 3145              	.L288:
1018:Src/register_interface.c ****             }
 3146              		.loc 1 1018 15 is_stmt 0 view .LVU913
 3147 0262 B0F5BA6F 		cmp	r0, #1488
 3148 0266 13D1     		bne	.L401
 877:Src/register_interface.c ****               break;
 3149              		.loc 1 877 15 is_stmt 1 view .LVU914
 877:Src/register_interface.c ****               break;
 3150              		.loc 1 877 28 is_stmt 0 view .LVU915
 3151 0268 4C48     		ldr	r0, .L417+24
 3152              	.LVL371:
 877:Src/register_interface.c ****               break;
 3153              		.loc 1 877 28 view .LVU916
 3154 026a FFF7FEFF 		bl	NTC_GetAvTemp_C
 3155              	.LVL372:
 877:Src/register_interface.c ****               break;
 3156              		.loc 1 877 28 view .LVU917
 3157              	.LBE235:
 761:Src/register_interface.c ****     uint8_t motorID=0;
 3158              		.loc 1 761 13 view .LVU918
 3159 026e 0021     		movs	r1, #0
 3160              	.LBB236:
 877:Src/register_interface.c ****               break;
 3161              		.loc 1 877 26 view .LVU919
 3162 0270 2080     		strh	r0, [r4]	@ movhi
ARM GAS  /tmp/ccAfo4nU.s 			page 100


 3163              	.LVL373:
 878:Src/register_interface.c ****             }
 3164              		.loc 1 878 15 is_stmt 1 view .LVU920
 3165 0272 40E7     		b	.L276
 3166              	.LVL374:
 3167              	.L286:
 878:Src/register_interface.c ****             }
 3168              		.loc 1 878 15 is_stmt 0 view .LVU921
 3169 0274 B0F50D6F 		cmp	r0, #2256
 3170 0278 00F0A282 		beq	.L293
 3171 027c 1ED8     		bhi	.L294
 3172 027e B0F5056F 		cmp	r0, #2128
 3173 0282 0FD1     		bne	.L402
 895:Src/register_interface.c ****               break;
 3174              		.loc 1 895 15 is_stmt 1 view .LVU922
 895:Src/register_interface.c ****               break;
 3175              		.loc 1 895 28 is_stmt 0 view .LVU923
 3176 0284 3F48     		ldr	r0, .L417
 3177              	.LVL375:
 895:Src/register_interface.c ****               break;
 3178              		.loc 1 895 28 view .LVU924
 3179 0286 FFF7FEFF 		bl	MCI_GetIalphabeta
 3180              	.LVL376:
 895:Src/register_interface.c ****               break;
 3181              		.loc 1 895 28 view .LVU925
 3182              	.LBE236:
 761:Src/register_interface.c ****     uint8_t motorID=0;
 3183              		.loc 1 761 13 view .LVU926
 3184 028a 0021     		movs	r1, #0
 3185              	.LBB237:
 895:Src/register_interface.c ****               break;
 3186              		.loc 1 895 26 view .LVU927
 3187 028c 2080     		strh	r0, [r4]	@ movhi
 3188              	.LVL377:
 896:Src/register_interface.c ****             }
 3189              		.loc 1 896 15 is_stmt 1 view .LVU928
 3190 028e 32E7     		b	.L276
 3191              	.LVL378:
 3192              	.L401:
 896:Src/register_interface.c ****             }
 3193              		.loc 1 896 15 is_stmt 0 view .LVU929
 3194 0290 B0F5FA6F 		cmp	r0, #2000
 3195 0294 40F00781 		bne	.L387
 883:Src/register_interface.c ****               break;
 3196              		.loc 1 883 15 is_stmt 1 view .LVU930
 883:Src/register_interface.c ****               break;
 3197              		.loc 1 883 28 is_stmt 0 view .LVU931
 3198 0298 3A48     		ldr	r0, .L417
 3199              	.LVL379:
 883:Src/register_interface.c ****               break;
 3200              		.loc 1 883 28 view .LVU932
 3201 029a FFF7FEFF 		bl	MCI_GetIab
 3202              	.LVL380:
 883:Src/register_interface.c ****               break;
 3203              		.loc 1 883 28 view .LVU933
 3204              	.LBE237:
 761:Src/register_interface.c ****     uint8_t motorID=0;
ARM GAS  /tmp/ccAfo4nU.s 			page 101


 3205              		.loc 1 761 13 view .LVU934
 3206 029e 0021     		movs	r1, #0
 3207              	.LBB238:
 883:Src/register_interface.c ****               break;
 3208              		.loc 1 883 26 view .LVU935
 3209 02a0 2080     		strh	r0, [r4]	@ movhi
 3210              	.LVL381:
 884:Src/register_interface.c ****             }
 3211              		.loc 1 884 15 is_stmt 1 view .LVU936
 3212 02a2 28E7     		b	.L276
 3213              	.LVL382:
 3214              	.L402:
 884:Src/register_interface.c ****             }
 3215              		.loc 1 884 15 is_stmt 0 view .LVU937
 3216 02a4 B0F5096F 		cmp	r0, #2192
 3217 02a8 40F0FD80 		bne	.L387
 901:Src/register_interface.c ****               break;
 3218              		.loc 1 901 15 is_stmt 1 view .LVU938
 901:Src/register_interface.c ****               break;
 3219              		.loc 1 901 28 is_stmt 0 view .LVU939
 3220 02ac 3548     		ldr	r0, .L417
 3221              	.LVL383:
 901:Src/register_interface.c ****               break;
 3222              		.loc 1 901 28 view .LVU940
 3223 02ae FFF7FEFF 		bl	MCI_GetIalphabeta
 3224              	.LVL384:
 901:Src/register_interface.c ****               break;
 3225              		.loc 1 901 26 view .LVU941
 3226 02b2 C0F30F40 		ubfx	r0, r0, #16, #16
 3227 02b6 2080     		strh	r0, [r4]	@ movhi
 902:Src/register_interface.c ****             }
 3228              		.loc 1 902 15 is_stmt 1 view .LVU942
 3229              	.LBE238:
 761:Src/register_interface.c ****     uint8_t motorID=0;
 3230              		.loc 1 761 13 is_stmt 0 view .LVU943
 3231 02b8 0021     		movs	r1, #0
 3232              	.LBB239:
 902:Src/register_interface.c ****             }
 3233              		.loc 1 902 15 view .LVU944
 3234 02ba 1CE7     		b	.L276
 3235              	.LVL385:
 3236              	.L294:
 902:Src/register_interface.c ****             }
 3237              		.loc 1 902 15 view .LVU945
 3238 02bc B0F5116F 		cmp	r0, #2320
 3239 02c0 1AD1     		bne	.L403
 913:Src/register_interface.c ****               break;
 3240              		.loc 1 913 15 is_stmt 1 view .LVU946
 913:Src/register_interface.c ****               break;
 3241              		.loc 1 913 28 is_stmt 0 view .LVU947
 3242 02c2 3048     		ldr	r0, .L417
 3243              	.LVL386:
 913:Src/register_interface.c ****               break;
 3244              		.loc 1 913 28 view .LVU948
 3245 02c4 FFF7FEFF 		bl	MCI_GetIqd
 3246              	.LVL387:
 913:Src/register_interface.c ****               break;
ARM GAS  /tmp/ccAfo4nU.s 			page 102


 3247              		.loc 1 913 26 view .LVU949
 3248 02c8 C0F30F40 		ubfx	r0, r0, #16, #16
 3249 02cc 2080     		strh	r0, [r4]	@ movhi
 914:Src/register_interface.c ****             }
 3250              		.loc 1 914 15 is_stmt 1 view .LVU950
 3251              	.LBE239:
 761:Src/register_interface.c ****     uint8_t motorID=0;
 3252              		.loc 1 761 13 is_stmt 0 view .LVU951
 3253 02ce 0021     		movs	r1, #0
 3254              	.LBB240:
 914:Src/register_interface.c ****             }
 3255              		.loc 1 914 15 view .LVU952
 3256 02d0 11E7     		b	.L276
 3257              	.LVL388:
 3258              	.L398:
 914:Src/register_interface.c ****             }
 3259              		.loc 1 914 15 view .LVU953
 3260 02d2 B0F5C87F 		cmp	r0, #400
 3261 02d6 40F0E680 		bne	.L387
 835:Src/register_interface.c ****               break;
 3262              		.loc 1 835 15 is_stmt 1 view .LVU954
 835:Src/register_interface.c ****               break;
 3263              		.loc 1 835 28 is_stmt 0 view .LVU955
 3264 02da 2B48     		ldr	r0, .L417+4
 3265              	.LVL389:
 835:Src/register_interface.c ****               break;
 3266              		.loc 1 835 28 view .LVU956
 3267 02dc FFF7FEFF 		bl	PID_GetKP
 3268              	.LVL390:
 835:Src/register_interface.c ****               break;
 3269              		.loc 1 835 28 view .LVU957
 3270              	.LBE240:
 761:Src/register_interface.c ****     uint8_t motorID=0;
 3271              		.loc 1 761 13 view .LVU958
 3272 02e0 0021     		movs	r1, #0
 3273              	.LBB241:
 835:Src/register_interface.c ****               break;
 3274              		.loc 1 835 26 view .LVU959
 3275 02e2 2080     		strh	r0, [r4]	@ movhi
 3276              	.LVL391:
 836:Src/register_interface.c ****             }
 3277              		.loc 1 836 15 is_stmt 1 view .LVU960
 3278 02e4 07E7     		b	.L276
 3279              	.LVL392:
 3280              	.L397:
 836:Src/register_interface.c ****             }
 3281              		.loc 1 836 15 is_stmt 0 view .LVU961
 3282 02e6 9028     		cmp	r0, #144
 3283 02e8 40F0DD80 		bne	.L387
 817:Src/register_interface.c ****               break;
 3284              		.loc 1 817 15 is_stmt 1 view .LVU962
 817:Src/register_interface.c ****               break;
 3285              		.loc 1 817 28 is_stmt 0 view .LVU963
 3286 02ec 2848     		ldr	r0, .L417+12
 3287              	.LVL393:
 817:Src/register_interface.c ****               break;
 3288              		.loc 1 817 28 view .LVU964
ARM GAS  /tmp/ccAfo4nU.s 			page 103


 3289 02ee FFF7FEFF 		bl	PID_GetKP
 3290              	.LVL394:
 817:Src/register_interface.c ****               break;
 3291              		.loc 1 817 28 view .LVU965
 3292              	.LBE241:
 761:Src/register_interface.c ****     uint8_t motorID=0;
 3293              		.loc 1 761 13 view .LVU966
 3294 02f2 0021     		movs	r1, #0
 3295              	.LBB242:
 817:Src/register_interface.c ****               break;
 3296              		.loc 1 817 26 view .LVU967
 3297 02f4 2080     		strh	r0, [r4]	@ movhi
 3298              	.LVL395:
 818:Src/register_interface.c ****             }
 3299              		.loc 1 818 15 is_stmt 1 view .LVU968
 3300 02f6 FEE6     		b	.L276
 3301              	.LVL396:
 3302              	.L403:
 818:Src/register_interface.c ****             }
 3303              		.loc 1 818 15 is_stmt 0 view .LVU969
 3304 02f8 B0F5156F 		cmp	r0, #2384
 3305 02fc 40F0D380 		bne	.L387
 919:Src/register_interface.c ****               break;
 3306              		.loc 1 919 15 is_stmt 1 view .LVU970
 919:Src/register_interface.c ****               break;
 3307              		.loc 1 919 28 is_stmt 0 view .LVU971
 3308 0300 2048     		ldr	r0, .L417
 3309              	.LVL397:
 919:Src/register_interface.c ****               break;
 3310              		.loc 1 919 28 view .LVU972
 3311 0302 FFF7FEFF 		bl	MCI_GetIqdref
 3312              	.LVL398:
 919:Src/register_interface.c ****               break;
 3313              		.loc 1 919 28 view .LVU973
 3314              	.LBE242:
 761:Src/register_interface.c ****     uint8_t motorID=0;
 3315              		.loc 1 761 13 view .LVU974
 3316 0306 0021     		movs	r1, #0
 3317              	.LBB243:
 919:Src/register_interface.c ****               break;
 3318              		.loc 1 919 26 view .LVU975
 3319 0308 2080     		strh	r0, [r4]	@ movhi
 3320              	.LVL399:
 920:Src/register_interface.c ****             }
 3321              		.loc 1 920 15 is_stmt 1 view .LVU976
 3322 030a F4E6     		b	.L276
 3323              	.LVL400:
 3324              	.L399:
 920:Src/register_interface.c ****             }
 3325              		.loc 1 920 15 is_stmt 0 view .LVU977
 3326 030c B0F5216F 		cmp	r0, #2576
 3327 0310 40F0C980 		bne	.L387
 937:Src/register_interface.c ****               break;
 3328              		.loc 1 937 15 is_stmt 1 view .LVU978
 937:Src/register_interface.c ****               break;
 3329              		.loc 1 937 28 is_stmt 0 view .LVU979
 3330 0314 1B48     		ldr	r0, .L417
ARM GAS  /tmp/ccAfo4nU.s 			page 104


 3331              	.LVL401:
 937:Src/register_interface.c ****               break;
 3332              		.loc 1 937 28 view .LVU980
 3333 0316 FFF7FEFF 		bl	MCI_GetVqd
 3334              	.LVL402:
 937:Src/register_interface.c ****               break;
 3335              		.loc 1 937 26 view .LVU981
 3336 031a C0F30F40 		ubfx	r0, r0, #16, #16
 3337 031e 2080     		strh	r0, [r4]	@ movhi
 938:Src/register_interface.c ****             }
 3338              		.loc 1 938 15 is_stmt 1 view .LVU982
 3339              	.LBE243:
 761:Src/register_interface.c ****     uint8_t motorID=0;
 3340              		.loc 1 761 13 is_stmt 0 view .LVU983
 3341 0320 0021     		movs	r1, #0
 3342              	.LBB244:
 938:Src/register_interface.c ****             }
 3343              		.loc 1 938 15 view .LVU984
 3344 0322 E8E6     		b	.L276
 3345              	.LVL403:
 3346              	.L303:
 938:Src/register_interface.c ****             }
 3347              		.loc 1 938 15 view .LVU985
 3348 0324 B0F5296F 		cmp	r0, #2704
 3349 0328 3AD1     		bne	.L404
 949:Src/register_interface.c ****               break;
 3350              		.loc 1 949 15 is_stmt 1 view .LVU986
 949:Src/register_interface.c ****               break;
 3351              		.loc 1 949 28 is_stmt 0 view .LVU987
 3352 032a 1648     		ldr	r0, .L417
 3353              	.LVL404:
 949:Src/register_interface.c ****               break;
 3354              		.loc 1 949 28 view .LVU988
 3355 032c FFF7FEFF 		bl	MCI_GetValphabeta
 3356              	.LVL405:
 949:Src/register_interface.c ****               break;
 3357              		.loc 1 949 26 view .LVU989
 3358 0330 C0F30F40 		ubfx	r0, r0, #16, #16
 3359 0334 2080     		strh	r0, [r4]	@ movhi
 950:Src/register_interface.c ****             }
 3360              		.loc 1 950 15 is_stmt 1 view .LVU990
 3361              	.LBE244:
 761:Src/register_interface.c ****     uint8_t motorID=0;
 3362              		.loc 1 761 13 is_stmt 0 view .LVU991
 3363 0336 0021     		movs	r1, #0
 3364              	.LBB245:
 950:Src/register_interface.c ****             }
 3365              		.loc 1 950 15 view .LVU992
 3366 0338 DDE6     		b	.L276
 3367              	.LVL406:
 3368              	.L301:
 950:Src/register_interface.c ****             }
 3369              		.loc 1 950 15 view .LVU993
 3370 033a B0F5456F 		cmp	r0, #3152
 3371 033e 00F03982 		beq	.L308
 3372 0342 00F28380 		bhi	.L309
 3373 0346 B0F53D6F 		cmp	r0, #3024
ARM GAS  /tmp/ccAfo4nU.s 			page 105


 3374 034a 74D1     		bne	.L405
 969:Src/register_interface.c ****               break;
 3375              		.loc 1 969 15 is_stmt 1 view .LVU994
 969:Src/register_interface.c ****               break;
 3376              		.loc 1 969 28 is_stmt 0 view .LVU995
 3377 034c 1248     		ldr	r0, .L417+20
 3378              	.LVL407:
 969:Src/register_interface.c ****               break;
 3379              		.loc 1 969 28 view .LVU996
 3380 034e FFF7FEFF 		bl	STO_PLL_GetEstimatedCurrent
 3381              	.LVL408:
 969:Src/register_interface.c ****               break;
 3382              		.loc 1 969 28 view .LVU997
 3383              	.LBE245:
 761:Src/register_interface.c ****     uint8_t motorID=0;
 3384              		.loc 1 761 13 view .LVU998
 3385 0352 0021     		movs	r1, #0
 3386              	.LBB246:
 969:Src/register_interface.c ****               break;
 3387              		.loc 1 969 26 view .LVU999
 3388 0354 2080     		strh	r0, [r4]	@ movhi
 3389              	.LVL409:
 970:Src/register_interface.c ****             }
 3390              		.loc 1 970 15 is_stmt 1 view .LVU1000
 3391 0356 CEE6     		b	.L276
 3392              	.LVL410:
 3393              	.L299:
 970:Src/register_interface.c ****             }
 3394              		.loc 1 970 15 is_stmt 0 view .LVU1001
 3395 0358 41F29053 		movw	r3, #5520
 3396 035c 9842     		cmp	r0, r3
 3397 035e 00F00982 		beq	.L313
 3398 0362 3AD8     		bhi	.L314
 3399 0364 41F2D043 		movw	r3, #5328
 3400 0368 9842     		cmp	r0, r3
 3401 036a 00F0FD81 		beq	.L315
 3402 036e 2AD8     		bhi	.L316
 3403 0370 41F25043 		movw	r3, #5200
 3404 0374 9842     		cmp	r0, r3
 3405 0376 1CD1     		bne	.L406
1027:Src/register_interface.c ****               break;
 3406              		.loc 1 1027 15 is_stmt 1 view .LVU1002
1027:Src/register_interface.c ****               break;
 3407              		.loc 1 1027 39 is_stmt 0 view .LVU1003
 3408 0378 0548     		ldr	r0, .L417+12
 3409              	.LVL411:
1027:Src/register_interface.c ****               break;
 3410              		.loc 1 1027 39 view .LVU1004
 3411 037a FFF7FEFF 		bl	PID_GetKPDivisorPOW2
 3412              	.LVL412:
1027:Src/register_interface.c ****               break;
 3413              		.loc 1 1027 39 view .LVU1005
 3414              	.LBE246:
 761:Src/register_interface.c ****     uint8_t motorID=0;
 3415              		.loc 1 761 13 view .LVU1006
 3416 037e 0021     		movs	r1, #0
 3417              	.LBB247:
ARM GAS  /tmp/ccAfo4nU.s 			page 106


1027:Src/register_interface.c ****               break;
 3418              		.loc 1 1027 27 view .LVU1007
 3419 0380 2080     		strh	r0, [r4]	@ movhi
 3420              	.LVL413:
1028:Src/register_interface.c ****             }
 3421              		.loc 1 1028 15 is_stmt 1 view .LVU1008
 3422 0382 B8E6     		b	.L276
 3423              	.L418:
 3424              		.align	2
 3425              	.L417:
 3426 0384 00000000 		.word	Mci
 3427 0388 00000000 		.word	PIDIqHandle_M1
 3428 038c 00000000 		.word	PIDIdHandle_M1
 3429 0390 00000000 		.word	PIDSpeedHandle_M1
 3430 0394 34000000 		.word	STO_PLL_M1+52
 3431 0398 00000000 		.word	STO_PLL_M1
 3432 039c 00000000 		.word	TempSensor_M1
 3433              	.LVL414:
 3434              	.L404:
1028:Src/register_interface.c ****             }
 3435              		.loc 1 1028 15 is_stmt 0 view .LVU1009
 3436 03a0 B0F5356F 		cmp	r0, #2896
 3437 03a4 7FD1     		bne	.L387
 956:Src/register_interface.c ****               break;
 3438              		.loc 1 956 15 is_stmt 1 view .LVU1010
 956:Src/register_interface.c ****               break;
 3439              		.loc 1 956 28 is_stmt 0 view .LVU1011
 3440 03a6 B64B     		ldr	r3, .L419
 3441 03a8 B3F90430 		ldrsh	r3, [r3, #4]
 3442              	.LVL415:
 956:Src/register_interface.c ****               break;
 3443              		.loc 1 956 28 view .LVU1012
 3444              	.LBE247:
 3445              		.file 3 "MCSDK_v6.3.0-Full/MotorControl/MCSDK/MCLib/Any/Inc/speed_pos_fdbk.h"
   1:MCSDK_v6.3.0-Full/MotorControl/MCSDK/MCLib/Any/Inc/speed_pos_fdbk.h **** /**
   2:MCSDK_v6.3.0-Full/MotorControl/MCSDK/MCLib/Any/Inc/speed_pos_fdbk.h ****   ******************************************************************************
   3:MCSDK_v6.3.0-Full/MotorControl/MCSDK/MCLib/Any/Inc/speed_pos_fdbk.h ****   * @file    speed_pos_fdbk.h
   4:MCSDK_v6.3.0-Full/MotorControl/MCSDK/MCLib/Any/Inc/speed_pos_fdbk.h ****   * @author  Motor Control SDK Team, ST Microelectronics
   5:MCSDK_v6.3.0-Full/MotorControl/MCSDK/MCLib/Any/Inc/speed_pos_fdbk.h ****   * @brief   This file provides all definitions and functions prototypes
   6:MCSDK_v6.3.0-Full/MotorControl/MCSDK/MCLib/Any/Inc/speed_pos_fdbk.h ****   *          of the Speed & Position Feedback component of the Motor Control SDK.
   7:MCSDK_v6.3.0-Full/MotorControl/MCSDK/MCLib/Any/Inc/speed_pos_fdbk.h ****   *
   8:MCSDK_v6.3.0-Full/MotorControl/MCSDK/MCLib/Any/Inc/speed_pos_fdbk.h ****   ******************************************************************************
   9:MCSDK_v6.3.0-Full/MotorControl/MCSDK/MCLib/Any/Inc/speed_pos_fdbk.h ****   * @attention
  10:MCSDK_v6.3.0-Full/MotorControl/MCSDK/MCLib/Any/Inc/speed_pos_fdbk.h ****   *
  11:MCSDK_v6.3.0-Full/MotorControl/MCSDK/MCLib/Any/Inc/speed_pos_fdbk.h ****   * <h2><center>&copy; Copyright (c) 2024 STMicroelectronics.
  12:MCSDK_v6.3.0-Full/MotorControl/MCSDK/MCLib/Any/Inc/speed_pos_fdbk.h ****   * All rights reserved.</center></h2>
  13:MCSDK_v6.3.0-Full/MotorControl/MCSDK/MCLib/Any/Inc/speed_pos_fdbk.h ****   *
  14:MCSDK_v6.3.0-Full/MotorControl/MCSDK/MCLib/Any/Inc/speed_pos_fdbk.h ****   * This software component is licensed by ST under Ultimate Liberty license
  15:MCSDK_v6.3.0-Full/MotorControl/MCSDK/MCLib/Any/Inc/speed_pos_fdbk.h ****   * SLA0044, the "License"; You may not use this file except in compliance with
  16:MCSDK_v6.3.0-Full/MotorControl/MCSDK/MCLib/Any/Inc/speed_pos_fdbk.h ****   * the License. You may obtain a copy of the License at:
  17:MCSDK_v6.3.0-Full/MotorControl/MCSDK/MCLib/Any/Inc/speed_pos_fdbk.h ****   *                             www.st.com/SLA0044
  18:MCSDK_v6.3.0-Full/MotorControl/MCSDK/MCLib/Any/Inc/speed_pos_fdbk.h ****   *
  19:MCSDK_v6.3.0-Full/MotorControl/MCSDK/MCLib/Any/Inc/speed_pos_fdbk.h ****   ******************************************************************************
  20:MCSDK_v6.3.0-Full/MotorControl/MCSDK/MCLib/Any/Inc/speed_pos_fdbk.h ****   * @ingroup SpeednPosFdbk
  21:MCSDK_v6.3.0-Full/MotorControl/MCSDK/MCLib/Any/Inc/speed_pos_fdbk.h ****   */
  22:MCSDK_v6.3.0-Full/MotorControl/MCSDK/MCLib/Any/Inc/speed_pos_fdbk.h **** 
  23:MCSDK_v6.3.0-Full/MotorControl/MCSDK/MCLib/Any/Inc/speed_pos_fdbk.h **** /* Define to prevent recursive inclusion -------------------------------------*/
ARM GAS  /tmp/ccAfo4nU.s 			page 107


  24:MCSDK_v6.3.0-Full/MotorControl/MCSDK/MCLib/Any/Inc/speed_pos_fdbk.h **** #ifndef SPEEDNPOSFDBK_H
  25:MCSDK_v6.3.0-Full/MotorControl/MCSDK/MCLib/Any/Inc/speed_pos_fdbk.h **** #define SPEEDNPOSFDBK_H
  26:MCSDK_v6.3.0-Full/MotorControl/MCSDK/MCLib/Any/Inc/speed_pos_fdbk.h **** 
  27:MCSDK_v6.3.0-Full/MotorControl/MCSDK/MCLib/Any/Inc/speed_pos_fdbk.h **** #ifdef __cplusplus
  28:MCSDK_v6.3.0-Full/MotorControl/MCSDK/MCLib/Any/Inc/speed_pos_fdbk.h **** extern "C" {
  29:MCSDK_v6.3.0-Full/MotorControl/MCSDK/MCLib/Any/Inc/speed_pos_fdbk.h **** #endif /* __cplusplus */
  30:MCSDK_v6.3.0-Full/MotorControl/MCSDK/MCLib/Any/Inc/speed_pos_fdbk.h **** 
  31:MCSDK_v6.3.0-Full/MotorControl/MCSDK/MCLib/Any/Inc/speed_pos_fdbk.h **** /* Includes ------------------------------------------------------------------*/
  32:MCSDK_v6.3.0-Full/MotorControl/MCSDK/MCLib/Any/Inc/speed_pos_fdbk.h **** /* Already into mc_type.h */
  33:MCSDK_v6.3.0-Full/MotorControl/MCSDK/MCLib/Any/Inc/speed_pos_fdbk.h **** /* #include "stdint.h" */
  34:MCSDK_v6.3.0-Full/MotorControl/MCSDK/MCLib/Any/Inc/speed_pos_fdbk.h **** #include "mc_type.h"
  35:MCSDK_v6.3.0-Full/MotorControl/MCSDK/MCLib/Any/Inc/speed_pos_fdbk.h **** 
  36:MCSDK_v6.3.0-Full/MotorControl/MCSDK/MCLib/Any/Inc/speed_pos_fdbk.h **** /** @addtogroup MCSDK
  37:MCSDK_v6.3.0-Full/MotorControl/MCSDK/MCLib/Any/Inc/speed_pos_fdbk.h ****   * @{
  38:MCSDK_v6.3.0-Full/MotorControl/MCSDK/MCLib/Any/Inc/speed_pos_fdbk.h ****   */
  39:MCSDK_v6.3.0-Full/MotorControl/MCSDK/MCLib/Any/Inc/speed_pos_fdbk.h **** 
  40:MCSDK_v6.3.0-Full/MotorControl/MCSDK/MCLib/Any/Inc/speed_pos_fdbk.h **** /** @addtogroup SpeednPosFdbk
  41:MCSDK_v6.3.0-Full/MotorControl/MCSDK/MCLib/Any/Inc/speed_pos_fdbk.h ****   * @{
  42:MCSDK_v6.3.0-Full/MotorControl/MCSDK/MCLib/Any/Inc/speed_pos_fdbk.h ****   */
  43:MCSDK_v6.3.0-Full/MotorControl/MCSDK/MCLib/Any/Inc/speed_pos_fdbk.h **** 
  44:MCSDK_v6.3.0-Full/MotorControl/MCSDK/MCLib/Any/Inc/speed_pos_fdbk.h **** /* Exported types ------------------------------------------------------------*/
  45:MCSDK_v6.3.0-Full/MotorControl/MCSDK/MCLib/Any/Inc/speed_pos_fdbk.h **** /**
  46:MCSDK_v6.3.0-Full/MotorControl/MCSDK/MCLib/Any/Inc/speed_pos_fdbk.h ****   * @brief  SpeednPosFdbk  handles definitions of mechanical and electrical speed, mechanical accel
  47:MCSDK_v6.3.0-Full/MotorControl/MCSDK/MCLib/Any/Inc/speed_pos_fdbk.h ****   *                        and electrical angle and all constants and scale values for a reliable m
  48:MCSDK_v6.3.0-Full/MotorControl/MCSDK/MCLib/Any/Inc/speed_pos_fdbk.h ****   *                        computation in appropriated unit.
  49:MCSDK_v6.3.0-Full/MotorControl/MCSDK/MCLib/Any/Inc/speed_pos_fdbk.h ****   */
  50:MCSDK_v6.3.0-Full/MotorControl/MCSDK/MCLib/Any/Inc/speed_pos_fdbk.h **** typedef struct
  51:MCSDK_v6.3.0-Full/MotorControl/MCSDK/MCLib/Any/Inc/speed_pos_fdbk.h **** {
  52:MCSDK_v6.3.0-Full/MotorControl/MCSDK/MCLib/Any/Inc/speed_pos_fdbk.h **** 
  53:MCSDK_v6.3.0-Full/MotorControl/MCSDK/MCLib/Any/Inc/speed_pos_fdbk.h ****   uint8_t bSpeedErrorNumber;          /*!< Number of time the average mechanical speed is not valid
  54:MCSDK_v6.3.0-Full/MotorControl/MCSDK/MCLib/Any/Inc/speed_pos_fdbk.h ****   uint8_t bElToMecRatio;              /*!< Coefficient used to transform electrical to mechanical q
  55:MCSDK_v6.3.0-Full/MotorControl/MCSDK/MCLib/Any/Inc/speed_pos_fdbk.h ****                                            viceversa. It usually coincides with motor pole pairs nu
  56:MCSDK_v6.3.0-Full/MotorControl/MCSDK/MCLib/Any/Inc/speed_pos_fdbk.h ****   uint8_t SpeedUnit;                  /*!< The speed unit value is defined into mc_stm_types.h by
  57:MCSDK_v6.3.0-Full/MotorControl/MCSDK/MCLib/Any/Inc/speed_pos_fdbk.h ****                                            [SPEED_UNIT](measurement_units.md) in tenth of Hertz.*/
  58:MCSDK_v6.3.0-Full/MotorControl/MCSDK/MCLib/Any/Inc/speed_pos_fdbk.h ****   uint8_t bMaximumSpeedErrorsNumber;  /*!< Maximum value of not valid speed measurements before an 
  59:MCSDK_v6.3.0-Full/MotorControl/MCSDK/MCLib/Any/Inc/speed_pos_fdbk.h ****   int16_t hElAngle;                   /*!< Estimated electrical angle reported by the implemented s
  60:MCSDK_v6.3.0-Full/MotorControl/MCSDK/MCLib/Any/Inc/speed_pos_fdbk.h ****                                            method. */
  61:MCSDK_v6.3.0-Full/MotorControl/MCSDK/MCLib/Any/Inc/speed_pos_fdbk.h ****   int16_t hMecAngle;                  /*!< Instantaneous measure of rotor mechanical angle. */
  62:MCSDK_v6.3.0-Full/MotorControl/MCSDK/MCLib/Any/Inc/speed_pos_fdbk.h ****   int32_t wMecAngle;                  /*!< Mechanical angle frame based on coefficient #bElToMecRat
  63:MCSDK_v6.3.0-Full/MotorControl/MCSDK/MCLib/Any/Inc/speed_pos_fdbk.h ****   int16_t hAvrMecSpeedUnit;           /*!< Average mechanical speed expressed in the unit defined b
  64:MCSDK_v6.3.0-Full/MotorControl/MCSDK/MCLib/Any/Inc/speed_pos_fdbk.h ****                                            [SPEED_UNIT](measurement_units.md). */
  65:MCSDK_v6.3.0-Full/MotorControl/MCSDK/MCLib/Any/Inc/speed_pos_fdbk.h ****   int16_t hElSpeedDpp;                /*!< Instantaneous electrical speed expressed in Digit Per co
  66:MCSDK_v6.3.0-Full/MotorControl/MCSDK/MCLib/Any/Inc/speed_pos_fdbk.h ****                                            ([dpp](measurement_units.md)),
  67:MCSDK_v6.3.0-Full/MotorControl/MCSDK/MCLib/Any/Inc/speed_pos_fdbk.h ****                                            expresses the angular speed as the variation of the elec
  68:MCSDK_v6.3.0-Full/MotorControl/MCSDK/MCLib/Any/Inc/speed_pos_fdbk.h ****   int16_t InstantaneousElSpeedDpp;    /*!< Instantaneous computed electrical speed, expressed in
  69:MCSDK_v6.3.0-Full/MotorControl/MCSDK/MCLib/Any/Inc/speed_pos_fdbk.h ****                                            [dpp](measurement_units.md). */
  70:MCSDK_v6.3.0-Full/MotorControl/MCSDK/MCLib/Any/Inc/speed_pos_fdbk.h ****   int16_t hMecAccelUnitP;             /*!< Average mechanical acceleration expressed in the unit de
  71:MCSDK_v6.3.0-Full/MotorControl/MCSDK/MCLib/Any/Inc/speed_pos_fdbk.h ****                                            only reported with encoder implementation */
  72:MCSDK_v6.3.0-Full/MotorControl/MCSDK/MCLib/Any/Inc/speed_pos_fdbk.h ****   uint16_t hMaxReliableMecSpeedUnit;  /*!< Maximum value of measured mechanical speed that is consi
  73:MCSDK_v6.3.0-Full/MotorControl/MCSDK/MCLib/Any/Inc/speed_pos_fdbk.h ****                                            Expressed in the unit defined by [SPEED_UNIT](measuremen
  74:MCSDK_v6.3.0-Full/MotorControl/MCSDK/MCLib/Any/Inc/speed_pos_fdbk.h ****   uint16_t hMinReliableMecSpeedUnit;  /*!< Minimum value of measured mechanical speed that is consi
  75:MCSDK_v6.3.0-Full/MotorControl/MCSDK/MCLib/Any/Inc/speed_pos_fdbk.h ****                                            Expressed in the unit defined by [SPEED_UNIT](measuremen
  76:MCSDK_v6.3.0-Full/MotorControl/MCSDK/MCLib/Any/Inc/speed_pos_fdbk.h ****   uint16_t hMaxReliableMecAccelUnitP; /*!< Maximum value of measured acceleration that is considere
  77:MCSDK_v6.3.0-Full/MotorControl/MCSDK/MCLib/Any/Inc/speed_pos_fdbk.h ****                                            Constant value equal to 65535, expressed in the unit def
  78:MCSDK_v6.3.0-Full/MotorControl/MCSDK/MCLib/Any/Inc/speed_pos_fdbk.h ****                                            [SPEED_UNIT](measurement_units.md). */
  79:MCSDK_v6.3.0-Full/MotorControl/MCSDK/MCLib/Any/Inc/speed_pos_fdbk.h ****   uint16_t hMeasurementFrequency;     /*!< Frequency at which the user will request a measurement o
  80:MCSDK_v6.3.0-Full/MotorControl/MCSDK/MCLib/Any/Inc/speed_pos_fdbk.h ****                                            electrical angle. Expressed in PWM_FREQ_SCALING * Hz. */
ARM GAS  /tmp/ccAfo4nU.s 			page 108


  81:MCSDK_v6.3.0-Full/MotorControl/MCSDK/MCLib/Any/Inc/speed_pos_fdbk.h ****   uint32_t DPPConvFactor;             /*!< Conversion factor (65536/#PWM_FREQ_SCALING) used to conv
  82:MCSDK_v6.3.0-Full/MotorControl/MCSDK/MCLib/Any/Inc/speed_pos_fdbk.h ****                                            from the unit defined by [SPEED_UNIT](measurement_units.
  83:MCSDK_v6.3.0-Full/MotorControl/MCSDK/MCLib/Any/Inc/speed_pos_fdbk.h ****                                            [dpp](measurement_units.md). */
  84:MCSDK_v6.3.0-Full/MotorControl/MCSDK/MCLib/Any/Inc/speed_pos_fdbk.h **** 
  85:MCSDK_v6.3.0-Full/MotorControl/MCSDK/MCLib/Any/Inc/speed_pos_fdbk.h **** 
  86:MCSDK_v6.3.0-Full/MotorControl/MCSDK/MCLib/Any/Inc/speed_pos_fdbk.h **** } SpeednPosFdbk_Handle_t;
  87:MCSDK_v6.3.0-Full/MotorControl/MCSDK/MCLib/Any/Inc/speed_pos_fdbk.h **** 
  88:MCSDK_v6.3.0-Full/MotorControl/MCSDK/MCLib/Any/Inc/speed_pos_fdbk.h **** /**
  89:MCSDK_v6.3.0-Full/MotorControl/MCSDK/MCLib/Any/Inc/speed_pos_fdbk.h ****   * @brief input structure type definition for SPD_CalcAngle
  90:MCSDK_v6.3.0-Full/MotorControl/MCSDK/MCLib/Any/Inc/speed_pos_fdbk.h ****   */
  91:MCSDK_v6.3.0-Full/MotorControl/MCSDK/MCLib/Any/Inc/speed_pos_fdbk.h **** typedef struct
  92:MCSDK_v6.3.0-Full/MotorControl/MCSDK/MCLib/Any/Inc/speed_pos_fdbk.h **** {
  93:MCSDK_v6.3.0-Full/MotorControl/MCSDK/MCLib/Any/Inc/speed_pos_fdbk.h ****   alphabeta_t  Valfa_beta;            /*!< Voltage Components in alfa beta reference frame */
  94:MCSDK_v6.3.0-Full/MotorControl/MCSDK/MCLib/Any/Inc/speed_pos_fdbk.h ****   alphabeta_t  Ialfa_beta;            /*!< Current Components in alfa beta reference frame */
  95:MCSDK_v6.3.0-Full/MotorControl/MCSDK/MCLib/Any/Inc/speed_pos_fdbk.h ****   uint16_t     Vbus;                  /*!< Virtual Bus Voltage information */
  96:MCSDK_v6.3.0-Full/MotorControl/MCSDK/MCLib/Any/Inc/speed_pos_fdbk.h **** } Observer_Inputs_t;
  97:MCSDK_v6.3.0-Full/MotorControl/MCSDK/MCLib/Any/Inc/speed_pos_fdbk.h **** 
  98:MCSDK_v6.3.0-Full/MotorControl/MCSDK/MCLib/Any/Inc/speed_pos_fdbk.h **** 
  99:MCSDK_v6.3.0-Full/MotorControl/MCSDK/MCLib/Any/Inc/speed_pos_fdbk.h **** int32_t SPD_GetMecAngle(const SpeednPosFdbk_Handle_t *pHandle);
 100:MCSDK_v6.3.0-Full/MotorControl/MCSDK/MCLib/Any/Inc/speed_pos_fdbk.h **** 
 101:MCSDK_v6.3.0-Full/MotorControl/MCSDK/MCLib/Any/Inc/speed_pos_fdbk.h **** int16_t SPD_GetAvrgMecSpeedUnit(const SpeednPosFdbk_Handle_t *pHandle);
 102:MCSDK_v6.3.0-Full/MotorControl/MCSDK/MCLib/Any/Inc/speed_pos_fdbk.h **** 
 103:MCSDK_v6.3.0-Full/MotorControl/MCSDK/MCLib/Any/Inc/speed_pos_fdbk.h **** int16_t SPD_GetElSpeedDpp(const SpeednPosFdbk_Handle_t *pHandle);
 104:MCSDK_v6.3.0-Full/MotorControl/MCSDK/MCLib/Any/Inc/speed_pos_fdbk.h **** 
 105:MCSDK_v6.3.0-Full/MotorControl/MCSDK/MCLib/Any/Inc/speed_pos_fdbk.h **** bool SPD_IsMecSpeedReliable(SpeednPosFdbk_Handle_t *pHandle, const int16_t *pMecSpeedUnit);
 106:MCSDK_v6.3.0-Full/MotorControl/MCSDK/MCLib/Any/Inc/speed_pos_fdbk.h **** 
 107:MCSDK_v6.3.0-Full/MotorControl/MCSDK/MCLib/Any/Inc/speed_pos_fdbk.h **** int16_t SPD_GetS16Speed(const SpeednPosFdbk_Handle_t *pHandle);
 108:MCSDK_v6.3.0-Full/MotorControl/MCSDK/MCLib/Any/Inc/speed_pos_fdbk.h **** 
 109:MCSDK_v6.3.0-Full/MotorControl/MCSDK/MCLib/Any/Inc/speed_pos_fdbk.h **** uint8_t SPD_GetElToMecRatio(const SpeednPosFdbk_Handle_t *pHandle);
 110:MCSDK_v6.3.0-Full/MotorControl/MCSDK/MCLib/Any/Inc/speed_pos_fdbk.h **** 
 111:MCSDK_v6.3.0-Full/MotorControl/MCSDK/MCLib/Any/Inc/speed_pos_fdbk.h **** void SPD_SetElToMecRatio(SpeednPosFdbk_Handle_t *pHandle, uint8_t bPP);
 112:MCSDK_v6.3.0-Full/MotorControl/MCSDK/MCLib/Any/Inc/speed_pos_fdbk.h **** 
 113:MCSDK_v6.3.0-Full/MotorControl/MCSDK/MCLib/Any/Inc/speed_pos_fdbk.h **** /**
 114:MCSDK_v6.3.0-Full/MotorControl/MCSDK/MCLib/Any/Inc/speed_pos_fdbk.h ****   * @brief  Returns the last computed rotor electrical angle, expressed in [s16degrees](measurement
 115:MCSDK_v6.3.0-Full/MotorControl/MCSDK/MCLib/Any/Inc/speed_pos_fdbk.h ****   * @param  pHandle: handler of the current instance of the SpeednPosFdbk component.
 116:MCSDK_v6.3.0-Full/MotorControl/MCSDK/MCLib/Any/Inc/speed_pos_fdbk.h ****   * @retval int16_t rotor electrical angle.
 117:MCSDK_v6.3.0-Full/MotorControl/MCSDK/MCLib/Any/Inc/speed_pos_fdbk.h ****   */
 118:MCSDK_v6.3.0-Full/MotorControl/MCSDK/MCLib/Any/Inc/speed_pos_fdbk.h **** static inline int16_t SPD_GetElAngle(const SpeednPosFdbk_Handle_t *pHandle)
 119:MCSDK_v6.3.0-Full/MotorControl/MCSDK/MCLib/Any/Inc/speed_pos_fdbk.h **** {
 120:MCSDK_v6.3.0-Full/MotorControl/MCSDK/MCLib/Any/Inc/speed_pos_fdbk.h **** #ifdef NULL_PTR_CHECK_SPD_POS_FBK
 121:MCSDK_v6.3.0-Full/MotorControl/MCSDK/MCLib/Any/Inc/speed_pos_fdbk.h ****   return ((MC_NULL == pHandle) ? 0 : pHandle->hElAngle);
 122:MCSDK_v6.3.0-Full/MotorControl/MCSDK/MCLib/Any/Inc/speed_pos_fdbk.h **** #else
 123:MCSDK_v6.3.0-Full/MotorControl/MCSDK/MCLib/Any/Inc/speed_pos_fdbk.h ****   return (pHandle->hElAngle);
 3446              		.loc 3 123 3 is_stmt 1 view .LVU1013
 3447              	.LBB248:
 956:Src/register_interface.c ****               break;
 3448              		.loc 1 956 26 is_stmt 0 view .LVU1014
 3449 03ac 2380     		strh	r3, [r4]	@ movhi
 957:Src/register_interface.c ****             }
 3450              		.loc 1 957 15 is_stmt 1 view .LVU1015
 3451              	.LBE248:
 761:Src/register_interface.c ****     uint8_t motorID=0;
 3452              		.loc 1 761 13 is_stmt 0 view .LVU1016
 3453 03ae 0021     		movs	r1, #0
 3454              	.LVL416:
 3455              	.LBB249:
 957:Src/register_interface.c ****             }
ARM GAS  /tmp/ccAfo4nU.s 			page 109


 3456              		.loc 1 957 15 view .LVU1017
 3457 03b0 A1E6     		b	.L276
 3458              	.LVL417:
 3459              	.L406:
 957:Src/register_interface.c ****             }
 3460              		.loc 1 957 15 view .LVU1018
 3461 03b2 41F29043 		movw	r3, #5264
 3462 03b6 9842     		cmp	r0, r3
 3463 03b8 75D1     		bne	.L387
1033:Src/register_interface.c ****               break;
 3464              		.loc 1 1033 15 is_stmt 1 view .LVU1019
1033:Src/register_interface.c ****               break;
 3465              		.loc 1 1033 39 is_stmt 0 view .LVU1020
 3466 03ba B248     		ldr	r0, .L419+4
 3467              	.LVL418:
1033:Src/register_interface.c ****               break;
 3468              		.loc 1 1033 39 view .LVU1021
 3469 03bc FFF7FEFF 		bl	PID_GetKIDivisorPOW2
 3470              	.LVL419:
1033:Src/register_interface.c ****               break;
 3471              		.loc 1 1033 39 view .LVU1022
 3472              	.LBE249:
 761:Src/register_interface.c ****     uint8_t motorID=0;
 3473              		.loc 1 761 13 view .LVU1023
 3474 03c0 0021     		movs	r1, #0
 3475              	.LBB250:
1033:Src/register_interface.c ****               break;
 3476              		.loc 1 1033 27 view .LVU1024
 3477 03c2 2080     		strh	r0, [r4]	@ movhi
 3478              	.LVL420:
1034:Src/register_interface.c ****             }
 3479              		.loc 1 1034 15 is_stmt 1 view .LVU1025
 3480 03c4 97E6     		b	.L276
 3481              	.LVL421:
 3482              	.L316:
1034:Src/register_interface.c ****             }
 3483              		.loc 1 1034 15 is_stmt 0 view .LVU1026
 3484 03c6 41F21053 		movw	r3, #5392
 3485 03ca 9842     		cmp	r0, r3
 3486 03cc 15D1     		bne	.L407
1044:Src/register_interface.c ****               break;
 3487              		.loc 1 1044 15 is_stmt 1 view .LVU1027
1044:Src/register_interface.c ****               break;
 3488              		.loc 1 1044 29 is_stmt 0 view .LVU1028
 3489 03ce AE48     		ldr	r0, .L419+8
 3490              	.LVL422:
1044:Src/register_interface.c ****               break;
 3491              		.loc 1 1044 29 view .LVU1029
 3492 03d0 FFF7FEFF 		bl	PID_GetKPDivisorPOW2
 3493              	.LVL423:
1044:Src/register_interface.c ****               break;
 3494              		.loc 1 1044 29 view .LVU1030
 3495              	.LBE250:
 761:Src/register_interface.c ****     uint8_t motorID=0;
 3496              		.loc 1 761 13 view .LVU1031
 3497 03d4 0021     		movs	r1, #0
 3498              	.LBB251:
ARM GAS  /tmp/ccAfo4nU.s 			page 110


1044:Src/register_interface.c ****               break;
 3499              		.loc 1 1044 27 view .LVU1032
 3500 03d6 2080     		strh	r0, [r4]	@ movhi
 3501              	.LVL424:
1045:Src/register_interface.c ****             }
 3502              		.loc 1 1045 15 is_stmt 1 view .LVU1033
 3503 03d8 8DE6     		b	.L276
 3504              	.LVL425:
 3505              	.L314:
1045:Src/register_interface.c ****             }
 3506              		.loc 1 1045 15 is_stmt 0 view .LVU1034
 3507 03da 41F25063 		movw	r3, #5712
 3508 03de 9842     		cmp	r0, r3
 3509 03e0 00F0BC81 		beq	.L321
 3510 03e4 1DD8     		bhi	.L322
 3511 03e6 41F2D053 		movw	r3, #5584
 3512 03ea 9842     		cmp	r0, r3
 3513 03ec 0FD1     		bne	.L408
1062:Src/register_interface.c ****               break;
 3514              		.loc 1 1062 15 is_stmt 1 view .LVU1035
1062:Src/register_interface.c ****               break;
 3515              		.loc 1 1062 29 is_stmt 0 view .LVU1036
 3516 03ee A748     		ldr	r0, .L419+12
 3517              	.LVL426:
1062:Src/register_interface.c ****               break;
 3518              		.loc 1 1062 29 view .LVU1037
 3519 03f0 FFF7FEFF 		bl	PID_GetKPDivisorPOW2
 3520              	.LVL427:
1062:Src/register_interface.c ****               break;
 3521              		.loc 1 1062 29 view .LVU1038
 3522              	.LBE251:
 761:Src/register_interface.c ****     uint8_t motorID=0;
 3523              		.loc 1 761 13 view .LVU1039
 3524 03f4 0021     		movs	r1, #0
 3525              	.LBB252:
1062:Src/register_interface.c ****               break;
 3526              		.loc 1 1062 27 view .LVU1040
 3527 03f6 2080     		strh	r0, [r4]	@ movhi
 3528              	.LVL428:
1063:Src/register_interface.c ****             }
 3529              		.loc 1 1063 15 is_stmt 1 view .LVU1041
 3530 03f8 7DE6     		b	.L276
 3531              	.LVL429:
 3532              	.L407:
1063:Src/register_interface.c ****             }
 3533              		.loc 1 1063 15 is_stmt 0 view .LVU1042
 3534 03fa 41F25053 		movw	r3, #5456
 3535 03fe 9842     		cmp	r0, r3
 3536 0400 51D1     		bne	.L387
1050:Src/register_interface.c ****               break;
 3537              		.loc 1 1050 15 is_stmt 1 view .LVU1043
1050:Src/register_interface.c ****               break;
 3538              		.loc 1 1050 29 is_stmt 0 view .LVU1044
 3539 0402 A148     		ldr	r0, .L419+8
 3540              	.LVL430:
1050:Src/register_interface.c ****               break;
 3541              		.loc 1 1050 29 view .LVU1045
ARM GAS  /tmp/ccAfo4nU.s 			page 111


 3542 0404 FFF7FEFF 		bl	PID_GetKIDivisorPOW2
 3543              	.LVL431:
1050:Src/register_interface.c ****               break;
 3544              		.loc 1 1050 29 view .LVU1046
 3545              	.LBE252:
 761:Src/register_interface.c ****     uint8_t motorID=0;
 3546              		.loc 1 761 13 view .LVU1047
 3547 0408 0021     		movs	r1, #0
 3548              	.LBB253:
1050:Src/register_interface.c ****               break;
 3549              		.loc 1 1050 27 view .LVU1048
 3550 040a 2080     		strh	r0, [r4]	@ movhi
 3551              	.LVL432:
1051:Src/register_interface.c ****             }
 3552              		.loc 1 1051 15 is_stmt 1 view .LVU1049
 3553 040c 73E6     		b	.L276
 3554              	.LVL433:
 3555              	.L408:
1051:Src/register_interface.c ****             }
 3556              		.loc 1 1051 15 is_stmt 0 view .LVU1050
 3557 040e 41F21063 		movw	r3, #5648
 3558 0412 9842     		cmp	r0, r3
 3559 0414 47D1     		bne	.L387
1068:Src/register_interface.c ****               break;
 3560              		.loc 1 1068 15 is_stmt 1 view .LVU1051
1068:Src/register_interface.c ****               break;
 3561              		.loc 1 1068 29 is_stmt 0 view .LVU1052
 3562 0416 9D48     		ldr	r0, .L419+12
 3563              	.LVL434:
1068:Src/register_interface.c ****               break;
 3564              		.loc 1 1068 29 view .LVU1053
 3565 0418 FFF7FEFF 		bl	PID_GetKIDivisorPOW2
 3566              	.LVL435:
1068:Src/register_interface.c ****               break;
 3567              		.loc 1 1068 29 view .LVU1054
 3568              	.LBE253:
 761:Src/register_interface.c ****     uint8_t motorID=0;
 3569              		.loc 1 761 13 view .LVU1055
 3570 041c 0021     		movs	r1, #0
 3571              	.LBB254:
1068:Src/register_interface.c ****               break;
 3572              		.loc 1 1068 27 view .LVU1056
 3573 041e 2080     		strh	r0, [r4]	@ movhi
 3574              	.LVL436:
1069:Src/register_interface.c ****             }
 3575              		.loc 1 1069 15 is_stmt 1 view .LVU1057
 3576 0420 69E6     		b	.L276
 3577              	.LVL437:
 3578              	.L322:
1069:Src/register_interface.c ****             }
 3579              		.loc 1 1069 15 is_stmt 0 view .LVU1058
 3580 0422 41F6D003 		movw	r3, #6352
 3581 0426 9842     		cmp	r0, r3
 3582 0428 1BD1     		bne	.L409
1080:Src/register_interface.c ****               break;
 3583              		.loc 1 1080 15 is_stmt 1 view .LVU1059
1080:Src/register_interface.c ****               break;
ARM GAS  /tmp/ccAfo4nU.s 			page 112


 3584              		.loc 1 1080 29 is_stmt 0 view .LVU1060
 3585 042a 9948     		ldr	r0, .L419+16
 3586              	.LVL438:
1080:Src/register_interface.c ****               break;
 3587              		.loc 1 1080 29 view .LVU1061
 3588 042c FFF7FEFF 		bl	PID_GetKIDivisorPOW2
 3589              	.LVL439:
1080:Src/register_interface.c ****               break;
 3590              		.loc 1 1080 29 view .LVU1062
 3591              	.LBE254:
 761:Src/register_interface.c ****     uint8_t motorID=0;
 3592              		.loc 1 761 13 view .LVU1063
 3593 0430 0021     		movs	r1, #0
 3594              	.LBB255:
1080:Src/register_interface.c ****               break;
 3595              		.loc 1 1080 27 view .LVU1064
 3596 0432 2080     		strh	r0, [r4]	@ movhi
 3597              	.LVL440:
1081:Src/register_interface.c ****             }
 3598              		.loc 1 1081 15 is_stmt 1 view .LVU1065
 3599 0434 5FE6     		b	.L276
 3600              	.LVL441:
 3601              	.L405:
1081:Src/register_interface.c ****             }
 3602              		.loc 1 1081 15 is_stmt 0 view .LVU1066
 3603 0436 B0F5416F 		cmp	r0, #3088
 3604 043a 34D1     		bne	.L387
 975:Src/register_interface.c ****               break;
 3605              		.loc 1 975 15 is_stmt 1 view .LVU1067
 975:Src/register_interface.c ****               break;
 3606              		.loc 1 975 28 is_stmt 0 view .LVU1068
 3607 043c 9048     		ldr	r0, .L419
 3608              	.LVL442:
 975:Src/register_interface.c ****               break;
 3609              		.loc 1 975 28 view .LVU1069
 3610 043e FFF7FEFF 		bl	STO_PLL_GetEstimatedCurrent
 3611              	.LVL443:
 975:Src/register_interface.c ****               break;
 3612              		.loc 1 975 26 view .LVU1070
 3613 0442 C0F30F40 		ubfx	r0, r0, #16, #16
 3614 0446 2080     		strh	r0, [r4]	@ movhi
 976:Src/register_interface.c ****             }
 3615              		.loc 1 976 15 is_stmt 1 view .LVU1071
 3616              	.LBE255:
 761:Src/register_interface.c ****     uint8_t motorID=0;
 3617              		.loc 1 761 13 is_stmt 0 view .LVU1072
 3618 0448 0021     		movs	r1, #0
 3619              	.LBB256:
 976:Src/register_interface.c ****             }
 3620              		.loc 1 976 15 view .LVU1073
 3621 044a 54E6     		b	.L276
 3622              	.LVL444:
 3623              	.L309:
 976:Src/register_interface.c ****             }
 3624              		.loc 1 976 15 view .LVU1074
 3625 044c B0F5496F 		cmp	r0, #3216
 3626 0450 11D1     		bne	.L410
ARM GAS  /tmp/ccAfo4nU.s 			page 113


 987:Src/register_interface.c ****               break;
 3627              		.loc 1 987 15 is_stmt 1 view .LVU1075
 987:Src/register_interface.c ****               break;
 3628              		.loc 1 987 28 is_stmt 0 view .LVU1076
 3629 0452 8B48     		ldr	r0, .L419
 3630              	.LVL445:
 987:Src/register_interface.c ****               break;
 3631              		.loc 1 987 28 view .LVU1077
 3632 0454 FFF7FEFF 		bl	STO_PLL_GetEstimatedBemf
 3633              	.LVL446:
 987:Src/register_interface.c ****               break;
 3634              		.loc 1 987 26 view .LVU1078
 3635 0458 C0F30F40 		ubfx	r0, r0, #16, #16
 3636 045c 2080     		strh	r0, [r4]	@ movhi
 988:Src/register_interface.c ****             }
 3637              		.loc 1 988 15 is_stmt 1 view .LVU1079
 3638              	.LBE256:
 761:Src/register_interface.c ****     uint8_t motorID=0;
 3639              		.loc 1 761 13 is_stmt 0 view .LVU1080
 3640 045e 0021     		movs	r1, #0
 3641              	.LBB257:
 988:Src/register_interface.c ****             }
 3642              		.loc 1 988 15 view .LVU1081
 3643 0460 49E6     		b	.L276
 3644              	.LVL447:
 3645              	.L409:
 988:Src/register_interface.c ****             }
 3646              		.loc 1 988 15 view .LVU1082
 3647 0462 41F61013 		movw	r3, #6416
 3648 0466 9842     		cmp	r0, r3
 3649 0468 1DD1     		bne	.L387
1086:Src/register_interface.c ****               break;
 3650              		.loc 1 1086 15 is_stmt 1 view .LVU1083
1086:Src/register_interface.c ****               break;
 3651              		.loc 1 1086 29 is_stmt 0 view .LVU1084
 3652 046a 8948     		ldr	r0, .L419+16
 3653              	.LVL448:
1086:Src/register_interface.c ****               break;
 3654              		.loc 1 1086 29 view .LVU1085
 3655 046c FFF7FEFF 		bl	PID_GetKPDivisorPOW2
 3656              	.LVL449:
1086:Src/register_interface.c ****               break;
 3657              		.loc 1 1086 29 view .LVU1086
 3658              	.LBE257:
 761:Src/register_interface.c ****     uint8_t motorID=0;
 3659              		.loc 1 761 13 view .LVU1087
 3660 0470 0021     		movs	r1, #0
 3661              	.LBB258:
1086:Src/register_interface.c ****               break;
 3662              		.loc 1 1086 27 view .LVU1088
 3663 0472 2080     		strh	r0, [r4]	@ movhi
 3664              	.LVL450:
1087:Src/register_interface.c ****             }
 3665              		.loc 1 1087 15 is_stmt 1 view .LVU1089
 3666 0474 3FE6     		b	.L276
 3667              	.LVL451:
 3668              	.L410:
ARM GAS  /tmp/ccAfo4nU.s 			page 114


1092:Src/register_interface.c ****               break;
 3669              		.loc 1 1092 22 is_stmt 0 view .LVU1090
 3670 0476 B0F5656F 		cmp	r0, #3664
1096:Src/register_interface.c ****         }
 3671              		.loc 1 1096 17 view .LVU1091
 3672 047a 4FF00203 		mov	r3, #2
1092:Src/register_interface.c ****               break;
 3673              		.loc 1 1092 22 view .LVU1092
 3674 047e 0CBF     		ite	eq
 3675 0480 0021     		moveq	r1, #0
 3676              	.LVL452:
1092:Src/register_interface.c ****               break;
 3677              		.loc 1 1092 22 view .LVU1093
 3678 0482 0521     		movne	r1, #5
 3679              	.LVL453:
1096:Src/register_interface.c ****         }
 3680              		.loc 1 1096 11 is_stmt 1 view .LVU1094
1096:Src/register_interface.c ****         }
 3681              		.loc 1 1096 17 is_stmt 0 view .LVU1095
 3682 0484 2B80     		strh	r3, [r5]	@ movhi
 3683 0486 38E6     		b	.L411
 3684              	.LVL454:
 3685              	.L394:
1096:Src/register_interface.c ****         }
 3686              		.loc 1 1096 17 view .LVU1096
 3687              	.LBE258:
 3688              	.LBB259:
 3689 0488 1828     		cmp	r0, #24
 3690 048a 00F00F81 		beq	.L329
 3691 048e 5828     		cmp	r0, #88
 3692 0490 7FF44AAE 		bne	.L388
1121:Src/register_interface.c ****               break;
 3693              		.loc 1 1121 15 is_stmt 1 view .LVU1097
1121:Src/register_interface.c ****               break;
 3694              		.loc 1 1121 39 is_stmt 0 view .LVU1098
 3695 0494 7F48     		ldr	r0, .L419+20
 3696              	.LVL455:
1121:Src/register_interface.c ****               break;
 3697              		.loc 1 1121 39 view .LVU1099
 3698 0496 FFF7FEFF 		bl	MCI_GetAvrgMecSpeedUnit
 3699              	.LVL456:
1121:Src/register_interface.c ****               break;
 3700              		.loc 1 1121 79 view .LVU1100
 3701 049a 00EB4000 		add	r0, r0, r0, lsl #1
 3702 049e 4000     		lsls	r0, r0, #1
1121:Src/register_interface.c ****               break;
 3703              		.loc 1 1121 26 view .LVU1101
 3704 04a0 2060     		str	r0, [r4]
1122:Src/register_interface.c ****             }
 3705              		.loc 1 1122 15 is_stmt 1 view .LVU1102
 3706              	.LBE259:
 761:Src/register_interface.c ****     uint8_t motorID=0;
 3707              		.loc 1 761 13 is_stmt 0 view .LVU1103
 3708 04a2 0021     		movs	r1, #0
 3709              	.LBB260:
1122:Src/register_interface.c ****             }
 3710              		.loc 1 1122 15 view .LVU1104
ARM GAS  /tmp/ccAfo4nU.s 			page 115


 3711 04a4 41E6     		b	.L331
 3712              	.LVL457:
 3713              	.L387:
1122:Src/register_interface.c ****             }
 3714              		.loc 1 1122 15 view .LVU1105
 3715              	.LBE260:
 3716              	.LBB261:
1092:Src/register_interface.c ****               break;
 3717              		.loc 1 1092 22 view .LVU1106
 3718 04a6 0521     		movs	r1, #5
 3719              	.LVL458:
1092:Src/register_interface.c ****               break;
 3720              		.loc 1 1092 22 view .LVU1107
 3721 04a8 25E6     		b	.L276
 3722              	.LVL459:
 3723              	.L362:
1092:Src/register_interface.c ****               break;
 3724              		.loc 1 1092 22 view .LVU1108
 3725              	.LBE261:
 801:Src/register_interface.c ****         }
 3726              		.loc 1 801 18 view .LVU1109
 3727 04aa 0821     		movs	r1, #8
 3728              	.LVL460:
1344:Src/register_interface.c **** 
 3729              		.loc 1 1344 3 view .LVU1110
 3730 04ac 0846     		mov	r0, r1
 3731              	.LVL461:
1344:Src/register_interface.c **** 
 3732              		.loc 1 1344 3 view .LVU1111
 3733 04ae 13B0     		add	sp, sp, #76
 3734              	.LCFI50:
 3735              		.cfi_remember_state
 3736              		.cfi_def_cfa_offset 20
 3737              		@ sp needed
 3738 04b0 F0BD     		pop	{r4, r5, r6, r7, pc}
 3739              	.LVL462:
 3740              	.L336:
 3741              	.LCFI51:
 3742              		.cfi_restore_state
 3743              	.LBB262:
1179:Src/register_interface.c ****             break;
 3744              		.loc 1 1179 13 is_stmt 1 view .LVU1112
1179:Src/register_interface.c ****             break;
 3745              		.loc 1 1179 51 is_stmt 0 view .LVU1113
 3746 04b2 7949     		ldr	r1, .L419+24
 3747              	.LVL463:
 3748              	.LBB212:
 3749              	.LBB213:
1351:Src/register_interface.c **** 
 3750              		.loc 1 1351 8 view .LVU1114
 3751 04b4 0122     		movs	r2, #1
 3752              	.LBE213:
 3753              	.LBE212:
1179:Src/register_interface.c ****             break;
 3754              		.loc 1 1179 51 view .LVU1115
 3755 04b6 0968     		ldr	r1, [r1]
 3756              	.LBB217:
ARM GAS  /tmp/ccAfo4nU.s 			page 116


 3757              	.LBB214:
1351:Src/register_interface.c **** 
 3758              		.loc 1 1351 8 view .LVU1116
 3759 04b8 2A80     		strh	r2, [r5]	@ movhi
1353:Src/register_interface.c ****   {
 3760              		.loc 1 1353 11 view .LVU1117
 3761 04ba 91F92420 		ldrsb	r2, [r1, #36]
 3762              	.LBE214:
 3763              	.LBE217:
1179:Src/register_interface.c ****             break;
 3764              		.loc 1 1179 60 view .LVU1118
 3765 04be 2431     		adds	r1, r1, #36
 3766              	.LVL464:
 3767              	.LBB218:
 3768              	.LBI212:
1346:Src/register_interface.c **** {
 3769              		.loc 1 1346 9 is_stmt 1 view .LVU1119
 3770              	.LBB215:
1348:Src/register_interface.c ****   const char_t *tempsrcString = srcString;
 3771              		.loc 1 1348 3 view .LVU1120
1349:Src/register_interface.c ****   char_t *tempdestString = destString;
 3772              		.loc 1 1349 3 view .LVU1121
1350:Src/register_interface.c ****   *size= 1U ; /* /0 is the min String size */
 3773              		.loc 1 1350 3 view .LVU1122
1351:Src/register_interface.c **** 
 3774              		.loc 1 1351 3 view .LVU1123
1353:Src/register_interface.c ****   {
 3775              		.loc 1 1353 3 view .LVU1124
1353:Src/register_interface.c ****   {
 3776              		.loc 1 1353 9 is_stmt 0 view .LVU1125
 3777 04c0 82B1     		cbz	r2, .L341
1353:Src/register_interface.c ****   {
 3778              		.loc 1 1353 50 view .LVU1126
 3779 04c2 98B2     		uxth	r0, r3
 3780              	.LVL465:
1353:Src/register_interface.c ****   {
 3781              		.loc 1 1353 40 view .LVU1127
 3782 04c4 0128     		cmp	r0, #1
 3783 04c6 03D8     		bhi	.L342
 3784              	.LVL466:
 3785              	.L340:
1353:Src/register_interface.c ****   {
 3786              		.loc 1 1353 40 view .LVU1128
 3787              	.LBE215:
 3788              	.LBE218:
 3789              	.LBB219:
 3790              	.LBB220:
1363:Src/register_interface.c ****   }
 3791              		.loc 1 1363 12 view .LVU1129
 3792 04c8 0621     		movs	r1, #6
 3793 04ca F0E5     		b	.L384
 3794              	.LVL467:
 3795              	.L412:
1363:Src/register_interface.c ****   }
 3796              		.loc 1 1363 12 view .LVU1130
 3797              	.LBE220:
 3798              	.LBE219:
ARM GAS  /tmp/ccAfo4nU.s 			page 117


 3799              	.LBB223:
 3800              	.LBB216:
1353:Src/register_interface.c ****   {
 3801              		.loc 1 1353 40 view .LVU1131
 3802 04cc 9842     		cmp	r0, r3
 3803 04ce FBD9     		bls	.L340
 3804              	.LVL468:
 3805              	.L342:
1355:Src/register_interface.c ****     tempdestString++;
 3806              		.loc 1 1355 5 is_stmt 1 view .LVU1132
1355:Src/register_interface.c ****     tempdestString++;
 3807              		.loc 1 1355 21 is_stmt 0 view .LVU1133
 3808 04d0 04F8012B 		strb	r2, [r4], #1
 3809              	.LVL469:
1356:Src/register_interface.c ****     tempsrcString++;
 3810              		.loc 1 1356 5 is_stmt 1 view .LVU1134
1357:Src/register_interface.c ****     *size = *size + 1U;
 3811              		.loc 1 1357 5 view .LVU1135
1358:Src/register_interface.c ****   }
 3812              		.loc 1 1358 5 view .LVU1136
1358:Src/register_interface.c ****   }
 3813              		.loc 1 1358 19 is_stmt 0 view .LVU1137
 3814 04d4 2B88     		ldrh	r3, [r5]
 3815 04d6 0133     		adds	r3, r3, #1
 3816 04d8 9BB2     		uxth	r3, r3
1358:Src/register_interface.c ****   }
 3817              		.loc 1 1358 11 view .LVU1138
 3818 04da 2B80     		strh	r3, [r5]	@ movhi
1353:Src/register_interface.c ****   {
 3819              		.loc 1 1353 11 view .LVU1139
 3820 04dc 11F9012F 		ldrsb	r2, [r1, #1]!
 3821              	.LVL470:
1353:Src/register_interface.c ****   {
 3822              		.loc 1 1353 9 view .LVU1140
 3823 04e0 002A     		cmp	r2, #0
 3824 04e2 F3D1     		bne	.L412
 3825              	.LVL471:
 3826              	.L341:
1361:Src/register_interface.c ****   { /* Last string char must be 0 */
 3827              		.loc 1 1361 3 is_stmt 1 view .LVU1141
 3828              		.loc 1 1367 5 view .LVU1142
 3829              		.loc 1 1367 21 is_stmt 0 view .LVU1143
 3830 04e4 0021     		movs	r1, #0
 3831 04e6 2170     		strb	r1, [r4]
 3832              	.LVL472:
 3833              		.loc 1 1367 21 view .LVU1144
 3834              	.LBE216:
 3835              	.LBE223:
 3836              	.LBE262:
1343:Src/register_interface.c ****   }
 3837              		.loc 1 1343 5 is_stmt 1 view .LVU1145
1343:Src/register_interface.c ****   }
 3838              		.loc 1 1343 12 is_stmt 0 view .LVU1146
 3839 04e8 E1E5     		b	.L384
 3840              	.LVL473:
 3841              	.L335:
 3842              	.LBB263:
ARM GAS  /tmp/ccAfo4nU.s 			page 118


1173:Src/register_interface.c ****             break;
 3843              		.loc 1 1173 13 is_stmt 1 view .LVU1147
1173:Src/register_interface.c ****             break;
 3844              		.loc 1 1173 22 is_stmt 0 view .LVU1148
 3845 04ea 6C49     		ldr	r1, .L419+28
 3846              	.LVL474:
 3847              	.LBB224:
 3848              	.LBB221:
1351:Src/register_interface.c **** 
 3849              		.loc 1 1351 8 view .LVU1149
 3850 04ec 0122     		movs	r2, #1
 3851              	.LBE221:
 3852              	.LBE224:
1173:Src/register_interface.c ****             break;
 3853              		.loc 1 1173 22 view .LVU1150
 3854 04ee 0968     		ldr	r1, [r1]
 3855              	.LVL475:
 3856              	.LBB225:
 3857              	.LBI219:
1346:Src/register_interface.c **** {
 3858              		.loc 1 1346 9 is_stmt 1 view .LVU1151
 3859              	.LBB222:
1348:Src/register_interface.c ****   const char_t *tempsrcString = srcString;
 3860              		.loc 1 1348 3 view .LVU1152
1349:Src/register_interface.c ****   char_t *tempdestString = destString;
 3861              		.loc 1 1349 3 view .LVU1153
1350:Src/register_interface.c ****   *size= 1U ; /* /0 is the min String size */
 3862              		.loc 1 1350 3 view .LVU1154
1351:Src/register_interface.c **** 
 3863              		.loc 1 1351 3 view .LVU1155
1351:Src/register_interface.c **** 
 3864              		.loc 1 1351 8 is_stmt 0 view .LVU1156
 3865 04f0 2A80     		strh	r2, [r5]	@ movhi
1353:Src/register_interface.c ****   {
 3866              		.loc 1 1353 3 is_stmt 1 view .LVU1157
1353:Src/register_interface.c ****   {
 3867              		.loc 1 1353 11 is_stmt 0 view .LVU1158
 3868 04f2 91F90020 		ldrsb	r2, [r1]
1353:Src/register_interface.c ****   {
 3869              		.loc 1 1353 9 view .LVU1159
 3870 04f6 002A     		cmp	r2, #0
 3871 04f8 F4D0     		beq	.L341
1353:Src/register_interface.c ****   {
 3872              		.loc 1 1353 50 view .LVU1160
 3873 04fa 98B2     		uxth	r0, r3
 3874              	.LVL476:
1353:Src/register_interface.c ****   {
 3875              		.loc 1 1353 40 view .LVU1161
 3876 04fc 0128     		cmp	r0, #1
 3877 04fe 02D8     		bhi	.L339
 3878 0500 E2E7     		b	.L340
 3879              	.LVL477:
 3880              	.L413:
1353:Src/register_interface.c ****   {
 3881              		.loc 1 1353 40 view .LVU1162
 3882 0502 8342     		cmp	r3, r0
 3883 0504 E0D2     		bcs	.L340
ARM GAS  /tmp/ccAfo4nU.s 			page 119


 3884              	.LVL478:
 3885              	.L339:
1355:Src/register_interface.c ****     tempdestString++;
 3886              		.loc 1 1355 5 is_stmt 1 view .LVU1163
1355:Src/register_interface.c ****     tempdestString++;
 3887              		.loc 1 1355 21 is_stmt 0 view .LVU1164
 3888 0506 04F8012B 		strb	r2, [r4], #1
 3889              	.LVL479:
1356:Src/register_interface.c ****     tempsrcString++;
 3890              		.loc 1 1356 5 is_stmt 1 view .LVU1165
1357:Src/register_interface.c ****     *size = *size + 1U;
 3891              		.loc 1 1357 5 view .LVU1166
1358:Src/register_interface.c ****   }
 3892              		.loc 1 1358 5 view .LVU1167
1358:Src/register_interface.c ****   }
 3893              		.loc 1 1358 19 is_stmt 0 view .LVU1168
 3894 050a 2B88     		ldrh	r3, [r5]
 3895 050c 0133     		adds	r3, r3, #1
 3896 050e 9BB2     		uxth	r3, r3
1358:Src/register_interface.c ****   }
 3897              		.loc 1 1358 11 view .LVU1169
 3898 0510 2B80     		strh	r3, [r5]	@ movhi
1353:Src/register_interface.c ****   {
 3899              		.loc 1 1353 11 view .LVU1170
 3900 0512 11F9012F 		ldrsb	r2, [r1, #1]!
 3901              	.LVL480:
1353:Src/register_interface.c ****   {
 3902              		.loc 1 1353 9 view .LVU1171
 3903 0516 002A     		cmp	r2, #0
 3904 0518 F3D1     		bne	.L413
 3905 051a E3E7     		b	.L341
 3906              	.LVL481:
 3907              	.L391:
1353:Src/register_interface.c ****   {
 3908              		.loc 1 1353 9 view .LVU1172
 3909              	.LBE222:
 3910              	.LBE225:
 3911              	.LBE263:
 775:Src/register_interface.c ****               break;
 3912              		.loc 1 775 15 is_stmt 1 view .LVU1173
 775:Src/register_interface.c ****               break;
 3913              		.loc 1 775 32 is_stmt 0 view .LVU1174
 3914 051c 5D48     		ldr	r0, .L419+20
 3915              	.LVL482:
 775:Src/register_interface.c ****               break;
 3916              		.loc 1 775 32 view .LVU1175
 3917 051e FFF7FEFF 		bl	MCI_GetSTMState
 3918              	.LVL483:
 761:Src/register_interface.c ****     uint8_t motorID=0;
 3919              		.loc 1 761 13 view .LVU1176
 3920 0522 0021     		movs	r1, #0
 775:Src/register_interface.c ****               break;
 3921              		.loc 1 775 21 view .LVU1177
 3922 0524 2070     		strb	r0, [r4]
 776:Src/register_interface.c ****             }
 3923              		.loc 1 776 15 is_stmt 1 view .LVU1178
 3924 0526 C0E5     		b	.L266
ARM GAS  /tmp/ccAfo4nU.s 			page 120


 3925              	.LVL484:
 3926              	.L265:
 787:Src/register_interface.c ****               break;
 3927              		.loc 1 787 15 view .LVU1179
 787:Src/register_interface.c ****               break;
 3928              		.loc 1 787 32 is_stmt 0 view .LVU1180
 3929 0528 5D4B     		ldr	r3, .L419+32
 3930 052a 93F84830 		ldrb	r3, [r3, #72]	@ zero_extendqisi2
 3931              	.LVL485:
 267:MCSDK_v6.3.0-Full/MotorControl/MCSDK/MCLib/Any/Inc/revup_ctrl.h **** }
 268:MCSDK_v6.3.0-Full/MotorControl/MCSDK/MCLib/Any/Inc/revup_ctrl.h **** 
 269:MCSDK_v6.3.0-Full/MotorControl/MCSDK/MCLib/Any/Inc/revup_ctrl.h **** /**
 270:MCSDK_v6.3.0-Full/MotorControl/MCSDK/MCLib/Any/Inc/revup_ctrl.h ****   * @brief  Allow to read total number of programmed phases.
 271:MCSDK_v6.3.0-Full/MotorControl/MCSDK/MCLib/Any/Inc/revup_ctrl.h ****   * @param  pHandle: Pointer on Handle structure of RevUp controller.
 272:MCSDK_v6.3.0-Full/MotorControl/MCSDK/MCLib/Any/Inc/revup_ctrl.h ****   *  @retval Returns number of phases relative to the programmed Rev-Up.
 273:MCSDK_v6.3.0-Full/MotorControl/MCSDK/MCLib/Any/Inc/revup_ctrl.h ****   *
 274:MCSDK_v6.3.0-Full/MotorControl/MCSDK/MCLib/Any/Inc/revup_ctrl.h ****   */
 275:MCSDK_v6.3.0-Full/MotorControl/MCSDK/MCLib/Any/Inc/revup_ctrl.h **** 
 276:MCSDK_v6.3.0-Full/MotorControl/MCSDK/MCLib/Any/Inc/revup_ctrl.h **** static inline uint8_t RUC_GetNumberOfPhases(RevUpCtrl_Handle_t *pHandle)
 277:MCSDK_v6.3.0-Full/MotorControl/MCSDK/MCLib/Any/Inc/revup_ctrl.h **** {
 278:MCSDK_v6.3.0-Full/MotorControl/MCSDK/MCLib/Any/Inc/revup_ctrl.h **** #ifdef NULL_PTR_CHECK_REV_UP_CTL
 279:MCSDK_v6.3.0-Full/MotorControl/MCSDK/MCLib/Any/Inc/revup_ctrl.h ****   return ((MC_NULL == pHandle) ? 0U : (uint8_t)pHandle->bPhaseNbr);
 280:MCSDK_v6.3.0-Full/MotorControl/MCSDK/MCLib/Any/Inc/revup_ctrl.h **** #else
 281:MCSDK_v6.3.0-Full/MotorControl/MCSDK/MCLib/Any/Inc/revup_ctrl.h ****   return ((uint8_t)pHandle->bPhaseNbr);
 3932              		.loc 2 281 3 is_stmt 1 view .LVU1181
 787:Src/register_interface.c ****               break;
 3933              		.loc 1 787 21 is_stmt 0 view .LVU1182
 3934 052e 2370     		strb	r3, [r4]
 788:Src/register_interface.c ****             }
 3935              		.loc 1 788 15 is_stmt 1 view .LVU1183
 761:Src/register_interface.c ****     uint8_t motorID=0;
 3936              		.loc 1 761 13 is_stmt 0 view .LVU1184
 3937 0530 0021     		movs	r1, #0
 3938              	.LVL486:
 788:Src/register_interface.c ****             }
 3939              		.loc 1 788 15 view .LVU1185
 3940 0532 BAE5     		b	.L266
 3941              	.LVL487:
 3942              	.L264:
 781:Src/register_interface.c ****               break;
 3943              		.loc 1 781 15 is_stmt 1 view .LVU1186
 781:Src/register_interface.c ****               break;
 3944              		.loc 1 781 32 is_stmt 0 view .LVU1187
 3945 0534 5748     		ldr	r0, .L419+20
 3946              	.LVL488:
 781:Src/register_interface.c ****               break;
 3947              		.loc 1 781 32 view .LVU1188
 3948 0536 FFF7FEFF 		bl	MCI_GetControlMode
 3949              	.LVL489:
 761:Src/register_interface.c ****     uint8_t motorID=0;
 3950              		.loc 1 761 13 view .LVU1189
 3951 053a 0021     		movs	r1, #0
 781:Src/register_interface.c ****               break;
 3952              		.loc 1 781 21 view .LVU1190
 3953 053c 2070     		strb	r0, [r4]
 782:Src/register_interface.c ****             }
 3954              		.loc 1 782 15 is_stmt 1 view .LVU1191
ARM GAS  /tmp/ccAfo4nU.s 			page 121


 3955 053e B4E5     		b	.L266
 3956              	.LVL490:
 3957              	.L349:
 3958              	.LBB264:
 3959              	.LBB175:
1273:Src/register_interface.c ****             uint16_t *duration = (uint16_t *)&rawData[2]; //cstat !MISRAC2012-Rule-11.3
 3960              		.loc 1 1273 13 view .LVU1192
1274:Src/register_interface.c **** 
 3961              		.loc 1 1274 13 view .LVU1193
1276:Src/register_interface.c ****             *torque = MCI_GetLastRampFinalTorque(pMCIN);
 3962              		.loc 1 1276 13 view .LVU1194
1276:Src/register_interface.c ****             *torque = MCI_GetLastRampFinalTorque(pMCIN);
 3963              		.loc 1 1276 22 is_stmt 0 view .LVU1195
 3964 0540 0423     		movs	r3, #4
 3965 0542 2380     		strh	r3, [r4]	@ movhi
1277:Src/register_interface.c ****             *duration = MCI_GetLastRampFinalDuration(pMCIN) ;
 3966              		.loc 1 1277 13 is_stmt 1 view .LVU1196
1277:Src/register_interface.c ****             *duration = MCI_GetLastRampFinalDuration(pMCIN) ;
 3967              		.loc 1 1277 23 is_stmt 0 view .LVU1197
 3968 0544 5348     		ldr	r0, .L419+20
 3969              	.LVL491:
1277:Src/register_interface.c ****             *duration = MCI_GetLastRampFinalDuration(pMCIN) ;
 3970              		.loc 1 1277 23 view .LVU1198
 3971 0546 FFF7FEFF 		bl	MCI_GetLastRampFinalTorque
 3972              	.LVL492:
1277:Src/register_interface.c ****             *duration = MCI_GetLastRampFinalDuration(pMCIN) ;
 3973              		.loc 1 1277 21 view .LVU1199
 3974 054a 6080     		strh	r0, [r4, #2]	@ movhi
1278:Src/register_interface.c ****             break;
 3975              		.loc 1 1278 13 is_stmt 1 view .LVU1200
1278:Src/register_interface.c ****             break;
 3976              		.loc 1 1278 25 is_stmt 0 view .LVU1201
 3977 054c 5148     		ldr	r0, .L419+20
 3978 054e FFF7FEFF 		bl	MCI_GetLastRampFinalDuration
 3979              	.LVL493:
 3980 0552 2388     		ldrh	r3, [r4]
1278:Src/register_interface.c ****             break;
 3981              		.loc 1 1278 23 view .LVU1202
 3982 0554 A080     		strh	r0, [r4, #4]	@ movhi
1279:Src/register_interface.c ****           }
 3983              		.loc 1 1279 13 is_stmt 1 view .LVU1203
 3984 0556 0233     		adds	r3, r3, #2
 3985 0558 9BB2     		uxth	r3, r3
 3986              	.LBE175:
 3987              	.LBE264:
 761:Src/register_interface.c ****     uint8_t motorID=0;
 3988              		.loc 1 761 13 is_stmt 0 view .LVU1204
 3989 055a 0021     		movs	r1, #0
 3990              	.LBB265:
 3991              	.LBB176:
1279:Src/register_interface.c ****           }
 3992              		.loc 1 1279 13 view .LVU1205
 3993 055c 95E5     		b	.L354
 3994              	.LVL494:
 3995              	.L343:
1279:Src/register_interface.c ****           }
 3996              		.loc 1 1279 13 view .LVU1206
ARM GAS  /tmp/ccAfo4nU.s 			page 122


 3997              	.LBE176:
1250:Src/register_interface.c ****             if ((*rawSize) +2U > (uint16_t)freeSpace)
 3998              		.loc 1 1250 13 is_stmt 1 view .LVU1207
1251:Src/register_interface.c ****             {
 3999              		.loc 1 1251 16 is_stmt 0 view .LVU1208
 4000 055e 9BB2     		uxth	r3, r3
1250:Src/register_interface.c ****             if ((*rawSize) +2U > (uint16_t)freeSpace)
 4001              		.loc 1 1250 22 view .LVU1209
 4002 0560 0C21     		movs	r1, #12
 4003              	.LVL495:
1251:Src/register_interface.c ****             {
 4004              		.loc 1 1251 16 view .LVU1210
 4005 0562 0D2B     		cmp	r3, #13
1250:Src/register_interface.c ****             if ((*rawSize) +2U > (uint16_t)freeSpace)
 4006              		.loc 1 1250 22 view .LVU1211
 4007 0564 2180     		strh	r1, [r4]	@ movhi
1251:Src/register_interface.c ****             {
 4008              		.loc 1 1251 13 is_stmt 1 view .LVU1212
1251:Src/register_interface.c ****             {
 4009              		.loc 1 1251 16 is_stmt 0 view .LVU1213
 4010 0566 40F2AA80 		bls	.L366
1257:Src/register_interface.c ****             }
 4011              		.loc 1 1257 15 is_stmt 1 view .LVU1214
 4012 056a 4E4B     		ldr	r3, .L419+36
 4013 056c 9968     		ldr	r1, [r3, #8]	@ unaligned
 4014 056e 1C68     		ldr	r4, [r3]	@ unaligned
 4015              	.LVL496:
1257:Src/register_interface.c ****             }
 4016              		.loc 1 1257 15 is_stmt 0 view .LVU1215
 4017 0570 5868     		ldr	r0, [r3, #4]	@ unaligned
 4018              	.LVL497:
1257:Src/register_interface.c ****             }
 4019              		.loc 1 1257 15 view .LVU1216
 4020 0572 DB68     		ldr	r3, [r3, #12]	@ unaligned
 4021 0574 D360     		str	r3, [r2, #12]	@ unaligned
 4022 0576 9160     		str	r1, [r2, #8]	@ unaligned
 4023 0578 1460     		str	r4, [r2]	@ unaligned
 4024 057a 5060     		str	r0, [r2, #4]	@ unaligned
 4025 057c 0E23     		movs	r3, #14
 4026              	.LBE265:
 761:Src/register_interface.c ****     uint8_t motorID=0;
 4027              		.loc 1 761 13 view .LVU1217
 4028 057e 0021     		movs	r1, #0
 4029 0580 83E5     		b	.L354
 4030              	.LVL498:
 4031              	.L345:
 4032              	.LBB266:
1205:Src/register_interface.c ****             if (((*rawSize) + 2U) > (uint16_t)freeSpace)
 4033              		.loc 1 1205 13 is_stmt 1 view .LVU1218
1206:Src/register_interface.c ****             {
 4034              		.loc 1 1206 16 is_stmt 0 view .LVU1219
 4035 0582 9BB2     		uxth	r3, r3
1205:Src/register_interface.c ****             if (((*rawSize) + 2U) > (uint16_t)freeSpace)
 4036              		.loc 1 1205 22 view .LVU1220
 4037 0584 1021     		movs	r1, #16
 4038              	.LVL499:
1206:Src/register_interface.c ****             {
ARM GAS  /tmp/ccAfo4nU.s 			page 123


 4039              		.loc 1 1206 16 view .LVU1221
 4040 0586 112B     		cmp	r3, #17
1205:Src/register_interface.c ****             if (((*rawSize) + 2U) > (uint16_t)freeSpace)
 4041              		.loc 1 1205 22 view .LVU1222
 4042 0588 2180     		strh	r1, [r4]	@ movhi
1206:Src/register_interface.c ****             {
 4043              		.loc 1 1206 13 is_stmt 1 view .LVU1223
1206:Src/register_interface.c ****             {
 4044              		.loc 1 1206 16 is_stmt 0 view .LVU1224
 4045 058a 00F29B80 		bhi	.L414
 4046 058e 1223     		movs	r3, #18
1208:Src/register_interface.c ****             }
 4047              		.loc 1 1208 22 view .LVU1225
 4048 0590 0821     		movs	r1, #8
 4049 0592 7AE5     		b	.L354
 4050              	.LVL500:
 4051              	.L346:
1235:Src/register_interface.c ****             if (((*rawSize) + 2U) > (uint16_t)freeSpace)
 4052              		.loc 1 1235 13 is_stmt 1 view .LVU1226
1236:Src/register_interface.c ****             {
 4053              		.loc 1 1236 16 is_stmt 0 view .LVU1227
 4054 0594 9BB2     		uxth	r3, r3
1235:Src/register_interface.c ****             if (((*rawSize) + 2U) > (uint16_t)freeSpace)
 4055              		.loc 1 1235 22 view .LVU1228
 4056 0596 0E21     		movs	r1, #14
 4057              	.LVL501:
1236:Src/register_interface.c ****             {
 4058              		.loc 1 1236 16 view .LVU1229
 4059 0598 0F2B     		cmp	r3, #15
1235:Src/register_interface.c ****             if (((*rawSize) + 2U) > (uint16_t)freeSpace)
 4060              		.loc 1 1235 22 view .LVU1230
 4061 059a 2180     		strh	r1, [r4]	@ movhi
1236:Src/register_interface.c ****             {
 4062              		.loc 1 1236 13 is_stmt 1 view .LVU1231
1236:Src/register_interface.c ****             {
 4063              		.loc 1 1236 16 is_stmt 0 view .LVU1232
 4064 059c 00F29F80 		bhi	.L415
 4065 05a0 1023     		movs	r3, #16
1238:Src/register_interface.c ****             }
 4066              		.loc 1 1238 22 view .LVU1233
 4067 05a2 0821     		movs	r1, #8
 4068 05a4 71E5     		b	.L354
 4069              	.LVL502:
 4070              	.L395:
1220:Src/register_interface.c ****             if (((*rawSize) + 2U) > (uint16_t)freeSpace)
 4071              		.loc 1 1220 13 is_stmt 1 view .LVU1234
1221:Src/register_interface.c ****             {
 4072              		.loc 1 1221 16 is_stmt 0 view .LVU1235
 4073 05a6 9BB2     		uxth	r3, r3
1220:Src/register_interface.c ****             if (((*rawSize) + 2U) > (uint16_t)freeSpace)
 4074              		.loc 1 1220 22 view .LVU1236
 4075 05a8 3C21     		movs	r1, #60
 4076              	.LVL503:
1221:Src/register_interface.c ****             {
 4077              		.loc 1 1221 16 view .LVU1237
 4078 05aa 3D2B     		cmp	r3, #61
1220:Src/register_interface.c ****             if (((*rawSize) + 2U) > (uint16_t)freeSpace)
ARM GAS  /tmp/ccAfo4nU.s 			page 124


 4079              		.loc 1 1220 22 view .LVU1238
 4080 05ac 2180     		strh	r1, [r4]	@ movhi
1221:Src/register_interface.c ****             {
 4081              		.loc 1 1221 13 is_stmt 1 view .LVU1239
1221:Src/register_interface.c ****             {
 4082              		.loc 1 1221 16 is_stmt 0 view .LVU1240
 4083 05ae 00F2A380 		bhi	.L416
 4084 05b2 3E23     		movs	r3, #62
1223:Src/register_interface.c ****             }
 4085              		.loc 1 1223 22 view .LVU1241
 4086 05b4 0821     		movs	r1, #8
 4087 05b6 68E5     		b	.L354
 4088              	.LVL504:
 4089              	.L352:
 4090              	.LBB177:
1284:Src/register_interface.c ****             uint16_t *finalTorque;
 4091              		.loc 1 1284 13 is_stmt 1 view .LVU1242
1285:Src/register_interface.c ****             uint16_t *durationms;
 4092              		.loc 1 1285 13 view .LVU1243
1286:Src/register_interface.c ****             RevUpCtrl_PhaseParams_t revUpPhase;
 4093              		.loc 1 1286 13 view .LVU1244
1287:Src/register_interface.c ****             uint8_t i;
 4094              		.loc 1 1287 13 view .LVU1245
1288:Src/register_interface.c **** 
 4095              		.loc 1 1288 13 view .LVU1246
1290:Src/register_interface.c ****             if (((*rawSize) + 2U) > (uint16_t)freeSpace)
 4096              		.loc 1 1290 13 view .LVU1247
1291:Src/register_interface.c ****             {
 4097              		.loc 1 1291 16 is_stmt 0 view .LVU1248
 4098 05b8 9BB2     		uxth	r3, r3
1290:Src/register_interface.c ****             if (((*rawSize) + 2U) > (uint16_t)freeSpace)
 4099              		.loc 1 1290 22 view .LVU1249
 4100 05ba 2822     		movs	r2, #40
 4101              	.LVL505:
1291:Src/register_interface.c ****             {
 4102              		.loc 1 1291 16 view .LVU1250
 4103 05bc 292B     		cmp	r3, #41
1290:Src/register_interface.c ****             if (((*rawSize) + 2U) > (uint16_t)freeSpace)
 4104              		.loc 1 1290 22 view .LVU1251
 4105 05be 2280     		strh	r2, [r4]	@ movhi
1291:Src/register_interface.c ****             {
 4106              		.loc 1 1291 13 is_stmt 1 view .LVU1252
1291:Src/register_interface.c ****             {
 4107              		.loc 1 1291 16 is_stmt 0 view .LVU1253
 4108 05c0 7AD9     		bls	.L367
 4109              	.LVL506:
1299:Src/register_interface.c ****                 rpm = (int32_t *)&data[2U + (i * 8U)];  //cstat !MISRAC2012-Rule-11.3
 4110              		.loc 1 1299 17 is_stmt 1 view .LVU1254
 4111              	.LBB178:
 4112              	.LBI178:
 282:MCSDK_v6.3.0-Full/MotorControl/MCSDK/MCLib/Any/Inc/revup_ctrl.h **** #endif
 283:MCSDK_v6.3.0-Full/MotorControl/MCSDK/MCLib/Any/Inc/revup_ctrl.h **** }
 284:MCSDK_v6.3.0-Full/MotorControl/MCSDK/MCLib/Any/Inc/revup_ctrl.h **** 
 285:MCSDK_v6.3.0-Full/MotorControl/MCSDK/MCLib/Any/Inc/revup_ctrl.h **** /**
 286:MCSDK_v6.3.0-Full/MotorControl/MCSDK/MCLib/Any/Inc/revup_ctrl.h ****   * @brief  Allow to read a programmed phase.
 287:MCSDK_v6.3.0-Full/MotorControl/MCSDK/MCLib/Any/Inc/revup_ctrl.h ****   * @param  pHandle: Pointer on Handle structure of RevUp controller.
 288:MCSDK_v6.3.0-Full/MotorControl/MCSDK/MCLib/Any/Inc/revup_ctrl.h ****   * @param  phaseNumber : number of phases relative to the programmed Rev-Up
ARM GAS  /tmp/ccAfo4nU.s 			page 125


 289:MCSDK_v6.3.0-Full/MotorControl/MCSDK/MCLib/Any/Inc/revup_ctrl.h ****   * @param  phaseData:
 290:MCSDK_v6.3.0-Full/MotorControl/MCSDK/MCLib/Any/Inc/revup_ctrl.h ****   *       - RevUp phase from where targeted rotor speed is read.
 291:MCSDK_v6.3.0-Full/MotorControl/MCSDK/MCLib/Any/Inc/revup_ctrl.h ****   *              This parameter must be a number between 0 and 6.
 292:MCSDK_v6.3.0-Full/MotorControl/MCSDK/MCLib/Any/Inc/revup_ctrl.h ****   *            - RevUp phase from where targeted motor torque is read.
 293:MCSDK_v6.3.0-Full/MotorControl/MCSDK/MCLib/Any/Inc/revup_ctrl.h ****   *             This parameter must be a number between 0 and 6.
 294:MCSDK_v6.3.0-Full/MotorControl/MCSDK/MCLib/Any/Inc/revup_ctrl.h ****   *            - Duration set in selected phase in ms unit.
 295:MCSDK_v6.3.0-Full/MotorControl/MCSDK/MCLib/Any/Inc/revup_ctrl.h ****   *  @retval Returns Boolean set to true value.
 296:MCSDK_v6.3.0-Full/MotorControl/MCSDK/MCLib/Any/Inc/revup_ctrl.h ****   */
 297:MCSDK_v6.3.0-Full/MotorControl/MCSDK/MCLib/Any/Inc/revup_ctrl.h **** static inline bool RUC_GetPhase(RevUpCtrl_Handle_t *pHandle, uint8_t phaseNumber, RevUpCtrl_PhasePa
 4113              		.loc 2 297 20 view .LVU1255
 4114              	.LBB179:
 298:MCSDK_v6.3.0-Full/MotorControl/MCSDK/MCLib/Any/Inc/revup_ctrl.h **** {
 299:MCSDK_v6.3.0-Full/MotorControl/MCSDK/MCLib/Any/Inc/revup_ctrl.h ****   bool retValue = true;
 4115              		.loc 2 299 3 view .LVU1256
 300:MCSDK_v6.3.0-Full/MotorControl/MCSDK/MCLib/Any/Inc/revup_ctrl.h **** #ifdef NULL_PTR_CHECK_REV_UP_CTL
 301:MCSDK_v6.3.0-Full/MotorControl/MCSDK/MCLib/Any/Inc/revup_ctrl.h ****   if ((MC_NULL == pHandle) || (MC_NULL == phaseData))
 302:MCSDK_v6.3.0-Full/MotorControl/MCSDK/MCLib/Any/Inc/revup_ctrl.h ****   {
 303:MCSDK_v6.3.0-Full/MotorControl/MCSDK/MCLib/Any/Inc/revup_ctrl.h ****     retValue = false;
 304:MCSDK_v6.3.0-Full/MotorControl/MCSDK/MCLib/Any/Inc/revup_ctrl.h ****   }
 305:MCSDK_v6.3.0-Full/MotorControl/MCSDK/MCLib/Any/Inc/revup_ctrl.h ****   else
 306:MCSDK_v6.3.0-Full/MotorControl/MCSDK/MCLib/Any/Inc/revup_ctrl.h ****   {
 307:MCSDK_v6.3.0-Full/MotorControl/MCSDK/MCLib/Any/Inc/revup_ctrl.h **** #endif
 308:MCSDK_v6.3.0-Full/MotorControl/MCSDK/MCLib/Any/Inc/revup_ctrl.h ****     phaseData->hFinalTorque = (int16_t)pHandle->ParamsData[phaseNumber].hFinalTorque;
 4116              		.loc 2 308 5 view .LVU1257
 4117              		.loc 2 308 72 is_stmt 0 view .LVU1258
 4118 05c2 374B     		ldr	r3, .L419+32
 4119 05c4 B3F91010 		ldrsh	r1, [r3, #16]
 4120              	.LVL507:
 309:MCSDK_v6.3.0-Full/MotorControl/MCSDK/MCLib/Any/Inc/revup_ctrl.h ****     phaseData->hFinalMecSpeedUnit = (int16_t)pHandle->ParamsData[phaseNumber].hFinalMecSpeedUnit;
 4121              		.loc 2 309 5 is_stmt 1 view .LVU1259
 310:MCSDK_v6.3.0-Full/MotorControl/MCSDK/MCLib/Any/Inc/revup_ctrl.h ****     phaseData->hDurationms = (uint16_t)pHandle->ParamsData[phaseNumber].hDurationms;
 4122              		.loc 2 310 5 view .LVU1260
 4123              		.loc 2 310 72 is_stmt 0 view .LVU1261
 4124 05c8 9A89     		ldrh	r2, [r3, #12]
 4125              	.LVL508:
 311:MCSDK_v6.3.0-Full/MotorControl/MCSDK/MCLib/Any/Inc/revup_ctrl.h **** #ifdef NULL_PTR_CHECK_REV_UP_CTL
 312:MCSDK_v6.3.0-Full/MotorControl/MCSDK/MCLib/Any/Inc/revup_ctrl.h ****   }
 313:MCSDK_v6.3.0-Full/MotorControl/MCSDK/MCLib/Any/Inc/revup_ctrl.h **** #endif
 314:MCSDK_v6.3.0-Full/MotorControl/MCSDK/MCLib/Any/Inc/revup_ctrl.h ****   return (retValue);
 4126              		.loc 2 314 3 is_stmt 1 view .LVU1262
 4127              		.loc 2 314 3 is_stmt 0 view .LVU1263
 4128              	.LBE179:
 4129              	.LBE178:
1300:Src/register_interface.c ****                 *rpm = (((int32_t)revUpPhase.hFinalMecSpeedUnit) * U_RPM) / SPEED_UNIT; //cstat !MI
 4130              		.loc 1 1300 17 is_stmt 1 view .LVU1264
1301:Src/register_interface.c ****                 finalTorque = (uint16_t *)&data[6U + (i * 8U)]; //cstat !MISRAC2012-Rule-11.3
 4131              		.loc 1 1301 17 view .LVU1265
1301:Src/register_interface.c ****                 finalTorque = (uint16_t *)&data[6U + (i * 8U)]; //cstat !MISRAC2012-Rule-11.3
 4132              		.loc 1 1301 75 is_stmt 0 view .LVU1266
 4133 05ca B3F90E70 		ldrsh	r7, [r3, #14]
1303:Src/register_interface.c ****                 durationms  = (uint16_t *)&data[8U + (i * 8U)]; //cstat !MISRAC2012-Rule-11.3
 4134              		.loc 1 1303 30 view .LVU1267
 4135 05ce E180     		strh	r1, [r4, #6]	@ movhi
 4136              	.LVL509:
1305:Src/register_interface.c ****               }
 4137              		.loc 1 1305 30 view .LVU1268
 4138 05d0 2281     		strh	r2, [r4, #8]	@ movhi
ARM GAS  /tmp/ccAfo4nU.s 			page 126


 4139              	.LBB188:
 4140              	.LBB180:
 308:MCSDK_v6.3.0-Full/MotorControl/MCSDK/MCLib/Any/Inc/revup_ctrl.h ****     phaseData->hFinalMecSpeedUnit = (int16_t)pHandle->ParamsData[phaseNumber].hFinalMecSpeedUnit;
 4141              		.loc 2 308 72 view .LVU1269
 4142 05d2 B3F91C10 		ldrsh	r1, [r3, #28]
 4143              	.LVL510:
 310:MCSDK_v6.3.0-Full/MotorControl/MCSDK/MCLib/Any/Inc/revup_ctrl.h **** #ifdef NULL_PTR_CHECK_REV_UP_CTL
 4144              		.loc 2 310 72 view .LVU1270
 4145 05d6 1A8B     		ldrh	r2, [r3, #24]
 4146              	.LVL511:
 310:MCSDK_v6.3.0-Full/MotorControl/MCSDK/MCLib/Any/Inc/revup_ctrl.h **** #ifdef NULL_PTR_CHECK_REV_UP_CTL
 4147              		.loc 2 310 72 view .LVU1271
 4148              	.LBE180:
 4149              	.LBE188:
1301:Src/register_interface.c ****                 finalTorque = (uint16_t *)&data[6U + (i * 8U)]; //cstat !MISRAC2012-Rule-11.3
 4150              		.loc 1 1301 75 view .LVU1272
 4151 05d8 B3F91A60 		ldrsh	r6, [r3, #26]
1303:Src/register_interface.c ****                 durationms  = (uint16_t *)&data[8U + (i * 8U)]; //cstat !MISRAC2012-Rule-11.3
 4152              		.loc 1 1303 30 view .LVU1273
 4153 05dc E181     		strh	r1, [r4, #14]	@ movhi
1305:Src/register_interface.c ****               }
 4154              		.loc 1 1305 30 view .LVU1274
 4155 05de 2282     		strh	r2, [r4, #16]	@ movhi
 4156              	.LBB189:
 4157              	.LBB181:
 308:MCSDK_v6.3.0-Full/MotorControl/MCSDK/MCLib/Any/Inc/revup_ctrl.h ****     phaseData->hFinalMecSpeedUnit = (int16_t)pHandle->ParamsData[phaseNumber].hFinalMecSpeedUnit;
 4158              		.loc 2 308 72 view .LVU1275
 4159 05e0 B3F92810 		ldrsh	r1, [r3, #40]
 310:MCSDK_v6.3.0-Full/MotorControl/MCSDK/MCLib/Any/Inc/revup_ctrl.h **** #ifdef NULL_PTR_CHECK_REV_UP_CTL
 4160              		.loc 2 310 72 view .LVU1276
 4161 05e4 9A8C     		ldrh	r2, [r3, #36]
 4162              	.LBE181:
 4163              	.LBE189:
1301:Src/register_interface.c ****                 finalTorque = (uint16_t *)&data[6U + (i * 8U)]; //cstat !MISRAC2012-Rule-11.3
 4164              		.loc 1 1301 75 view .LVU1277
 4165 05e6 B3F92600 		ldrsh	r0, [r3, #38]
 4166              	.LVL512:
1303:Src/register_interface.c ****                 durationms  = (uint16_t *)&data[8U + (i * 8U)]; //cstat !MISRAC2012-Rule-11.3
 4167              		.loc 1 1303 30 view .LVU1278
 4168 05ea E182     		strh	r1, [r4, #22]	@ movhi
1305:Src/register_interface.c ****               }
 4169              		.loc 1 1305 30 view .LVU1279
 4170 05ec 2283     		strh	r2, [r4, #24]	@ movhi
 4171              	.LBB190:
 4172              	.LBB182:
 310:MCSDK_v6.3.0-Full/MotorControl/MCSDK/MCLib/Any/Inc/revup_ctrl.h **** #ifdef NULL_PTR_CHECK_REV_UP_CTL
 4173              		.loc 2 310 72 view .LVU1280
 4174 05ee 1A8E     		ldrh	r2, [r3, #48]
 308:MCSDK_v6.3.0-Full/MotorControl/MCSDK/MCLib/Any/Inc/revup_ctrl.h ****     phaseData->hFinalMecSpeedUnit = (int16_t)pHandle->ParamsData[phaseNumber].hFinalMecSpeedUnit;
 4175              		.loc 2 308 72 view .LVU1281
 4176 05f0 B3F934C0 		ldrsh	ip, [r3, #52]
 4177              	.LBE182:
 4178              	.LBE190:
1301:Src/register_interface.c ****                 finalTorque = (uint16_t *)&data[6U + (i * 8U)]; //cstat !MISRAC2012-Rule-11.3
 4179              		.loc 1 1301 75 view .LVU1282
 4180 05f4 B3F93210 		ldrsh	r1, [r3, #50]
1303:Src/register_interface.c ****                 durationms  = (uint16_t *)&data[8U + (i * 8U)]; //cstat !MISRAC2012-Rule-11.3
ARM GAS  /tmp/ccAfo4nU.s 			page 127


 4181              		.loc 1 1303 30 view .LVU1283
 4182 05f8 A4F81EC0 		strh	ip, [r4, #30]	@ movhi
1305:Src/register_interface.c ****               }
 4183              		.loc 1 1305 30 view .LVU1284
 4184 05fc 2284     		strh	r2, [r4, #32]	@ movhi
1301:Src/register_interface.c ****                 finalTorque = (uint16_t *)&data[6U + (i * 8U)]; //cstat !MISRAC2012-Rule-11.3
 4185              		.loc 1 1301 75 view .LVU1285
 4186 05fe B3F93E20 		ldrsh	r2, [r3, #62]
 4187 0602 06EB4606 		add	r6, r6, r6, lsl #1
 4188 0606 7600     		lsls	r6, r6, #1
 4189 0608 07EB4707 		add	r7, r7, r7, lsl #1
 4190 060c 00EB4000 		add	r0, r0, r0, lsl #1
 4191 0610 01EB4101 		add	r1, r1, r1, lsl #1
 4192 0614 02EB4202 		add	r2, r2, r2, lsl #1
 4193 0618 4900     		lsls	r1, r1, #1
 4194 061a 7F00     		lsls	r7, r7, #1
 4195 061c 4000     		lsls	r0, r0, #1
 4196 061e 5200     		lsls	r2, r2, #1
1301:Src/register_interface.c ****                 finalTorque = (uint16_t *)&data[6U + (i * 8U)]; //cstat !MISRAC2012-Rule-11.3
 4197              		.loc 1 1301 22 view .LVU1286
 4198 0620 C4F80A60 		str	r6, [r4, #10]
 4199              	.LBB191:
 4200              	.LBB183:
 308:MCSDK_v6.3.0-Full/MotorControl/MCSDK/MCLib/Any/Inc/revup_ctrl.h ****     phaseData->hFinalMecSpeedUnit = (int16_t)pHandle->ParamsData[phaseNumber].hFinalMecSpeedUnit;
 4201              		.loc 2 308 72 view .LVU1287
 4202 0624 B3F94060 		ldrsh	r6, [r3, #64]
 310:MCSDK_v6.3.0-Full/MotorControl/MCSDK/MCLib/Any/Inc/revup_ctrl.h **** #ifdef NULL_PTR_CHECK_REV_UP_CTL
 4203              		.loc 2 310 72 view .LVU1288
 4204 0628 9B8F     		ldrh	r3, [r3, #60]
 4205              	.LBE183:
 4206              	.LBE191:
1305:Src/register_interface.c ****               }
 4207              		.loc 1 1305 30 view .LVU1289
 4208 062a 2385     		strh	r3, [r4, #40]	@ movhi
1301:Src/register_interface.c ****                 finalTorque = (uint16_t *)&data[6U + (i * 8U)]; //cstat !MISRAC2012-Rule-11.3
 4209              		.loc 1 1301 22 view .LVU1290
 4210 062c C4F81A10 		str	r1, [r4, #26]
 4211 0630 C4F80270 		str	r7, [r4, #2]
1302:Src/register_interface.c ****                 *finalTorque = (uint16_t)revUpPhase.hFinalTorque; //cstat !MISRAC2012-Rule-11.3
 4212              		.loc 1 1302 17 is_stmt 1 view .LVU1291
 4213              	.LVL513:
1303:Src/register_interface.c ****                 durationms  = (uint16_t *)&data[8U + (i * 8U)]; //cstat !MISRAC2012-Rule-11.3
 4214              		.loc 1 1303 17 view .LVU1292
1304:Src/register_interface.c ****                 *durationms  = revUpPhase.hDurationms;
 4215              		.loc 1 1304 17 view .LVU1293
1305:Src/register_interface.c ****               }
 4216              		.loc 1 1305 17 view .LVU1294
1299:Src/register_interface.c ****                 rpm = (int32_t *)&data[2U + (i * 8U)];  //cstat !MISRAC2012-Rule-11.3
 4217              		.loc 1 1299 17 view .LVU1295
 4218              	.LBB192:
 297:MCSDK_v6.3.0-Full/MotorControl/MCSDK/MCLib/Any/Inc/revup_ctrl.h **** {
 4219              		.loc 2 297 20 view .LVU1296
 4220              	.LBB184:
 299:MCSDK_v6.3.0-Full/MotorControl/MCSDK/MCLib/Any/Inc/revup_ctrl.h **** #ifdef NULL_PTR_CHECK_REV_UP_CTL
 4221              		.loc 2 299 3 view .LVU1297
 308:MCSDK_v6.3.0-Full/MotorControl/MCSDK/MCLib/Any/Inc/revup_ctrl.h ****     phaseData->hFinalMecSpeedUnit = (int16_t)pHandle->ParamsData[phaseNumber].hFinalMecSpeedUnit;
 4222              		.loc 2 308 5 view .LVU1298
ARM GAS  /tmp/ccAfo4nU.s 			page 128


 309:MCSDK_v6.3.0-Full/MotorControl/MCSDK/MCLib/Any/Inc/revup_ctrl.h ****     phaseData->hDurationms = (uint16_t)pHandle->ParamsData[phaseNumber].hDurationms;
 4223              		.loc 2 309 5 view .LVU1299
 310:MCSDK_v6.3.0-Full/MotorControl/MCSDK/MCLib/Any/Inc/revup_ctrl.h **** #ifdef NULL_PTR_CHECK_REV_UP_CTL
 4224              		.loc 2 310 5 view .LVU1300
 4225              		.loc 2 314 3 view .LVU1301
 4226              		.loc 2 314 3 is_stmt 0 view .LVU1302
 4227              	.LBE184:
 4228              	.LBE192:
1300:Src/register_interface.c ****                 *rpm = (((int32_t)revUpPhase.hFinalMecSpeedUnit) * U_RPM) / SPEED_UNIT; //cstat !MI
 4229              		.loc 1 1300 17 is_stmt 1 view .LVU1303
1301:Src/register_interface.c ****                 finalTorque = (uint16_t *)&data[6U + (i * 8U)]; //cstat !MISRAC2012-Rule-11.3
 4230              		.loc 1 1301 17 view .LVU1304
1302:Src/register_interface.c ****                 *finalTorque = (uint16_t)revUpPhase.hFinalTorque; //cstat !MISRAC2012-Rule-11.3
 4231              		.loc 1 1302 17 view .LVU1305
1303:Src/register_interface.c ****                 durationms  = (uint16_t *)&data[8U + (i * 8U)]; //cstat !MISRAC2012-Rule-11.3
 4232              		.loc 1 1303 17 view .LVU1306
1304:Src/register_interface.c ****                 *durationms  = revUpPhase.hDurationms;
 4233              		.loc 1 1304 17 view .LVU1307
1305:Src/register_interface.c ****               }
 4234              		.loc 1 1305 17 view .LVU1308
1299:Src/register_interface.c ****                 rpm = (int32_t *)&data[2U + (i * 8U)];  //cstat !MISRAC2012-Rule-11.3
 4235              		.loc 1 1299 17 view .LVU1309
 4236              	.LBB193:
 297:MCSDK_v6.3.0-Full/MotorControl/MCSDK/MCLib/Any/Inc/revup_ctrl.h **** {
 4237              		.loc 2 297 20 view .LVU1310
 4238              	.LBB185:
 299:MCSDK_v6.3.0-Full/MotorControl/MCSDK/MCLib/Any/Inc/revup_ctrl.h **** #ifdef NULL_PTR_CHECK_REV_UP_CTL
 4239              		.loc 2 299 3 view .LVU1311
 308:MCSDK_v6.3.0-Full/MotorControl/MCSDK/MCLib/Any/Inc/revup_ctrl.h ****     phaseData->hFinalMecSpeedUnit = (int16_t)pHandle->ParamsData[phaseNumber].hFinalMecSpeedUnit;
 4240              		.loc 2 308 5 view .LVU1312
 309:MCSDK_v6.3.0-Full/MotorControl/MCSDK/MCLib/Any/Inc/revup_ctrl.h ****     phaseData->hDurationms = (uint16_t)pHandle->ParamsData[phaseNumber].hDurationms;
 4241              		.loc 2 309 5 view .LVU1313
 310:MCSDK_v6.3.0-Full/MotorControl/MCSDK/MCLib/Any/Inc/revup_ctrl.h **** #ifdef NULL_PTR_CHECK_REV_UP_CTL
 4242              		.loc 2 310 5 view .LVU1314
 4243              		.loc 2 314 3 view .LVU1315
 4244              		.loc 2 314 3 is_stmt 0 view .LVU1316
 4245              	.LBE185:
 4246              	.LBE193:
1300:Src/register_interface.c ****                 *rpm = (((int32_t)revUpPhase.hFinalMecSpeedUnit) * U_RPM) / SPEED_UNIT; //cstat !MI
 4247              		.loc 1 1300 17 is_stmt 1 view .LVU1317
1301:Src/register_interface.c ****                 finalTorque = (uint16_t *)&data[6U + (i * 8U)]; //cstat !MISRAC2012-Rule-11.3
 4248              		.loc 1 1301 17 view .LVU1318
1301:Src/register_interface.c ****                 finalTorque = (uint16_t *)&data[6U + (i * 8U)]; //cstat !MISRAC2012-Rule-11.3
 4249              		.loc 1 1301 22 is_stmt 0 view .LVU1319
 4250 0634 C4F81200 		str	r0, [r4, #18]
1302:Src/register_interface.c ****                 *finalTorque = (uint16_t)revUpPhase.hFinalTorque; //cstat !MISRAC2012-Rule-11.3
 4251              		.loc 1 1302 17 is_stmt 1 view .LVU1320
 4252              	.LVL514:
1303:Src/register_interface.c ****                 durationms  = (uint16_t *)&data[8U + (i * 8U)]; //cstat !MISRAC2012-Rule-11.3
 4253              		.loc 1 1303 17 view .LVU1321
1304:Src/register_interface.c ****                 *durationms  = revUpPhase.hDurationms;
 4254              		.loc 1 1304 17 view .LVU1322
1305:Src/register_interface.c ****               }
 4255              		.loc 1 1305 17 view .LVU1323
1299:Src/register_interface.c ****                 rpm = (int32_t *)&data[2U + (i * 8U)];  //cstat !MISRAC2012-Rule-11.3
 4256              		.loc 1 1299 17 view .LVU1324
 4257              	.LBB194:
ARM GAS  /tmp/ccAfo4nU.s 			page 129


 297:MCSDK_v6.3.0-Full/MotorControl/MCSDK/MCLib/Any/Inc/revup_ctrl.h **** {
 4258              		.loc 2 297 20 view .LVU1325
 4259              	.LBB186:
 299:MCSDK_v6.3.0-Full/MotorControl/MCSDK/MCLib/Any/Inc/revup_ctrl.h **** #ifdef NULL_PTR_CHECK_REV_UP_CTL
 4260              		.loc 2 299 3 view .LVU1326
 308:MCSDK_v6.3.0-Full/MotorControl/MCSDK/MCLib/Any/Inc/revup_ctrl.h ****     phaseData->hFinalMecSpeedUnit = (int16_t)pHandle->ParamsData[phaseNumber].hFinalMecSpeedUnit;
 4261              		.loc 2 308 5 view .LVU1327
 309:MCSDK_v6.3.0-Full/MotorControl/MCSDK/MCLib/Any/Inc/revup_ctrl.h ****     phaseData->hDurationms = (uint16_t)pHandle->ParamsData[phaseNumber].hDurationms;
 4262              		.loc 2 309 5 view .LVU1328
 310:MCSDK_v6.3.0-Full/MotorControl/MCSDK/MCLib/Any/Inc/revup_ctrl.h **** #ifdef NULL_PTR_CHECK_REV_UP_CTL
 4263              		.loc 2 310 5 view .LVU1329
 4264              		.loc 2 314 3 view .LVU1330
 4265              		.loc 2 314 3 is_stmt 0 view .LVU1331
 4266              	.LBE186:
 4267              	.LBE194:
1300:Src/register_interface.c ****                 *rpm = (((int32_t)revUpPhase.hFinalMecSpeedUnit) * U_RPM) / SPEED_UNIT; //cstat !MI
 4268              		.loc 1 1300 17 is_stmt 1 view .LVU1332
1301:Src/register_interface.c ****                 finalTorque = (uint16_t *)&data[6U + (i * 8U)]; //cstat !MISRAC2012-Rule-11.3
 4269              		.loc 1 1301 17 view .LVU1333
1302:Src/register_interface.c ****                 *finalTorque = (uint16_t)revUpPhase.hFinalTorque; //cstat !MISRAC2012-Rule-11.3
 4270              		.loc 1 1302 17 view .LVU1334
1303:Src/register_interface.c ****                 durationms  = (uint16_t *)&data[8U + (i * 8U)]; //cstat !MISRAC2012-Rule-11.3
 4271              		.loc 1 1303 17 view .LVU1335
1304:Src/register_interface.c ****                 *durationms  = revUpPhase.hDurationms;
 4272              		.loc 1 1304 17 view .LVU1336
1305:Src/register_interface.c ****               }
 4273              		.loc 1 1305 17 view .LVU1337
1299:Src/register_interface.c ****                 rpm = (int32_t *)&data[2U + (i * 8U)];  //cstat !MISRAC2012-Rule-11.3
 4274              		.loc 1 1299 17 view .LVU1338
 4275              	.LBB195:
 297:MCSDK_v6.3.0-Full/MotorControl/MCSDK/MCLib/Any/Inc/revup_ctrl.h **** {
 4276              		.loc 2 297 20 view .LVU1339
 4277              	.LBB187:
 299:MCSDK_v6.3.0-Full/MotorControl/MCSDK/MCLib/Any/Inc/revup_ctrl.h **** #ifdef NULL_PTR_CHECK_REV_UP_CTL
 4278              		.loc 2 299 3 view .LVU1340
 308:MCSDK_v6.3.0-Full/MotorControl/MCSDK/MCLib/Any/Inc/revup_ctrl.h ****     phaseData->hFinalMecSpeedUnit = (int16_t)pHandle->ParamsData[phaseNumber].hFinalMecSpeedUnit;
 4279              		.loc 2 308 5 view .LVU1341
 309:MCSDK_v6.3.0-Full/MotorControl/MCSDK/MCLib/Any/Inc/revup_ctrl.h ****     phaseData->hDurationms = (uint16_t)pHandle->ParamsData[phaseNumber].hDurationms;
 4280              		.loc 2 309 5 view .LVU1342
 310:MCSDK_v6.3.0-Full/MotorControl/MCSDK/MCLib/Any/Inc/revup_ctrl.h **** #ifdef NULL_PTR_CHECK_REV_UP_CTL
 4281              		.loc 2 310 5 view .LVU1343
 4282              		.loc 2 314 3 view .LVU1344
 4283              		.loc 2 314 3 is_stmt 0 view .LVU1345
 4284              	.LBE187:
 4285              	.LBE195:
1300:Src/register_interface.c ****                 *rpm = (((int32_t)revUpPhase.hFinalMecSpeedUnit) * U_RPM) / SPEED_UNIT; //cstat !MI
 4286              		.loc 1 1300 17 is_stmt 1 view .LVU1346
1301:Src/register_interface.c ****                 finalTorque = (uint16_t *)&data[6U + (i * 8U)]; //cstat !MISRAC2012-Rule-11.3
 4287              		.loc 1 1301 17 view .LVU1347
1301:Src/register_interface.c ****                 finalTorque = (uint16_t *)&data[6U + (i * 8U)]; //cstat !MISRAC2012-Rule-11.3
 4288              		.loc 1 1301 22 is_stmt 0 view .LVU1348
 4289 0638 C4F82220 		str	r2, [r4, #34]
1302:Src/register_interface.c ****                 *finalTorque = (uint16_t)revUpPhase.hFinalTorque; //cstat !MISRAC2012-Rule-11.3
 4290              		.loc 1 1302 17 is_stmt 1 view .LVU1349
 4291              	.LVL515:
1303:Src/register_interface.c ****                 durationms  = (uint16_t *)&data[8U + (i * 8U)]; //cstat !MISRAC2012-Rule-11.3
 4292              		.loc 1 1303 17 view .LVU1350
ARM GAS  /tmp/ccAfo4nU.s 			page 130


1303:Src/register_interface.c ****                 durationms  = (uint16_t *)&data[8U + (i * 8U)]; //cstat !MISRAC2012-Rule-11.3
 4293              		.loc 1 1303 30 is_stmt 0 view .LVU1351
 4294 063c E684     		strh	r6, [r4, #38]	@ movhi
1304:Src/register_interface.c ****                 *durationms  = revUpPhase.hDurationms;
 4295              		.loc 1 1304 17 is_stmt 1 view .LVU1352
 4296              	.LVL516:
1305:Src/register_interface.c ****               }
 4297              		.loc 1 1305 17 view .LVU1353
1305:Src/register_interface.c ****               }
 4298              		.loc 1 1305 17 is_stmt 0 view .LVU1354
 4299 063e 2A23     		movs	r3, #42
 4300              	.LVL517:
1305:Src/register_interface.c ****               }
 4301              		.loc 1 1305 17 view .LVU1355
 4302              	.LBE177:
 4303              	.LBE266:
 761:Src/register_interface.c ****     uint8_t motorID=0;
 4304              		.loc 1 761 13 view .LVU1356
 4305 0640 0021     		movs	r1, #0
 4306 0642 22E5     		b	.L354
 4307              	.LVL518:
 4308              	.L327:
 4309              	.LBB267:
1127:Src/register_interface.c ****               break;
 4310              		.loc 1 1127 15 is_stmt 1 view .LVU1357
1127:Src/register_interface.c ****               break;
 4311              		.loc 1 1127 39 is_stmt 0 view .LVU1358
 4312 0644 1348     		ldr	r0, .L419+20
 4313              	.LVL519:
1127:Src/register_interface.c ****               break;
 4314              		.loc 1 1127 39 view .LVU1359
 4315 0646 FFF7FEFF 		bl	MCI_GetMecSpeedRefUnit
 4316              	.LVL520:
1127:Src/register_interface.c ****               break;
 4317              		.loc 1 1127 78 view .LVU1360
 4318 064a 00EB4000 		add	r0, r0, r0, lsl #1
 4319 064e 4000     		lsls	r0, r0, #1
1127:Src/register_interface.c ****               break;
 4320              		.loc 1 1127 26 view .LVU1361
 4321 0650 2060     		str	r0, [r4]
1128:Src/register_interface.c ****             }
 4322              		.loc 1 1128 15 is_stmt 1 view .LVU1362
 4323              	.LBE267:
 761:Src/register_interface.c ****     uint8_t motorID=0;
 4324              		.loc 1 761 13 is_stmt 0 view .LVU1363
 4325 0652 0021     		movs	r1, #0
 4326              	.LBB268:
1128:Src/register_interface.c ****             }
 4327              		.loc 1 1128 15 view .LVU1364
 4328 0654 69E5     		b	.L331
 4329              	.LVL521:
 4330              	.L333:
 4331              	.LBB208:
1145:Src/register_interface.c ****               ReadVal.Float_Val = PQD_GetAvrgElMotorPowerW(pMPM[M1]);
 4332              		.loc 1 1145 15 is_stmt 1 view .LVU1365
1146:Src/register_interface.c ****               *regdataU32 = ReadVal.U32_Val; //cstat !UNION-type-punning
 4333              		.loc 1 1146 15 view .LVU1366
ARM GAS  /tmp/ccAfo4nU.s 			page 131


1146:Src/register_interface.c ****               *regdataU32 = ReadVal.U32_Val; //cstat !UNION-type-punning
 4334              		.loc 1 1146 64 is_stmt 0 view .LVU1367
 4335 0656 144B     		ldr	r3, .L419+40
1146:Src/register_interface.c ****               *regdataU32 = ReadVal.U32_Val; //cstat !UNION-type-punning
 4336              		.loc 1 1146 35 view .LVU1368
 4337 0658 1868     		ldr	r0, [r3]
 4338              	.LVL522:
1146:Src/register_interface.c ****               *regdataU32 = ReadVal.U32_Val; //cstat !UNION-type-punning
 4339              		.loc 1 1146 35 view .LVU1369
 4340 065a FFF7FEFF 		bl	PQD_GetAvrgElMotorPowerW
 4341              	.LVL523:
1147:Src/register_interface.c ****               break;
 4342              		.loc 1 1147 15 is_stmt 1 view .LVU1370
 4343              	.LBE208:
 4344              	.LBE268:
 761:Src/register_interface.c ****     uint8_t motorID=0;
 4345              		.loc 1 761 13 is_stmt 0 view .LVU1371
 4346 065e 0021     		movs	r1, #0
 4347              	.LBB269:
 4348              	.LBB209:
1147:Src/register_interface.c ****               break;
 4349              		.loc 1 1147 27 view .LVU1372
 4350 0660 84ED000A 		vstr.32	s0, [r4]	@ int
1148:Src/register_interface.c ****             }
 4351              		.loc 1 1148 15 is_stmt 1 view .LVU1373
 4352              	.LVL524:
1148:Src/register_interface.c ****             }
 4353              		.loc 1 1148 15 is_stmt 0 view .LVU1374
 4354 0664 61E5     		b	.L331
 4355              	.LVL525:
 4356              	.L332:
1148:Src/register_interface.c ****             }
 4357              		.loc 1 1148 15 view .LVU1375
 4358              	.LBE209:
1139:Src/register_interface.c ****               break;
 4359              		.loc 1 1139 15 is_stmt 1 view .LVU1376
1139:Src/register_interface.c ****               break;
 4360              		.loc 1 1139 28 is_stmt 0 view .LVU1377
 4361 0666 064B     		ldr	r3, .L419
 4362 0668 D3F8FC30 		ldr	r3, [r3, #252]
 4363              	.LVL526:
1139:Src/register_interface.c ****               break;
 4364              		.loc 1 1139 28 view .LVU1378
 4365              	.LBE269:
 4366              		.file 4 "MCSDK_v6.3.0-Full/MotorControl/MCSDK/MCLib/Any/Inc/sto_pll_speed_pos_fdbk.h"
   1:MCSDK_v6.3.0-Full/MotorControl/MCSDK/MCLib/Any/Inc/sto_pll_speed_pos_fdbk.h **** /**
   2:MCSDK_v6.3.0-Full/MotorControl/MCSDK/MCLib/Any/Inc/sto_pll_speed_pos_fdbk.h ****   ******************************************************************************
   3:MCSDK_v6.3.0-Full/MotorControl/MCSDK/MCLib/Any/Inc/sto_pll_speed_pos_fdbk.h ****   * @file    sto_pll_speed_pos_fdbk.h
   4:MCSDK_v6.3.0-Full/MotorControl/MCSDK/MCLib/Any/Inc/sto_pll_speed_pos_fdbk.h ****   * @author  Motor Control SDK Team, ST Microelectronics
   5:MCSDK_v6.3.0-Full/MotorControl/MCSDK/MCLib/Any/Inc/sto_pll_speed_pos_fdbk.h ****   * @brief   This file contains all definitions and functions prototypes for the
   6:MCSDK_v6.3.0-Full/MotorControl/MCSDK/MCLib/Any/Inc/sto_pll_speed_pos_fdbk.h ****   *          State Observer + PLL Speed & Position Feedback component of the Motor
   7:MCSDK_v6.3.0-Full/MotorControl/MCSDK/MCLib/Any/Inc/sto_pll_speed_pos_fdbk.h ****   *          Control SDK.
   8:MCSDK_v6.3.0-Full/MotorControl/MCSDK/MCLib/Any/Inc/sto_pll_speed_pos_fdbk.h ****   ******************************************************************************
   9:MCSDK_v6.3.0-Full/MotorControl/MCSDK/MCLib/Any/Inc/sto_pll_speed_pos_fdbk.h ****   * @attention
  10:MCSDK_v6.3.0-Full/MotorControl/MCSDK/MCLib/Any/Inc/sto_pll_speed_pos_fdbk.h ****   *
  11:MCSDK_v6.3.0-Full/MotorControl/MCSDK/MCLib/Any/Inc/sto_pll_speed_pos_fdbk.h ****   * <h2><center>&copy; Copyright (c) 2024 STMicroelectronics.
  12:MCSDK_v6.3.0-Full/MotorControl/MCSDK/MCLib/Any/Inc/sto_pll_speed_pos_fdbk.h ****   * All rights reserved.</center></h2>
ARM GAS  /tmp/ccAfo4nU.s 			page 132


  13:MCSDK_v6.3.0-Full/MotorControl/MCSDK/MCLib/Any/Inc/sto_pll_speed_pos_fdbk.h ****   *
  14:MCSDK_v6.3.0-Full/MotorControl/MCSDK/MCLib/Any/Inc/sto_pll_speed_pos_fdbk.h ****   * This software component is licensed by ST under Ultimate Liberty license
  15:MCSDK_v6.3.0-Full/MotorControl/MCSDK/MCLib/Any/Inc/sto_pll_speed_pos_fdbk.h ****   * SLA0044, the "License"; You may not use this file except in compliance with
  16:MCSDK_v6.3.0-Full/MotorControl/MCSDK/MCLib/Any/Inc/sto_pll_speed_pos_fdbk.h ****   * the License. You may obtain a copy of the License at:
  17:MCSDK_v6.3.0-Full/MotorControl/MCSDK/MCLib/Any/Inc/sto_pll_speed_pos_fdbk.h ****   *                             www.st.com/SLA0044
  18:MCSDK_v6.3.0-Full/MotorControl/MCSDK/MCLib/Any/Inc/sto_pll_speed_pos_fdbk.h ****   *
  19:MCSDK_v6.3.0-Full/MotorControl/MCSDK/MCLib/Any/Inc/sto_pll_speed_pos_fdbk.h ****   ******************************************************************************
  20:MCSDK_v6.3.0-Full/MotorControl/MCSDK/MCLib/Any/Inc/sto_pll_speed_pos_fdbk.h ****   * @ingroup SpeednPosFdbk_STO_PLL
  21:MCSDK_v6.3.0-Full/MotorControl/MCSDK/MCLib/Any/Inc/sto_pll_speed_pos_fdbk.h ****   */
  22:MCSDK_v6.3.0-Full/MotorControl/MCSDK/MCLib/Any/Inc/sto_pll_speed_pos_fdbk.h **** 
  23:MCSDK_v6.3.0-Full/MotorControl/MCSDK/MCLib/Any/Inc/sto_pll_speed_pos_fdbk.h **** /* Define to prevent recursive inclusion -------------------------------------*/
  24:MCSDK_v6.3.0-Full/MotorControl/MCSDK/MCLib/Any/Inc/sto_pll_speed_pos_fdbk.h **** #ifndef STO_PLL_SPEEDNPOSFDBK_H
  25:MCSDK_v6.3.0-Full/MotorControl/MCSDK/MCLib/Any/Inc/sto_pll_speed_pos_fdbk.h **** #define STO_PLL_SPEEDNPOSFDBK_H
  26:MCSDK_v6.3.0-Full/MotorControl/MCSDK/MCLib/Any/Inc/sto_pll_speed_pos_fdbk.h **** 
  27:MCSDK_v6.3.0-Full/MotorControl/MCSDK/MCLib/Any/Inc/sto_pll_speed_pos_fdbk.h **** /* Includes ------------------------------------------------------------------*/
  28:MCSDK_v6.3.0-Full/MotorControl/MCSDK/MCLib/Any/Inc/sto_pll_speed_pos_fdbk.h **** #include "speed_pos_fdbk.h"
  29:MCSDK_v6.3.0-Full/MotorControl/MCSDK/MCLib/Any/Inc/sto_pll_speed_pos_fdbk.h **** #include "sto_speed_pos_fdbk.h"
  30:MCSDK_v6.3.0-Full/MotorControl/MCSDK/MCLib/Any/Inc/sto_pll_speed_pos_fdbk.h **** #include "pid_regulator.h"
  31:MCSDK_v6.3.0-Full/MotorControl/MCSDK/MCLib/Any/Inc/sto_pll_speed_pos_fdbk.h **** 
  32:MCSDK_v6.3.0-Full/MotorControl/MCSDK/MCLib/Any/Inc/sto_pll_speed_pos_fdbk.h **** /** @addtogroup MCSDK
  33:MCSDK_v6.3.0-Full/MotorControl/MCSDK/MCLib/Any/Inc/sto_pll_speed_pos_fdbk.h ****   * @{
  34:MCSDK_v6.3.0-Full/MotorControl/MCSDK/MCLib/Any/Inc/sto_pll_speed_pos_fdbk.h ****   */
  35:MCSDK_v6.3.0-Full/MotorControl/MCSDK/MCLib/Any/Inc/sto_pll_speed_pos_fdbk.h **** 
  36:MCSDK_v6.3.0-Full/MotorControl/MCSDK/MCLib/Any/Inc/sto_pll_speed_pos_fdbk.h **** /** @addtogroup SpeednPosFdbk_STO_PLL
  37:MCSDK_v6.3.0-Full/MotorControl/MCSDK/MCLib/Any/Inc/sto_pll_speed_pos_fdbk.h ****   * @{
  38:MCSDK_v6.3.0-Full/MotorControl/MCSDK/MCLib/Any/Inc/sto_pll_speed_pos_fdbk.h ****   */
  39:MCSDK_v6.3.0-Full/MotorControl/MCSDK/MCLib/Any/Inc/sto_pll_speed_pos_fdbk.h **** 
  40:MCSDK_v6.3.0-Full/MotorControl/MCSDK/MCLib/Any/Inc/sto_pll_speed_pos_fdbk.h **** 
  41:MCSDK_v6.3.0-Full/MotorControl/MCSDK/MCLib/Any/Inc/sto_pll_speed_pos_fdbk.h **** /**
  42:MCSDK_v6.3.0-Full/MotorControl/MCSDK/MCLib/Any/Inc/sto_pll_speed_pos_fdbk.h ****   * @brief Handle of the Speed and Position Feedback STO PLL component.
  43:MCSDK_v6.3.0-Full/MotorControl/MCSDK/MCLib/Any/Inc/sto_pll_speed_pos_fdbk.h ****   *
  44:MCSDK_v6.3.0-Full/MotorControl/MCSDK/MCLib/Any/Inc/sto_pll_speed_pos_fdbk.h ****   */
  45:MCSDK_v6.3.0-Full/MotorControl/MCSDK/MCLib/Any/Inc/sto_pll_speed_pos_fdbk.h **** 
  46:MCSDK_v6.3.0-Full/MotorControl/MCSDK/MCLib/Any/Inc/sto_pll_speed_pos_fdbk.h **** typedef struct
  47:MCSDK_v6.3.0-Full/MotorControl/MCSDK/MCLib/Any/Inc/sto_pll_speed_pos_fdbk.h **** {
  48:MCSDK_v6.3.0-Full/MotorControl/MCSDK/MCLib/Any/Inc/sto_pll_speed_pos_fdbk.h ****   SpeednPosFdbk_Handle_t _Super;          /**< @brief Speed and torque component handler. */
  49:MCSDK_v6.3.0-Full/MotorControl/MCSDK/MCLib/Any/Inc/sto_pll_speed_pos_fdbk.h **** 
  50:MCSDK_v6.3.0-Full/MotorControl/MCSDK/MCLib/Any/Inc/sto_pll_speed_pos_fdbk.h ****   int16_t  hC1;                           /*!< @brief State observer constant @f$ C_1 @f$.
  51:MCSDK_v6.3.0-Full/MotorControl/MCSDK/MCLib/Any/Inc/sto_pll_speed_pos_fdbk.h ****                                             *
  52:MCSDK_v6.3.0-Full/MotorControl/MCSDK/MCLib/Any/Inc/sto_pll_speed_pos_fdbk.h ****                                             *  Can be computed as : @f$ (F_1 × R_s) / (L_s × Stat
  53:MCSDK_v6.3.0-Full/MotorControl/MCSDK/MCLib/Any/Inc/sto_pll_speed_pos_fdbk.h ****                                             *  @f$ F_1 @f$ in Hertz [**Hz**]. \n
  54:MCSDK_v6.3.0-Full/MotorControl/MCSDK/MCLib/Any/Inc/sto_pll_speed_pos_fdbk.h ****                                             *  @f$ R_s @f$ in Ohm @f$[\Omega]@f$. \n
  55:MCSDK_v6.3.0-Full/MotorControl/MCSDK/MCLib/Any/Inc/sto_pll_speed_pos_fdbk.h ****                                             *  @f$ L_s @f$ in Henry [**H**]. \n
  56:MCSDK_v6.3.0-Full/MotorControl/MCSDK/MCLib/Any/Inc/sto_pll_speed_pos_fdbk.h ****                                             *  State Observer Execution Rate in Hertz [**Hz**].
  57:MCSDK_v6.3.0-Full/MotorControl/MCSDK/MCLib/Any/Inc/sto_pll_speed_pos_fdbk.h ****                                             */
  58:MCSDK_v6.3.0-Full/MotorControl/MCSDK/MCLib/Any/Inc/sto_pll_speed_pos_fdbk.h ****   int16_t  hC2;                           /**< @brief State observer constant @f$ C_2 @f$.
  59:MCSDK_v6.3.0-Full/MotorControl/MCSDK/MCLib/Any/Inc/sto_pll_speed_pos_fdbk.h ****                                             *
  60:MCSDK_v6.3.0-Full/MotorControl/MCSDK/MCLib/Any/Inc/sto_pll_speed_pos_fdbk.h ****                                             *  Can be computed as : @f$ (F_1 × K_1) / (State Obser
  61:MCSDK_v6.3.0-Full/MotorControl/MCSDK/MCLib/Any/Inc/sto_pll_speed_pos_fdbk.h ****                                             *  @f$ F_1 @f$ in Hertz [**Hz**]. \n 
  62:MCSDK_v6.3.0-Full/MotorControl/MCSDK/MCLib/Any/Inc/sto_pll_speed_pos_fdbk.h ****                                             *  @f$ K_1 @f$ being one of the two observer gains. \n
  63:MCSDK_v6.3.0-Full/MotorControl/MCSDK/MCLib/Any/Inc/sto_pll_speed_pos_fdbk.h ****                                      observer execution rate [Hz] being K1 one
  64:MCSDK_v6.3.0-Full/MotorControl/MCSDK/MCLib/Any/Inc/sto_pll_speed_pos_fdbk.h ****                                      of the two observer gains   */
  65:MCSDK_v6.3.0-Full/MotorControl/MCSDK/MCLib/Any/Inc/sto_pll_speed_pos_fdbk.h ****   int16_t  hC3;                 /*!< Variable containing state observer constant
  66:MCSDK_v6.3.0-Full/MotorControl/MCSDK/MCLib/Any/Inc/sto_pll_speed_pos_fdbk.h ****                                             *
  67:MCSDK_v6.3.0-Full/MotorControl/MCSDK/MCLib/Any/Inc/sto_pll_speed_pos_fdbk.h ****                                             *  Can be computed as : @f$ (F_1 × Max Application Spe
  68:MCSDK_v6.3.0-Full/MotorControl/MCSDK/MCLib/Any/Inc/sto_pll_speed_pos_fdbk.h ****                                             *  @f$ F_1 @f$ in Hertz [**Hz**]. \n
  69:MCSDK_v6.3.0-Full/MotorControl/MCSDK/MCLib/Any/Inc/sto_pll_speed_pos_fdbk.h ****                                             *  Max Application Speed in Rotation per minute [**rpm*
ARM GAS  /tmp/ccAfo4nU.s 			page 133


  70:MCSDK_v6.3.0-Full/MotorControl/MCSDK/MCLib/Any/Inc/sto_pll_speed_pos_fdbk.h ****                                             *  Motor Bemf Constant in Voltage line to line root mea
  71:MCSDK_v6.3.0-Full/MotorControl/MCSDK/MCLib/Any/Inc/sto_pll_speed_pos_fdbk.h ****                                             *  @f$ L_s @f$ in Henry [**H**]. \n
  72:MCSDK_v6.3.0-Full/MotorControl/MCSDK/MCLib/Any/Inc/sto_pll_speed_pos_fdbk.h ****                                             *  Max Measurable Current in Ampere [**A**]. \n
  73:MCSDK_v6.3.0-Full/MotorControl/MCSDK/MCLib/Any/Inc/sto_pll_speed_pos_fdbk.h ****                                             *  State Observer Execution Rate in Hertz [**Hz**].
  74:MCSDK_v6.3.0-Full/MotorControl/MCSDK/MCLib/Any/Inc/sto_pll_speed_pos_fdbk.h ****                                             */
  75:MCSDK_v6.3.0-Full/MotorControl/MCSDK/MCLib/Any/Inc/sto_pll_speed_pos_fdbk.h ****   int16_t  hC4;                           /**< @brief State Observer constant @f$ C_4 @f$.
  76:MCSDK_v6.3.0-Full/MotorControl/MCSDK/MCLib/Any/Inc/sto_pll_speed_pos_fdbk.h ****                                             *
  77:MCSDK_v6.3.0-Full/MotorControl/MCSDK/MCLib/Any/Inc/sto_pll_speed_pos_fdbk.h ****                                             *  Can be computed as @f$ K_2 × Max Measurable Current
  78:MCSDK_v6.3.0-Full/MotorControl/MCSDK/MCLib/Any/Inc/sto_pll_speed_pos_fdbk.h ****                                             *  @f$ K_2 @f$ being one of the two observer gains. \n
  79:MCSDK_v6.3.0-Full/MotorControl/MCSDK/MCLib/Any/Inc/sto_pll_speed_pos_fdbk.h ****                                             *  Max Measurable Current in Ampere [**A**]. \n
  80:MCSDK_v6.3.0-Full/MotorControl/MCSDK/MCLib/Any/Inc/sto_pll_speed_pos_fdbk.h ****                                             *  Max Application Speed in Rotation per minute [**rpm*
  81:MCSDK_v6.3.0-Full/MotorControl/MCSDK/MCLib/Any/Inc/sto_pll_speed_pos_fdbk.h ****                                             *  Motor Bemf Constant in Voltage line to line root mea
  82:MCSDK_v6.3.0-Full/MotorControl/MCSDK/MCLib/Any/Inc/sto_pll_speed_pos_fdbk.h ****                                             *  State Observer Execution Rate in Hertz [**Hz**]. \n
  83:MCSDK_v6.3.0-Full/MotorControl/MCSDK/MCLib/Any/Inc/sto_pll_speed_pos_fdbk.h ****                                             */
  84:MCSDK_v6.3.0-Full/MotorControl/MCSDK/MCLib/Any/Inc/sto_pll_speed_pos_fdbk.h ****   int16_t  hC5;                           /**< @brief State observer constant @f$ C_5 @f$. 
  85:MCSDK_v6.3.0-Full/MotorControl/MCSDK/MCLib/Any/Inc/sto_pll_speed_pos_fdbk.h ****                                             *
  86:MCSDK_v6.3.0-Full/MotorControl/MCSDK/MCLib/Any/Inc/sto_pll_speed_pos_fdbk.h ****                                             *  Can be computed as @f$ F_1 × Max Measurable Voltage
  87:MCSDK_v6.3.0-Full/MotorControl/MCSDK/MCLib/Any/Inc/sto_pll_speed_pos_fdbk.h ****                                             *  @f$ F_1 @f$ in Hertz [**Hz**]. \n
  88:MCSDK_v6.3.0-Full/MotorControl/MCSDK/MCLib/Any/Inc/sto_pll_speed_pos_fdbk.h ****                                             *  Max Measurable Voltage in Volt [**V**]. \n
  89:MCSDK_v6.3.0-Full/MotorControl/MCSDK/MCLib/Any/Inc/sto_pll_speed_pos_fdbk.h ****                                             *  @f$ L_s @f$ in Henry [**H**]. \n
  90:MCSDK_v6.3.0-Full/MotorControl/MCSDK/MCLib/Any/Inc/sto_pll_speed_pos_fdbk.h ****                                             *  Max Measurable Current in Ampere [**A**]. \n
  91:MCSDK_v6.3.0-Full/MotorControl/MCSDK/MCLib/Any/Inc/sto_pll_speed_pos_fdbk.h ****                                             *  State Observer Execution Rate in Hertz [**Hz**].
  92:MCSDK_v6.3.0-Full/MotorControl/MCSDK/MCLib/Any/Inc/sto_pll_speed_pos_fdbk.h ****                                             */
  93:MCSDK_v6.3.0-Full/MotorControl/MCSDK/MCLib/Any/Inc/sto_pll_speed_pos_fdbk.h ****   int16_t  hC6;                           /**< @brief State observer constant @f$ C_6 @f$. Computed
  94:MCSDK_v6.3.0-Full/MotorControl/MCSDK/MCLib/Any/Inc/sto_pll_speed_pos_fdbk.h ****   
  95:MCSDK_v6.3.0-Full/MotorControl/MCSDK/MCLib/Any/Inc/sto_pll_speed_pos_fdbk.h ****   int16_t  hF1;                           /**< @brief State observer scaling factor @f$ F_1 @f$. */
  96:MCSDK_v6.3.0-Full/MotorControl/MCSDK/MCLib/Any/Inc/sto_pll_speed_pos_fdbk.h ****   int16_t  hF2;                           /**< @brief State observer scaling factor @f$ F_2 @f$. */
  97:MCSDK_v6.3.0-Full/MotorControl/MCSDK/MCLib/Any/Inc/sto_pll_speed_pos_fdbk.h ****   int16_t  hF3;                           /**< @brief State observer scaling factor @f$ F_3 @f$. */
  98:MCSDK_v6.3.0-Full/MotorControl/MCSDK/MCLib/Any/Inc/sto_pll_speed_pos_fdbk.h ****   uint16_t F3POW2;                        /**< @brief State observer scaling factor @f$ F_3 @f$ exp
  99:MCSDK_v6.3.0-Full/MotorControl/MCSDK/MCLib/Any/Inc/sto_pll_speed_pos_fdbk.h ****                                             *
 100:MCSDK_v6.3.0-Full/MotorControl/MCSDK/MCLib/Any/Inc/sto_pll_speed_pos_fdbk.h ****                                             *  E.g. If gain divisor is 512 the value must be 9 beca
 101:MCSDK_v6.3.0-Full/MotorControl/MCSDK/MCLib/Any/Inc/sto_pll_speed_pos_fdbk.h ****                                             */
 102:MCSDK_v6.3.0-Full/MotorControl/MCSDK/MCLib/Any/Inc/sto_pll_speed_pos_fdbk.h ****   PID_Handle_t PIRegulator;               /**< @brief PI regulator component handle, used for PLL i
 103:MCSDK_v6.3.0-Full/MotorControl/MCSDK/MCLib/Any/Inc/sto_pll_speed_pos_fdbk.h ****   int32_t Ialfa_est;                      /**< @brief Estimated @f$ I_{alpha} @f$ current. */
 104:MCSDK_v6.3.0-Full/MotorControl/MCSDK/MCLib/Any/Inc/sto_pll_speed_pos_fdbk.h ****   int32_t Ibeta_est;                      /**< @brief Estimated @f$ I_{beta} @f$ current. */
 105:MCSDK_v6.3.0-Full/MotorControl/MCSDK/MCLib/Any/Inc/sto_pll_speed_pos_fdbk.h ****   int32_t wBemf_alfa_est;                 /**< @brief Estimated Bemf alpha. */
 106:MCSDK_v6.3.0-Full/MotorControl/MCSDK/MCLib/Any/Inc/sto_pll_speed_pos_fdbk.h ****   int32_t wBemf_beta_est;                 /**< @brief Estimated Bemf beta. */
 107:MCSDK_v6.3.0-Full/MotorControl/MCSDK/MCLib/Any/Inc/sto_pll_speed_pos_fdbk.h ****   int16_t hBemf_alfa_est;                 /**< @brief Estimated Bemf alpha in int16_t format. */
 108:MCSDK_v6.3.0-Full/MotorControl/MCSDK/MCLib/Any/Inc/sto_pll_speed_pos_fdbk.h ****   int16_t hBemf_beta_est;                 /**< @brief Estimated Bemf beta in int16_t format. */
 109:MCSDK_v6.3.0-Full/MotorControl/MCSDK/MCLib/Any/Inc/sto_pll_speed_pos_fdbk.h ****   int16_t Speed_Buffer[64];               /**< @brief Estimated speed FIFO, it contains latest Spee
 110:MCSDK_v6.3.0-Full/MotorControl/MCSDK/MCLib/Any/Inc/sto_pll_speed_pos_fdbk.h ****   uint8_t Speed_Buffer_Index;             /**< @brief Index of latest estimated speed in buffer Spe
 111:MCSDK_v6.3.0-Full/MotorControl/MCSDK/MCLib/Any/Inc/sto_pll_speed_pos_fdbk.h ****   bool IsSpeedReliable;                   /**< @brief Estimated speed reliability information.
 112:MCSDK_v6.3.0-Full/MotorControl/MCSDK/MCLib/Any/Inc/sto_pll_speed_pos_fdbk.h ****                                             *
 113:MCSDK_v6.3.0-Full/MotorControl/MCSDK/MCLib/Any/Inc/sto_pll_speed_pos_fdbk.h ****                                             *  Updated during speed average computation in STO_PLL_
 114:MCSDK_v6.3.0-Full/MotorControl/MCSDK/MCLib/Any/Inc/sto_pll_speed_pos_fdbk.h ****                                             *  True if the speed measurement variance is lower than
 115:MCSDK_v6.3.0-Full/MotorControl/MCSDK/MCLib/Any/Inc/sto_pll_speed_pos_fdbk.h ****                                             */
 116:MCSDK_v6.3.0-Full/MotorControl/MCSDK/MCLib/Any/Inc/sto_pll_speed_pos_fdbk.h ****   uint8_t ConsistencyCounter;             /**< @brief Counter of passed tests for start-up validati
 117:MCSDK_v6.3.0-Full/MotorControl/MCSDK/MCLib/Any/Inc/sto_pll_speed_pos_fdbk.h ****   uint8_t ReliabilityCounter;             /**< @brief Counter for checking reliability of Bemf and 
 118:MCSDK_v6.3.0-Full/MotorControl/MCSDK/MCLib/Any/Inc/sto_pll_speed_pos_fdbk.h ****   bool IsAlgorithmConverged;              /**< @brief Observer convergence flag. */
 119:MCSDK_v6.3.0-Full/MotorControl/MCSDK/MCLib/Any/Inc/sto_pll_speed_pos_fdbk.h ****   bool IsBemfConsistent;                  /**< @brief Reliability of estimated Bemf flag.
 120:MCSDK_v6.3.0-Full/MotorControl/MCSDK/MCLib/Any/Inc/sto_pll_speed_pos_fdbk.h ****                                             *
 121:MCSDK_v6.3.0-Full/MotorControl/MCSDK/MCLib/Any/Inc/sto_pll_speed_pos_fdbk.h ****                                             *  Updated by STO_PLL_CalcAvrgMecSpeedUnit, set to true
 122:MCSDK_v6.3.0-Full/MotorControl/MCSDK/MCLib/Any/Inc/sto_pll_speed_pos_fdbk.h ****                                             */
 123:MCSDK_v6.3.0-Full/MotorControl/MCSDK/MCLib/Any/Inc/sto_pll_speed_pos_fdbk.h ****   int32_t Obs_Bemf_Level;                 /**< @brief Magnitude of observed Bemf level squared. */
 124:MCSDK_v6.3.0-Full/MotorControl/MCSDK/MCLib/Any/Inc/sto_pll_speed_pos_fdbk.h ****   int32_t Est_Bemf_Level;                 /**< @brief Magnitude of estimated Bemf Level squared bas
 125:MCSDK_v6.3.0-Full/MotorControl/MCSDK/MCLib/Any/Inc/sto_pll_speed_pos_fdbk.h ****   bool EnableDualCheck;                   /**< @brief Enable additional reliability check based on 
 126:MCSDK_v6.3.0-Full/MotorControl/MCSDK/MCLib/Any/Inc/sto_pll_speed_pos_fdbk.h ****   int32_t DppBufferSum;                   /**< @brief Sum of speed buffer elements [**DPP**]. */
ARM GAS  /tmp/ccAfo4nU.s 			page 134


 127:MCSDK_v6.3.0-Full/MotorControl/MCSDK/MCLib/Any/Inc/sto_pll_speed_pos_fdbk.h ****   int16_t SpeedBufferOldestEl;            /**< @brief Oldest element of the speed buffer. */
 128:MCSDK_v6.3.0-Full/MotorControl/MCSDK/MCLib/Any/Inc/sto_pll_speed_pos_fdbk.h **** 
 129:MCSDK_v6.3.0-Full/MotorControl/MCSDK/MCLib/Any/Inc/sto_pll_speed_pos_fdbk.h ****   uint8_t SpeedBufferSizeUnit;            /**< @brief Depth of FIFO used to calculate the average e
 130:MCSDK_v6.3.0-Full/MotorControl/MCSDK/MCLib/Any/Inc/sto_pll_speed_pos_fdbk.h ****                                             *         Must be an integer number in range[1..64].
 131:MCSDK_v6.3.0-Full/MotorControl/MCSDK/MCLib/Any/Inc/sto_pll_speed_pos_fdbk.h ****                                             */
 132:MCSDK_v6.3.0-Full/MotorControl/MCSDK/MCLib/Any/Inc/sto_pll_speed_pos_fdbk.h ****   uint8_t SpeedBufferSizeDpp;             /**< @brief Depth of FIFO used to calculate both average 
 133:MCSDK_v6.3.0-Full/MotorControl/MCSDK/MCLib/Any/Inc/sto_pll_speed_pos_fdbk.h ****                                             *         Must be an integer number between 1 and Speed
 134:MCSDK_v6.3.0-Full/MotorControl/MCSDK/MCLib/Any/Inc/sto_pll_speed_pos_fdbk.h ****                                             */
 135:MCSDK_v6.3.0-Full/MotorControl/MCSDK/MCLib/Any/Inc/sto_pll_speed_pos_fdbk.h ****   uint16_t VariancePercentage;            /**< @brief Maximum allowed variance of speed estimation.
 136:MCSDK_v6.3.0-Full/MotorControl/MCSDK/MCLib/Any/Inc/sto_pll_speed_pos_fdbk.h **** 
 137:MCSDK_v6.3.0-Full/MotorControl/MCSDK/MCLib/Any/Inc/sto_pll_speed_pos_fdbk.h ****   uint8_t SpeedValidationBand_H;          /**< @brief Upper bound below which the estimated speed i
 138:MCSDK_v6.3.0-Full/MotorControl/MCSDK/MCLib/Any/Inc/sto_pll_speed_pos_fdbk.h ****                                             *         despite exceeding the force stator electrical
 139:MCSDK_v6.3.0-Full/MotorControl/MCSDK/MCLib/Any/Inc/sto_pll_speed_pos_fdbk.h ****                                             *         during start-up. The measurement unit is 1/16
 140:MCSDK_v6.3.0-Full/MotorControl/MCSDK/MCLib/Any/Inc/sto_pll_speed_pos_fdbk.h ****                                             *         speed.
 141:MCSDK_v6.3.0-Full/MotorControl/MCSDK/MCLib/Any/Inc/sto_pll_speed_pos_fdbk.h ****                                             */
 142:MCSDK_v6.3.0-Full/MotorControl/MCSDK/MCLib/Any/Inc/sto_pll_speed_pos_fdbk.h ****   uint8_t SpeedValidationBand_L;          /**< @brief Lower bound above which the estimated speed i
 143:MCSDK_v6.3.0-Full/MotorControl/MCSDK/MCLib/Any/Inc/sto_pll_speed_pos_fdbk.h ****                                             *         despite subceeding the force stator electrica
 144:MCSDK_v6.3.0-Full/MotorControl/MCSDK/MCLib/Any/Inc/sto_pll_speed_pos_fdbk.h ****                                             *         during start-up. The measurement unit is 1/16
 145:MCSDK_v6.3.0-Full/MotorControl/MCSDK/MCLib/Any/Inc/sto_pll_speed_pos_fdbk.h ****                                             *         speed.
 146:MCSDK_v6.3.0-Full/MotorControl/MCSDK/MCLib/Any/Inc/sto_pll_speed_pos_fdbk.h ****                                             */
 147:MCSDK_v6.3.0-Full/MotorControl/MCSDK/MCLib/Any/Inc/sto_pll_speed_pos_fdbk.h ****   uint16_t MinStartUpValidSpeed;          /**< @brief Absolute value of minimum mechanical
 148:MCSDK_v6.3.0-Full/MotorControl/MCSDK/MCLib/Any/Inc/sto_pll_speed_pos_fdbk.h ****                                             *         speed required to validate the start-up.
 149:MCSDK_v6.3.0-Full/MotorControl/MCSDK/MCLib/Any/Inc/sto_pll_speed_pos_fdbk.h ****                                             *         Expressed in the unit defined by #SPEED_UNIT.
 150:MCSDK_v6.3.0-Full/MotorControl/MCSDK/MCLib/Any/Inc/sto_pll_speed_pos_fdbk.h ****                                             */
 151:MCSDK_v6.3.0-Full/MotorControl/MCSDK/MCLib/Any/Inc/sto_pll_speed_pos_fdbk.h ****   uint8_t StartUpConsistThreshold;        /**< @brief Number of consecutive tests on speed
 152:MCSDK_v6.3.0-Full/MotorControl/MCSDK/MCLib/Any/Inc/sto_pll_speed_pos_fdbk.h ****                                             *         consistency to be passed before
 153:MCSDK_v6.3.0-Full/MotorControl/MCSDK/MCLib/Any/Inc/sto_pll_speed_pos_fdbk.h ****                                             *         validating the start-up.
 154:MCSDK_v6.3.0-Full/MotorControl/MCSDK/MCLib/Any/Inc/sto_pll_speed_pos_fdbk.h ****                                             */
 155:MCSDK_v6.3.0-Full/MotorControl/MCSDK/MCLib/Any/Inc/sto_pll_speed_pos_fdbk.h ****   uint8_t BemfConsistencyCheck;           /**< @brief Degree of consistency of the observed Bemfs. 
 156:MCSDK_v6.3.0-Full/MotorControl/MCSDK/MCLib/Any/Inc/sto_pll_speed_pos_fdbk.h ****                                             *         Must be an integer number ranging from 1 (ver
 157:MCSDK_v6.3.0-Full/MotorControl/MCSDK/MCLib/Any/Inc/sto_pll_speed_pos_fdbk.h ****                                             *         consistency) down to 64 (very poor consistenc
 158:MCSDK_v6.3.0-Full/MotorControl/MCSDK/MCLib/Any/Inc/sto_pll_speed_pos_fdbk.h ****                                             */
 159:MCSDK_v6.3.0-Full/MotorControl/MCSDK/MCLib/Any/Inc/sto_pll_speed_pos_fdbk.h ****   uint8_t BemfConsistencyGain;            /**< @brief Gain to be applied when checking Bemfs consis
 160:MCSDK_v6.3.0-Full/MotorControl/MCSDK/MCLib/Any/Inc/sto_pll_speed_pos_fdbk.h ****                                             *         Default value is 64 (neutral), max value 105
 161:MCSDK_v6.3.0-Full/MotorControl/MCSDK/MCLib/Any/Inc/sto_pll_speed_pos_fdbk.h ****                                             *         (x1.64 amplification), min value 1 (/64 atten
 162:MCSDK_v6.3.0-Full/MotorControl/MCSDK/MCLib/Any/Inc/sto_pll_speed_pos_fdbk.h ****                                             */
 163:MCSDK_v6.3.0-Full/MotorControl/MCSDK/MCLib/Any/Inc/sto_pll_speed_pos_fdbk.h ****   uint16_t MaxAppPositiveMecSpeedUnit;    /**< @brief Maximum positive value of rotor speed. \n
 164:MCSDK_v6.3.0-Full/MotorControl/MCSDK/MCLib/Any/Inc/sto_pll_speed_pos_fdbk.h ****                                             *         Expressed in the unit defined by #SPEED_UNIT.
 165:MCSDK_v6.3.0-Full/MotorControl/MCSDK/MCLib/Any/Inc/sto_pll_speed_pos_fdbk.h ****                                             *         Can be x1.1 greater than max application spee
 166:MCSDK_v6.3.0-Full/MotorControl/MCSDK/MCLib/Any/Inc/sto_pll_speed_pos_fdbk.h ****                                             */
 167:MCSDK_v6.3.0-Full/MotorControl/MCSDK/MCLib/Any/Inc/sto_pll_speed_pos_fdbk.h ****   uint16_t F1LOG;                         /**< @brief @f$ F_1 @f$ gain divisor expressed as power o
 168:MCSDK_v6.3.0-Full/MotorControl/MCSDK/MCLib/Any/Inc/sto_pll_speed_pos_fdbk.h ****                                             *
 169:MCSDK_v6.3.0-Full/MotorControl/MCSDK/MCLib/Any/Inc/sto_pll_speed_pos_fdbk.h ****                                             *  E.g. if gain divisor is 512 the value must be 9 beca
 170:MCSDK_v6.3.0-Full/MotorControl/MCSDK/MCLib/Any/Inc/sto_pll_speed_pos_fdbk.h ****                                             */
 171:MCSDK_v6.3.0-Full/MotorControl/MCSDK/MCLib/Any/Inc/sto_pll_speed_pos_fdbk.h ****   uint16_t F2LOG;                         /**< @brief @f$ F_2 @f$ gain divisor expressed as power o
 172:MCSDK_v6.3.0-Full/MotorControl/MCSDK/MCLib/Any/Inc/sto_pll_speed_pos_fdbk.h ****                                             *
 173:MCSDK_v6.3.0-Full/MotorControl/MCSDK/MCLib/Any/Inc/sto_pll_speed_pos_fdbk.h ****                                             *  E.g. if gain divisor is 512 the value must be 9 beca
 174:MCSDK_v6.3.0-Full/MotorControl/MCSDK/MCLib/Any/Inc/sto_pll_speed_pos_fdbk.h ****                                             */
 175:MCSDK_v6.3.0-Full/MotorControl/MCSDK/MCLib/Any/Inc/sto_pll_speed_pos_fdbk.h ****   uint16_t SpeedBufferSizeDppLOG;         /**< @brief bSpeedBufferSizedpp expressed as power of 2.
 176:MCSDK_v6.3.0-Full/MotorControl/MCSDK/MCLib/Any/Inc/sto_pll_speed_pos_fdbk.h ****                                             *
 177:MCSDK_v6.3.0-Full/MotorControl/MCSDK/MCLib/Any/Inc/sto_pll_speed_pos_fdbk.h ****                                             *  E.g. if gain divisor is 512 the value must be 9 beca
 178:MCSDK_v6.3.0-Full/MotorControl/MCSDK/MCLib/Any/Inc/sto_pll_speed_pos_fdbk.h ****                                             */
 179:MCSDK_v6.3.0-Full/MotorControl/MCSDK/MCLib/Any/Inc/sto_pll_speed_pos_fdbk.h ****   bool ForceConvergency;                  /**< @brief Variable to force observer convergence. */
 180:MCSDK_v6.3.0-Full/MotorControl/MCSDK/MCLib/Any/Inc/sto_pll_speed_pos_fdbk.h ****   bool ForceConvergency2;                 /**< @brief Variable to force observer convergence. */
 181:MCSDK_v6.3.0-Full/MotorControl/MCSDK/MCLib/Any/Inc/sto_pll_speed_pos_fdbk.h **** 
 182:MCSDK_v6.3.0-Full/MotorControl/MCSDK/MCLib/Any/Inc/sto_pll_speed_pos_fdbk.h ****   int8_t hForcedDirection;                /**< @brief Variable to force rotation direction. */
 183:MCSDK_v6.3.0-Full/MotorControl/MCSDK/MCLib/Any/Inc/sto_pll_speed_pos_fdbk.h **** 
ARM GAS  /tmp/ccAfo4nU.s 			page 135


 184:MCSDK_v6.3.0-Full/MotorControl/MCSDK/MCLib/Any/Inc/sto_pll_speed_pos_fdbk.h **** } STO_PLL_Handle_t;
 185:MCSDK_v6.3.0-Full/MotorControl/MCSDK/MCLib/Any/Inc/sto_pll_speed_pos_fdbk.h **** 
 186:MCSDK_v6.3.0-Full/MotorControl/MCSDK/MCLib/Any/Inc/sto_pll_speed_pos_fdbk.h **** 
 187:MCSDK_v6.3.0-Full/MotorControl/MCSDK/MCLib/Any/Inc/sto_pll_speed_pos_fdbk.h **** /* Exported functions ------------------------------------------------------- */
 188:MCSDK_v6.3.0-Full/MotorControl/MCSDK/MCLib/Any/Inc/sto_pll_speed_pos_fdbk.h **** 
 189:MCSDK_v6.3.0-Full/MotorControl/MCSDK/MCLib/Any/Inc/sto_pll_speed_pos_fdbk.h **** /* Initializes the handler of STate Observer (STO) PLL component */
 190:MCSDK_v6.3.0-Full/MotorControl/MCSDK/MCLib/Any/Inc/sto_pll_speed_pos_fdbk.h **** void STO_PLL_Init(STO_PLL_Handle_t *pHandle);
 191:MCSDK_v6.3.0-Full/MotorControl/MCSDK/MCLib/Any/Inc/sto_pll_speed_pos_fdbk.h **** 
 192:MCSDK_v6.3.0-Full/MotorControl/MCSDK/MCLib/Any/Inc/sto_pll_speed_pos_fdbk.h **** /* Necessary empty return to implement fictitious IRQ_Handler */
 193:MCSDK_v6.3.0-Full/MotorControl/MCSDK/MCLib/Any/Inc/sto_pll_speed_pos_fdbk.h **** void STO_PLL_Return(STO_PLL_Handle_t *pHandle, uint8_t flag);
 194:MCSDK_v6.3.0-Full/MotorControl/MCSDK/MCLib/Any/Inc/sto_pll_speed_pos_fdbk.h **** 
 195:MCSDK_v6.3.0-Full/MotorControl/MCSDK/MCLib/Any/Inc/sto_pll_speed_pos_fdbk.h **** /* Clears state observer component by re-initializing private variables in the handler */
 196:MCSDK_v6.3.0-Full/MotorControl/MCSDK/MCLib/Any/Inc/sto_pll_speed_pos_fdbk.h **** void STO_PLL_Clear(STO_PLL_Handle_t *pHandle);
 197:MCSDK_v6.3.0-Full/MotorControl/MCSDK/MCLib/Any/Inc/sto_pll_speed_pos_fdbk.h **** 
 198:MCSDK_v6.3.0-Full/MotorControl/MCSDK/MCLib/Any/Inc/sto_pll_speed_pos_fdbk.h **** /* Calculates the estimated electrical angle */
 199:MCSDK_v6.3.0-Full/MotorControl/MCSDK/MCLib/Any/Inc/sto_pll_speed_pos_fdbk.h **** int16_t STO_PLL_CalcElAngle(STO_PLL_Handle_t *pHandle, Observer_Inputs_t *pInputs);
 200:MCSDK_v6.3.0-Full/MotorControl/MCSDK/MCLib/Any/Inc/sto_pll_speed_pos_fdbk.h **** 
 201:MCSDK_v6.3.0-Full/MotorControl/MCSDK/MCLib/Any/Inc/sto_pll_speed_pos_fdbk.h **** /* Computes and returns the average mechanical speed */
 202:MCSDK_v6.3.0-Full/MotorControl/MCSDK/MCLib/Any/Inc/sto_pll_speed_pos_fdbk.h **** bool STO_PLL_CalcAvrgMecSpeedUnit(STO_PLL_Handle_t *pHandle, int16_t *pMecSpeedUnit);
 203:MCSDK_v6.3.0-Full/MotorControl/MCSDK/MCLib/Any/Inc/sto_pll_speed_pos_fdbk.h **** 
 204:MCSDK_v6.3.0-Full/MotorControl/MCSDK/MCLib/Any/Inc/sto_pll_speed_pos_fdbk.h **** /* Resets the PLL integral term during on-the-fly startup */
 205:MCSDK_v6.3.0-Full/MotorControl/MCSDK/MCLib/Any/Inc/sto_pll_speed_pos_fdbk.h **** void STO_OTF_ResetPLL(STO_Handle_t *pHandle);
 206:MCSDK_v6.3.0-Full/MotorControl/MCSDK/MCLib/Any/Inc/sto_pll_speed_pos_fdbk.h **** 
 207:MCSDK_v6.3.0-Full/MotorControl/MCSDK/MCLib/Any/Inc/sto_pll_speed_pos_fdbk.h **** /* Checks if the state observer algorithm converged */
 208:MCSDK_v6.3.0-Full/MotorControl/MCSDK/MCLib/Any/Inc/sto_pll_speed_pos_fdbk.h **** bool STO_PLL_IsObserverConverged(STO_PLL_Handle_t *pHandle, int16_t *phForcedMecSpeedUnit);
 209:MCSDK_v6.3.0-Full/MotorControl/MCSDK/MCLib/Any/Inc/sto_pll_speed_pos_fdbk.h **** 
 210:MCSDK_v6.3.0-Full/MotorControl/MCSDK/MCLib/Any/Inc/sto_pll_speed_pos_fdbk.h **** /* Computes and updates the average electrical speed */
 211:MCSDK_v6.3.0-Full/MotorControl/MCSDK/MCLib/Any/Inc/sto_pll_speed_pos_fdbk.h **** void STO_PLL_CalcAvrgElSpeedDpp(STO_PLL_Handle_t *pHandle);
 212:MCSDK_v6.3.0-Full/MotorControl/MCSDK/MCLib/Any/Inc/sto_pll_speed_pos_fdbk.h **** 
 213:MCSDK_v6.3.0-Full/MotorControl/MCSDK/MCLib/Any/Inc/sto_pll_speed_pos_fdbk.h **** /* Exports estimated Bemf alpha-beta from the handler */
 214:MCSDK_v6.3.0-Full/MotorControl/MCSDK/MCLib/Any/Inc/sto_pll_speed_pos_fdbk.h **** alphabeta_t STO_PLL_GetEstimatedBemf(STO_PLL_Handle_t *pHandle);
 215:MCSDK_v6.3.0-Full/MotorControl/MCSDK/MCLib/Any/Inc/sto_pll_speed_pos_fdbk.h **** 
 216:MCSDK_v6.3.0-Full/MotorControl/MCSDK/MCLib/Any/Inc/sto_pll_speed_pos_fdbk.h **** /* Exports from the handler the stator current alpha-beta as estimated by state observer */
 217:MCSDK_v6.3.0-Full/MotorControl/MCSDK/MCLib/Any/Inc/sto_pll_speed_pos_fdbk.h **** alphabeta_t STO_PLL_GetEstimatedCurrent(STO_PLL_Handle_t *pHandle);
 218:MCSDK_v6.3.0-Full/MotorControl/MCSDK/MCLib/Any/Inc/sto_pll_speed_pos_fdbk.h **** 
 219:MCSDK_v6.3.0-Full/MotorControl/MCSDK/MCLib/Any/Inc/sto_pll_speed_pos_fdbk.h **** /* Stores in the handler the new values for observer gains */
 220:MCSDK_v6.3.0-Full/MotorControl/MCSDK/MCLib/Any/Inc/sto_pll_speed_pos_fdbk.h **** void STO_PLL_SetObserverGains(STO_PLL_Handle_t *pHandle, int16_t hhC1, int16_t hhC2);
 221:MCSDK_v6.3.0-Full/MotorControl/MCSDK/MCLib/Any/Inc/sto_pll_speed_pos_fdbk.h **** 
 222:MCSDK_v6.3.0-Full/MotorControl/MCSDK/MCLib/Any/Inc/sto_pll_speed_pos_fdbk.h **** /* Exports current observer gains from the handler to parameters hhC2 and hhC4 */
 223:MCSDK_v6.3.0-Full/MotorControl/MCSDK/MCLib/Any/Inc/sto_pll_speed_pos_fdbk.h **** void STO_PLL_GetObserverGains(STO_PLL_Handle_t *pHandle, int16_t *phC2, int16_t *phC4);
 224:MCSDK_v6.3.0-Full/MotorControl/MCSDK/MCLib/Any/Inc/sto_pll_speed_pos_fdbk.h **** 
 225:MCSDK_v6.3.0-Full/MotorControl/MCSDK/MCLib/Any/Inc/sto_pll_speed_pos_fdbk.h **** /* Exports the current PLL gains from the handler to parameters pPgain and pIgain */
 226:MCSDK_v6.3.0-Full/MotorControl/MCSDK/MCLib/Any/Inc/sto_pll_speed_pos_fdbk.h **** void STO_GetPLLGains(STO_PLL_Handle_t *pHandle, int16_t *pPgain, int16_t *pIgain);
 227:MCSDK_v6.3.0-Full/MotorControl/MCSDK/MCLib/Any/Inc/sto_pll_speed_pos_fdbk.h **** 
 228:MCSDK_v6.3.0-Full/MotorControl/MCSDK/MCLib/Any/Inc/sto_pll_speed_pos_fdbk.h **** /* Empty function. Could be declared to set instantaneous information on rotor mechanical angle */
 229:MCSDK_v6.3.0-Full/MotorControl/MCSDK/MCLib/Any/Inc/sto_pll_speed_pos_fdbk.h **** void STO_PLL_SetMecAngle(STO_PLL_Handle_t *pHandle, int16_t hMecAngle);
 230:MCSDK_v6.3.0-Full/MotorControl/MCSDK/MCLib/Any/Inc/sto_pll_speed_pos_fdbk.h **** 
 231:MCSDK_v6.3.0-Full/MotorControl/MCSDK/MCLib/Any/Inc/sto_pll_speed_pos_fdbk.h **** /* Enables/Disables additional reliability check based on observed Bemf */
 232:MCSDK_v6.3.0-Full/MotorControl/MCSDK/MCLib/Any/Inc/sto_pll_speed_pos_fdbk.h **** void STO_PLL_BemfConsistencyCheckSwitch(STO_PLL_Handle_t *pHandle, bool bSel);
 233:MCSDK_v6.3.0-Full/MotorControl/MCSDK/MCLib/Any/Inc/sto_pll_speed_pos_fdbk.h **** 
 234:MCSDK_v6.3.0-Full/MotorControl/MCSDK/MCLib/Any/Inc/sto_pll_speed_pos_fdbk.h **** /* Checks if the Bemf is consistent */
 235:MCSDK_v6.3.0-Full/MotorControl/MCSDK/MCLib/Any/Inc/sto_pll_speed_pos_fdbk.h **** bool STO_PLL_IsBemfConsistent(STO_PLL_Handle_t *pHandle);
 236:MCSDK_v6.3.0-Full/MotorControl/MCSDK/MCLib/Any/Inc/sto_pll_speed_pos_fdbk.h **** 
 237:MCSDK_v6.3.0-Full/MotorControl/MCSDK/MCLib/Any/Inc/sto_pll_speed_pos_fdbk.h **** /* Checks the value of the variance */
 238:MCSDK_v6.3.0-Full/MotorControl/MCSDK/MCLib/Any/Inc/sto_pll_speed_pos_fdbk.h **** bool STO_PLL_IsVarianceTight(const STO_Handle_t *pHandle);
 239:MCSDK_v6.3.0-Full/MotorControl/MCSDK/MCLib/Any/Inc/sto_pll_speed_pos_fdbk.h **** 
 240:MCSDK_v6.3.0-Full/MotorControl/MCSDK/MCLib/Any/Inc/sto_pll_speed_pos_fdbk.h **** /* Forces the state-observer to declare convergency */
ARM GAS  /tmp/ccAfo4nU.s 			page 136


 241:MCSDK_v6.3.0-Full/MotorControl/MCSDK/MCLib/Any/Inc/sto_pll_speed_pos_fdbk.h **** void STO_PLL_ForceConvergency1(STO_Handle_t *pHandle);
 242:MCSDK_v6.3.0-Full/MotorControl/MCSDK/MCLib/Any/Inc/sto_pll_speed_pos_fdbk.h **** 
 243:MCSDK_v6.3.0-Full/MotorControl/MCSDK/MCLib/Any/Inc/sto_pll_speed_pos_fdbk.h **** /* Forces the state-observer to declare convergency */
 244:MCSDK_v6.3.0-Full/MotorControl/MCSDK/MCLib/Any/Inc/sto_pll_speed_pos_fdbk.h **** void STO_PLL_ForceConvergency2(STO_Handle_t *pHandle);
 245:MCSDK_v6.3.0-Full/MotorControl/MCSDK/MCLib/Any/Inc/sto_pll_speed_pos_fdbk.h **** 
 246:MCSDK_v6.3.0-Full/MotorControl/MCSDK/MCLib/Any/Inc/sto_pll_speed_pos_fdbk.h **** /* Sets the rotation direction in the handler */
 247:MCSDK_v6.3.0-Full/MotorControl/MCSDK/MCLib/Any/Inc/sto_pll_speed_pos_fdbk.h **** __weak void STO_SetDirection(STO_PLL_Handle_t *pHandle, int8_t direction);
 248:MCSDK_v6.3.0-Full/MotorControl/MCSDK/MCLib/Any/Inc/sto_pll_speed_pos_fdbk.h **** 
 249:MCSDK_v6.3.0-Full/MotorControl/MCSDK/MCLib/Any/Inc/sto_pll_speed_pos_fdbk.h **** /**
 250:MCSDK_v6.3.0-Full/MotorControl/MCSDK/MCLib/Any/Inc/sto_pll_speed_pos_fdbk.h ****   * @brief  Stores in @p pHandle the new values @p hPgain and @p hIgain for PLL gains.
 251:MCSDK_v6.3.0-Full/MotorControl/MCSDK/MCLib/Any/Inc/sto_pll_speed_pos_fdbk.h ****   * 
 252:MCSDK_v6.3.0-Full/MotorControl/MCSDK/MCLib/Any/Inc/sto_pll_speed_pos_fdbk.h ****   */
 253:MCSDK_v6.3.0-Full/MotorControl/MCSDK/MCLib/Any/Inc/sto_pll_speed_pos_fdbk.h **** static inline void STO_SetPLLGains(STO_PLL_Handle_t *pHandle, int16_t hPgain, int16_t hIgain)
 254:MCSDK_v6.3.0-Full/MotorControl/MCSDK/MCLib/Any/Inc/sto_pll_speed_pos_fdbk.h **** {
 255:MCSDK_v6.3.0-Full/MotorControl/MCSDK/MCLib/Any/Inc/sto_pll_speed_pos_fdbk.h **** #ifdef NULL_PTR_CHECK_STO_PLL_SPD_POS_FDB
 256:MCSDK_v6.3.0-Full/MotorControl/MCSDK/MCLib/Any/Inc/sto_pll_speed_pos_fdbk.h ****   if (MC_NULL == pHandle)
 257:MCSDK_v6.3.0-Full/MotorControl/MCSDK/MCLib/Any/Inc/sto_pll_speed_pos_fdbk.h ****   {
 258:MCSDK_v6.3.0-Full/MotorControl/MCSDK/MCLib/Any/Inc/sto_pll_speed_pos_fdbk.h ****     /* Nothing to do */
 259:MCSDK_v6.3.0-Full/MotorControl/MCSDK/MCLib/Any/Inc/sto_pll_speed_pos_fdbk.h ****   }
 260:MCSDK_v6.3.0-Full/MotorControl/MCSDK/MCLib/Any/Inc/sto_pll_speed_pos_fdbk.h ****   else
 261:MCSDK_v6.3.0-Full/MotorControl/MCSDK/MCLib/Any/Inc/sto_pll_speed_pos_fdbk.h ****   {
 262:MCSDK_v6.3.0-Full/MotorControl/MCSDK/MCLib/Any/Inc/sto_pll_speed_pos_fdbk.h **** #endif
 263:MCSDK_v6.3.0-Full/MotorControl/MCSDK/MCLib/Any/Inc/sto_pll_speed_pos_fdbk.h ****     PID_SetKP(&pHandle->PIRegulator, hPgain);
 264:MCSDK_v6.3.0-Full/MotorControl/MCSDK/MCLib/Any/Inc/sto_pll_speed_pos_fdbk.h ****     PID_SetKI(&pHandle->PIRegulator, hIgain);
 265:MCSDK_v6.3.0-Full/MotorControl/MCSDK/MCLib/Any/Inc/sto_pll_speed_pos_fdbk.h **** #ifdef NULL_PTR_CHECK_STO_PLL_SPD_POS_FDB
 266:MCSDK_v6.3.0-Full/MotorControl/MCSDK/MCLib/Any/Inc/sto_pll_speed_pos_fdbk.h ****   }
 267:MCSDK_v6.3.0-Full/MotorControl/MCSDK/MCLib/Any/Inc/sto_pll_speed_pos_fdbk.h **** #endif
 268:MCSDK_v6.3.0-Full/MotorControl/MCSDK/MCLib/Any/Inc/sto_pll_speed_pos_fdbk.h **** }
 269:MCSDK_v6.3.0-Full/MotorControl/MCSDK/MCLib/Any/Inc/sto_pll_speed_pos_fdbk.h **** 
 270:MCSDK_v6.3.0-Full/MotorControl/MCSDK/MCLib/Any/Inc/sto_pll_speed_pos_fdbk.h **** /**
 271:MCSDK_v6.3.0-Full/MotorControl/MCSDK/MCLib/Any/Inc/sto_pll_speed_pos_fdbk.h ****   * @brief  Resets the PLL integral term.
 272:MCSDK_v6.3.0-Full/MotorControl/MCSDK/MCLib/Any/Inc/sto_pll_speed_pos_fdbk.h ****   * 
 273:MCSDK_v6.3.0-Full/MotorControl/MCSDK/MCLib/Any/Inc/sto_pll_speed_pos_fdbk.h ****   * @param  pHandle: Handler of the current instance of the STO component.
 274:MCSDK_v6.3.0-Full/MotorControl/MCSDK/MCLib/Any/Inc/sto_pll_speed_pos_fdbk.h ****   */
 275:MCSDK_v6.3.0-Full/MotorControl/MCSDK/MCLib/Any/Inc/sto_pll_speed_pos_fdbk.h **** static inline void STO_ResetPLL(STO_PLL_Handle_t *pHandle)
 276:MCSDK_v6.3.0-Full/MotorControl/MCSDK/MCLib/Any/Inc/sto_pll_speed_pos_fdbk.h **** {
 277:MCSDK_v6.3.0-Full/MotorControl/MCSDK/MCLib/Any/Inc/sto_pll_speed_pos_fdbk.h **** #ifdef NULL_PTR_CHECK_STO_PLL_SPD_POS_FDB
 278:MCSDK_v6.3.0-Full/MotorControl/MCSDK/MCLib/Any/Inc/sto_pll_speed_pos_fdbk.h ****   if (MC_NULL == pHandle)
 279:MCSDK_v6.3.0-Full/MotorControl/MCSDK/MCLib/Any/Inc/sto_pll_speed_pos_fdbk.h ****   {
 280:MCSDK_v6.3.0-Full/MotorControl/MCSDK/MCLib/Any/Inc/sto_pll_speed_pos_fdbk.h ****     /* Nothing to do */
 281:MCSDK_v6.3.0-Full/MotorControl/MCSDK/MCLib/Any/Inc/sto_pll_speed_pos_fdbk.h ****   }
 282:MCSDK_v6.3.0-Full/MotorControl/MCSDK/MCLib/Any/Inc/sto_pll_speed_pos_fdbk.h ****   else
 283:MCSDK_v6.3.0-Full/MotorControl/MCSDK/MCLib/Any/Inc/sto_pll_speed_pos_fdbk.h ****   {
 284:MCSDK_v6.3.0-Full/MotorControl/MCSDK/MCLib/Any/Inc/sto_pll_speed_pos_fdbk.h **** #endif
 285:MCSDK_v6.3.0-Full/MotorControl/MCSDK/MCLib/Any/Inc/sto_pll_speed_pos_fdbk.h ****     PID_SetIntegralTerm(&pHandle->PIRegulator, (int32_t)0);
 286:MCSDK_v6.3.0-Full/MotorControl/MCSDK/MCLib/Any/Inc/sto_pll_speed_pos_fdbk.h **** #ifdef NULL_PTR_CHECK_STO_PLL_SPD_POS_FDB
 287:MCSDK_v6.3.0-Full/MotorControl/MCSDK/MCLib/Any/Inc/sto_pll_speed_pos_fdbk.h ****   }
 288:MCSDK_v6.3.0-Full/MotorControl/MCSDK/MCLib/Any/Inc/sto_pll_speed_pos_fdbk.h **** #endif
 289:MCSDK_v6.3.0-Full/MotorControl/MCSDK/MCLib/Any/Inc/sto_pll_speed_pos_fdbk.h **** }
 290:MCSDK_v6.3.0-Full/MotorControl/MCSDK/MCLib/Any/Inc/sto_pll_speed_pos_fdbk.h **** 
 291:MCSDK_v6.3.0-Full/MotorControl/MCSDK/MCLib/Any/Inc/sto_pll_speed_pos_fdbk.h **** /**
 292:MCSDK_v6.3.0-Full/MotorControl/MCSDK/MCLib/Any/Inc/sto_pll_speed_pos_fdbk.h ****   * @brief  Sends locking info for PLL.
 293:MCSDK_v6.3.0-Full/MotorControl/MCSDK/MCLib/Any/Inc/sto_pll_speed_pos_fdbk.h ****   * 
 294:MCSDK_v6.3.0-Full/MotorControl/MCSDK/MCLib/Any/Inc/sto_pll_speed_pos_fdbk.h ****   * @param  pHandle: Handler of the current instance of the STO component.
 295:MCSDK_v6.3.0-Full/MotorControl/MCSDK/MCLib/Any/Inc/sto_pll_speed_pos_fdbk.h ****   * @param  hElSpeedDpp: Estimated average electrical speed expressed in dpp.
 296:MCSDK_v6.3.0-Full/MotorControl/MCSDK/MCLib/Any/Inc/sto_pll_speed_pos_fdbk.h ****   * @param  hElAngle: Estimated electrical angle expressed in s16Degrees.
 297:MCSDK_v6.3.0-Full/MotorControl/MCSDK/MCLib/Any/Inc/sto_pll_speed_pos_fdbk.h ****   */
ARM GAS  /tmp/ccAfo4nU.s 			page 137


 298:MCSDK_v6.3.0-Full/MotorControl/MCSDK/MCLib/Any/Inc/sto_pll_speed_pos_fdbk.h **** static inline void STO_SetPLL(STO_PLL_Handle_t *pHandle, int16_t hElSpeedDpp, int16_t hElAngle)
 299:MCSDK_v6.3.0-Full/MotorControl/MCSDK/MCLib/Any/Inc/sto_pll_speed_pos_fdbk.h **** {
 300:MCSDK_v6.3.0-Full/MotorControl/MCSDK/MCLib/Any/Inc/sto_pll_speed_pos_fdbk.h **** #ifdef NULL_PTR_CHECK_STO_PLL_SPD_POS_FDB
 301:MCSDK_v6.3.0-Full/MotorControl/MCSDK/MCLib/Any/Inc/sto_pll_speed_pos_fdbk.h ****   if (MC_NULL == pHandle)
 302:MCSDK_v6.3.0-Full/MotorControl/MCSDK/MCLib/Any/Inc/sto_pll_speed_pos_fdbk.h ****   {
 303:MCSDK_v6.3.0-Full/MotorControl/MCSDK/MCLib/Any/Inc/sto_pll_speed_pos_fdbk.h ****     /* Nothing to do */
 304:MCSDK_v6.3.0-Full/MotorControl/MCSDK/MCLib/Any/Inc/sto_pll_speed_pos_fdbk.h ****   }
 305:MCSDK_v6.3.0-Full/MotorControl/MCSDK/MCLib/Any/Inc/sto_pll_speed_pos_fdbk.h ****   else
 306:MCSDK_v6.3.0-Full/MotorControl/MCSDK/MCLib/Any/Inc/sto_pll_speed_pos_fdbk.h ****   {
 307:MCSDK_v6.3.0-Full/MotorControl/MCSDK/MCLib/Any/Inc/sto_pll_speed_pos_fdbk.h **** #endif
 308:MCSDK_v6.3.0-Full/MotorControl/MCSDK/MCLib/Any/Inc/sto_pll_speed_pos_fdbk.h ****     PID_SetIntegralTerm(&pHandle->PIRegulator, ((int32_t)hElSpeedDpp)
 309:MCSDK_v6.3.0-Full/MotorControl/MCSDK/MCLib/Any/Inc/sto_pll_speed_pos_fdbk.h ****                                               * (int32_t)(PID_GetKIDivisor(&pHandle->PIRegulator)))
 310:MCSDK_v6.3.0-Full/MotorControl/MCSDK/MCLib/Any/Inc/sto_pll_speed_pos_fdbk.h ****     pHandle->_Super.hElAngle = hElAngle;
 311:MCSDK_v6.3.0-Full/MotorControl/MCSDK/MCLib/Any/Inc/sto_pll_speed_pos_fdbk.h **** #ifdef NULL_PTR_CHECK_STO_PLL_SPD_POS_FDB
 312:MCSDK_v6.3.0-Full/MotorControl/MCSDK/MCLib/Any/Inc/sto_pll_speed_pos_fdbk.h ****   }
 313:MCSDK_v6.3.0-Full/MotorControl/MCSDK/MCLib/Any/Inc/sto_pll_speed_pos_fdbk.h **** #endif
 314:MCSDK_v6.3.0-Full/MotorControl/MCSDK/MCLib/Any/Inc/sto_pll_speed_pos_fdbk.h **** }
 315:MCSDK_v6.3.0-Full/MotorControl/MCSDK/MCLib/Any/Inc/sto_pll_speed_pos_fdbk.h **** 
 316:MCSDK_v6.3.0-Full/MotorControl/MCSDK/MCLib/Any/Inc/sto_pll_speed_pos_fdbk.h **** /**
 317:MCSDK_v6.3.0-Full/MotorControl/MCSDK/MCLib/Any/Inc/sto_pll_speed_pos_fdbk.h ****   * @brief  Exports estimated Bemf squared level stored in @p pHandle.
 318:MCSDK_v6.3.0-Full/MotorControl/MCSDK/MCLib/Any/Inc/sto_pll_speed_pos_fdbk.h ****   * 
 319:MCSDK_v6.3.0-Full/MotorControl/MCSDK/MCLib/Any/Inc/sto_pll_speed_pos_fdbk.h ****   * @retval int32_t Magnitude of estimated Bemf Level squared based on speed measurement.
 320:MCSDK_v6.3.0-Full/MotorControl/MCSDK/MCLib/Any/Inc/sto_pll_speed_pos_fdbk.h ****   */
 321:MCSDK_v6.3.0-Full/MotorControl/MCSDK/MCLib/Any/Inc/sto_pll_speed_pos_fdbk.h **** static inline int32_t STO_PLL_GetEstimatedBemfLevel(STO_PLL_Handle_t *pHandle)
 322:MCSDK_v6.3.0-Full/MotorControl/MCSDK/MCLib/Any/Inc/sto_pll_speed_pos_fdbk.h **** {
 323:MCSDK_v6.3.0-Full/MotorControl/MCSDK/MCLib/Any/Inc/sto_pll_speed_pos_fdbk.h **** #ifdef NULL_PTR_CHECK_STO_PLL_SPD_POS_FDB
 324:MCSDK_v6.3.0-Full/MotorControl/MCSDK/MCLib/Any/Inc/sto_pll_speed_pos_fdbk.h ****   return ((MC_NULL == pHandle) ? 0 : pHandle->Est_Bemf_Level);
 325:MCSDK_v6.3.0-Full/MotorControl/MCSDK/MCLib/Any/Inc/sto_pll_speed_pos_fdbk.h **** #else
 326:MCSDK_v6.3.0-Full/MotorControl/MCSDK/MCLib/Any/Inc/sto_pll_speed_pos_fdbk.h ****   return (pHandle->Est_Bemf_Level);
 327:MCSDK_v6.3.0-Full/MotorControl/MCSDK/MCLib/Any/Inc/sto_pll_speed_pos_fdbk.h **** #endif
 328:MCSDK_v6.3.0-Full/MotorControl/MCSDK/MCLib/Any/Inc/sto_pll_speed_pos_fdbk.h **** }
 329:MCSDK_v6.3.0-Full/MotorControl/MCSDK/MCLib/Any/Inc/sto_pll_speed_pos_fdbk.h **** 
 330:MCSDK_v6.3.0-Full/MotorControl/MCSDK/MCLib/Any/Inc/sto_pll_speed_pos_fdbk.h **** /**
 331:MCSDK_v6.3.0-Full/MotorControl/MCSDK/MCLib/Any/Inc/sto_pll_speed_pos_fdbk.h ****   * @brief  Exports observed Bemf squared level stored in @p pHandle.
 332:MCSDK_v6.3.0-Full/MotorControl/MCSDK/MCLib/Any/Inc/sto_pll_speed_pos_fdbk.h ****   *
 333:MCSDK_v6.3.0-Full/MotorControl/MCSDK/MCLib/Any/Inc/sto_pll_speed_pos_fdbk.h ****   * @retval int32_t Magnitude of observed Bemf level squared.
 334:MCSDK_v6.3.0-Full/MotorControl/MCSDK/MCLib/Any/Inc/sto_pll_speed_pos_fdbk.h ****   */
 335:MCSDK_v6.3.0-Full/MotorControl/MCSDK/MCLib/Any/Inc/sto_pll_speed_pos_fdbk.h **** static inline int32_t STO_PLL_GetObservedBemfLevel(STO_PLL_Handle_t *pHandle)
 336:MCSDK_v6.3.0-Full/MotorControl/MCSDK/MCLib/Any/Inc/sto_pll_speed_pos_fdbk.h **** {
 337:MCSDK_v6.3.0-Full/MotorControl/MCSDK/MCLib/Any/Inc/sto_pll_speed_pos_fdbk.h **** #ifdef NULL_PTR_CHECK_STO_PLL_SPD_POS_FDB
 338:MCSDK_v6.3.0-Full/MotorControl/MCSDK/MCLib/Any/Inc/sto_pll_speed_pos_fdbk.h ****   return ((MC_NULL == pHandle) ? 0 : pHandle->Obs_Bemf_Level);
 339:MCSDK_v6.3.0-Full/MotorControl/MCSDK/MCLib/Any/Inc/sto_pll_speed_pos_fdbk.h **** #else
 340:MCSDK_v6.3.0-Full/MotorControl/MCSDK/MCLib/Any/Inc/sto_pll_speed_pos_fdbk.h ****   return (pHandle->Obs_Bemf_Level);
 4367              		.loc 4 340 3 is_stmt 1 view .LVU1379
 4368              	.LBB270:
1139:Src/register_interface.c ****               break;
 4369              		.loc 1 1139 26 is_stmt 0 view .LVU1380
 4370 066c 2360     		str	r3, [r4]
1140:Src/register_interface.c ****             }
 4371              		.loc 1 1140 15 is_stmt 1 view .LVU1381
 4372              	.LBE270:
 761:Src/register_interface.c ****     uint8_t motorID=0;
 4373              		.loc 1 761 13 is_stmt 0 view .LVU1382
 4374 066e 0021     		movs	r1, #0
 4375              	.LVL527:
 4376              	.LBB271:
1140:Src/register_interface.c ****             }
ARM GAS  /tmp/ccAfo4nU.s 			page 138


 4377              		.loc 1 1140 15 view .LVU1383
 4378 0670 5BE5     		b	.L331
 4379              	.LVL528:
 4380              	.L334:
1133:Src/register_interface.c ****               break;
 4381              		.loc 1 1133 15 is_stmt 1 view .LVU1384
1133:Src/register_interface.c ****               break;
 4382              		.loc 1 1133 28 is_stmt 0 view .LVU1385
 4383 0672 034B     		ldr	r3, .L419
 4384 0674 D3F80031 		ldr	r3, [r3, #256]
 4385              	.LVL529:
1133:Src/register_interface.c ****               break;
 4386              		.loc 1 1133 28 view .LVU1386
 4387              	.LBE271:
 326:MCSDK_v6.3.0-Full/MotorControl/MCSDK/MCLib/Any/Inc/sto_pll_speed_pos_fdbk.h **** #endif
 4388              		.loc 4 326 3 is_stmt 1 view .LVU1387
 4389              	.LBB272:
1133:Src/register_interface.c ****               break;
 4390              		.loc 1 1133 26 is_stmt 0 view .LVU1388
 4391 0678 2360     		str	r3, [r4]
1134:Src/register_interface.c ****             }
 4392              		.loc 1 1134 15 is_stmt 1 view .LVU1389
 4393              	.LBE272:
 761:Src/register_interface.c ****     uint8_t motorID=0;
 4394              		.loc 1 761 13 is_stmt 0 view .LVU1390
 4395 067a 0021     		movs	r1, #0
 4396              	.LVL530:
 4397              	.LBB273:
1134:Src/register_interface.c ****             }
 4398              		.loc 1 1134 15 view .LVU1391
 4399 067c 55E5     		b	.L331
 4400              	.L420:
 4401 067e 00BF     		.align	2
 4402              	.L419:
 4403 0680 00000000 		.word	STO_PLL_M1
 4404 0684 00000000 		.word	PIDSpeedHandle_M1
 4405 0688 00000000 		.word	PIDIdHandle_M1
 4406 068c 00000000 		.word	PIDIqHandle_M1
 4407 0690 34000000 		.word	STO_PLL_M1+52
 4408 0694 00000000 		.word	Mci
 4409 0698 00000000 		.word	MotorConfig_reg
 4410 069c 00000000 		.word	PWR_BOARD_NAME
 4411 06a0 00000000 		.word	RevUpControlM1
 4412 06a4 00000000 		.word	scaleParams_M1
 4413 06a8 00000000 		.word	pMPM
 4414              	.LVL531:
 4415              	.L329:
1116:Src/register_interface.c ****               break;
 4416              		.loc 1 1116 15 is_stmt 1 view .LVU1392
1116:Src/register_interface.c ****               break;
 4417              		.loc 1 1116 29 is_stmt 0 view .LVU1393
 4418 06ac 4E48     		ldr	r0, .L421
 4419              	.LVL532:
1116:Src/register_interface.c ****               break;
 4420              		.loc 1 1116 29 view .LVU1394
 4421 06ae FFF7FEFF 		bl	MCI_GetFaultState
 4422              	.LVL533:
ARM GAS  /tmp/ccAfo4nU.s 			page 139


1116:Src/register_interface.c ****               break;
 4423              		.loc 1 1116 29 view .LVU1395
 4424              	.LBE273:
 761:Src/register_interface.c ****     uint8_t motorID=0;
 4425              		.loc 1 761 13 view .LVU1396
 4426 06b2 0021     		movs	r1, #0
 4427              	.LBB274:
1116:Src/register_interface.c ****               break;
 4428              		.loc 1 1116 27 view .LVU1397
 4429 06b4 2060     		str	r0, [r4]
1117:Src/register_interface.c ****             }
 4430              		.loc 1 1117 15 is_stmt 1 view .LVU1398
 4431 06b6 38E5     		b	.L331
 4432              	.LVL534:
 4433              	.L367:
1117:Src/register_interface.c ****             }
 4434              		.loc 1 1117 15 is_stmt 0 view .LVU1399
 4435              	.LBE274:
 4436              	.LBB275:
 4437              	.LBB196:
 4438 06b8 2A23     		movs	r3, #42
1293:Src/register_interface.c ****             }
 4439              		.loc 1 1293 22 view .LVU1400
 4440 06ba 0821     		movs	r1, #8
 4441              	.LVL535:
1293:Src/register_interface.c ****             }
 4442              		.loc 1 1293 22 view .LVU1401
 4443 06bc E5E4     		b	.L354
 4444              	.LVL536:
 4445              	.L366:
1293:Src/register_interface.c ****             }
 4446              		.loc 1 1293 22 view .LVU1402
 4447              	.LBE196:
 4448 06be 0E23     		movs	r3, #14
1253:Src/register_interface.c ****             }
 4449              		.loc 1 1253 22 view .LVU1403
 4450 06c0 0821     		movs	r1, #8
 4451 06c2 E2E4     		b	.L354
 4452              	.L414:
 4453              	.LBB197:
1212:Src/register_interface.c ****               (void)memcpy(rawData, (const uint8_t *)pApplicationConfig_reg, sizeof(ApplicationConf
 4454              		.loc 1 1212 15 is_stmt 1 view .LVU1404
 4455              	.LVL537:
1213:Src/register_interface.c ****             }
 4456              		.loc 1 1213 15 view .LVU1405
1212:Src/register_interface.c ****               (void)memcpy(rawData, (const uint8_t *)pApplicationConfig_reg, sizeof(ApplicationConf
 4457              		.loc 1 1212 46 is_stmt 0 view .LVU1406
 4458 06c4 494B     		ldr	r3, .L421+4
 4459              	.LVL538:
1213:Src/register_interface.c ****             }
 4460              		.loc 1 1213 21 view .LVU1407
 4461 06c6 1B68     		ldr	r3, [r3]
 4462              	.LVL539:
1213:Src/register_interface.c ****             }
 4463              		.loc 1 1213 21 view .LVU1408
 4464 06c8 9968     		ldr	r1, [r3, #8]	@ unaligned
 4465 06ca 1C68     		ldr	r4, [r3]	@ unaligned
ARM GAS  /tmp/ccAfo4nU.s 			page 140


 4466              	.LVL540:
1213:Src/register_interface.c ****             }
 4467              		.loc 1 1213 21 view .LVU1409
 4468 06cc 5868     		ldr	r0, [r3, #4]	@ unaligned
 4469              	.LVL541:
1213:Src/register_interface.c ****             }
 4470              		.loc 1 1213 21 view .LVU1410
 4471 06ce DB68     		ldr	r3, [r3, #12]	@ unaligned
 4472              	.LVL542:
1213:Src/register_interface.c ****             }
 4473              		.loc 1 1213 21 view .LVU1411
 4474 06d0 D360     		str	r3, [r2, #12]	@ unaligned
 4475 06d2 9160     		str	r1, [r2, #8]	@ unaligned
 4476 06d4 1460     		str	r4, [r2]	@ unaligned
 4477              	.LVL543:
1213:Src/register_interface.c ****             }
 4478              		.loc 1 1213 21 view .LVU1412
 4479 06d6 5060     		str	r0, [r2, #4]	@ unaligned
 4480 06d8 1223     		movs	r3, #18
 4481              	.LBE197:
 4482              	.LBE275:
 761:Src/register_interface.c ****     uint8_t motorID=0;
 4483              		.loc 1 761 13 view .LVU1413
 4484 06da 0021     		movs	r1, #0
 4485 06dc D5E4     		b	.L354
 4486              	.LVL544:
 4487              	.L415:
 4488              	.LBB276:
 4489              	.LBB198:
1242:Src/register_interface.c ****               (void)memcpy(rawData, (const uint8_t *)pFOCConfig_reg, sizeof(FOCFwConfig_reg_t));
 4490              		.loc 1 1242 15 is_stmt 1 view .LVU1414
1243:Src/register_interface.c ****             }
 4491              		.loc 1 1243 15 view .LVU1415
1242:Src/register_interface.c ****               (void)memcpy(rawData, (const uint8_t *)pFOCConfig_reg, sizeof(FOCFwConfig_reg_t));
 4492              		.loc 1 1242 40 is_stmt 0 view .LVU1416
 4493 06de 444B     		ldr	r3, .L421+8
 4494              	.LVL545:
1243:Src/register_interface.c ****             }
 4495              		.loc 1 1243 21 view .LVU1417
 4496 06e0 1B68     		ldr	r3, [r3]
 4497              	.LVL546:
1243:Src/register_interface.c ****             }
 4498              		.loc 1 1243 21 view .LVU1418
 4499 06e2 5968     		ldr	r1, [r3, #4]	@ unaligned
 4500 06e4 1868     		ldr	r0, [r3]	@ unaligned
 4501              	.LVL547:
1243:Src/register_interface.c ****             }
 4502              		.loc 1 1243 21 view .LVU1419
 4503 06e6 9C68     		ldr	r4, [r3, #8]	@ unaligned
 4504              	.LVL548:
1243:Src/register_interface.c ****             }
 4505              		.loc 1 1243 21 view .LVU1420
 4506 06e8 9460     		str	r4, [r2, #8]	@ unaligned
 4507 06ea 5160     		str	r1, [r2, #4]	@ unaligned
 4508 06ec 1060     		str	r0, [r2]	@ unaligned
 4509 06ee 9B89     		ldrh	r3, [r3, #12]	@ unaligned
 4510              	.LVL549:
ARM GAS  /tmp/ccAfo4nU.s 			page 141


1243:Src/register_interface.c ****             }
 4511              		.loc 1 1243 21 view .LVU1421
 4512 06f0 9381     		strh	r3, [r2, #12]	@ unaligned
 4513              	.LBE198:
 4514              	.LBE276:
 761:Src/register_interface.c ****     uint8_t motorID=0;
 4515              		.loc 1 761 13 view .LVU1422
 4516 06f2 0021     		movs	r1, #0
 4517              	.LBB277:
 4518              	.LBB199:
1243:Src/register_interface.c ****             }
 4519              		.loc 1 1243 21 view .LVU1423
 4520 06f4 1023     		movs	r3, #16
 4521 06f6 C8E4     		b	.L354
 4522              	.LVL550:
 4523              	.L416:
1243:Src/register_interface.c ****             }
 4524              		.loc 1 1243 21 view .LVU1424
 4525              	.LBE199:
 4526              	.LBB200:
1227:Src/register_interface.c ****               (void)memcpy(rawData, (const uint8_t *)pMotorConfig_reg, sizeof(MotorConfig_reg_t));
 4527              		.loc 1 1227 15 is_stmt 1 view .LVU1425
1228:Src/register_interface.c ****             }
 4528              		.loc 1 1228 15 view .LVU1426
1227:Src/register_interface.c ****               (void)memcpy(rawData, (const uint8_t *)pMotorConfig_reg, sizeof(MotorConfig_reg_t));
 4529              		.loc 1 1227 40 is_stmt 0 view .LVU1427
 4530 06f8 3E4B     		ldr	r3, .L421+12
 4531              	.LVL551:
1228:Src/register_interface.c ****             }
 4532              		.loc 1 1228 21 view .LVU1428
 4533 06fa 1B68     		ldr	r3, [r3]
 4534              	.LVL552:
1228:Src/register_interface.c ****             }
 4535              		.loc 1 1228 21 view .LVU1429
 4536 06fc 03F13007 		add	r7, r3, #48
 4537              	.LVL553:
 4538              	.L355:
1228:Src/register_interface.c ****             }
 4539              		.loc 1 1228 21 view .LVU1430
 4540 0700 1C68     		ldr	r4, [r3]	@ unaligned
 4541 0702 5868     		ldr	r0, [r3, #4]	@ unaligned
 4542 0704 9968     		ldr	r1, [r3, #8]	@ unaligned
 4543 0706 DE68     		ldr	r6, [r3, #12]	@ unaligned
 4544 0708 D660     		str	r6, [r2, #12]	@ unaligned
 4545 070a 1033     		adds	r3, r3, #16
 4546 070c BB42     		cmp	r3, r7
 4547 070e 1460     		str	r4, [r2]	@ unaligned
 4548 0710 5060     		str	r0, [r2, #4]	@ unaligned
 4549 0712 9160     		str	r1, [r2, #8]	@ unaligned
 4550 0714 02F11002 		add	r2, r2, #16
 4551 0718 F2D1     		bne	.L355
 4552 071a 5968     		ldr	r1, [r3, #4]	@ unaligned
 4553 071c 1868     		ldr	r0, [r3]	@ unaligned
 4554 071e 9B68     		ldr	r3, [r3, #8]	@ unaligned
 4555 0720 9360     		str	r3, [r2, #8]	@ unaligned
 4556 0722 5160     		str	r1, [r2, #4]	@ unaligned
 4557 0724 1060     		str	r0, [r2]	@ unaligned
ARM GAS  /tmp/ccAfo4nU.s 			page 142


 4558 0726 3E23     		movs	r3, #62
 4559              	.LBE200:
 4560              	.LBE277:
 761:Src/register_interface.c ****     uint8_t motorID=0;
 4561              		.loc 1 761 13 view .LVU1431
 4562 0728 0021     		movs	r1, #0
 4563 072a AEE4     		b	.L354
 4564              	.LVL554:
 4565              	.L360:
 761:Src/register_interface.c ****     uint8_t motorID=0;
 4566              		.loc 1 761 13 view .LVU1432
 4567 072c 0021     		movs	r1, #0
 4568              	.LVL555:
 761:Src/register_interface.c ****     uint8_t motorID=0;
 4569              		.loc 1 761 13 view .LVU1433
 4570 072e E2E4     		b	.L276
 4571              	.LVL556:
 4572              	.L271:
 4573              	.LBB278:
 841:Src/register_interface.c ****               break;
 4574              		.loc 1 841 15 is_stmt 1 view .LVU1434
 841:Src/register_interface.c ****               break;
 4575              		.loc 1 841 28 is_stmt 0 view .LVU1435
 4576 0730 3148     		ldr	r0, .L421+16
 4577              	.LVL557:
 841:Src/register_interface.c ****               break;
 4578              		.loc 1 841 28 view .LVU1436
 4579 0732 FFF7FEFF 		bl	PID_GetKI
 4580              	.LVL558:
 841:Src/register_interface.c ****               break;
 4581              		.loc 1 841 28 view .LVU1437
 4582              	.LBE278:
 761:Src/register_interface.c ****     uint8_t motorID=0;
 4583              		.loc 1 761 13 view .LVU1438
 4584 0736 0021     		movs	r1, #0
 4585              	.LBB279:
 841:Src/register_interface.c ****               break;
 4586              		.loc 1 841 26 view .LVU1439
 4587 0738 2080     		strh	r0, [r4]	@ movhi
 4588              	.LVL559:
 842:Src/register_interface.c ****             }
 4589              		.loc 1 842 15 is_stmt 1 view .LVU1440
 4590 073a DCE4     		b	.L276
 4591              	.LVL560:
 4592              	.L269:
 4593              	.LBB205:
1002:Src/register_interface.c ****               int16_t hC2;
 4594              		.loc 1 1002 15 view .LVU1441
1003:Src/register_interface.c ****               STO_PLL_GetObserverGains(&STO_PLL_M1, &hC1, &hC2);
 4595              		.loc 1 1003 15 view .LVU1442
1004:Src/register_interface.c ****               *regdata16 = hC2;
 4596              		.loc 1 1004 15 view .LVU1443
 4597 073c 10A9     		add	r1, sp, #64
 4598              	.LVL561:
1004:Src/register_interface.c ****               *regdata16 = hC2;
 4599              		.loc 1 1004 15 is_stmt 0 view .LVU1444
 4600 073e 11AA     		add	r2, sp, #68
ARM GAS  /tmp/ccAfo4nU.s 			page 143


 4601 0740 2E48     		ldr	r0, .L421+20
 4602              	.LVL562:
1004:Src/register_interface.c ****               *regdata16 = hC2;
 4603              		.loc 1 1004 15 view .LVU1445
 4604 0742 FFF7FEFF 		bl	STO_PLL_GetObserverGains
 4605              	.LVL563:
1005:Src/register_interface.c ****               break;
 4606              		.loc 1 1005 15 is_stmt 1 view .LVU1446
1005:Src/register_interface.c ****               break;
 4607              		.loc 1 1005 26 is_stmt 0 view .LVU1447
 4608 0746 BDF84430 		ldrh	r3, [sp, #68]
 4609 074a 2380     		strh	r3, [r4]	@ movhi
1006:Src/register_interface.c ****             }
 4610              		.loc 1 1006 15 is_stmt 1 view .LVU1448
 4611              	.LBE205:
 4612              	.LBE279:
 761:Src/register_interface.c ****     uint8_t motorID=0;
 4613              		.loc 1 761 13 is_stmt 0 view .LVU1449
 4614 074c 0021     		movs	r1, #0
 4615 074e D2E4     		b	.L276
 4616              	.LVL564:
 4617              	.L279:
 4618              	.LBB280:
 859:Src/register_interface.c ****               break;
 4619              		.loc 1 859 15 is_stmt 1 view .LVU1450
 859:Src/register_interface.c ****               break;
 4620              		.loc 1 859 28 is_stmt 0 view .LVU1451
 4621 0750 2B48     		ldr	r0, .L421+24
 4622              	.LVL565:
 859:Src/register_interface.c ****               break;
 4623              		.loc 1 859 28 view .LVU1452
 4624 0752 FFF7FEFF 		bl	PID_GetKI
 4625              	.LVL566:
 859:Src/register_interface.c ****               break;
 4626              		.loc 1 859 28 view .LVU1453
 4627              	.LBE280:
 761:Src/register_interface.c ****     uint8_t motorID=0;
 4628              		.loc 1 761 13 view .LVU1454
 4629 0756 0021     		movs	r1, #0
 4630              	.LBB281:
 859:Src/register_interface.c ****               break;
 4631              		.loc 1 859 26 view .LVU1455
 4632 0758 2080     		strh	r0, [r4]	@ movhi
 4633              	.LVL567:
 860:Src/register_interface.c ****             }
 4634              		.loc 1 860 15 is_stmt 1 view .LVU1456
 4635 075a CCE4     		b	.L276
 4636              	.LVL568:
 4637              	.L321:
1074:Src/register_interface.c ****               break;
 4638              		.loc 1 1074 15 view .LVU1457
1074:Src/register_interface.c ****               break;
 4639              		.loc 1 1074 29 is_stmt 0 view .LVU1458
 4640 075c 2648     		ldr	r0, .L421+16
 4641              	.LVL569:
1074:Src/register_interface.c ****               break;
 4642              		.loc 1 1074 29 view .LVU1459
ARM GAS  /tmp/ccAfo4nU.s 			page 144


 4643 075e FFF7FEFF 		bl	PID_GetKDDivisorPOW2
 4644              	.LVL570:
1074:Src/register_interface.c ****               break;
 4645              		.loc 1 1074 29 view .LVU1460
 4646              	.LBE281:
 761:Src/register_interface.c ****     uint8_t motorID=0;
 4647              		.loc 1 761 13 view .LVU1461
 4648 0762 0021     		movs	r1, #0
 4649              	.LBB282:
1074:Src/register_interface.c ****               break;
 4650              		.loc 1 1074 27 view .LVU1462
 4651 0764 2080     		strh	r0, [r4]	@ movhi
 4652              	.LVL571:
1075:Src/register_interface.c ****             }
 4653              		.loc 1 1075 15 is_stmt 1 view .LVU1463
 4654 0766 C6E4     		b	.L276
 4655              	.LVL572:
 4656              	.L315:
1039:Src/register_interface.c ****               break;
 4657              		.loc 1 1039 15 view .LVU1464
1039:Src/register_interface.c ****               break;
 4658              		.loc 1 1039 29 is_stmt 0 view .LVU1465
 4659 0768 2648     		ldr	r0, .L421+28
 4660              	.LVL573:
1039:Src/register_interface.c ****               break;
 4661              		.loc 1 1039 29 view .LVU1466
 4662 076a FFF7FEFF 		bl	PID_GetKDDivisorPOW2
 4663              	.LVL574:
1039:Src/register_interface.c ****               break;
 4664              		.loc 1 1039 29 view .LVU1467
 4665              	.LBE282:
 761:Src/register_interface.c ****     uint8_t motorID=0;
 4666              		.loc 1 761 13 view .LVU1468
 4667 076e 0021     		movs	r1, #0
 4668              	.LBB283:
1039:Src/register_interface.c ****               break;
 4669              		.loc 1 1039 27 view .LVU1469
 4670 0770 2080     		strh	r0, [r4]	@ movhi
 4671              	.LVL575:
1040:Src/register_interface.c ****             }
 4672              		.loc 1 1040 15 is_stmt 1 view .LVU1470
 4673 0772 C0E4     		b	.L276
 4674              	.LVL576:
 4675              	.L313:
1056:Src/register_interface.c ****               break;
 4676              		.loc 1 1056 15 view .LVU1471
1056:Src/register_interface.c ****               break;
 4677              		.loc 1 1056 29 is_stmt 0 view .LVU1472
 4678 0774 2248     		ldr	r0, .L421+24
 4679              	.LVL577:
1056:Src/register_interface.c ****               break;
 4680              		.loc 1 1056 29 view .LVU1473
 4681 0776 FFF7FEFF 		bl	PID_GetKDDivisorPOW2
 4682              	.LVL578:
1056:Src/register_interface.c ****               break;
 4683              		.loc 1 1056 29 view .LVU1474
 4684              	.LBE283:
ARM GAS  /tmp/ccAfo4nU.s 			page 145


 761:Src/register_interface.c ****     uint8_t motorID=0;
 4685              		.loc 1 761 13 view .LVU1475
 4686 077a 0021     		movs	r1, #0
 4687              	.LBB284:
1056:Src/register_interface.c ****               break;
 4688              		.loc 1 1056 27 view .LVU1476
 4689 077c 2080     		strh	r0, [r4]	@ movhi
 4690              	.LVL579:
1057:Src/register_interface.c ****             }
 4691              		.loc 1 1057 15 is_stmt 1 view .LVU1477
 4692 077e BAE4     		b	.L276
 4693              	.LVL580:
 4694              	.L267:
 925:Src/register_interface.c ****               break;
 4695              		.loc 1 925 15 view .LVU1478
 925:Src/register_interface.c ****               break;
 4696              		.loc 1 925 28 is_stmt 0 view .LVU1479
 4697 0780 1948     		ldr	r0, .L421
 4698              	.LVL581:
 925:Src/register_interface.c ****               break;
 4699              		.loc 1 925 28 view .LVU1480
 4700 0782 FFF7FEFF 		bl	MCI_GetIqdref
 4701              	.LVL582:
 925:Src/register_interface.c ****               break;
 4702              		.loc 1 925 26 view .LVU1481
 4703 0786 C0F30F40 		ubfx	r0, r0, #16, #16
 4704 078a 2080     		strh	r0, [r4]	@ movhi
 926:Src/register_interface.c ****             }
 4705              		.loc 1 926 15 is_stmt 1 view .LVU1482
 4706              	.LBE284:
 761:Src/register_interface.c ****     uint8_t motorID=0;
 4707              		.loc 1 761 13 is_stmt 0 view .LVU1483
 4708 078c 0021     		movs	r1, #0
 4709              	.LBB285:
 926:Src/register_interface.c ****             }
 4710              		.loc 1 926 15 view .LVU1484
 4711 078e B2E4     		b	.L276
 4712              	.LVL583:
 4713              	.L273:
 823:Src/register_interface.c ****               break;
 4714              		.loc 1 823 15 is_stmt 1 view .LVU1485
 823:Src/register_interface.c ****               break;
 4715              		.loc 1 823 28 is_stmt 0 view .LVU1486
 4716 0790 1C48     		ldr	r0, .L421+28
 4717              	.LVL584:
 823:Src/register_interface.c ****               break;
 4718              		.loc 1 823 28 view .LVU1487
 4719 0792 FFF7FEFF 		bl	PID_GetKI
 4720              	.LVL585:
 823:Src/register_interface.c ****               break;
 4721              		.loc 1 823 28 view .LVU1488
 4722              	.LBE285:
 761:Src/register_interface.c ****     uint8_t motorID=0;
 4723              		.loc 1 761 13 view .LVU1489
 4724 0796 0021     		movs	r1, #0
 4725              	.LBB286:
 823:Src/register_interface.c ****               break;
ARM GAS  /tmp/ccAfo4nU.s 			page 146


 4726              		.loc 1 823 26 view .LVU1490
 4727 0798 2080     		strh	r0, [r4]	@ movhi
 4728              	.LVL586:
 824:Src/register_interface.c ****             }
 4729              		.loc 1 824 15 is_stmt 1 view .LVU1491
 4730 079a ACE4     		b	.L276
 4731              	.LVL587:
 4732              	.L302:
 943:Src/register_interface.c ****               break;
 4733              		.loc 1 943 15 view .LVU1492
 943:Src/register_interface.c ****               break;
 4734              		.loc 1 943 28 is_stmt 0 view .LVU1493
 4735 079c 1248     		ldr	r0, .L421
 4736              	.LVL588:
 943:Src/register_interface.c ****               break;
 4737              		.loc 1 943 28 view .LVU1494
 4738 079e FFF7FEFF 		bl	MCI_GetValphabeta
 4739              	.LVL589:
 943:Src/register_interface.c ****               break;
 4740              		.loc 1 943 28 view .LVU1495
 4741              	.LBE286:
 761:Src/register_interface.c ****     uint8_t motorID=0;
 4742              		.loc 1 761 13 view .LVU1496
 4743 07a2 0021     		movs	r1, #0
 4744              	.LBB287:
 943:Src/register_interface.c ****               break;
 4745              		.loc 1 943 26 view .LVU1497
 4746 07a4 2080     		strh	r0, [r4]	@ movhi
 4747              	.LVL590:
 944:Src/register_interface.c ****             }
 4748              		.loc 1 944 15 is_stmt 1 view .LVU1498
 4749 07a6 A6E4     		b	.L276
 4750              	.LVL591:
 4751              	.L300:
 963:Src/register_interface.c ****               break;
 4752              		.loc 1 963 15 view .LVU1499
 963:Src/register_interface.c ****               break;
 4753              		.loc 1 963 28 is_stmt 0 view .LVU1500
 4754 07a8 1448     		ldr	r0, .L421+20
 4755              	.LVL592:
 963:Src/register_interface.c ****               break;
 4756              		.loc 1 963 28 view .LVU1501
 4757 07aa FFF7FEFF 		bl	SPD_GetS16Speed
 4758              	.LVL593:
 963:Src/register_interface.c ****               break;
 4759              		.loc 1 963 28 view .LVU1502
 4760              	.LBE287:
 761:Src/register_interface.c ****     uint8_t motorID=0;
 4761              		.loc 1 761 13 view .LVU1503
 4762 07ae 0021     		movs	r1, #0
 4763              	.LBB288:
 963:Src/register_interface.c ****               break;
 4764              		.loc 1 963 26 view .LVU1504
 4765 07b0 2080     		strh	r0, [r4]	@ movhi
 4766              	.LVL594:
 964:Src/register_interface.c ****             }
 4767              		.loc 1 964 15 is_stmt 1 view .LVU1505
ARM GAS  /tmp/ccAfo4nU.s 			page 147


 4768 07b2 A0E4     		b	.L276
 4769              	.LVL595:
 4770              	.L308:
 981:Src/register_interface.c ****               break;
 4771              		.loc 1 981 15 view .LVU1506
 981:Src/register_interface.c ****               break;
 4772              		.loc 1 981 28 is_stmt 0 view .LVU1507
 4773 07b4 1148     		ldr	r0, .L421+20
 4774              	.LVL596:
 981:Src/register_interface.c ****               break;
 4775              		.loc 1 981 28 view .LVU1508
 4776 07b6 FFF7FEFF 		bl	STO_PLL_GetEstimatedBemf
 4777              	.LVL597:
 981:Src/register_interface.c ****               break;
 4778              		.loc 1 981 28 view .LVU1509
 4779              	.LBE288:
 761:Src/register_interface.c ****     uint8_t motorID=0;
 4780              		.loc 1 761 13 view .LVU1510
 4781 07ba 0021     		movs	r1, #0
 4782              	.LBB289:
 981:Src/register_interface.c ****               break;
 4783              		.loc 1 981 26 view .LVU1511
 4784 07bc 2080     		strh	r0, [r4]	@ movhi
 4785              	.LVL598:
 982:Src/register_interface.c ****             }
 4786              		.loc 1 982 15 is_stmt 1 view .LVU1512
 4787 07be 9AE4     		b	.L276
 4788              	.LVL599:
 4789              	.L293:
 907:Src/register_interface.c ****               break;
 4790              		.loc 1 907 15 view .LVU1513
 907:Src/register_interface.c ****               break;
 4791              		.loc 1 907 28 is_stmt 0 view .LVU1514
 4792 07c0 0948     		ldr	r0, .L421
 4793              	.LVL600:
 907:Src/register_interface.c ****               break;
 4794              		.loc 1 907 28 view .LVU1515
 4795 07c2 FFF7FEFF 		bl	MCI_GetIqd
 4796              	.LVL601:
 907:Src/register_interface.c ****               break;
 4797              		.loc 1 907 28 view .LVU1516
 4798              	.LBE289:
 761:Src/register_interface.c ****     uint8_t motorID=0;
 4799              		.loc 1 761 13 view .LVU1517
 4800 07c6 0021     		movs	r1, #0
 4801              	.LBB290:
 907:Src/register_interface.c ****               break;
 4802              		.loc 1 907 26 view .LVU1518
 4803 07c8 2080     		strh	r0, [r4]	@ movhi
 4804              	.LVL602:
 908:Src/register_interface.c ****             }
 4805              		.loc 1 908 15 is_stmt 1 view .LVU1519
 4806 07ca 94E4     		b	.L276
 4807              	.LVL603:
 4808              	.L287:
 871:Src/register_interface.c ****               break;
 4809              		.loc 1 871 15 view .LVU1520
ARM GAS  /tmp/ccAfo4nU.s 			page 148


 871:Src/register_interface.c ****               break;
 4810              		.loc 1 871 29 is_stmt 0 view .LVU1521
 4811 07cc 0E48     		ldr	r0, .L421+32
 4812              	.LVL604:
 871:Src/register_interface.c ****               break;
 4813              		.loc 1 871 29 view .LVU1522
 4814 07ce FFF7FEFF 		bl	VBS_GetAvBusVoltage_V
 4815              	.LVL605:
 871:Src/register_interface.c ****               break;
 4816              		.loc 1 871 29 view .LVU1523
 4817              	.LBE290:
 761:Src/register_interface.c ****     uint8_t motorID=0;
 4818              		.loc 1 761 13 view .LVU1524
 4819 07d2 0021     		movs	r1, #0
 4820              	.LBB291:
 871:Src/register_interface.c ****               break;
 4821              		.loc 1 871 27 view .LVU1525
 4822 07d4 2080     		strh	r0, [r4]	@ movhi
 4823              	.LVL606:
 872:Src/register_interface.c ****             }
 4824              		.loc 1 872 15 is_stmt 1 view .LVU1526
 4825 07d6 8EE4     		b	.L276
 4826              	.LVL607:
 4827              	.L285:
 889:Src/register_interface.c ****               break;
 4828              		.loc 1 889 15 view .LVU1527
 889:Src/register_interface.c ****               break;
 4829              		.loc 1 889 28 is_stmt 0 view .LVU1528
 4830 07d8 0348     		ldr	r0, .L421
 4831              	.LVL608:
 889:Src/register_interface.c ****               break;
 4832              		.loc 1 889 28 view .LVU1529
 4833 07da FFF7FEFF 		bl	MCI_GetIab
 4834              	.LVL609:
 889:Src/register_interface.c ****               break;
 4835              		.loc 1 889 26 view .LVU1530
 4836 07de C0F30F40 		ubfx	r0, r0, #16, #16
 4837 07e2 2080     		strh	r0, [r4]	@ movhi
 890:Src/register_interface.c ****             }
 4838              		.loc 1 890 15 is_stmt 1 view .LVU1531
 4839              	.LBE291:
 761:Src/register_interface.c ****     uint8_t motorID=0;
 4840              		.loc 1 761 13 is_stmt 0 view .LVU1532
 4841 07e4 0021     		movs	r1, #0
 4842              	.LBB292:
 890:Src/register_interface.c ****             }
 4843              		.loc 1 890 15 view .LVU1533
 4844 07e6 86E4     		b	.L276
 4845              	.L422:
 4846              		.align	2
 4847              	.L421:
 4848 07e8 00000000 		.word	Mci
 4849 07ec 00000000 		.word	ApplicationConfig_reg
 4850 07f0 00000000 		.word	FOCConfig_reg
 4851 07f4 00000000 		.word	MotorConfig_reg
 4852 07f8 00000000 		.word	PIDIqHandle_M1
 4853 07fc 00000000 		.word	STO_PLL_M1
ARM GAS  /tmp/ccAfo4nU.s 			page 149


 4854 0800 00000000 		.word	PIDIdHandle_M1
 4855 0804 00000000 		.word	PIDSpeedHandle_M1
 4856 0808 00000000 		.word	BusVoltageSensor_M1
 4857              	.LBE292:
 4858              		.cfi_endproc
 4859              	.LFE1469:
 4861              		.section	.text.RI_MovString,"ax",%progbits
 4862              		.align	1
 4863              		.p2align 2,,3
 4864              		.global	RI_MovString
 4865              		.syntax unified
 4866              		.thumb
 4867              		.thumb_func
 4868              		.fpu fpv4-sp-d16
 4870              	RI_MovString:
 4871              	.LVL610:
 4872              	.LFB1470:
1347:Src/register_interface.c ****   uint8_t retVal = MCP_CMD_OK;
 4873              		.loc 1 1347 1 is_stmt 1 view -0
 4874              		.cfi_startproc
 4875              		@ args = 0, pretend = 0, frame = 0
 4876              		@ frame_needed = 0, uses_anonymous_args = 0
 4877              		@ link register save eliminated.
1348:Src/register_interface.c ****   const char_t *tempsrcString = srcString;
 4878              		.loc 1 1348 3 view .LVU1535
1349:Src/register_interface.c ****   char_t *tempdestString = destString;
 4879              		.loc 1 1349 3 view .LVU1536
1350:Src/register_interface.c ****   *size= 1U ; /* /0 is the min String size */
 4880              		.loc 1 1350 3 view .LVU1537
1347:Src/register_interface.c ****   uint8_t retVal = MCP_CMD_OK;
 4881              		.loc 1 1347 1 is_stmt 0 view .LVU1538
 4882 0000 30B4     		push	{r4, r5}
 4883              	.LCFI52:
 4884              		.cfi_def_cfa_offset 8
 4885              		.cfi_offset 4, -8
 4886              		.cfi_offset 5, -4
1351:Src/register_interface.c **** 
 4887              		.loc 1 1351 8 view .LVU1539
 4888 0002 0124     		movs	r4, #1
 4889 0004 1480     		strh	r4, [r2]	@ movhi
1353:Src/register_interface.c ****   {
 4890              		.loc 1 1353 11 view .LVU1540
 4891 0006 90F90050 		ldrsb	r5, [r0]
 4892              	.LVL611:
1351:Src/register_interface.c **** 
 4893              		.loc 1 1351 3 is_stmt 1 view .LVU1541
1353:Src/register_interface.c ****   {
 4894              		.loc 1 1353 3 view .LVU1542
1353:Src/register_interface.c ****   {
 4895              		.loc 1 1353 9 is_stmt 0 view .LVU1543
 4896 000a 7DB1     		cbz	r5, .L424
1353:Src/register_interface.c ****   {
 4897              		.loc 1 1353 50 view .LVU1544
 4898 000c 9BB2     		uxth	r3, r3
1353:Src/register_interface.c ****   {
 4899              		.loc 1 1353 50 view .LVU1545
 4900 000e 08E0     		b	.L437
ARM GAS  /tmp/ccAfo4nU.s 			page 150


 4901              	.LVL612:
 4902              	.L438:
1355:Src/register_interface.c ****     tempdestString++;
 4903              		.loc 1 1355 5 is_stmt 1 view .LVU1546
1355:Src/register_interface.c ****     tempdestString++;
 4904              		.loc 1 1355 21 is_stmt 0 view .LVU1547
 4905 0010 01F8015B 		strb	r5, [r1], #1
 4906              	.LVL613:
1356:Src/register_interface.c ****     tempsrcString++;
 4907              		.loc 1 1356 5 is_stmt 1 view .LVU1548
1357:Src/register_interface.c ****     *size = *size + 1U;
 4908              		.loc 1 1357 5 view .LVU1549
1358:Src/register_interface.c ****   }
 4909              		.loc 1 1358 5 view .LVU1550
1358:Src/register_interface.c ****   }
 4910              		.loc 1 1358 19 is_stmt 0 view .LVU1551
 4911 0014 1488     		ldrh	r4, [r2]
 4912 0016 0134     		adds	r4, r4, #1
 4913 0018 A4B2     		uxth	r4, r4
1358:Src/register_interface.c ****   }
 4914              		.loc 1 1358 11 view .LVU1552
 4915 001a 1480     		strh	r4, [r2]	@ movhi
1353:Src/register_interface.c ****   {
 4916              		.loc 1 1353 11 view .LVU1553
 4917 001c 10F9015F 		ldrsb	r5, [r0, #1]!
 4918              	.LVL614:
1353:Src/register_interface.c ****   {
 4919              		.loc 1 1353 9 view .LVU1554
 4920 0020 25B1     		cbz	r5, .L424
 4921              	.LVL615:
 4922              	.L437:
1353:Src/register_interface.c ****   {
 4923              		.loc 1 1353 40 view .LVU1555
 4924 0022 A342     		cmp	r3, r4
 4925 0024 F4D8     		bhi	.L438
1363:Src/register_interface.c ****   }
 4926              		.loc 1 1363 12 view .LVU1556
 4927 0026 0620     		movs	r0, #6
1368:Src/register_interface.c ****   }
1369:Src/register_interface.c ****   return (retVal);
1370:Src/register_interface.c **** }
 4928              		.loc 1 1370 1 view .LVU1557
 4929 0028 30BC     		pop	{r4, r5}
 4930              	.LCFI53:
 4931              		.cfi_remember_state
 4932              		.cfi_restore 5
 4933              		.cfi_restore 4
 4934              		.cfi_def_cfa_offset 0
 4935 002a 7047     		bx	lr
 4936              	.LVL616:
 4937              	.L424:
 4938              	.LCFI54:
 4939              		.cfi_restore_state
1361:Src/register_interface.c ****   { /* Last string char must be 0 */
 4940              		.loc 1 1361 3 is_stmt 1 view .LVU1558
1367:Src/register_interface.c ****   }
 4941              		.loc 1 1367 5 view .LVU1559
ARM GAS  /tmp/ccAfo4nU.s 			page 151


1367:Src/register_interface.c ****   }
 4942              		.loc 1 1367 21 is_stmt 0 view .LVU1560
 4943 002c 0020     		movs	r0, #0
 4944 002e 0870     		strb	r0, [r1]
1369:Src/register_interface.c **** }
 4945              		.loc 1 1369 3 is_stmt 1 view .LVU1561
 4946              		.loc 1 1370 1 is_stmt 0 view .LVU1562
 4947 0030 30BC     		pop	{r4, r5}
 4948              	.LCFI55:
 4949              		.cfi_restore 5
 4950              		.cfi_restore 4
 4951              		.cfi_def_cfa_offset 0
 4952 0032 7047     		bx	lr
 4953              		.cfi_endproc
 4954              	.LFE1470:
 4956              		.section	.text.RI_GetIDSize,"ax",%progbits
 4957              		.align	1
 4958              		.p2align 2,,3
 4959              		.global	RI_GetIDSize
 4960              		.syntax unified
 4961              		.thumb
 4962              		.thumb_func
 4963              		.fpu fpv4-sp-d16
 4965              	RI_GetIDSize:
 4966              	.LVL617:
 4967              	.LFB1471:
1371:Src/register_interface.c **** 
1372:Src/register_interface.c **** uint8_t RI_GetIDSize(uint16_t dataID)
1373:Src/register_interface.c **** {
 4968              		.loc 1 1373 1 is_stmt 1 view -0
 4969              		.cfi_startproc
 4970              		@ args = 0, pretend = 0, frame = 0
 4971              		@ frame_needed = 0, uses_anonymous_args = 0
 4972              		@ link register save eliminated.
1374:Src/register_interface.c ****   uint8_t typeID = ((uint8_t)dataID) & TYPE_MASK;
 4973              		.loc 1 1374 3 view .LVU1564
1375:Src/register_interface.c ****   uint8_t result;
 4974              		.loc 1 1375 3 view .LVU1565
1376:Src/register_interface.c **** 
1377:Src/register_interface.c ****   switch (typeID)
 4975              		.loc 1 1377 3 view .LVU1566
1374:Src/register_interface.c ****   uint8_t result;
 4976              		.loc 1 1374 11 is_stmt 0 view .LVU1567
 4977 0000 00F03800 		and	r0, r0, #56
 4978              	.LVL618:
1374:Src/register_interface.c ****   uint8_t result;
 4979              		.loc 1 1374 11 view .LVU1568
 4980 0004 0838     		subs	r0, r0, #8
 4981 0006 C0B2     		uxtb	r0, r0
 4982 0008 1028     		cmp	r0, #16
 4983 000a 9ABF     		itte	ls
 4984 000c 014B     		ldrls	r3, .L442
 4985 000e 185C     		ldrbls	r0, [r3, r0]	@ zero_extendqisi2
 4986 0010 0020     		movhi	r0, #0
 4987              	.LVL619:
1378:Src/register_interface.c ****   {
1379:Src/register_interface.c ****     case TYPE_DATA_8BIT:
ARM GAS  /tmp/ccAfo4nU.s 			page 152


1380:Src/register_interface.c ****     {
1381:Src/register_interface.c ****       result = 1;
1382:Src/register_interface.c ****       break;
1383:Src/register_interface.c ****     }
1384:Src/register_interface.c **** 
1385:Src/register_interface.c ****     case TYPE_DATA_16BIT:
1386:Src/register_interface.c ****     {
1387:Src/register_interface.c ****       result = 2;
1388:Src/register_interface.c ****       break;
1389:Src/register_interface.c ****     }
1390:Src/register_interface.c **** 
1391:Src/register_interface.c ****     case TYPE_DATA_32BIT:
1392:Src/register_interface.c ****     {
1393:Src/register_interface.c ****       result = 4;
1394:Src/register_interface.c ****       break;
1395:Src/register_interface.c ****     }
1396:Src/register_interface.c **** 
1397:Src/register_interface.c ****     default:
1398:Src/register_interface.c ****     {
1399:Src/register_interface.c ****       result=0;
1400:Src/register_interface.c ****       break;
1401:Src/register_interface.c ****     }
1402:Src/register_interface.c ****   }
1403:Src/register_interface.c **** 
1404:Src/register_interface.c ****   return (result);
 4988              		.loc 1 1404 3 is_stmt 1 view .LVU1569
1405:Src/register_interface.c **** }
 4989              		.loc 1 1405 1 is_stmt 0 view .LVU1570
 4990 0012 7047     		bx	lr
 4991              	.L443:
 4992              		.align	2
 4993              	.L442:
 4994 0014 00000000 		.word	.LANCHOR0
 4995              		.cfi_endproc
 4996              	.LFE1471:
 4998              		.section	.text.RI_GetPtrReg,"ax",%progbits
 4999              		.align	1
 5000              		.p2align 2,,3
 5001              		.weak	RI_GetPtrReg
 5002              		.syntax unified
 5003              		.thumb
 5004              		.thumb_func
 5005              		.fpu fpv4-sp-d16
 5007              	RI_GetPtrReg:
 5008              	.LVL620:
 5009              	.LFB1472:
1406:Src/register_interface.c **** 
1407:Src/register_interface.c **** __weak uint8_t RI_GetPtrReg(uint16_t dataID, void **dataPtr)
1408:Src/register_interface.c **** {
 5010              		.loc 1 1408 1 is_stmt 1 view -0
 5011              		.cfi_startproc
 5012              		@ args = 0, pretend = 0, frame = 0
 5013              		@ frame_needed = 0, uses_anonymous_args = 0
 5014              		@ link register save eliminated.
1409:Src/register_interface.c **** 
1410:Src/register_interface.c ****   uint8_t retVal = MCP_CMD_OK;
 5015              		.loc 1 1410 3 view .LVU1572
ARM GAS  /tmp/ccAfo4nU.s 			page 153


1411:Src/register_interface.c ****   static uint16_t nullData16=0;
 5016              		.loc 1 1411 3 view .LVU1573
1412:Src/register_interface.c **** 
1413:Src/register_interface.c **** #ifdef NULL_PTR_CHECK_REG_INT
1414:Src/register_interface.c ****   if (MC_NULL == dataPtr)
1415:Src/register_interface.c ****   {
1416:Src/register_interface.c ****     retVal = MCP_CMD_NOK;
1417:Src/register_interface.c ****   }
1418:Src/register_interface.c ****   else
1419:Src/register_interface.c ****   {
1420:Src/register_interface.c **** #endif
1421:Src/register_interface.c **** 
1422:Src/register_interface.c ****     MCI_Handle_t *pMCIN = &Mci[0];
 5017              		.loc 1 1422 5 view .LVU1574
1423:Src/register_interface.c ****     uint16_t regID = dataID & REG_MASK;
 5018              		.loc 1 1423 5 view .LVU1575
1424:Src/register_interface.c ****     uint8_t typeID = ((uint8_t)dataID) & TYPE_MASK;
 5019              		.loc 1 1424 5 view .LVU1576
1425:Src/register_interface.c **** 
1426:Src/register_interface.c ****     switch (typeID)
 5020              		.loc 1 1426 5 view .LVU1577
 5021 0000 00F03803 		and	r3, r0, #56
 5022 0004 102B     		cmp	r3, #16
 5023 0006 03D0     		beq	.L467
 5024              	.LVL621:
 5025              	.L445:
1427:Src/register_interface.c ****     {
1428:Src/register_interface.c ****       case TYPE_DATA_16BIT:
1429:Src/register_interface.c ****       {
1430:Src/register_interface.c ****         switch (regID)
1431:Src/register_interface.c ****         {
1432:Src/register_interface.c ****           case MC_REG_I_A:
1433:Src/register_interface.c ****           {
1434:Src/register_interface.c ****             *dataPtr = &(pMCIN->pFOCVars->Iab.a);
1435:Src/register_interface.c ****              break;
1436:Src/register_interface.c ****           }
1437:Src/register_interface.c **** 
1438:Src/register_interface.c ****           case MC_REG_I_B:
1439:Src/register_interface.c ****           {
1440:Src/register_interface.c ****             *dataPtr = &(pMCIN->pFOCVars->Iab.b);
1441:Src/register_interface.c ****             break;
1442:Src/register_interface.c ****           }
1443:Src/register_interface.c **** 
1444:Src/register_interface.c ****           case MC_REG_I_ALPHA_MEAS:
1445:Src/register_interface.c ****           {
1446:Src/register_interface.c ****             *dataPtr = &(pMCIN->pFOCVars->Ialphabeta.alpha);
1447:Src/register_interface.c ****             break;
1448:Src/register_interface.c ****           }
1449:Src/register_interface.c **** 
1450:Src/register_interface.c ****           case MC_REG_I_BETA_MEAS:
1451:Src/register_interface.c ****           {
1452:Src/register_interface.c ****             *dataPtr = &(pMCIN->pFOCVars->Ialphabeta.beta);
1453:Src/register_interface.c ****             break;
1454:Src/register_interface.c ****           }
1455:Src/register_interface.c **** 
1456:Src/register_interface.c ****           case MC_REG_I_Q_MEAS:
1457:Src/register_interface.c ****           {
ARM GAS  /tmp/ccAfo4nU.s 			page 154


1458:Src/register_interface.c ****             *dataPtr = &(pMCIN->pFOCVars->Iqd.q);
1459:Src/register_interface.c ****             break;
1460:Src/register_interface.c ****           }
1461:Src/register_interface.c **** 
1462:Src/register_interface.c ****           case MC_REG_I_D_MEAS:
1463:Src/register_interface.c ****           {
1464:Src/register_interface.c ****             *dataPtr = &(pMCIN->pFOCVars->Iqd.d);
1465:Src/register_interface.c ****             break;
1466:Src/register_interface.c ****           }
1467:Src/register_interface.c **** 
1468:Src/register_interface.c ****           case MC_REG_I_Q_REF:
1469:Src/register_interface.c ****           {
1470:Src/register_interface.c ****             *dataPtr = &(pMCIN->pFOCVars->Iqdref.q);
1471:Src/register_interface.c ****             break;
1472:Src/register_interface.c ****           }
1473:Src/register_interface.c **** 
1474:Src/register_interface.c ****           case MC_REG_I_D_REF:
1475:Src/register_interface.c ****           {
1476:Src/register_interface.c ****             *dataPtr = &(pMCIN->pFOCVars->Iqdref.d);
1477:Src/register_interface.c ****             break;
1478:Src/register_interface.c ****           }
1479:Src/register_interface.c **** 
1480:Src/register_interface.c ****           case MC_REG_V_Q:
1481:Src/register_interface.c ****           {
1482:Src/register_interface.c ****             *dataPtr = &(pMCIN->pFOCVars->Vqd.q);
1483:Src/register_interface.c ****             break;
1484:Src/register_interface.c ****           }
1485:Src/register_interface.c **** 
1486:Src/register_interface.c ****           case MC_REG_V_D:
1487:Src/register_interface.c ****           {
1488:Src/register_interface.c ****             *dataPtr = &(pMCIN->pFOCVars->Vqd.d);
1489:Src/register_interface.c ****             break;
1490:Src/register_interface.c ****           }
1491:Src/register_interface.c **** 
1492:Src/register_interface.c ****           case MC_REG_V_ALPHA:
1493:Src/register_interface.c ****           {
1494:Src/register_interface.c ****             *dataPtr = &(pMCIN->pFOCVars->Valphabeta.alpha);
1495:Src/register_interface.c ****             break;
1496:Src/register_interface.c ****           }
1497:Src/register_interface.c **** 
1498:Src/register_interface.c ****           case MC_REG_V_BETA:
1499:Src/register_interface.c ****           {
1500:Src/register_interface.c ****             *dataPtr = &(pMCIN->pFOCVars->Valphabeta.beta);
1501:Src/register_interface.c ****             break;
1502:Src/register_interface.c ****           }
1503:Src/register_interface.c **** 
1504:Src/register_interface.c ****           case MC_REG_STOPLL_ROT_SPEED:
1505:Src/register_interface.c ****           {
1506:Src/register_interface.c ****             *dataPtr = &((&STO_PLL_M1)->_Super.hAvrMecSpeedUnit);
1507:Src/register_interface.c ****             break;
1508:Src/register_interface.c ****           }
1509:Src/register_interface.c **** 
1510:Src/register_interface.c ****           case MC_REG_STOPLL_EL_ANGLE:
1511:Src/register_interface.c ****           {
1512:Src/register_interface.c ****             *dataPtr = &((&STO_PLL_M1)->_Super.hElAngle);
1513:Src/register_interface.c ****             break;
1514:Src/register_interface.c ****           }
ARM GAS  /tmp/ccAfo4nU.s 			page 155


1515:Src/register_interface.c **** 
1516:Src/register_interface.c **** #ifdef NOT_IMPLEMENTED /* Not yet implemented */
1517:Src/register_interface.c ****           case MC_REG_STOPLL_I_ALPHA:
1518:Src/register_interface.c ****           case MC_REG_STOPLL_I_BETA:
1519:Src/register_interface.c ****             break;
1520:Src/register_interface.c **** #endif
1521:Src/register_interface.c **** 
1522:Src/register_interface.c ****           case MC_REG_STOPLL_BEMF_ALPHA:
1523:Src/register_interface.c ****           {
1524:Src/register_interface.c ****             *dataPtr = &((&STO_PLL_M1)->hBemf_alfa_est);
1525:Src/register_interface.c ****             break;
1526:Src/register_interface.c ****           }
1527:Src/register_interface.c **** 
1528:Src/register_interface.c ****           case MC_REG_STOPLL_BEMF_BETA:
1529:Src/register_interface.c ****           {
1530:Src/register_interface.c ****             *dataPtr = &((&STO_PLL_M1)->hBemf_beta_est);
1531:Src/register_interface.c ****             break;
1532:Src/register_interface.c ****           }
1533:Src/register_interface.c **** 
1534:Src/register_interface.c ****           default:
1535:Src/register_interface.c ****           {
1536:Src/register_interface.c ****             *dataPtr = &nullData16;
 5026              		.loc 1 1536 13 view .LVU1578
 5027              		.loc 1 1536 22 is_stmt 0 view .LVU1579
 5028 0008 484B     		ldr	r3, .L471
 5029 000a 0B60     		str	r3, [r1]
1537:Src/register_interface.c ****             retVal = MCP_ERROR_UNKNOWN_REG;
 5030              		.loc 1 1537 13 is_stmt 1 view .LVU1580
 5031              	.LVL622:
1538:Src/register_interface.c ****             break;
 5032              		.loc 1 1538 13 view .LVU1581
1537:Src/register_interface.c ****             retVal = MCP_ERROR_UNKNOWN_REG;
 5033              		.loc 1 1537 20 is_stmt 0 view .LVU1582
 5034 000c 0520     		movs	r0, #5
 5035              	.LVL623:
1539:Src/register_interface.c ****           }
1540:Src/register_interface.c ****         }
1541:Src/register_interface.c ****         break;
1542:Src/register_interface.c ****       }
1543:Src/register_interface.c **** 
1544:Src/register_interface.c ****       default:
1545:Src/register_interface.c ****       {
1546:Src/register_interface.c ****         *dataPtr = &nullData16;
1547:Src/register_interface.c ****         retVal = MCP_ERROR_UNKNOWN_REG;
1548:Src/register_interface.c ****         break;
1549:Src/register_interface.c ****       }
1550:Src/register_interface.c ****     }
1551:Src/register_interface.c **** #ifdef NULL_PTR_CHECK_REG_INT
1552:Src/register_interface.c ****   }
1553:Src/register_interface.c **** #endif
1554:Src/register_interface.c ****   return (retVal);
 5036              		.loc 1 1554 3 is_stmt 1 view .LVU1583
1555:Src/register_interface.c **** }
 5037              		.loc 1 1555 1 is_stmt 0 view .LVU1584
 5038 000e 7047     		bx	lr
 5039              	.LVL624:
 5040              	.L467:
ARM GAS  /tmp/ccAfo4nU.s 			page 156


1430:Src/register_interface.c ****         {
 5041              		.loc 1 1430 9 is_stmt 1 view .LVU1585
1423:Src/register_interface.c ****     uint8_t typeID = ((uint8_t)dataID) & TYPE_MASK;
 5042              		.loc 1 1423 14 is_stmt 0 view .LVU1586
 5043 0010 20F00700 		bic	r0, r0, #7
 5044              	.LVL625:
1423:Src/register_interface.c ****     uint8_t typeID = ((uint8_t)dataID) & TYPE_MASK;
 5045              		.loc 1 1423 14 view .LVU1587
 5046 0014 80B2     		uxth	r0, r0
 5047 0016 B0F5196F 		cmp	r0, #2448
 5048 001a 49D0     		beq	.L446
 5049 001c 11D9     		bls	.L468
 5050 001e B0F5296F 		cmp	r0, #2704
 5051 0022 4BD0     		beq	.L456
 5052 0024 26D9     		bls	.L469
 5053 0026 B0F5396F 		cmp	r0, #2960
 5054 002a 4DD0     		beq	.L461
 5055 002c 1BD9     		bls	.L470
 5056 002e B0F5456F 		cmp	r0, #3152
 5057 0032 65D0     		beq	.L464
 5058 0034 B0F5496F 		cmp	r0, #3216
 5059 0038 E6D1     		bne	.L445
1530:Src/register_interface.c ****             break;
 5060              		.loc 1 1530 13 is_stmt 1 view .LVU1588
1530:Src/register_interface.c ****             break;
 5061              		.loc 1 1530 22 is_stmt 0 view .LVU1589
 5062 003a 3D4B     		ldr	r3, .L471+4
 5063 003c 0B60     		str	r3, [r1]
1531:Src/register_interface.c ****           }
 5064              		.loc 1 1531 13 is_stmt 1 view .LVU1590
1410:Src/register_interface.c ****   static uint16_t nullData16=0;
 5065              		.loc 1 1410 11 is_stmt 0 view .LVU1591
 5066 003e 0020     		movs	r0, #0
1531:Src/register_interface.c ****           }
 5067              		.loc 1 1531 13 view .LVU1592
 5068 0040 7047     		bx	lr
 5069              	.L468:
1531:Src/register_interface.c ****           }
 5070              		.loc 1 1531 13 view .LVU1593
 5071 0042 B0F5096F 		cmp	r0, #2192
 5072 0046 43D0     		beq	.L448
 5073 0048 23D8     		bhi	.L449
 5074 004a B0F5016F 		cmp	r0, #2064
 5075 004e 45D0     		beq	.L450
 5076 0050 B0F5056F 		cmp	r0, #2128
 5077 0054 5ED0     		beq	.L451
 5078 0056 B0F5FA6F 		cmp	r0, #2000
 5079 005a D5D1     		bne	.L445
1434:Src/register_interface.c ****              break;
 5080              		.loc 1 1434 13 is_stmt 1 view .LVU1594
1434:Src/register_interface.c ****              break;
 5081              		.loc 1 1434 31 is_stmt 0 view .LVU1595
 5082 005c 354B     		ldr	r3, .L471+8
1434:Src/register_interface.c ****              break;
 5083              		.loc 1 1434 22 view .LVU1596
 5084 005e 5B68     		ldr	r3, [r3, #4]
 5085 0060 0B60     		str	r3, [r1]
ARM GAS  /tmp/ccAfo4nU.s 			page 157


1435:Src/register_interface.c ****           }
 5086              		.loc 1 1435 14 is_stmt 1 view .LVU1597
1410:Src/register_interface.c ****   static uint16_t nullData16=0;
 5087              		.loc 1 1410 11 is_stmt 0 view .LVU1598
 5088 0062 0020     		movs	r0, #0
1435:Src/register_interface.c ****           }
 5089              		.loc 1 1435 14 view .LVU1599
 5090 0064 7047     		bx	lr
 5091              	.L470:
1435:Src/register_interface.c ****           }
 5092              		.loc 1 1435 14 view .LVU1600
 5093 0066 B0F5356F 		cmp	r0, #2896
 5094 006a CDD1     		bne	.L445
1512:Src/register_interface.c ****             break;
 5095              		.loc 1 1512 13 is_stmt 1 view .LVU1601
1512:Src/register_interface.c ****             break;
 5096              		.loc 1 1512 22 is_stmt 0 view .LVU1602
 5097 006c 324B     		ldr	r3, .L471+12
 5098 006e 0B60     		str	r3, [r1]
1513:Src/register_interface.c ****           }
 5099              		.loc 1 1513 13 is_stmt 1 view .LVU1603
1410:Src/register_interface.c ****   static uint16_t nullData16=0;
 5100              		.loc 1 1410 11 is_stmt 0 view .LVU1604
 5101 0070 0020     		movs	r0, #0
1513:Src/register_interface.c ****           }
 5102              		.loc 1 1513 13 view .LVU1605
 5103 0072 7047     		bx	lr
 5104              	.L469:
1513:Src/register_interface.c ****           }
 5105              		.loc 1 1513 13 view .LVU1606
 5106 0074 B0F5216F 		cmp	r0, #2576
 5107 0078 36D0     		beq	.L458
 5108 007a B0F5256F 		cmp	r0, #2640
 5109 007e 4FD0     		beq	.L459
 5110 0080 B0F51D6F 		cmp	r0, #2512
 5111 0084 C0D1     		bne	.L445
1482:Src/register_interface.c ****             break;
 5112              		.loc 1 1482 13 is_stmt 1 view .LVU1607
1482:Src/register_interface.c ****             break;
 5113              		.loc 1 1482 31 is_stmt 0 view .LVU1608
 5114 0086 2B4B     		ldr	r3, .L471+8
1482:Src/register_interface.c ****             break;
 5115              		.loc 1 1482 24 view .LVU1609
 5116 0088 5B68     		ldr	r3, [r3, #4]
 5117 008a 1633     		adds	r3, r3, #22
1482:Src/register_interface.c ****             break;
 5118              		.loc 1 1482 22 view .LVU1610
 5119 008c 0B60     		str	r3, [r1]
1483:Src/register_interface.c ****           }
 5120              		.loc 1 1483 13 is_stmt 1 view .LVU1611
1410:Src/register_interface.c ****   static uint16_t nullData16=0;
 5121              		.loc 1 1410 11 is_stmt 0 view .LVU1612
 5122 008e 0020     		movs	r0, #0
1483:Src/register_interface.c ****           }
 5123              		.loc 1 1483 13 view .LVU1613
 5124 0090 7047     		bx	lr
 5125              	.L449:
ARM GAS  /tmp/ccAfo4nU.s 			page 158


1483:Src/register_interface.c ****           }
 5126              		.loc 1 1483 13 view .LVU1614
 5127 0092 B0F5116F 		cmp	r0, #2320
 5128 0096 2DD0     		beq	.L453
 5129 0098 B0F5156F 		cmp	r0, #2384
 5130 009c 34D0     		beq	.L454
 5131 009e B0F50D6F 		cmp	r0, #2256
 5132 00a2 B1D1     		bne	.L445
1458:Src/register_interface.c ****             break;
 5133              		.loc 1 1458 13 is_stmt 1 view .LVU1615
1458:Src/register_interface.c ****             break;
 5134              		.loc 1 1458 31 is_stmt 0 view .LVU1616
 5135 00a4 234B     		ldr	r3, .L471+8
1458:Src/register_interface.c ****             break;
 5136              		.loc 1 1458 24 view .LVU1617
 5137 00a6 5B68     		ldr	r3, [r3, #4]
 5138 00a8 0C33     		adds	r3, r3, #12
1458:Src/register_interface.c ****             break;
 5139              		.loc 1 1458 22 view .LVU1618
 5140 00aa 0B60     		str	r3, [r1]
1459:Src/register_interface.c ****           }
 5141              		.loc 1 1459 13 is_stmt 1 view .LVU1619
1410:Src/register_interface.c ****   static uint16_t nullData16=0;
 5142              		.loc 1 1410 11 is_stmt 0 view .LVU1620
 5143 00ac 0020     		movs	r0, #0
1459:Src/register_interface.c ****           }
 5144              		.loc 1 1459 13 view .LVU1621
 5145 00ae 7047     		bx	lr
 5146              	.L446:
1476:Src/register_interface.c ****             break;
 5147              		.loc 1 1476 13 is_stmt 1 view .LVU1622
1476:Src/register_interface.c ****             break;
 5148              		.loc 1 1476 31 is_stmt 0 view .LVU1623
 5149 00b0 204B     		ldr	r3, .L471+8
1476:Src/register_interface.c ****             break;
 5150              		.loc 1 1476 24 view .LVU1624
 5151 00b2 5B68     		ldr	r3, [r3, #4]
 5152 00b4 1233     		adds	r3, r3, #18
1476:Src/register_interface.c ****             break;
 5153              		.loc 1 1476 22 view .LVU1625
 5154 00b6 0B60     		str	r3, [r1]
1477:Src/register_interface.c ****           }
 5155              		.loc 1 1477 13 is_stmt 1 view .LVU1626
1410:Src/register_interface.c ****   static uint16_t nullData16=0;
 5156              		.loc 1 1410 11 is_stmt 0 view .LVU1627
 5157 00b8 0020     		movs	r0, #0
1477:Src/register_interface.c ****           }
 5158              		.loc 1 1477 13 view .LVU1628
 5159 00ba 7047     		bx	lr
 5160              	.L456:
1500:Src/register_interface.c ****             break;
 5161              		.loc 1 1500 13 is_stmt 1 view .LVU1629
1500:Src/register_interface.c ****             break;
 5162              		.loc 1 1500 31 is_stmt 0 view .LVU1630
 5163 00bc 1D4B     		ldr	r3, .L471+8
1500:Src/register_interface.c ****             break;
 5164              		.loc 1 1500 24 view .LVU1631
ARM GAS  /tmp/ccAfo4nU.s 			page 159


 5165 00be 5B68     		ldr	r3, [r3, #4]
 5166 00c0 1C33     		adds	r3, r3, #28
1500:Src/register_interface.c ****             break;
 5167              		.loc 1 1500 22 view .LVU1632
 5168 00c2 0B60     		str	r3, [r1]
1501:Src/register_interface.c ****           }
 5169              		.loc 1 1501 13 is_stmt 1 view .LVU1633
1410:Src/register_interface.c ****   static uint16_t nullData16=0;
 5170              		.loc 1 1410 11 is_stmt 0 view .LVU1634
 5171 00c4 0020     		movs	r0, #0
1501:Src/register_interface.c ****           }
 5172              		.loc 1 1501 13 view .LVU1635
 5173 00c6 7047     		bx	lr
 5174              	.L461:
1506:Src/register_interface.c ****             break;
 5175              		.loc 1 1506 13 is_stmt 1 view .LVU1636
1506:Src/register_interface.c ****             break;
 5176              		.loc 1 1506 22 is_stmt 0 view .LVU1637
 5177 00c8 1C4B     		ldr	r3, .L471+16
 5178 00ca 0B60     		str	r3, [r1]
1507:Src/register_interface.c ****           }
 5179              		.loc 1 1507 13 is_stmt 1 view .LVU1638
1410:Src/register_interface.c ****   static uint16_t nullData16=0;
 5180              		.loc 1 1410 11 is_stmt 0 view .LVU1639
 5181 00cc 0020     		movs	r0, #0
1507:Src/register_interface.c ****           }
 5182              		.loc 1 1507 13 view .LVU1640
 5183 00ce 7047     		bx	lr
 5184              	.L448:
1452:Src/register_interface.c ****             break;
 5185              		.loc 1 1452 13 is_stmt 1 view .LVU1641
1452:Src/register_interface.c ****             break;
 5186              		.loc 1 1452 31 is_stmt 0 view .LVU1642
 5187 00d0 184B     		ldr	r3, .L471+8
1452:Src/register_interface.c ****             break;
 5188              		.loc 1 1452 24 view .LVU1643
 5189 00d2 5B68     		ldr	r3, [r3, #4]
 5190 00d4 0633     		adds	r3, r3, #6
1452:Src/register_interface.c ****             break;
 5191              		.loc 1 1452 22 view .LVU1644
 5192 00d6 0B60     		str	r3, [r1]
1453:Src/register_interface.c ****           }
 5193              		.loc 1 1453 13 is_stmt 1 view .LVU1645
1410:Src/register_interface.c ****   static uint16_t nullData16=0;
 5194              		.loc 1 1410 11 is_stmt 0 view .LVU1646
 5195 00d8 0020     		movs	r0, #0
1453:Src/register_interface.c ****           }
 5196              		.loc 1 1453 13 view .LVU1647
 5197 00da 7047     		bx	lr
 5198              	.L450:
1440:Src/register_interface.c ****             break;
 5199              		.loc 1 1440 13 is_stmt 1 view .LVU1648
1440:Src/register_interface.c ****             break;
 5200              		.loc 1 1440 31 is_stmt 0 view .LVU1649
 5201 00dc 154B     		ldr	r3, .L471+8
1440:Src/register_interface.c ****             break;
 5202              		.loc 1 1440 24 view .LVU1650
ARM GAS  /tmp/ccAfo4nU.s 			page 160


 5203 00de 5B68     		ldr	r3, [r3, #4]
 5204 00e0 0233     		adds	r3, r3, #2
1440:Src/register_interface.c ****             break;
 5205              		.loc 1 1440 22 view .LVU1651
 5206 00e2 0B60     		str	r3, [r1]
1441:Src/register_interface.c ****           }
 5207              		.loc 1 1441 13 is_stmt 1 view .LVU1652
1410:Src/register_interface.c ****   static uint16_t nullData16=0;
 5208              		.loc 1 1410 11 is_stmt 0 view .LVU1653
 5209 00e4 0020     		movs	r0, #0
1441:Src/register_interface.c ****           }
 5210              		.loc 1 1441 13 view .LVU1654
 5211 00e6 7047     		bx	lr
 5212              	.L458:
1488:Src/register_interface.c ****             break;
 5213              		.loc 1 1488 13 is_stmt 1 view .LVU1655
1488:Src/register_interface.c ****             break;
 5214              		.loc 1 1488 31 is_stmt 0 view .LVU1656
 5215 00e8 124B     		ldr	r3, .L471+8
1488:Src/register_interface.c ****             break;
 5216              		.loc 1 1488 24 view .LVU1657
 5217 00ea 5B68     		ldr	r3, [r3, #4]
 5218 00ec 1833     		adds	r3, r3, #24
1488:Src/register_interface.c ****             break;
 5219              		.loc 1 1488 22 view .LVU1658
 5220 00ee 0B60     		str	r3, [r1]
1489:Src/register_interface.c ****           }
 5221              		.loc 1 1489 13 is_stmt 1 view .LVU1659
1410:Src/register_interface.c ****   static uint16_t nullData16=0;
 5222              		.loc 1 1410 11 is_stmt 0 view .LVU1660
 5223 00f0 0020     		movs	r0, #0
1489:Src/register_interface.c ****           }
 5224              		.loc 1 1489 13 view .LVU1661
 5225 00f2 7047     		bx	lr
 5226              	.L453:
1464:Src/register_interface.c ****             break;
 5227              		.loc 1 1464 13 is_stmt 1 view .LVU1662
1464:Src/register_interface.c ****             break;
 5228              		.loc 1 1464 31 is_stmt 0 view .LVU1663
 5229 00f4 0F4B     		ldr	r3, .L471+8
1464:Src/register_interface.c ****             break;
 5230              		.loc 1 1464 24 view .LVU1664
 5231 00f6 5B68     		ldr	r3, [r3, #4]
 5232 00f8 0E33     		adds	r3, r3, #14
1464:Src/register_interface.c ****             break;
 5233              		.loc 1 1464 22 view .LVU1665
 5234 00fa 0B60     		str	r3, [r1]
1465:Src/register_interface.c ****           }
 5235              		.loc 1 1465 13 is_stmt 1 view .LVU1666
1410:Src/register_interface.c ****   static uint16_t nullData16=0;
 5236              		.loc 1 1410 11 is_stmt 0 view .LVU1667
 5237 00fc 0020     		movs	r0, #0
1465:Src/register_interface.c ****           }
 5238              		.loc 1 1465 13 view .LVU1668
 5239 00fe 7047     		bx	lr
 5240              	.L464:
1524:Src/register_interface.c ****             break;
ARM GAS  /tmp/ccAfo4nU.s 			page 161


 5241              		.loc 1 1524 13 is_stmt 1 view .LVU1669
1524:Src/register_interface.c ****             break;
 5242              		.loc 1 1524 22 is_stmt 0 view .LVU1670
 5243 0100 0F4B     		ldr	r3, .L471+20
 5244 0102 0B60     		str	r3, [r1]
1525:Src/register_interface.c ****           }
 5245              		.loc 1 1525 13 is_stmt 1 view .LVU1671
1410:Src/register_interface.c ****   static uint16_t nullData16=0;
 5246              		.loc 1 1410 11 is_stmt 0 view .LVU1672
 5247 0104 0020     		movs	r0, #0
1525:Src/register_interface.c ****           }
 5248              		.loc 1 1525 13 view .LVU1673
 5249 0106 7047     		bx	lr
 5250              	.L454:
1470:Src/register_interface.c ****             break;
 5251              		.loc 1 1470 13 is_stmt 1 view .LVU1674
1470:Src/register_interface.c ****             break;
 5252              		.loc 1 1470 31 is_stmt 0 view .LVU1675
 5253 0108 0A4B     		ldr	r3, .L471+8
1470:Src/register_interface.c ****             break;
 5254              		.loc 1 1470 24 view .LVU1676
 5255 010a 5B68     		ldr	r3, [r3, #4]
 5256 010c 1033     		adds	r3, r3, #16
1470:Src/register_interface.c ****             break;
 5257              		.loc 1 1470 22 view .LVU1677
 5258 010e 0B60     		str	r3, [r1]
1471:Src/register_interface.c ****           }
 5259              		.loc 1 1471 13 is_stmt 1 view .LVU1678
1410:Src/register_interface.c ****   static uint16_t nullData16=0;
 5260              		.loc 1 1410 11 is_stmt 0 view .LVU1679
 5261 0110 0020     		movs	r0, #0
1471:Src/register_interface.c ****           }
 5262              		.loc 1 1471 13 view .LVU1680
 5263 0112 7047     		bx	lr
 5264              	.L451:
1446:Src/register_interface.c ****             break;
 5265              		.loc 1 1446 13 is_stmt 1 view .LVU1681
1446:Src/register_interface.c ****             break;
 5266              		.loc 1 1446 31 is_stmt 0 view .LVU1682
 5267 0114 074B     		ldr	r3, .L471+8
1446:Src/register_interface.c ****             break;
 5268              		.loc 1 1446 24 view .LVU1683
 5269 0116 5B68     		ldr	r3, [r3, #4]
 5270 0118 0433     		adds	r3, r3, #4
1446:Src/register_interface.c ****             break;
 5271              		.loc 1 1446 22 view .LVU1684
 5272 011a 0B60     		str	r3, [r1]
1447:Src/register_interface.c ****           }
 5273              		.loc 1 1447 13 is_stmt 1 view .LVU1685
1410:Src/register_interface.c ****   static uint16_t nullData16=0;
 5274              		.loc 1 1410 11 is_stmt 0 view .LVU1686
 5275 011c 0020     		movs	r0, #0
1447:Src/register_interface.c ****           }
 5276              		.loc 1 1447 13 view .LVU1687
 5277 011e 7047     		bx	lr
 5278              	.L459:
1494:Src/register_interface.c ****             break;
ARM GAS  /tmp/ccAfo4nU.s 			page 162


 5279              		.loc 1 1494 13 is_stmt 1 view .LVU1688
1494:Src/register_interface.c ****             break;
 5280              		.loc 1 1494 31 is_stmt 0 view .LVU1689
 5281 0120 044B     		ldr	r3, .L471+8
1494:Src/register_interface.c ****             break;
 5282              		.loc 1 1494 24 view .LVU1690
 5283 0122 5B68     		ldr	r3, [r3, #4]
 5284 0124 1A33     		adds	r3, r3, #26
1494:Src/register_interface.c ****             break;
 5285              		.loc 1 1494 22 view .LVU1691
 5286 0126 0B60     		str	r3, [r1]
1495:Src/register_interface.c ****           }
 5287              		.loc 1 1495 13 is_stmt 1 view .LVU1692
1410:Src/register_interface.c ****   static uint16_t nullData16=0;
 5288              		.loc 1 1410 11 is_stmt 0 view .LVU1693
 5289 0128 0020     		movs	r0, #0
1495:Src/register_interface.c ****           }
 5290              		.loc 1 1495 13 view .LVU1694
 5291 012a 7047     		bx	lr
 5292              	.L472:
 5293              		.align	2
 5294              	.L471:
 5295 012c 00000000 		.word	.LANCHOR1
 5296 0130 72000000 		.word	STO_PLL_M1+114
 5297 0134 00000000 		.word	Mci
 5298 0138 04000000 		.word	STO_PLL_M1+4
 5299 013c 0C000000 		.word	STO_PLL_M1+12
 5300 0140 70000000 		.word	STO_PLL_M1+112
 5301              		.cfi_endproc
 5302              	.LFE1472:
 5304              		.section	.bss.nullData16.16203,"aw",%nobits
 5305              		.align	1
 5306              		.set	.LANCHOR1,. + 0
 5309              	nullData16.16203:
 5310 0000 0000     		.space	2
 5311              		.section	.rodata.CSWTCH.41,"a"
 5312              		.align	2
 5313              		.set	.LANCHOR0,. + 0
 5316              	CSWTCH.41:
 5317 0000 01       		.byte	1
 5318 0001 00       		.byte	0
 5319 0002 00       		.byte	0
 5320 0003 00       		.byte	0
 5321 0004 00       		.byte	0
 5322 0005 00       		.byte	0
 5323 0006 00       		.byte	0
 5324 0007 00       		.byte	0
 5325 0008 02       		.byte	2
 5326 0009 00       		.byte	0
 5327 000a 00       		.byte	0
 5328 000b 00       		.byte	0
 5329 000c 00       		.byte	0
 5330 000d 00       		.byte	0
 5331 000e 00       		.byte	0
 5332 000f 00       		.byte	0
 5333 0010 04       		.byte	4
 5334              		.text
ARM GAS  /tmp/ccAfo4nU.s 			page 163


 5335              	.Letext0:
 5336              		.file 5 "/usr/lib/gcc/arm-none-eabi/8.3.1/include/stdint.h"
 5337              		.file 6 "Drivers/CMSIS/Include/core_cm4.h"
 5338              		.file 7 "Drivers/CMSIS/Device/ST/STM32G4xx/Include/system_stm32g4xx.h"
 5339              		.file 8 "Drivers/CMSIS/Device/ST/STM32G4xx/Include/stm32g431xx.h"
 5340              		.file 9 "Drivers/STM32G4xx_HAL_Driver/Inc/stm32g4xx_hal_def.h"
 5341              		.file 10 "Drivers/STM32G4xx_HAL_Driver/Inc/stm32g4xx_hal_flash.h"
 5342              		.file 11 "Drivers/STM32G4xx_HAL_Driver/Inc/stm32g4xx_hal_uart.h"
 5343              		.file 12 "Drivers/STM32G4xx_HAL_Driver/Inc/stm32g4xx_hal.h"
 5344              		.file 13 "Drivers/STM32G4xx_HAL_Driver/Inc/stm32g4xx_ll_tim.h"
 5345              		.file 14 "Drivers/STM32G4xx_HAL_Driver/Inc/stm32g4xx_ll_usart.h"
 5346              		.file 15 "Drivers/STM32G4xx_HAL_Driver/Inc/stm32g4xx_ll_dma.h"
 5347              		.file 16 "Inc/mc_type.h"
 5348              		.file 17 "/usr/lib/gcc/arm-none-eabi/8.3.1/include/stddef.h"
 5349              		.file 18 "/usr/include/newlib/sys/_types.h"
 5350              		.file 19 "/usr/include/newlib/sys/reent.h"
 5351              		.file 20 "/usr/include/newlib/sys/lock.h"
 5352              		.file 21 "MCSDK_v6.3.0-Full/MotorControl/MCSDK/MCLib/Any/Inc/mcptl.h"
 5353              		.file 22 "MCSDK_v6.3.0-Full/MotorControl/MCSDK/MCLib/Any/Inc/mcp.h"
 5354              		.file 23 "Inc/pwm_curr_fdbk.h"
 5355              		.file 24 "MCSDK_v6.3.0-Full/MotorControl/MCSDK/MCLib/Any/Inc/pid_regulator.h"
 5356              		.file 25 "MCSDK_v6.3.0-Full/MotorControl/MCSDK/MCLib/Any/Inc/speed_torq_ctrl.h"
 5357              		.file 26 "Inc/mc_interface.h"
 5358              		.file 27 "MCSDK_v6.3.0-Full/MotorControl/MCSDK/MCLib/Any/Inc/esc.h"
 5359              		.file 28 "MCSDK_v6.3.0-Full/MotorControl/MCSDK/MCLib/G4xx/Inc/r3_2_g4xx_pwm_curr_fdbk.h"
 5360              		.file 29 "Inc/mc_parameters.h"
 5361              		.file 30 "MCSDK_v6.3.0-Full/MotorControl/MCSDK/MCLib/Any/Inc/virtual_speed_sensor.h"
 5362              		.file 31 "MCSDK_v6.3.0-Full/MotorControl/MCSDK/MCLib/Any/Inc/sto_speed_pos_fdbk.h"
 5363              		.file 32 "MCSDK_v6.3.0-Full/MotorControl/MCSDK/MCLib/Any/Inc/ntc_temperature_sensor.h"
 5364              		.file 33 "Inc/mc_configuration_registers.h"
 5365              		.file 34 "Inc/regular_conversion_manager.h"
 5366              		.file 35 "MCSDK_v6.3.0-Full/MotorControl/MCSDK/MCLib/Any/Inc/bus_voltage_sensor.h"
 5367              		.file 36 "MCSDK_v6.3.0-Full/MotorControl/MCSDK/MCLib/Any/Inc/r_divider_bus_voltage_sensor.h"
 5368              		.file 37 "Inc/mc_config_common.h"
 5369              		.file 38 "MCSDK_v6.3.0-Full/MotorControl/MCSDK/MCLib/Any/Inc/pqd_motor_power_measurement.h"
 5370              		.file 39 "MCSDK_v6.3.0-Full/MotorControl/MCSDK/MCLib/Any/Inc/ramp_ext_mngr.h"
 5371              		.file 40 "MCSDK_v6.3.0-Full/MotorControl/MCSDK/MCLib/Any/Inc/circle_limitation.h"
 5372              		.file 41 "Inc/mc_config.h"
 5373              		.file 42 "Inc/aspep.h"
 5374              		.file 43 "MCSDK_v6.3.0-Full/MotorControl/MCSDK/MCLib/Any/Inc/mcpa.h"
 5375              		.file 44 "Inc/mcp_config.h"
ARM GAS  /tmp/ccAfo4nU.s 			page 164


DEFINED SYMBOLS
                            *ABS*:0000000000000000 register_interface.c
     /tmp/ccAfo4nU.s:18     .text.RI_SetRegisterGlobal:0000000000000000 $t
     /tmp/ccAfo4nU.s:27     .text.RI_SetRegisterGlobal:0000000000000000 RI_SetRegisterGlobal
     /tmp/ccAfo4nU.s:54     .text.RI_SetRegisterGlobal:0000000000000010 $d
     /tmp/ccAfo4nU.s:424    .text.RI_SetRegisterMotor1:0000000000000000 $t
     /tmp/ccAfo4nU.s:432    .text.RI_SetRegisterMotor1:0000000000000000 RI_SetRegisterMotor1
     /tmp/ccAfo4nU.s:466    .text.RI_SetRegisterMotor1:0000000000000016 $d
     /tmp/ccAfo4nU.s:1176   .text.RI_SetRegisterMotor1:000000000000034c $d
     /tmp/ccAfo4nU.s:1186   .text.RI_SetRegisterMotor1:0000000000000368 $t
     /tmp/ccAfo4nU.s:2043   .text.RI_SetRegisterMotor1:0000000000000638 $d
     /tmp/ccAfo4nU.s:2053   .text.RI_SetRegisterMotor1:0000000000000654 $t
     /tmp/ccAfo4nU.s:2109   .text.RI_SetRegisterMotor1:0000000000000684 $d
     /tmp/ccAfo4nU.s:2116   .text.RI_GetRegisterGlobal:0000000000000000 $t
     /tmp/ccAfo4nU.s:2124   .text.RI_GetRegisterGlobal:0000000000000000 RI_GetRegisterGlobal
     /tmp/ccAfo4nU.s:2149   .text.RI_GetRegisterGlobal:0000000000000012 $d
     /tmp/ccAfo4nU.s:2570   .text.RI_GetRegisterGlobal:0000000000000128 $d
     /tmp/ccAfo4nU.s:2577   .text.RI_GetRegisterMotor1:0000000000000000 $t
     /tmp/ccAfo4nU.s:2585   .text.RI_GetRegisterMotor1:0000000000000000 RI_GetRegisterMotor1
     /tmp/ccAfo4nU.s:2622   .text.RI_GetRegisterMotor1:000000000000001a $d
     /tmp/ccAfo4nU.s:3426   .text.RI_GetRegisterMotor1:0000000000000384 $d
     /tmp/ccAfo4nU.s:3436   .text.RI_GetRegisterMotor1:00000000000003a0 $t
     /tmp/ccAfo4nU.s:4403   .text.RI_GetRegisterMotor1:0000000000000680 $d
     /tmp/ccAfo4nU.s:4418   .text.RI_GetRegisterMotor1:00000000000006ac $t
     /tmp/ccAfo4nU.s:4848   .text.RI_GetRegisterMotor1:00000000000007e8 $d
     /tmp/ccAfo4nU.s:4862   .text.RI_MovString:0000000000000000 $t
     /tmp/ccAfo4nU.s:4870   .text.RI_MovString:0000000000000000 RI_MovString
     /tmp/ccAfo4nU.s:4957   .text.RI_GetIDSize:0000000000000000 $t
     /tmp/ccAfo4nU.s:4965   .text.RI_GetIDSize:0000000000000000 RI_GetIDSize
     /tmp/ccAfo4nU.s:4994   .text.RI_GetIDSize:0000000000000014 $d
     /tmp/ccAfo4nU.s:4999   .text.RI_GetPtrReg:0000000000000000 $t
     /tmp/ccAfo4nU.s:5007   .text.RI_GetPtrReg:0000000000000000 RI_GetPtrReg
     /tmp/ccAfo4nU.s:5295   .text.RI_GetPtrReg:000000000000012c $d
     /tmp/ccAfo4nU.s:5305   .bss.nullData16.16203:0000000000000000 $d
     /tmp/ccAfo4nU.s:5309   .bss.nullData16.16203:0000000000000000 nullData16.16203
     /tmp/ccAfo4nU.s:5312   .rodata.CSWTCH.41:0000000000000000 $d
     /tmp/ccAfo4nU.s:5316   .rodata.CSWTCH.41:0000000000000000 CSWTCH.41
     /tmp/ccAfo4nU.s:87     .text.RI_SetRegisterGlobal:0000000000000031 $d
     /tmp/ccAfo4nU.s:87     .text.RI_SetRegisterGlobal:0000000000000032 $t
     /tmp/ccAfo4nU.s:499    .text.RI_SetRegisterMotor1:0000000000000037 $d
     /tmp/ccAfo4nU.s:499    .text.RI_SetRegisterMotor1:0000000000000038 $t
     /tmp/ccAfo4nU.s:2182   .text.RI_GetRegisterGlobal:0000000000000033 $d
     /tmp/ccAfo4nU.s:2182   .text.RI_GetRegisterGlobal:0000000000000034 $t
     /tmp/ccAfo4nU.s:2655   .text.RI_GetRegisterMotor1:000000000000003b $d
     /tmp/ccAfo4nU.s:2655   .text.RI_GetRegisterMotor1:000000000000003c $t

UNDEFINED SYMBOLS
MCPA_cfgLog
PID_SetKP
PID_SetKIDivisorPOW2
MCI_GetIqdref
MCI_SetCurrentReferences
PID_SetKI
STO_PLL_GetObserverGains
STO_PLL_SetObserverGains
PID_SetKDDivisorPOW2
MCPA_UART_A
ARM GAS  /tmp/ccAfo4nU.s 			page 165


PIDSpeedHandle_M1
PIDIdHandle_M1
Mci
STO_PLL_M1
PIDIqHandle_M1
PID_SetKPDivisorPOW2
MCI_ExecTorqueRamp
MCI_ExecSpeedRamp
MCI_GetTeref
MCI_GetMecSpeedRefUnit
PID_SetKD
RevUpControlM1
CTL_BOARD
FIRMWARE_NAME
globalConfig_reg
PID_GetKD
MCI_GetLastRampFinalSpeed
MCI_GetLastRampFinalDuration
PID_GetKP
MCI_GetVqd
PID_GetKI
NTC_GetAvTemp_C
MCI_GetIalphabeta
MCI_GetIab
MCI_GetIqd
MCI_GetValphabeta
STO_PLL_GetEstimatedCurrent
PID_GetKPDivisorPOW2
TempSensor_M1
PID_GetKIDivisorPOW2
STO_PLL_GetEstimatedBemf
MCI_GetAvrgMecSpeedUnit
MCI_GetSTMState
MCI_GetControlMode
MCI_GetLastRampFinalTorque
PQD_GetAvrgElMotorPowerW
MotorConfig_reg
PWR_BOARD_NAME
scaleParams_M1
pMPM
MCI_GetFaultState
PID_GetKDDivisorPOW2
SPD_GetS16Speed
VBS_GetAvBusVoltage_V
ApplicationConfig_reg
FOCConfig_reg
BusVoltageSensor_M1
