ARM GAS  /tmp/ccv7Xt7x.s 			page 1


   1              		.cpu cortex-m4
   2              		.eabi_attribute 27, 1
   3              		.eabi_attribute 28, 1
   4              		.eabi_attribute 20, 1
   5              		.eabi_attribute 21, 1
   6              		.eabi_attribute 23, 3
   7              		.eabi_attribute 24, 1
   8              		.eabi_attribute 25, 1
   9              		.eabi_attribute 26, 1
  10              		.eabi_attribute 30, 2
  11              		.eabi_attribute 34, 1
  12              		.eabi_attribute 18, 4
  13              		.file	"stm32g4xx_hal_pwr_ex.c"
  14              		.text
  15              	.Ltext0:
  16              		.cfi_sections	.debug_frame
  17              		.section	.text.HAL_PWREx_GetVoltageRange,"ax",%progbits
  18              		.align	1
  19              		.p2align 2,,3
  20              		.global	HAL_PWREx_GetVoltageRange
  21              		.arch armv7e-m
  22              		.syntax unified
  23              		.thumb
  24              		.thumb_func
  25              		.fpu fpv4-sp-d16
  27              	HAL_PWREx_GetVoltageRange:
  28              	.LFB329:
  29              		.file 1 "Drivers/STM32G4xx_HAL_Driver/Src/stm32g4xx_hal_pwr_ex.c"
   1:Drivers/STM32G4xx_HAL_Driver/Src/stm32g4xx_hal_pwr_ex.c **** /**
   2:Drivers/STM32G4xx_HAL_Driver/Src/stm32g4xx_hal_pwr_ex.c ****   ******************************************************************************
   3:Drivers/STM32G4xx_HAL_Driver/Src/stm32g4xx_hal_pwr_ex.c ****   * @file    stm32g4xx_hal_pwr_ex.c
   4:Drivers/STM32G4xx_HAL_Driver/Src/stm32g4xx_hal_pwr_ex.c ****   * @author  MCD Application Team
   5:Drivers/STM32G4xx_HAL_Driver/Src/stm32g4xx_hal_pwr_ex.c ****   * @brief   Extended PWR HAL module driver.
   6:Drivers/STM32G4xx_HAL_Driver/Src/stm32g4xx_hal_pwr_ex.c ****   *          This file provides firmware functions to manage the following
   7:Drivers/STM32G4xx_HAL_Driver/Src/stm32g4xx_hal_pwr_ex.c ****   *          functionalities of the Power Controller (PWR) peripheral:
   8:Drivers/STM32G4xx_HAL_Driver/Src/stm32g4xx_hal_pwr_ex.c ****   *           + Extended Initialization and de-initialization functions
   9:Drivers/STM32G4xx_HAL_Driver/Src/stm32g4xx_hal_pwr_ex.c ****   *           + Extended Peripheral Control functions
  10:Drivers/STM32G4xx_HAL_Driver/Src/stm32g4xx_hal_pwr_ex.c ****   *
  11:Drivers/STM32G4xx_HAL_Driver/Src/stm32g4xx_hal_pwr_ex.c ****   ******************************************************************************
  12:Drivers/STM32G4xx_HAL_Driver/Src/stm32g4xx_hal_pwr_ex.c ****   * @attention
  13:Drivers/STM32G4xx_HAL_Driver/Src/stm32g4xx_hal_pwr_ex.c ****   *
  14:Drivers/STM32G4xx_HAL_Driver/Src/stm32g4xx_hal_pwr_ex.c ****   * Copyright (c) 2019 STMicroelectronics.
  15:Drivers/STM32G4xx_HAL_Driver/Src/stm32g4xx_hal_pwr_ex.c ****   * All rights reserved.
  16:Drivers/STM32G4xx_HAL_Driver/Src/stm32g4xx_hal_pwr_ex.c ****   *
  17:Drivers/STM32G4xx_HAL_Driver/Src/stm32g4xx_hal_pwr_ex.c ****   * This software is licensed under terms that can be found in the LICENSE file
  18:Drivers/STM32G4xx_HAL_Driver/Src/stm32g4xx_hal_pwr_ex.c ****   * in the root directory of this software component.
  19:Drivers/STM32G4xx_HAL_Driver/Src/stm32g4xx_hal_pwr_ex.c ****   * If no LICENSE file comes with this software, it is provided AS-IS.
  20:Drivers/STM32G4xx_HAL_Driver/Src/stm32g4xx_hal_pwr_ex.c ****   *
  21:Drivers/STM32G4xx_HAL_Driver/Src/stm32g4xx_hal_pwr_ex.c ****   ******************************************************************************
  22:Drivers/STM32G4xx_HAL_Driver/Src/stm32g4xx_hal_pwr_ex.c ****   */
  23:Drivers/STM32G4xx_HAL_Driver/Src/stm32g4xx_hal_pwr_ex.c **** 
  24:Drivers/STM32G4xx_HAL_Driver/Src/stm32g4xx_hal_pwr_ex.c **** /* Includes ------------------------------------------------------------------*/
  25:Drivers/STM32G4xx_HAL_Driver/Src/stm32g4xx_hal_pwr_ex.c **** #include "stm32g4xx_hal.h"
  26:Drivers/STM32G4xx_HAL_Driver/Src/stm32g4xx_hal_pwr_ex.c **** 
  27:Drivers/STM32G4xx_HAL_Driver/Src/stm32g4xx_hal_pwr_ex.c **** /** @addtogroup STM32G4xx_HAL_Driver
  28:Drivers/STM32G4xx_HAL_Driver/Src/stm32g4xx_hal_pwr_ex.c ****   * @{
  29:Drivers/STM32G4xx_HAL_Driver/Src/stm32g4xx_hal_pwr_ex.c ****   */
ARM GAS  /tmp/ccv7Xt7x.s 			page 2


  30:Drivers/STM32G4xx_HAL_Driver/Src/stm32g4xx_hal_pwr_ex.c **** 
  31:Drivers/STM32G4xx_HAL_Driver/Src/stm32g4xx_hal_pwr_ex.c **** /** @defgroup PWREx PWREx
  32:Drivers/STM32G4xx_HAL_Driver/Src/stm32g4xx_hal_pwr_ex.c ****   * @brief PWR Extended HAL module driver
  33:Drivers/STM32G4xx_HAL_Driver/Src/stm32g4xx_hal_pwr_ex.c ****   * @{
  34:Drivers/STM32G4xx_HAL_Driver/Src/stm32g4xx_hal_pwr_ex.c ****   */
  35:Drivers/STM32G4xx_HAL_Driver/Src/stm32g4xx_hal_pwr_ex.c **** 
  36:Drivers/STM32G4xx_HAL_Driver/Src/stm32g4xx_hal_pwr_ex.c **** #ifdef HAL_PWR_MODULE_ENABLED
  37:Drivers/STM32G4xx_HAL_Driver/Src/stm32g4xx_hal_pwr_ex.c **** 
  38:Drivers/STM32G4xx_HAL_Driver/Src/stm32g4xx_hal_pwr_ex.c **** /* Private typedef -----------------------------------------------------------*/
  39:Drivers/STM32G4xx_HAL_Driver/Src/stm32g4xx_hal_pwr_ex.c **** /* Private define ------------------------------------------------------------*/
  40:Drivers/STM32G4xx_HAL_Driver/Src/stm32g4xx_hal_pwr_ex.c **** 
  41:Drivers/STM32G4xx_HAL_Driver/Src/stm32g4xx_hal_pwr_ex.c **** 
  42:Drivers/STM32G4xx_HAL_Driver/Src/stm32g4xx_hal_pwr_ex.c **** #if defined (STM32G471xx) || defined (STM32G473xx) || defined (STM32G474xx) || defined (STM32G483xx
  43:Drivers/STM32G4xx_HAL_Driver/Src/stm32g4xx_hal_pwr_ex.c **** #define PWR_PORTF_AVAILABLE_PINS   0x0000FFFFU /* PF0..PF15 */
  44:Drivers/STM32G4xx_HAL_Driver/Src/stm32g4xx_hal_pwr_ex.c **** #define PWR_PORTG_AVAILABLE_PINS   0x000007FFU /* PG0..PG10 */
  45:Drivers/STM32G4xx_HAL_Driver/Src/stm32g4xx_hal_pwr_ex.c **** #elif defined (STM32G431xx) || defined (STM32G441xx) || defined (STM32GBK1CB) || defined (STM32G491
  46:Drivers/STM32G4xx_HAL_Driver/Src/stm32g4xx_hal_pwr_ex.c **** #define PWR_PORTF_AVAILABLE_PINS   0x00000607U /* PF0..PF2 and PF9 and PF10 */
  47:Drivers/STM32G4xx_HAL_Driver/Src/stm32g4xx_hal_pwr_ex.c **** #define PWR_PORTG_AVAILABLE_PINS   0x00000400U /* PG10 */
  48:Drivers/STM32G4xx_HAL_Driver/Src/stm32g4xx_hal_pwr_ex.c **** #endif
  49:Drivers/STM32G4xx_HAL_Driver/Src/stm32g4xx_hal_pwr_ex.c **** 
  50:Drivers/STM32G4xx_HAL_Driver/Src/stm32g4xx_hal_pwr_ex.c **** /** @defgroup PWR_Extended_Private_Defines PWR Extended Private Defines
  51:Drivers/STM32G4xx_HAL_Driver/Src/stm32g4xx_hal_pwr_ex.c ****   * @{
  52:Drivers/STM32G4xx_HAL_Driver/Src/stm32g4xx_hal_pwr_ex.c ****   */
  53:Drivers/STM32G4xx_HAL_Driver/Src/stm32g4xx_hal_pwr_ex.c **** 
  54:Drivers/STM32G4xx_HAL_Driver/Src/stm32g4xx_hal_pwr_ex.c **** /** @defgroup PWREx_PVM_Mode_Mask PWR PVM Mode Mask
  55:Drivers/STM32G4xx_HAL_Driver/Src/stm32g4xx_hal_pwr_ex.c ****   * @{
  56:Drivers/STM32G4xx_HAL_Driver/Src/stm32g4xx_hal_pwr_ex.c ****   */
  57:Drivers/STM32G4xx_HAL_Driver/Src/stm32g4xx_hal_pwr_ex.c **** #define PVM_MODE_IT               0x00010000U    /*!< Mask for interruption yielded by PVM threshol
  58:Drivers/STM32G4xx_HAL_Driver/Src/stm32g4xx_hal_pwr_ex.c **** #define PVM_MODE_EVT              0x00020000U    /*!< Mask for event yielded by PVM threshold cross
  59:Drivers/STM32G4xx_HAL_Driver/Src/stm32g4xx_hal_pwr_ex.c **** #define PVM_RISING_EDGE           0x00000001U    /*!< Mask for rising edge set as PVM trigger      
  60:Drivers/STM32G4xx_HAL_Driver/Src/stm32g4xx_hal_pwr_ex.c **** #define PVM_FALLING_EDGE          0x00000002U    /*!< Mask for falling edge set as PVM trigger     
  61:Drivers/STM32G4xx_HAL_Driver/Src/stm32g4xx_hal_pwr_ex.c **** /**
  62:Drivers/STM32G4xx_HAL_Driver/Src/stm32g4xx_hal_pwr_ex.c ****   * @}
  63:Drivers/STM32G4xx_HAL_Driver/Src/stm32g4xx_hal_pwr_ex.c ****   */
  64:Drivers/STM32G4xx_HAL_Driver/Src/stm32g4xx_hal_pwr_ex.c **** 
  65:Drivers/STM32G4xx_HAL_Driver/Src/stm32g4xx_hal_pwr_ex.c **** /** @defgroup PWREx_TimeOut_Value PWR Extended Flag Setting Time Out Value
  66:Drivers/STM32G4xx_HAL_Driver/Src/stm32g4xx_hal_pwr_ex.c ****   * @{
  67:Drivers/STM32G4xx_HAL_Driver/Src/stm32g4xx_hal_pwr_ex.c ****   */
  68:Drivers/STM32G4xx_HAL_Driver/Src/stm32g4xx_hal_pwr_ex.c **** #define PWR_FLAG_SETTING_DELAY_US                      50UL   /*!< Time out value for REGLPF and VO
  69:Drivers/STM32G4xx_HAL_Driver/Src/stm32g4xx_hal_pwr_ex.c **** /**
  70:Drivers/STM32G4xx_HAL_Driver/Src/stm32g4xx_hal_pwr_ex.c ****   * @}
  71:Drivers/STM32G4xx_HAL_Driver/Src/stm32g4xx_hal_pwr_ex.c ****   */
  72:Drivers/STM32G4xx_HAL_Driver/Src/stm32g4xx_hal_pwr_ex.c **** 
  73:Drivers/STM32G4xx_HAL_Driver/Src/stm32g4xx_hal_pwr_ex.c **** 
  74:Drivers/STM32G4xx_HAL_Driver/Src/stm32g4xx_hal_pwr_ex.c **** 
  75:Drivers/STM32G4xx_HAL_Driver/Src/stm32g4xx_hal_pwr_ex.c **** /**
  76:Drivers/STM32G4xx_HAL_Driver/Src/stm32g4xx_hal_pwr_ex.c ****   * @}
  77:Drivers/STM32G4xx_HAL_Driver/Src/stm32g4xx_hal_pwr_ex.c ****   */
  78:Drivers/STM32G4xx_HAL_Driver/Src/stm32g4xx_hal_pwr_ex.c **** 
  79:Drivers/STM32G4xx_HAL_Driver/Src/stm32g4xx_hal_pwr_ex.c **** 
  80:Drivers/STM32G4xx_HAL_Driver/Src/stm32g4xx_hal_pwr_ex.c **** 
  81:Drivers/STM32G4xx_HAL_Driver/Src/stm32g4xx_hal_pwr_ex.c **** /* Private macro -------------------------------------------------------------*/
  82:Drivers/STM32G4xx_HAL_Driver/Src/stm32g4xx_hal_pwr_ex.c **** /* Private variables ---------------------------------------------------------*/
  83:Drivers/STM32G4xx_HAL_Driver/Src/stm32g4xx_hal_pwr_ex.c **** /* Private function prototypes -----------------------------------------------*/
  84:Drivers/STM32G4xx_HAL_Driver/Src/stm32g4xx_hal_pwr_ex.c **** /* Exported functions --------------------------------------------------------*/
  85:Drivers/STM32G4xx_HAL_Driver/Src/stm32g4xx_hal_pwr_ex.c **** 
  86:Drivers/STM32G4xx_HAL_Driver/Src/stm32g4xx_hal_pwr_ex.c **** /** @defgroup PWREx_Exported_Functions PWR Extended Exported Functions
ARM GAS  /tmp/ccv7Xt7x.s 			page 3


  87:Drivers/STM32G4xx_HAL_Driver/Src/stm32g4xx_hal_pwr_ex.c ****   * @{
  88:Drivers/STM32G4xx_HAL_Driver/Src/stm32g4xx_hal_pwr_ex.c ****   */
  89:Drivers/STM32G4xx_HAL_Driver/Src/stm32g4xx_hal_pwr_ex.c **** 
  90:Drivers/STM32G4xx_HAL_Driver/Src/stm32g4xx_hal_pwr_ex.c **** /** @defgroup PWREx_Exported_Functions_Group1 Extended Peripheral Control functions
  91:Drivers/STM32G4xx_HAL_Driver/Src/stm32g4xx_hal_pwr_ex.c ****   *  @brief   Extended Peripheral Control functions
  92:Drivers/STM32G4xx_HAL_Driver/Src/stm32g4xx_hal_pwr_ex.c ****   *
  93:Drivers/STM32G4xx_HAL_Driver/Src/stm32g4xx_hal_pwr_ex.c **** @verbatim
  94:Drivers/STM32G4xx_HAL_Driver/Src/stm32g4xx_hal_pwr_ex.c ****  ===============================================================================
  95:Drivers/STM32G4xx_HAL_Driver/Src/stm32g4xx_hal_pwr_ex.c ****               ##### Extended Peripheral Initialization and de-initialization functions #####
  96:Drivers/STM32G4xx_HAL_Driver/Src/stm32g4xx_hal_pwr_ex.c ****  ===============================================================================
  97:Drivers/STM32G4xx_HAL_Driver/Src/stm32g4xx_hal_pwr_ex.c ****     [..]
  98:Drivers/STM32G4xx_HAL_Driver/Src/stm32g4xx_hal_pwr_ex.c **** 
  99:Drivers/STM32G4xx_HAL_Driver/Src/stm32g4xx_hal_pwr_ex.c **** @endverbatim
 100:Drivers/STM32G4xx_HAL_Driver/Src/stm32g4xx_hal_pwr_ex.c ****   * @{
 101:Drivers/STM32G4xx_HAL_Driver/Src/stm32g4xx_hal_pwr_ex.c ****   */
 102:Drivers/STM32G4xx_HAL_Driver/Src/stm32g4xx_hal_pwr_ex.c **** 
 103:Drivers/STM32G4xx_HAL_Driver/Src/stm32g4xx_hal_pwr_ex.c **** 
 104:Drivers/STM32G4xx_HAL_Driver/Src/stm32g4xx_hal_pwr_ex.c **** /**
 105:Drivers/STM32G4xx_HAL_Driver/Src/stm32g4xx_hal_pwr_ex.c ****   * @brief Return Voltage Scaling Range.
 106:Drivers/STM32G4xx_HAL_Driver/Src/stm32g4xx_hal_pwr_ex.c ****   * @retval VOS bit field (PWR_REGULATOR_VOLTAGE_SCALE1 or PWR_REGULATOR_VOLTAGE_SCALE2
 107:Drivers/STM32G4xx_HAL_Driver/Src/stm32g4xx_hal_pwr_ex.c ****   *         or PWR_REGULATOR_VOLTAGE_SCALE1_BOOST when applicable)
 108:Drivers/STM32G4xx_HAL_Driver/Src/stm32g4xx_hal_pwr_ex.c ****   */
 109:Drivers/STM32G4xx_HAL_Driver/Src/stm32g4xx_hal_pwr_ex.c **** uint32_t HAL_PWREx_GetVoltageRange(void)
 110:Drivers/STM32G4xx_HAL_Driver/Src/stm32g4xx_hal_pwr_ex.c **** {
  30              		.loc 1 110 1 view -0
  31              		.cfi_startproc
  32              		@ args = 0, pretend = 0, frame = 0
  33              		@ frame_needed = 0, uses_anonymous_args = 0
  34              		@ link register save eliminated.
 111:Drivers/STM32G4xx_HAL_Driver/Src/stm32g4xx_hal_pwr_ex.c ****   if (READ_BIT(PWR->CR1, PWR_CR1_VOS) == PWR_REGULATOR_VOLTAGE_SCALE2)
  35              		.loc 1 111 3 view .LVU1
  36              		.loc 1 111 7 is_stmt 0 view .LVU2
  37 0000 074B     		ldr	r3, .L8
  38 0002 1868     		ldr	r0, [r3]
  39 0004 00F4C060 		and	r0, r0, #1536
  40              		.loc 1 111 6 view .LVU3
  41 0008 B0F5806F 		cmp	r0, #1024
  42 000c 06D0     		beq	.L1
 112:Drivers/STM32G4xx_HAL_Driver/Src/stm32g4xx_hal_pwr_ex.c ****   {
 113:Drivers/STM32G4xx_HAL_Driver/Src/stm32g4xx_hal_pwr_ex.c ****     return PWR_REGULATOR_VOLTAGE_SCALE2;
 114:Drivers/STM32G4xx_HAL_Driver/Src/stm32g4xx_hal_pwr_ex.c ****   }
 115:Drivers/STM32G4xx_HAL_Driver/Src/stm32g4xx_hal_pwr_ex.c ****   else if (READ_BIT(PWR->CR5, PWR_CR5_R1MODE) == PWR_CR5_R1MODE)
  43              		.loc 1 115 8 is_stmt 1 view .LVU4
  44              		.loc 1 115 12 is_stmt 0 view .LVU5
  45 000e D3F88000 		ldr	r0, [r3, #128]
 116:Drivers/STM32G4xx_HAL_Driver/Src/stm32g4xx_hal_pwr_ex.c ****   {
 117:Drivers/STM32G4xx_HAL_Driver/Src/stm32g4xx_hal_pwr_ex.c ****     /* PWR_CR5_R1MODE bit set means that Range 1 Boost is disabled */
 118:Drivers/STM32G4xx_HAL_Driver/Src/stm32g4xx_hal_pwr_ex.c ****     return PWR_REGULATOR_VOLTAGE_SCALE1;
  46              		.loc 1 118 12 view .LVU6
  47 0012 10F48070 		ands	r0, r0, #256
  48 0016 18BF     		it	ne
  49 0018 4FF40070 		movne	r0, #512
  50              	.L1:
 119:Drivers/STM32G4xx_HAL_Driver/Src/stm32g4xx_hal_pwr_ex.c ****   }
 120:Drivers/STM32G4xx_HAL_Driver/Src/stm32g4xx_hal_pwr_ex.c ****   else
 121:Drivers/STM32G4xx_HAL_Driver/Src/stm32g4xx_hal_pwr_ex.c ****   {
 122:Drivers/STM32G4xx_HAL_Driver/Src/stm32g4xx_hal_pwr_ex.c ****     return PWR_REGULATOR_VOLTAGE_SCALE1_BOOST;
ARM GAS  /tmp/ccv7Xt7x.s 			page 4


 123:Drivers/STM32G4xx_HAL_Driver/Src/stm32g4xx_hal_pwr_ex.c ****   }
 124:Drivers/STM32G4xx_HAL_Driver/Src/stm32g4xx_hal_pwr_ex.c **** }
  51              		.loc 1 124 1 view .LVU7
  52 001c 7047     		bx	lr
  53              	.L9:
  54 001e 00BF     		.align	2
  55              	.L8:
  56 0020 00700040 		.word	1073770496
  57              		.cfi_endproc
  58              	.LFE329:
  60              		.section	.text.HAL_PWREx_ControlVoltageScaling,"ax",%progbits
  61              		.align	1
  62              		.p2align 2,,3
  63              		.global	HAL_PWREx_ControlVoltageScaling
  64              		.syntax unified
  65              		.thumb
  66              		.thumb_func
  67              		.fpu fpv4-sp-d16
  69              	HAL_PWREx_ControlVoltageScaling:
  70              	.LVL0:
  71              	.LFB330:
 125:Drivers/STM32G4xx_HAL_Driver/Src/stm32g4xx_hal_pwr_ex.c **** 
 126:Drivers/STM32G4xx_HAL_Driver/Src/stm32g4xx_hal_pwr_ex.c **** 
 127:Drivers/STM32G4xx_HAL_Driver/Src/stm32g4xx_hal_pwr_ex.c **** 
 128:Drivers/STM32G4xx_HAL_Driver/Src/stm32g4xx_hal_pwr_ex.c **** /**
 129:Drivers/STM32G4xx_HAL_Driver/Src/stm32g4xx_hal_pwr_ex.c ****   * @brief Configure the main internal regulator output voltage.
 130:Drivers/STM32G4xx_HAL_Driver/Src/stm32g4xx_hal_pwr_ex.c ****   * @param  VoltageScaling: specifies the regulator output voltage to achieve
 131:Drivers/STM32G4xx_HAL_Driver/Src/stm32g4xx_hal_pwr_ex.c ****   *         a tradeoff between performance and power consumption.
 132:Drivers/STM32G4xx_HAL_Driver/Src/stm32g4xx_hal_pwr_ex.c ****   *          This parameter can be one of the following values:
 133:Drivers/STM32G4xx_HAL_Driver/Src/stm32g4xx_hal_pwr_ex.c ****   *            @arg @ref PWR_REGULATOR_VOLTAGE_SCALE1_BOOST when available, Regulator voltage outpu
 134:Drivers/STM32G4xx_HAL_Driver/Src/stm32g4xx_hal_pwr_ex.c ****   *                                                typical output voltage at 1.28 V,
 135:Drivers/STM32G4xx_HAL_Driver/Src/stm32g4xx_hal_pwr_ex.c ****   *                                                system frequency up to 170 MHz.
 136:Drivers/STM32G4xx_HAL_Driver/Src/stm32g4xx_hal_pwr_ex.c ****   *            @arg @ref PWR_REGULATOR_VOLTAGE_SCALE1 Regulator voltage output range 1 mode,
 137:Drivers/STM32G4xx_HAL_Driver/Src/stm32g4xx_hal_pwr_ex.c ****   *                                                typical output voltage at 1.2 V,
 138:Drivers/STM32G4xx_HAL_Driver/Src/stm32g4xx_hal_pwr_ex.c ****   *                                                system frequency up to 150 MHz.
 139:Drivers/STM32G4xx_HAL_Driver/Src/stm32g4xx_hal_pwr_ex.c ****   *            @arg @ref PWR_REGULATOR_VOLTAGE_SCALE2 Regulator voltage output range 2 mode,
 140:Drivers/STM32G4xx_HAL_Driver/Src/stm32g4xx_hal_pwr_ex.c ****   *                                                typical output voltage at 1.0 V,
 141:Drivers/STM32G4xx_HAL_Driver/Src/stm32g4xx_hal_pwr_ex.c ****   *                                                system frequency up to 26 MHz.
 142:Drivers/STM32G4xx_HAL_Driver/Src/stm32g4xx_hal_pwr_ex.c ****   * @note  When moving from Range 1 to Range 2, the system frequency must be decreased to
 143:Drivers/STM32G4xx_HAL_Driver/Src/stm32g4xx_hal_pwr_ex.c ****   *        a value below 26 MHz before calling HAL_PWREx_ControlVoltageScaling() API.
 144:Drivers/STM32G4xx_HAL_Driver/Src/stm32g4xx_hal_pwr_ex.c ****   *        When moving from Range 2 to Range 1, the system frequency can be increased to
 145:Drivers/STM32G4xx_HAL_Driver/Src/stm32g4xx_hal_pwr_ex.c ****   *        a value up to 150 MHz after calling HAL_PWREx_ControlVoltageScaling() API.
 146:Drivers/STM32G4xx_HAL_Driver/Src/stm32g4xx_hal_pwr_ex.c ****   *        When moving from Range 1 to Boost Mode Range 1, the system frequency can be increased to
 147:Drivers/STM32G4xx_HAL_Driver/Src/stm32g4xx_hal_pwr_ex.c ****   *        a value up to 170 MHz after calling HAL_PWREx_ControlVoltageScaling() API.
 148:Drivers/STM32G4xx_HAL_Driver/Src/stm32g4xx_hal_pwr_ex.c ****   * @note  When moving from Range 2 to Range 1, the API waits for VOSF flag to be
 149:Drivers/STM32G4xx_HAL_Driver/Src/stm32g4xx_hal_pwr_ex.c ****   *        cleared before returning the status. If the flag is not cleared within
 150:Drivers/STM32G4xx_HAL_Driver/Src/stm32g4xx_hal_pwr_ex.c ****   *        50 microseconds, HAL_TIMEOUT status is reported.
 151:Drivers/STM32G4xx_HAL_Driver/Src/stm32g4xx_hal_pwr_ex.c ****   * @retval HAL Status
 152:Drivers/STM32G4xx_HAL_Driver/Src/stm32g4xx_hal_pwr_ex.c ****   */
 153:Drivers/STM32G4xx_HAL_Driver/Src/stm32g4xx_hal_pwr_ex.c **** HAL_StatusTypeDef HAL_PWREx_ControlVoltageScaling(uint32_t VoltageScaling)
 154:Drivers/STM32G4xx_HAL_Driver/Src/stm32g4xx_hal_pwr_ex.c **** {
  72              		.loc 1 154 1 is_stmt 1 view -0
  73              		.cfi_startproc
  74              		@ args = 0, pretend = 0, frame = 0
  75              		@ frame_needed = 0, uses_anonymous_args = 0
  76              		@ link register save eliminated.
 155:Drivers/STM32G4xx_HAL_Driver/Src/stm32g4xx_hal_pwr_ex.c ****   uint32_t wait_loop_index;
ARM GAS  /tmp/ccv7Xt7x.s 			page 5


  77              		.loc 1 155 3 view .LVU9
 156:Drivers/STM32G4xx_HAL_Driver/Src/stm32g4xx_hal_pwr_ex.c **** 
 157:Drivers/STM32G4xx_HAL_Driver/Src/stm32g4xx_hal_pwr_ex.c ****   assert_param(IS_PWR_VOLTAGE_SCALING_RANGE(VoltageScaling));
  78              		.loc 1 157 3 view .LVU10
 158:Drivers/STM32G4xx_HAL_Driver/Src/stm32g4xx_hal_pwr_ex.c **** 
 159:Drivers/STM32G4xx_HAL_Driver/Src/stm32g4xx_hal_pwr_ex.c ****   if (VoltageScaling == PWR_REGULATOR_VOLTAGE_SCALE1_BOOST)
  79              		.loc 1 159 3 view .LVU11
 160:Drivers/STM32G4xx_HAL_Driver/Src/stm32g4xx_hal_pwr_ex.c ****   {
 161:Drivers/STM32G4xx_HAL_Driver/Src/stm32g4xx_hal_pwr_ex.c ****     /* If current range is range 2 */
 162:Drivers/STM32G4xx_HAL_Driver/Src/stm32g4xx_hal_pwr_ex.c ****     if (READ_BIT(PWR->CR1, PWR_CR1_VOS) == PWR_REGULATOR_VOLTAGE_SCALE2)
  80              		.loc 1 162 9 is_stmt 0 view .LVU12
  81 0000 3B4A     		ldr	r2, .L43
 154:Drivers/STM32G4xx_HAL_Driver/Src/stm32g4xx_hal_pwr_ex.c ****   uint32_t wait_loop_index;
  82              		.loc 1 154 1 view .LVU13
  83 0002 10B4     		push	{r4}
  84              	.LCFI0:
  85              		.cfi_def_cfa_offset 4
  86              		.cfi_offset 4, -4
  87              		.loc 1 162 9 view .LVU14
  88 0004 1368     		ldr	r3, [r2]
 159:Drivers/STM32G4xx_HAL_Driver/Src/stm32g4xx_hal_pwr_ex.c ****   {
  89              		.loc 1 159 6 view .LVU15
  90 0006 68B9     		cbnz	r0, .L11
  91              		.loc 1 162 5 is_stmt 1 view .LVU16
  92              		.loc 1 162 9 is_stmt 0 view .LVU17
  93 0008 03F4C063 		and	r3, r3, #1536
  94              		.loc 1 162 8 view .LVU18
  95 000c B3F5806F 		cmp	r3, #1024
  96 0010 23D0     		beq	.L38
 163:Drivers/STM32G4xx_HAL_Driver/Src/stm32g4xx_hal_pwr_ex.c ****     {
 164:Drivers/STM32G4xx_HAL_Driver/Src/stm32g4xx_hal_pwr_ex.c ****       /* Make sure Range 1 Boost is enabled */
 165:Drivers/STM32G4xx_HAL_Driver/Src/stm32g4xx_hal_pwr_ex.c ****       CLEAR_BIT(PWR->CR5, PWR_CR5_R1MODE);
 166:Drivers/STM32G4xx_HAL_Driver/Src/stm32g4xx_hal_pwr_ex.c **** 
 167:Drivers/STM32G4xx_HAL_Driver/Src/stm32g4xx_hal_pwr_ex.c ****       /* Set Range 1 */
 168:Drivers/STM32G4xx_HAL_Driver/Src/stm32g4xx_hal_pwr_ex.c ****       MODIFY_REG(PWR->CR1, PWR_CR1_VOS, PWR_REGULATOR_VOLTAGE_SCALE1);
 169:Drivers/STM32G4xx_HAL_Driver/Src/stm32g4xx_hal_pwr_ex.c **** 
 170:Drivers/STM32G4xx_HAL_Driver/Src/stm32g4xx_hal_pwr_ex.c ****       /* Wait until VOSF is cleared */
 171:Drivers/STM32G4xx_HAL_Driver/Src/stm32g4xx_hal_pwr_ex.c ****       wait_loop_index = ((PWR_FLAG_SETTING_DELAY_US * SystemCoreClock) / 1000000U) + 1U;
 172:Drivers/STM32G4xx_HAL_Driver/Src/stm32g4xx_hal_pwr_ex.c ****       while ((HAL_IS_BIT_SET(PWR->SR2, PWR_SR2_VOSF)) && (wait_loop_index != 0U))
 173:Drivers/STM32G4xx_HAL_Driver/Src/stm32g4xx_hal_pwr_ex.c ****       {
 174:Drivers/STM32G4xx_HAL_Driver/Src/stm32g4xx_hal_pwr_ex.c ****         wait_loop_index--;
 175:Drivers/STM32G4xx_HAL_Driver/Src/stm32g4xx_hal_pwr_ex.c ****       }
 176:Drivers/STM32G4xx_HAL_Driver/Src/stm32g4xx_hal_pwr_ex.c ****       if (HAL_IS_BIT_SET(PWR->SR2, PWR_SR2_VOSF))
 177:Drivers/STM32G4xx_HAL_Driver/Src/stm32g4xx_hal_pwr_ex.c ****       {
 178:Drivers/STM32G4xx_HAL_Driver/Src/stm32g4xx_hal_pwr_ex.c ****         return HAL_TIMEOUT;
 179:Drivers/STM32G4xx_HAL_Driver/Src/stm32g4xx_hal_pwr_ex.c ****       }
 180:Drivers/STM32G4xx_HAL_Driver/Src/stm32g4xx_hal_pwr_ex.c ****     }
 181:Drivers/STM32G4xx_HAL_Driver/Src/stm32g4xx_hal_pwr_ex.c ****     /* If current range is range 1 normal or boost mode */
 182:Drivers/STM32G4xx_HAL_Driver/Src/stm32g4xx_hal_pwr_ex.c ****     else
 183:Drivers/STM32G4xx_HAL_Driver/Src/stm32g4xx_hal_pwr_ex.c ****     {
 184:Drivers/STM32G4xx_HAL_Driver/Src/stm32g4xx_hal_pwr_ex.c ****       /* Enable Range 1 Boost (no issue if bit already reset) */
 185:Drivers/STM32G4xx_HAL_Driver/Src/stm32g4xx_hal_pwr_ex.c ****       CLEAR_BIT(PWR->CR5, PWR_CR5_R1MODE);
  97              		.loc 1 185 7 is_stmt 1 view .LVU19
  98 0012 D2F88030 		ldr	r3, [r2, #128]
 186:Drivers/STM32G4xx_HAL_Driver/Src/stm32g4xx_hal_pwr_ex.c ****     }
 187:Drivers/STM32G4xx_HAL_Driver/Src/stm32g4xx_hal_pwr_ex.c ****   }
 188:Drivers/STM32G4xx_HAL_Driver/Src/stm32g4xx_hal_pwr_ex.c ****   else if (VoltageScaling == PWR_REGULATOR_VOLTAGE_SCALE1)
ARM GAS  /tmp/ccv7Xt7x.s 			page 6


 189:Drivers/STM32G4xx_HAL_Driver/Src/stm32g4xx_hal_pwr_ex.c ****   {
 190:Drivers/STM32G4xx_HAL_Driver/Src/stm32g4xx_hal_pwr_ex.c ****     /* If current range is range 2 */
 191:Drivers/STM32G4xx_HAL_Driver/Src/stm32g4xx_hal_pwr_ex.c ****     if (READ_BIT(PWR->CR1, PWR_CR1_VOS) == PWR_REGULATOR_VOLTAGE_SCALE2)
 192:Drivers/STM32G4xx_HAL_Driver/Src/stm32g4xx_hal_pwr_ex.c ****     {
 193:Drivers/STM32G4xx_HAL_Driver/Src/stm32g4xx_hal_pwr_ex.c ****       /* Make sure Range 1 Boost is disabled */
 194:Drivers/STM32G4xx_HAL_Driver/Src/stm32g4xx_hal_pwr_ex.c ****       SET_BIT(PWR->CR5, PWR_CR5_R1MODE);
 195:Drivers/STM32G4xx_HAL_Driver/Src/stm32g4xx_hal_pwr_ex.c **** 
 196:Drivers/STM32G4xx_HAL_Driver/Src/stm32g4xx_hal_pwr_ex.c ****       /* Set Range 1 */
 197:Drivers/STM32G4xx_HAL_Driver/Src/stm32g4xx_hal_pwr_ex.c ****       MODIFY_REG(PWR->CR1, PWR_CR1_VOS, PWR_REGULATOR_VOLTAGE_SCALE1);
 198:Drivers/STM32G4xx_HAL_Driver/Src/stm32g4xx_hal_pwr_ex.c **** 
 199:Drivers/STM32G4xx_HAL_Driver/Src/stm32g4xx_hal_pwr_ex.c ****       /* Wait until VOSF is cleared */
 200:Drivers/STM32G4xx_HAL_Driver/Src/stm32g4xx_hal_pwr_ex.c ****       wait_loop_index = ((PWR_FLAG_SETTING_DELAY_US * SystemCoreClock) / 1000000U) + 1U;
 201:Drivers/STM32G4xx_HAL_Driver/Src/stm32g4xx_hal_pwr_ex.c ****       while ((HAL_IS_BIT_SET(PWR->SR2, PWR_SR2_VOSF)) && (wait_loop_index != 0U))
 202:Drivers/STM32G4xx_HAL_Driver/Src/stm32g4xx_hal_pwr_ex.c ****       {
 203:Drivers/STM32G4xx_HAL_Driver/Src/stm32g4xx_hal_pwr_ex.c ****         wait_loop_index--;
 204:Drivers/STM32G4xx_HAL_Driver/Src/stm32g4xx_hal_pwr_ex.c ****       }
 205:Drivers/STM32G4xx_HAL_Driver/Src/stm32g4xx_hal_pwr_ex.c ****       if (HAL_IS_BIT_SET(PWR->SR2, PWR_SR2_VOSF))
 206:Drivers/STM32G4xx_HAL_Driver/Src/stm32g4xx_hal_pwr_ex.c ****       {
 207:Drivers/STM32G4xx_HAL_Driver/Src/stm32g4xx_hal_pwr_ex.c ****         return HAL_TIMEOUT;
 208:Drivers/STM32G4xx_HAL_Driver/Src/stm32g4xx_hal_pwr_ex.c ****       }
 209:Drivers/STM32G4xx_HAL_Driver/Src/stm32g4xx_hal_pwr_ex.c ****     }
 210:Drivers/STM32G4xx_HAL_Driver/Src/stm32g4xx_hal_pwr_ex.c ****      /* If current range is range 1 normal or boost mode */
 211:Drivers/STM32G4xx_HAL_Driver/Src/stm32g4xx_hal_pwr_ex.c ****     else
 212:Drivers/STM32G4xx_HAL_Driver/Src/stm32g4xx_hal_pwr_ex.c ****     {
 213:Drivers/STM32G4xx_HAL_Driver/Src/stm32g4xx_hal_pwr_ex.c ****       /* Disable Range 1 Boost (no issue if bit already set) */
 214:Drivers/STM32G4xx_HAL_Driver/Src/stm32g4xx_hal_pwr_ex.c ****       SET_BIT(PWR->CR5, PWR_CR5_R1MODE);
 215:Drivers/STM32G4xx_HAL_Driver/Src/stm32g4xx_hal_pwr_ex.c ****     }
 216:Drivers/STM32G4xx_HAL_Driver/Src/stm32g4xx_hal_pwr_ex.c ****   }
 217:Drivers/STM32G4xx_HAL_Driver/Src/stm32g4xx_hal_pwr_ex.c ****   else
 218:Drivers/STM32G4xx_HAL_Driver/Src/stm32g4xx_hal_pwr_ex.c ****   {
 219:Drivers/STM32G4xx_HAL_Driver/Src/stm32g4xx_hal_pwr_ex.c ****     /* Set Range 2 */
 220:Drivers/STM32G4xx_HAL_Driver/Src/stm32g4xx_hal_pwr_ex.c ****     MODIFY_REG(PWR->CR1, PWR_CR1_VOS, PWR_REGULATOR_VOLTAGE_SCALE2);
 221:Drivers/STM32G4xx_HAL_Driver/Src/stm32g4xx_hal_pwr_ex.c ****     /* No need to wait for VOSF to be cleared for this transition */
 222:Drivers/STM32G4xx_HAL_Driver/Src/stm32g4xx_hal_pwr_ex.c ****     /* PWR_CR5_R1MODE bit setting has no effect in Range 2        */
 223:Drivers/STM32G4xx_HAL_Driver/Src/stm32g4xx_hal_pwr_ex.c ****   }
 224:Drivers/STM32G4xx_HAL_Driver/Src/stm32g4xx_hal_pwr_ex.c **** 
 225:Drivers/STM32G4xx_HAL_Driver/Src/stm32g4xx_hal_pwr_ex.c ****   return HAL_OK;
 226:Drivers/STM32G4xx_HAL_Driver/Src/stm32g4xx_hal_pwr_ex.c **** }
  99              		.loc 1 226 1 is_stmt 0 view .LVU20
 100 0016 5DF8044B 		ldr	r4, [sp], #4
 101              	.LCFI1:
 102              		.cfi_remember_state
 103              		.cfi_restore 4
 104              		.cfi_def_cfa_offset 0
 185:Drivers/STM32G4xx_HAL_Driver/Src/stm32g4xx_hal_pwr_ex.c ****     }
 105              		.loc 1 185 7 view .LVU21
 106 001a 23F48073 		bic	r3, r3, #256
 107 001e C2F88030 		str	r3, [r2, #128]
 108              		.loc 1 226 1 view .LVU22
 109 0022 7047     		bx	lr
 110              	.L11:
 111              	.LCFI2:
 112              		.cfi_restore_state
 188:Drivers/STM32G4xx_HAL_Driver/Src/stm32g4xx_hal_pwr_ex.c ****   {
 113              		.loc 1 188 8 is_stmt 1 view .LVU23
 188:Drivers/STM32G4xx_HAL_Driver/Src/stm32g4xx_hal_pwr_ex.c ****   {
 114              		.loc 1 188 11 is_stmt 0 view .LVU24
ARM GAS  /tmp/ccv7Xt7x.s 			page 7


 115 0024 B0F5007F 		cmp	r0, #512
 116 0028 08D0     		beq	.L39
 220:Drivers/STM32G4xx_HAL_Driver/Src/stm32g4xx_hal_pwr_ex.c ****     /* No need to wait for VOSF to be cleared for this transition */
 117              		.loc 1 220 5 is_stmt 1 view .LVU25
 118 002a 23F4C063 		bic	r3, r3, #1536
 119 002e 43F48063 		orr	r3, r3, #1024
 120 0032 1360     		str	r3, [r2]
 121              	.LVL1:
 122              	.L37:
 225:Drivers/STM32G4xx_HAL_Driver/Src/stm32g4xx_hal_pwr_ex.c **** }
 123              		.loc 1 225 10 is_stmt 0 view .LVU26
 124 0034 0020     		movs	r0, #0
 125              	.L16:
 126              		.loc 1 226 1 view .LVU27
 127 0036 5DF8044B 		ldr	r4, [sp], #4
 128              	.LCFI3:
 129              		.cfi_remember_state
 130              		.cfi_restore 4
 131              		.cfi_def_cfa_offset 0
 132 003a 7047     		bx	lr
 133              	.LVL2:
 134              	.L39:
 135              	.LCFI4:
 136              		.cfi_restore_state
 191:Drivers/STM32G4xx_HAL_Driver/Src/stm32g4xx_hal_pwr_ex.c ****     {
 137              		.loc 1 191 5 is_stmt 1 view .LVU28
 191:Drivers/STM32G4xx_HAL_Driver/Src/stm32g4xx_hal_pwr_ex.c ****     {
 138              		.loc 1 191 9 is_stmt 0 view .LVU29
 139 003c 03F4C063 		and	r3, r3, #1536
 191:Drivers/STM32G4xx_HAL_Driver/Src/stm32g4xx_hal_pwr_ex.c ****     {
 140              		.loc 1 191 8 view .LVU30
 141 0040 B3F5806F 		cmp	r3, #1024
 142 0044 30D0     		beq	.L40
 214:Drivers/STM32G4xx_HAL_Driver/Src/stm32g4xx_hal_pwr_ex.c ****     }
 143              		.loc 1 214 7 is_stmt 1 view .LVU31
 144 0046 D2F88030 		ldr	r3, [r2, #128]
 145              		.loc 1 226 1 is_stmt 0 view .LVU32
 146 004a 5DF8044B 		ldr	r4, [sp], #4
 147              	.LCFI5:
 148              		.cfi_remember_state
 149              		.cfi_restore 4
 150              		.cfi_def_cfa_offset 0
 214:Drivers/STM32G4xx_HAL_Driver/Src/stm32g4xx_hal_pwr_ex.c ****     }
 151              		.loc 1 214 7 view .LVU33
 152 004e 43F48073 		orr	r3, r3, #256
 225:Drivers/STM32G4xx_HAL_Driver/Src/stm32g4xx_hal_pwr_ex.c **** }
 153              		.loc 1 225 10 view .LVU34
 154 0052 0020     		movs	r0, #0
 155              	.LVL3:
 214:Drivers/STM32G4xx_HAL_Driver/Src/stm32g4xx_hal_pwr_ex.c ****     }
 156              		.loc 1 214 7 view .LVU35
 157 0054 C2F88030 		str	r3, [r2, #128]
 158              		.loc 1 226 1 view .LVU36
 159 0058 7047     		bx	lr
 160              	.LVL4:
 161              	.L38:
 162              	.LCFI6:
ARM GAS  /tmp/ccv7Xt7x.s 			page 8


 163              		.cfi_restore_state
 165:Drivers/STM32G4xx_HAL_Driver/Src/stm32g4xx_hal_pwr_ex.c **** 
 164              		.loc 1 165 7 is_stmt 1 view .LVU37
 165 005a D2F88010 		ldr	r1, [r2, #128]
 171:Drivers/STM32G4xx_HAL_Driver/Src/stm32g4xx_hal_pwr_ex.c ****       while ((HAL_IS_BIT_SET(PWR->SR2, PWR_SR2_VOSF)) && (wait_loop_index != 0U))
 166              		.loc 1 171 53 is_stmt 0 view .LVU38
 167 005e 254B     		ldr	r3, .L43+4
 171:Drivers/STM32G4xx_HAL_Driver/Src/stm32g4xx_hal_pwr_ex.c ****       while ((HAL_IS_BIT_SET(PWR->SR2, PWR_SR2_VOSF)) && (wait_loop_index != 0U))
 168              		.loc 1 171 72 view .LVU39
 169 0060 2548     		ldr	r0, .L43+8
 170              	.LVL5:
 165:Drivers/STM32G4xx_HAL_Driver/Src/stm32g4xx_hal_pwr_ex.c **** 
 171              		.loc 1 165 7 view .LVU40
 172 0062 21F48071 		bic	r1, r1, #256
 173 0066 C2F88010 		str	r1, [r2, #128]
 168:Drivers/STM32G4xx_HAL_Driver/Src/stm32g4xx_hal_pwr_ex.c **** 
 174              		.loc 1 168 7 is_stmt 1 view .LVU41
 175 006a 1168     		ldr	r1, [r2]
 176 006c 21F4C061 		bic	r1, r1, #1536
 177 0070 41F40071 		orr	r1, r1, #512
 178 0074 1160     		str	r1, [r2]
 171:Drivers/STM32G4xx_HAL_Driver/Src/stm32g4xx_hal_pwr_ex.c ****       while ((HAL_IS_BIT_SET(PWR->SR2, PWR_SR2_VOSF)) && (wait_loop_index != 0U))
 179              		.loc 1 171 7 view .LVU42
 171:Drivers/STM32G4xx_HAL_Driver/Src/stm32g4xx_hal_pwr_ex.c ****       while ((HAL_IS_BIT_SET(PWR->SR2, PWR_SR2_VOSF)) && (wait_loop_index != 0U))
 180              		.loc 1 171 53 is_stmt 0 view .LVU43
 181 0076 1C68     		ldr	r4, [r3]
 172:Drivers/STM32G4xx_HAL_Driver/Src/stm32g4xx_hal_pwr_ex.c ****       {
 182              		.loc 1 172 15 view .LVU44
 183 0078 5169     		ldr	r1, [r2, #20]
 171:Drivers/STM32G4xx_HAL_Driver/Src/stm32g4xx_hal_pwr_ex.c ****       while ((HAL_IS_BIT_SET(PWR->SR2, PWR_SR2_VOSF)) && (wait_loop_index != 0U))
 184              		.loc 1 171 53 view .LVU45
 185 007a 3223     		movs	r3, #50
 186 007c 03FB04F3 		mul	r3, r3, r4
 171:Drivers/STM32G4xx_HAL_Driver/Src/stm32g4xx_hal_pwr_ex.c ****       while ((HAL_IS_BIT_SET(PWR->SR2, PWR_SR2_VOSF)) && (wait_loop_index != 0U))
 187              		.loc 1 171 72 view .LVU46
 188 0080 A0FB0303 		umull	r0, r3, r0, r3
 189 0084 9B0C     		lsrs	r3, r3, #18
 172:Drivers/STM32G4xx_HAL_Driver/Src/stm32g4xx_hal_pwr_ex.c ****       {
 190              		.loc 1 172 13 view .LVU47
 191 0086 4805     		lsls	r0, r1, #21
 171:Drivers/STM32G4xx_HAL_Driver/Src/stm32g4xx_hal_pwr_ex.c ****       while ((HAL_IS_BIT_SET(PWR->SR2, PWR_SR2_VOSF)) && (wait_loop_index != 0U))
 192              		.loc 1 171 23 view .LVU48
 193 0088 03F10103 		add	r3, r3, #1
 194              	.LVL6:
 172:Drivers/STM32G4xx_HAL_Driver/Src/stm32g4xx_hal_pwr_ex.c ****       {
 195              		.loc 1 172 7 is_stmt 1 view .LVU49
 172:Drivers/STM32G4xx_HAL_Driver/Src/stm32g4xx_hal_pwr_ex.c ****       {
 196              		.loc 1 172 13 is_stmt 0 view .LVU50
 197 008c 06D5     		bpl	.L13
 198 008e 00E0     		b	.L14
 199              	.L41:
 172:Drivers/STM32G4xx_HAL_Driver/Src/stm32g4xx_hal_pwr_ex.c ****       {
 200              		.loc 1 172 55 discriminator 1 view .LVU51
 201 0090 23B1     		cbz	r3, .L13
 202              	.L14:
 174:Drivers/STM32G4xx_HAL_Driver/Src/stm32g4xx_hal_pwr_ex.c ****       }
 203              		.loc 1 174 9 is_stmt 1 view .LVU52
ARM GAS  /tmp/ccv7Xt7x.s 			page 9


 172:Drivers/STM32G4xx_HAL_Driver/Src/stm32g4xx_hal_pwr_ex.c ****       {
 204              		.loc 1 172 15 is_stmt 0 view .LVU53
 205 0092 5169     		ldr	r1, [r2, #20]
 172:Drivers/STM32G4xx_HAL_Driver/Src/stm32g4xx_hal_pwr_ex.c ****       {
 206              		.loc 1 172 13 view .LVU54
 207 0094 4905     		lsls	r1, r1, #21
 174:Drivers/STM32G4xx_HAL_Driver/Src/stm32g4xx_hal_pwr_ex.c ****       }
 208              		.loc 1 174 24 view .LVU55
 209 0096 03F1FF33 		add	r3, r3, #-1
 210              	.LVL7:
 172:Drivers/STM32G4xx_HAL_Driver/Src/stm32g4xx_hal_pwr_ex.c ****       {
 211              		.loc 1 172 13 view .LVU56
 212 009a F9D4     		bmi	.L41
 213              	.L13:
 176:Drivers/STM32G4xx_HAL_Driver/Src/stm32g4xx_hal_pwr_ex.c ****       {
 214              		.loc 1 176 7 is_stmt 1 view .LVU57
 176:Drivers/STM32G4xx_HAL_Driver/Src/stm32g4xx_hal_pwr_ex.c ****       {
 215              		.loc 1 176 11 is_stmt 0 view .LVU58
 216 009c 144B     		ldr	r3, .L43
 217              	.LVL8:
 176:Drivers/STM32G4xx_HAL_Driver/Src/stm32g4xx_hal_pwr_ex.c ****       {
 218              		.loc 1 176 11 view .LVU59
 219 009e 5B69     		ldr	r3, [r3, #20]
 176:Drivers/STM32G4xx_HAL_Driver/Src/stm32g4xx_hal_pwr_ex.c ****       {
 220              		.loc 1 176 10 view .LVU60
 221 00a0 5C05     		lsls	r4, r3, #21
 222 00a2 C7D5     		bpl	.L37
 178:Drivers/STM32G4xx_HAL_Driver/Src/stm32g4xx_hal_pwr_ex.c ****       }
 223              		.loc 1 178 9 is_stmt 1 view .LVU61
 178:Drivers/STM32G4xx_HAL_Driver/Src/stm32g4xx_hal_pwr_ex.c ****       }
 224              		.loc 1 178 16 is_stmt 0 view .LVU62
 225 00a4 0320     		movs	r0, #3
 226 00a6 C6E7     		b	.L16
 227              	.LVL9:
 228              	.L40:
 194:Drivers/STM32G4xx_HAL_Driver/Src/stm32g4xx_hal_pwr_ex.c **** 
 229              		.loc 1 194 7 is_stmt 1 view .LVU63
 230 00a8 D2F88010 		ldr	r1, [r2, #128]
 200:Drivers/STM32G4xx_HAL_Driver/Src/stm32g4xx_hal_pwr_ex.c ****       while ((HAL_IS_BIT_SET(PWR->SR2, PWR_SR2_VOSF)) && (wait_loop_index != 0U))
 231              		.loc 1 200 53 is_stmt 0 view .LVU64
 232 00ac 114B     		ldr	r3, .L43+4
 200:Drivers/STM32G4xx_HAL_Driver/Src/stm32g4xx_hal_pwr_ex.c ****       while ((HAL_IS_BIT_SET(PWR->SR2, PWR_SR2_VOSF)) && (wait_loop_index != 0U))
 233              		.loc 1 200 72 view .LVU65
 234 00ae 1248     		ldr	r0, .L43+8
 235              	.LVL10:
 194:Drivers/STM32G4xx_HAL_Driver/Src/stm32g4xx_hal_pwr_ex.c **** 
 236              		.loc 1 194 7 view .LVU66
 237 00b0 41F48071 		orr	r1, r1, #256
 238 00b4 C2F88010 		str	r1, [r2, #128]
 197:Drivers/STM32G4xx_HAL_Driver/Src/stm32g4xx_hal_pwr_ex.c **** 
 239              		.loc 1 197 7 is_stmt 1 view .LVU67
 240 00b8 1168     		ldr	r1, [r2]
 241 00ba 21F4C061 		bic	r1, r1, #1536
 242 00be 41F40071 		orr	r1, r1, #512
 243 00c2 1160     		str	r1, [r2]
 200:Drivers/STM32G4xx_HAL_Driver/Src/stm32g4xx_hal_pwr_ex.c ****       while ((HAL_IS_BIT_SET(PWR->SR2, PWR_SR2_VOSF)) && (wait_loop_index != 0U))
 244              		.loc 1 200 7 view .LVU68
ARM GAS  /tmp/ccv7Xt7x.s 			page 10


 200:Drivers/STM32G4xx_HAL_Driver/Src/stm32g4xx_hal_pwr_ex.c ****       while ((HAL_IS_BIT_SET(PWR->SR2, PWR_SR2_VOSF)) && (wait_loop_index != 0U))
 245              		.loc 1 200 53 is_stmt 0 view .LVU69
 246 00c4 1C68     		ldr	r4, [r3]
 201:Drivers/STM32G4xx_HAL_Driver/Src/stm32g4xx_hal_pwr_ex.c ****       {
 247              		.loc 1 201 15 view .LVU70
 248 00c6 5169     		ldr	r1, [r2, #20]
 200:Drivers/STM32G4xx_HAL_Driver/Src/stm32g4xx_hal_pwr_ex.c ****       while ((HAL_IS_BIT_SET(PWR->SR2, PWR_SR2_VOSF)) && (wait_loop_index != 0U))
 249              		.loc 1 200 53 view .LVU71
 250 00c8 3223     		movs	r3, #50
 251 00ca 03FB04F3 		mul	r3, r3, r4
 200:Drivers/STM32G4xx_HAL_Driver/Src/stm32g4xx_hal_pwr_ex.c ****       while ((HAL_IS_BIT_SET(PWR->SR2, PWR_SR2_VOSF)) && (wait_loop_index != 0U))
 252              		.loc 1 200 72 view .LVU72
 253 00ce A0FB0303 		umull	r0, r3, r0, r3
 254 00d2 9B0C     		lsrs	r3, r3, #18
 201:Drivers/STM32G4xx_HAL_Driver/Src/stm32g4xx_hal_pwr_ex.c ****       {
 255              		.loc 1 201 13 view .LVU73
 256 00d4 4805     		lsls	r0, r1, #21
 200:Drivers/STM32G4xx_HAL_Driver/Src/stm32g4xx_hal_pwr_ex.c ****       while ((HAL_IS_BIT_SET(PWR->SR2, PWR_SR2_VOSF)) && (wait_loop_index != 0U))
 257              		.loc 1 200 23 view .LVU74
 258 00d6 03F10103 		add	r3, r3, #1
 259              	.LVL11:
 201:Drivers/STM32G4xx_HAL_Driver/Src/stm32g4xx_hal_pwr_ex.c ****       {
 260              		.loc 1 201 7 is_stmt 1 view .LVU75
 201:Drivers/STM32G4xx_HAL_Driver/Src/stm32g4xx_hal_pwr_ex.c ****       {
 261              		.loc 1 201 13 is_stmt 0 view .LVU76
 262 00da DFD5     		bpl	.L13
 263 00dc 01E0     		b	.L20
 264              	.L42:
 201:Drivers/STM32G4xx_HAL_Driver/Src/stm32g4xx_hal_pwr_ex.c ****       {
 265              		.loc 1 201 55 discriminator 1 view .LVU77
 266 00de 002B     		cmp	r3, #0
 267 00e0 DCD0     		beq	.L13
 268              	.L20:
 203:Drivers/STM32G4xx_HAL_Driver/Src/stm32g4xx_hal_pwr_ex.c ****       }
 269              		.loc 1 203 9 is_stmt 1 view .LVU78
 201:Drivers/STM32G4xx_HAL_Driver/Src/stm32g4xx_hal_pwr_ex.c ****       {
 270              		.loc 1 201 15 is_stmt 0 view .LVU79
 271 00e2 5169     		ldr	r1, [r2, #20]
 201:Drivers/STM32G4xx_HAL_Driver/Src/stm32g4xx_hal_pwr_ex.c ****       {
 272              		.loc 1 201 13 view .LVU80
 273 00e4 4905     		lsls	r1, r1, #21
 203:Drivers/STM32G4xx_HAL_Driver/Src/stm32g4xx_hal_pwr_ex.c ****       }
 274              		.loc 1 203 24 view .LVU81
 275 00e6 03F1FF33 		add	r3, r3, #-1
 276              	.LVL12:
 201:Drivers/STM32G4xx_HAL_Driver/Src/stm32g4xx_hal_pwr_ex.c ****       {
 277              		.loc 1 201 13 view .LVU82
 278 00ea D7D5     		bpl	.L13
 279 00ec F7E7     		b	.L42
 280              	.L44:
 281 00ee 00BF     		.align	2
 282              	.L43:
 283 00f0 00700040 		.word	1073770496
 284 00f4 00000000 		.word	SystemCoreClock
 285 00f8 83DE1B43 		.word	1125899907
 286              		.cfi_endproc
 287              	.LFE330:
ARM GAS  /tmp/ccv7Xt7x.s 			page 11


 289              		.section	.text.HAL_PWREx_EnableBatteryCharging,"ax",%progbits
 290              		.align	1
 291              		.p2align 2,,3
 292              		.global	HAL_PWREx_EnableBatteryCharging
 293              		.syntax unified
 294              		.thumb
 295              		.thumb_func
 296              		.fpu fpv4-sp-d16
 298              	HAL_PWREx_EnableBatteryCharging:
 299              	.LVL13:
 300              	.LFB331:
 227:Drivers/STM32G4xx_HAL_Driver/Src/stm32g4xx_hal_pwr_ex.c **** 
 228:Drivers/STM32G4xx_HAL_Driver/Src/stm32g4xx_hal_pwr_ex.c **** 
 229:Drivers/STM32G4xx_HAL_Driver/Src/stm32g4xx_hal_pwr_ex.c **** /**
 230:Drivers/STM32G4xx_HAL_Driver/Src/stm32g4xx_hal_pwr_ex.c ****   * @brief Enable battery charging.
 231:Drivers/STM32G4xx_HAL_Driver/Src/stm32g4xx_hal_pwr_ex.c ****   *        When VDD is present, charge the external battery on VBAT through an internal resistor.
 232:Drivers/STM32G4xx_HAL_Driver/Src/stm32g4xx_hal_pwr_ex.c ****   * @param  ResistorSelection: specifies the resistor impedance.
 233:Drivers/STM32G4xx_HAL_Driver/Src/stm32g4xx_hal_pwr_ex.c ****   *          This parameter can be one of the following values:
 234:Drivers/STM32G4xx_HAL_Driver/Src/stm32g4xx_hal_pwr_ex.c ****   *            @arg @ref PWR_BATTERY_CHARGING_RESISTOR_5     5 kOhms resistor
 235:Drivers/STM32G4xx_HAL_Driver/Src/stm32g4xx_hal_pwr_ex.c ****   *            @arg @ref PWR_BATTERY_CHARGING_RESISTOR_1_5 1.5 kOhms resistor
 236:Drivers/STM32G4xx_HAL_Driver/Src/stm32g4xx_hal_pwr_ex.c ****   * @retval None
 237:Drivers/STM32G4xx_HAL_Driver/Src/stm32g4xx_hal_pwr_ex.c ****   */
 238:Drivers/STM32G4xx_HAL_Driver/Src/stm32g4xx_hal_pwr_ex.c **** void HAL_PWREx_EnableBatteryCharging(uint32_t ResistorSelection)
 239:Drivers/STM32G4xx_HAL_Driver/Src/stm32g4xx_hal_pwr_ex.c **** {
 301              		.loc 1 239 1 is_stmt 1 view -0
 302              		.cfi_startproc
 303              		@ args = 0, pretend = 0, frame = 0
 304              		@ frame_needed = 0, uses_anonymous_args = 0
 305              		@ link register save eliminated.
 240:Drivers/STM32G4xx_HAL_Driver/Src/stm32g4xx_hal_pwr_ex.c ****   assert_param(IS_PWR_BATTERY_RESISTOR_SELECT(ResistorSelection));
 306              		.loc 1 240 3 view .LVU84
 241:Drivers/STM32G4xx_HAL_Driver/Src/stm32g4xx_hal_pwr_ex.c **** 
 242:Drivers/STM32G4xx_HAL_Driver/Src/stm32g4xx_hal_pwr_ex.c ****   /* Specify resistor selection */
 243:Drivers/STM32G4xx_HAL_Driver/Src/stm32g4xx_hal_pwr_ex.c ****   MODIFY_REG(PWR->CR4, PWR_CR4_VBRS, ResistorSelection);
 307              		.loc 1 243 3 view .LVU85
 308 0000 054A     		ldr	r2, .L46
 309 0002 D368     		ldr	r3, [r2, #12]
 310 0004 23F40073 		bic	r3, r3, #512
 311 0008 1843     		orrs	r0, r0, r3
 312              	.LVL14:
 313              		.loc 1 243 3 is_stmt 0 view .LVU86
 314 000a D060     		str	r0, [r2, #12]
 244:Drivers/STM32G4xx_HAL_Driver/Src/stm32g4xx_hal_pwr_ex.c **** 
 245:Drivers/STM32G4xx_HAL_Driver/Src/stm32g4xx_hal_pwr_ex.c ****   /* Enable battery charging */
 246:Drivers/STM32G4xx_HAL_Driver/Src/stm32g4xx_hal_pwr_ex.c ****   SET_BIT(PWR->CR4, PWR_CR4_VBE);
 315              		.loc 1 246 3 is_stmt 1 view .LVU87
 316 000c D368     		ldr	r3, [r2, #12]
 317 000e 43F48073 		orr	r3, r3, #256
 318 0012 D360     		str	r3, [r2, #12]
 247:Drivers/STM32G4xx_HAL_Driver/Src/stm32g4xx_hal_pwr_ex.c **** }
 319              		.loc 1 247 1 is_stmt 0 view .LVU88
 320 0014 7047     		bx	lr
 321              	.L47:
 322 0016 00BF     		.align	2
 323              	.L46:
 324 0018 00700040 		.word	1073770496
 325              		.cfi_endproc
ARM GAS  /tmp/ccv7Xt7x.s 			page 12


 326              	.LFE331:
 328              		.section	.text.HAL_PWREx_DisableBatteryCharging,"ax",%progbits
 329              		.align	1
 330              		.p2align 2,,3
 331              		.global	HAL_PWREx_DisableBatteryCharging
 332              		.syntax unified
 333              		.thumb
 334              		.thumb_func
 335              		.fpu fpv4-sp-d16
 337              	HAL_PWREx_DisableBatteryCharging:
 338              	.LFB332:
 248:Drivers/STM32G4xx_HAL_Driver/Src/stm32g4xx_hal_pwr_ex.c **** 
 249:Drivers/STM32G4xx_HAL_Driver/Src/stm32g4xx_hal_pwr_ex.c **** 
 250:Drivers/STM32G4xx_HAL_Driver/Src/stm32g4xx_hal_pwr_ex.c **** /**
 251:Drivers/STM32G4xx_HAL_Driver/Src/stm32g4xx_hal_pwr_ex.c ****   * @brief Disable battery charging.
 252:Drivers/STM32G4xx_HAL_Driver/Src/stm32g4xx_hal_pwr_ex.c ****   * @retval None
 253:Drivers/STM32G4xx_HAL_Driver/Src/stm32g4xx_hal_pwr_ex.c ****   */
 254:Drivers/STM32G4xx_HAL_Driver/Src/stm32g4xx_hal_pwr_ex.c **** void HAL_PWREx_DisableBatteryCharging(void)
 255:Drivers/STM32G4xx_HAL_Driver/Src/stm32g4xx_hal_pwr_ex.c **** {
 339              		.loc 1 255 1 is_stmt 1 view -0
 340              		.cfi_startproc
 341              		@ args = 0, pretend = 0, frame = 0
 342              		@ frame_needed = 0, uses_anonymous_args = 0
 343              		@ link register save eliminated.
 256:Drivers/STM32G4xx_HAL_Driver/Src/stm32g4xx_hal_pwr_ex.c ****   CLEAR_BIT(PWR->CR4, PWR_CR4_VBE);
 344              		.loc 1 256 3 view .LVU90
 345 0000 024A     		ldr	r2, .L49
 346 0002 D368     		ldr	r3, [r2, #12]
 347 0004 23F48073 		bic	r3, r3, #256
 348 0008 D360     		str	r3, [r2, #12]
 257:Drivers/STM32G4xx_HAL_Driver/Src/stm32g4xx_hal_pwr_ex.c **** }
 349              		.loc 1 257 1 is_stmt 0 view .LVU91
 350 000a 7047     		bx	lr
 351              	.L50:
 352              		.align	2
 353              	.L49:
 354 000c 00700040 		.word	1073770496
 355              		.cfi_endproc
 356              	.LFE332:
 358              		.section	.text.HAL_PWREx_EnableInternalWakeUpLine,"ax",%progbits
 359              		.align	1
 360              		.p2align 2,,3
 361              		.global	HAL_PWREx_EnableInternalWakeUpLine
 362              		.syntax unified
 363              		.thumb
 364              		.thumb_func
 365              		.fpu fpv4-sp-d16
 367              	HAL_PWREx_EnableInternalWakeUpLine:
 368              	.LFB333:
 258:Drivers/STM32G4xx_HAL_Driver/Src/stm32g4xx_hal_pwr_ex.c **** 
 259:Drivers/STM32G4xx_HAL_Driver/Src/stm32g4xx_hal_pwr_ex.c **** 
 260:Drivers/STM32G4xx_HAL_Driver/Src/stm32g4xx_hal_pwr_ex.c **** /**
 261:Drivers/STM32G4xx_HAL_Driver/Src/stm32g4xx_hal_pwr_ex.c ****   * @brief Enable Internal Wake-up Line.
 262:Drivers/STM32G4xx_HAL_Driver/Src/stm32g4xx_hal_pwr_ex.c ****   * @retval None
 263:Drivers/STM32G4xx_HAL_Driver/Src/stm32g4xx_hal_pwr_ex.c ****   */
 264:Drivers/STM32G4xx_HAL_Driver/Src/stm32g4xx_hal_pwr_ex.c **** void HAL_PWREx_EnableInternalWakeUpLine(void)
 265:Drivers/STM32G4xx_HAL_Driver/Src/stm32g4xx_hal_pwr_ex.c **** {
ARM GAS  /tmp/ccv7Xt7x.s 			page 13


 369              		.loc 1 265 1 is_stmt 1 view -0
 370              		.cfi_startproc
 371              		@ args = 0, pretend = 0, frame = 0
 372              		@ frame_needed = 0, uses_anonymous_args = 0
 373              		@ link register save eliminated.
 266:Drivers/STM32G4xx_HAL_Driver/Src/stm32g4xx_hal_pwr_ex.c ****   SET_BIT(PWR->CR3, PWR_CR3_EIWF);
 374              		.loc 1 266 3 view .LVU93
 375 0000 024A     		ldr	r2, .L52
 376 0002 9368     		ldr	r3, [r2, #8]
 377 0004 43F40043 		orr	r3, r3, #32768
 378 0008 9360     		str	r3, [r2, #8]
 267:Drivers/STM32G4xx_HAL_Driver/Src/stm32g4xx_hal_pwr_ex.c **** }
 379              		.loc 1 267 1 is_stmt 0 view .LVU94
 380 000a 7047     		bx	lr
 381              	.L53:
 382              		.align	2
 383              	.L52:
 384 000c 00700040 		.word	1073770496
 385              		.cfi_endproc
 386              	.LFE333:
 388              		.section	.text.HAL_PWREx_DisableInternalWakeUpLine,"ax",%progbits
 389              		.align	1
 390              		.p2align 2,,3
 391              		.global	HAL_PWREx_DisableInternalWakeUpLine
 392              		.syntax unified
 393              		.thumb
 394              		.thumb_func
 395              		.fpu fpv4-sp-d16
 397              	HAL_PWREx_DisableInternalWakeUpLine:
 398              	.LFB334:
 268:Drivers/STM32G4xx_HAL_Driver/Src/stm32g4xx_hal_pwr_ex.c **** 
 269:Drivers/STM32G4xx_HAL_Driver/Src/stm32g4xx_hal_pwr_ex.c **** 
 270:Drivers/STM32G4xx_HAL_Driver/Src/stm32g4xx_hal_pwr_ex.c **** /**
 271:Drivers/STM32G4xx_HAL_Driver/Src/stm32g4xx_hal_pwr_ex.c ****   * @brief Disable Internal Wake-up Line.
 272:Drivers/STM32G4xx_HAL_Driver/Src/stm32g4xx_hal_pwr_ex.c ****   * @retval None
 273:Drivers/STM32G4xx_HAL_Driver/Src/stm32g4xx_hal_pwr_ex.c ****   */
 274:Drivers/STM32G4xx_HAL_Driver/Src/stm32g4xx_hal_pwr_ex.c **** void HAL_PWREx_DisableInternalWakeUpLine(void)
 275:Drivers/STM32G4xx_HAL_Driver/Src/stm32g4xx_hal_pwr_ex.c **** {
 399              		.loc 1 275 1 is_stmt 1 view -0
 400              		.cfi_startproc
 401              		@ args = 0, pretend = 0, frame = 0
 402              		@ frame_needed = 0, uses_anonymous_args = 0
 403              		@ link register save eliminated.
 276:Drivers/STM32G4xx_HAL_Driver/Src/stm32g4xx_hal_pwr_ex.c ****   CLEAR_BIT(PWR->CR3, PWR_CR3_EIWF);
 404              		.loc 1 276 3 view .LVU96
 405 0000 024A     		ldr	r2, .L55
 406 0002 9368     		ldr	r3, [r2, #8]
 407 0004 23F40043 		bic	r3, r3, #32768
 408 0008 9360     		str	r3, [r2, #8]
 277:Drivers/STM32G4xx_HAL_Driver/Src/stm32g4xx_hal_pwr_ex.c **** }
 409              		.loc 1 277 1 is_stmt 0 view .LVU97
 410 000a 7047     		bx	lr
 411              	.L56:
 412              		.align	2
 413              	.L55:
 414 000c 00700040 		.word	1073770496
 415              		.cfi_endproc
ARM GAS  /tmp/ccv7Xt7x.s 			page 14


 416              	.LFE334:
 418              		.section	.text.HAL_PWREx_EnableGPIOPullUp,"ax",%progbits
 419              		.align	1
 420              		.p2align 2,,3
 421              		.global	HAL_PWREx_EnableGPIOPullUp
 422              		.syntax unified
 423              		.thumb
 424              		.thumb_func
 425              		.fpu fpv4-sp-d16
 427              	HAL_PWREx_EnableGPIOPullUp:
 428              	.LVL15:
 429              	.LFB335:
 278:Drivers/STM32G4xx_HAL_Driver/Src/stm32g4xx_hal_pwr_ex.c **** 
 279:Drivers/STM32G4xx_HAL_Driver/Src/stm32g4xx_hal_pwr_ex.c **** 
 280:Drivers/STM32G4xx_HAL_Driver/Src/stm32g4xx_hal_pwr_ex.c **** 
 281:Drivers/STM32G4xx_HAL_Driver/Src/stm32g4xx_hal_pwr_ex.c **** /**
 282:Drivers/STM32G4xx_HAL_Driver/Src/stm32g4xx_hal_pwr_ex.c ****   * @brief Enable GPIO pull-up state in Standby and Shutdown modes.
 283:Drivers/STM32G4xx_HAL_Driver/Src/stm32g4xx_hal_pwr_ex.c ****   * @note  Set the relevant PUy bits of PWR_PUCRx register to configure the I/O in
 284:Drivers/STM32G4xx_HAL_Driver/Src/stm32g4xx_hal_pwr_ex.c ****   *        pull-up state in Standby and Shutdown modes.
 285:Drivers/STM32G4xx_HAL_Driver/Src/stm32g4xx_hal_pwr_ex.c ****   * @note  This state is effective in Standby and Shutdown modes only if APC bit
 286:Drivers/STM32G4xx_HAL_Driver/Src/stm32g4xx_hal_pwr_ex.c ****   *        is set through HAL_PWREx_EnablePullUpPullDownConfig() API.
 287:Drivers/STM32G4xx_HAL_Driver/Src/stm32g4xx_hal_pwr_ex.c ****   * @note  The configuration is lost when exiting the Shutdown mode due to the
 288:Drivers/STM32G4xx_HAL_Driver/Src/stm32g4xx_hal_pwr_ex.c ****   *        power-on reset, maintained when exiting the Standby mode.
 289:Drivers/STM32G4xx_HAL_Driver/Src/stm32g4xx_hal_pwr_ex.c ****   * @note  To avoid any conflict at Standby and Shutdown modes exits, the corresponding
 290:Drivers/STM32G4xx_HAL_Driver/Src/stm32g4xx_hal_pwr_ex.c ****   *        PDy bit of PWR_PDCRx register is cleared unless it is reserved.
 291:Drivers/STM32G4xx_HAL_Driver/Src/stm32g4xx_hal_pwr_ex.c ****   * @note  Even if a PUy bit to set is reserved, the other PUy bits entered as input
 292:Drivers/STM32G4xx_HAL_Driver/Src/stm32g4xx_hal_pwr_ex.c ****   *        parameter at the same time are set.
 293:Drivers/STM32G4xx_HAL_Driver/Src/stm32g4xx_hal_pwr_ex.c ****   * @param  GPIO: Specify the IO port. This parameter can be PWR_GPIO_A, ..., PWR_GPIO_G
 294:Drivers/STM32G4xx_HAL_Driver/Src/stm32g4xx_hal_pwr_ex.c ****   *         (or PWR_GPIO_I depending on the devices) to select the GPIO peripheral.
 295:Drivers/STM32G4xx_HAL_Driver/Src/stm32g4xx_hal_pwr_ex.c ****   * @param  GPIONumber: Specify the I/O pins numbers.
 296:Drivers/STM32G4xx_HAL_Driver/Src/stm32g4xx_hal_pwr_ex.c ****   *         This parameter can be one of the following values:
 297:Drivers/STM32G4xx_HAL_Driver/Src/stm32g4xx_hal_pwr_ex.c ****   *         PWR_GPIO_BIT_0, ..., PWR_GPIO_BIT_15 (except for the port where less
 298:Drivers/STM32G4xx_HAL_Driver/Src/stm32g4xx_hal_pwr_ex.c ****   *         I/O pins are available) or the logical OR of several of them to set
 299:Drivers/STM32G4xx_HAL_Driver/Src/stm32g4xx_hal_pwr_ex.c ****   *         several bits for a given port in a single API call.
 300:Drivers/STM32G4xx_HAL_Driver/Src/stm32g4xx_hal_pwr_ex.c ****   * @retval HAL Status
 301:Drivers/STM32G4xx_HAL_Driver/Src/stm32g4xx_hal_pwr_ex.c ****   */
 302:Drivers/STM32G4xx_HAL_Driver/Src/stm32g4xx_hal_pwr_ex.c **** HAL_StatusTypeDef HAL_PWREx_EnableGPIOPullUp(uint32_t GPIO, uint32_t GPIONumber)
 303:Drivers/STM32G4xx_HAL_Driver/Src/stm32g4xx_hal_pwr_ex.c **** {
 430              		.loc 1 303 1 is_stmt 1 view -0
 431              		.cfi_startproc
 432              		@ args = 0, pretend = 0, frame = 0
 433              		@ frame_needed = 0, uses_anonymous_args = 0
 434              		@ link register save eliminated.
 304:Drivers/STM32G4xx_HAL_Driver/Src/stm32g4xx_hal_pwr_ex.c ****   HAL_StatusTypeDef status = HAL_OK;
 435              		.loc 1 304 3 view .LVU99
 305:Drivers/STM32G4xx_HAL_Driver/Src/stm32g4xx_hal_pwr_ex.c **** 
 306:Drivers/STM32G4xx_HAL_Driver/Src/stm32g4xx_hal_pwr_ex.c ****   assert_param(IS_PWR_GPIO(GPIO));
 436              		.loc 1 306 3 view .LVU100
 307:Drivers/STM32G4xx_HAL_Driver/Src/stm32g4xx_hal_pwr_ex.c ****   assert_param(IS_PWR_GPIO_BIT_NUMBER(GPIONumber));
 437              		.loc 1 307 3 view .LVU101
 308:Drivers/STM32G4xx_HAL_Driver/Src/stm32g4xx_hal_pwr_ex.c **** 
 309:Drivers/STM32G4xx_HAL_Driver/Src/stm32g4xx_hal_pwr_ex.c ****   switch (GPIO)
 438              		.loc 1 309 3 view .LVU102
 439 0000 0628     		cmp	r0, #6
 440 0002 54D8     		bhi	.L67
 441 0004 DFE800F0 		tbb	[pc, r0]
 442              	.L60:
ARM GAS  /tmp/ccv7Xt7x.s 			page 15


 443 0008 0E       		.byte	(.L66-.L60)/2
 444 0009 1C       		.byte	(.L65-.L60)/2
 445 000a 28       		.byte	(.L64-.L60)/2
 446 000b 32       		.byte	(.L63-.L60)/2
 447 000c 3C       		.byte	(.L62-.L60)/2
 448 000d 46       		.byte	(.L61-.L60)/2
 449 000e 04       		.byte	(.L59-.L60)/2
 450 000f 00       		.p2align 1
 451              	.L59:
 310:Drivers/STM32G4xx_HAL_Driver/Src/stm32g4xx_hal_pwr_ex.c ****   {
 311:Drivers/STM32G4xx_HAL_Driver/Src/stm32g4xx_hal_pwr_ex.c ****     case PWR_GPIO_A:
 312:Drivers/STM32G4xx_HAL_Driver/Src/stm32g4xx_hal_pwr_ex.c ****        SET_BIT(PWR->PUCRA, (GPIONumber & (~(PWR_GPIO_BIT_14))));
 313:Drivers/STM32G4xx_HAL_Driver/Src/stm32g4xx_hal_pwr_ex.c ****        CLEAR_BIT(PWR->PDCRA, (GPIONumber & (~(PWR_GPIO_BIT_13|PWR_GPIO_BIT_15))));
 314:Drivers/STM32G4xx_HAL_Driver/Src/stm32g4xx_hal_pwr_ex.c ****        break;
 315:Drivers/STM32G4xx_HAL_Driver/Src/stm32g4xx_hal_pwr_ex.c ****     case PWR_GPIO_B:
 316:Drivers/STM32G4xx_HAL_Driver/Src/stm32g4xx_hal_pwr_ex.c ****        SET_BIT(PWR->PUCRB, GPIONumber);
 317:Drivers/STM32G4xx_HAL_Driver/Src/stm32g4xx_hal_pwr_ex.c ****        CLEAR_BIT(PWR->PDCRB, (GPIONumber & (~(PWR_GPIO_BIT_4))));
 318:Drivers/STM32G4xx_HAL_Driver/Src/stm32g4xx_hal_pwr_ex.c ****        break;
 319:Drivers/STM32G4xx_HAL_Driver/Src/stm32g4xx_hal_pwr_ex.c ****     case PWR_GPIO_C:
 320:Drivers/STM32G4xx_HAL_Driver/Src/stm32g4xx_hal_pwr_ex.c ****        SET_BIT(PWR->PUCRC, GPIONumber);
 321:Drivers/STM32G4xx_HAL_Driver/Src/stm32g4xx_hal_pwr_ex.c ****        CLEAR_BIT(PWR->PDCRC, GPIONumber);
 322:Drivers/STM32G4xx_HAL_Driver/Src/stm32g4xx_hal_pwr_ex.c ****        break;
 323:Drivers/STM32G4xx_HAL_Driver/Src/stm32g4xx_hal_pwr_ex.c ****     case PWR_GPIO_D:
 324:Drivers/STM32G4xx_HAL_Driver/Src/stm32g4xx_hal_pwr_ex.c ****        SET_BIT(PWR->PUCRD, GPIONumber);
 325:Drivers/STM32G4xx_HAL_Driver/Src/stm32g4xx_hal_pwr_ex.c ****        CLEAR_BIT(PWR->PDCRD, GPIONumber);
 326:Drivers/STM32G4xx_HAL_Driver/Src/stm32g4xx_hal_pwr_ex.c ****        break;
 327:Drivers/STM32G4xx_HAL_Driver/Src/stm32g4xx_hal_pwr_ex.c ****     case PWR_GPIO_E:
 328:Drivers/STM32G4xx_HAL_Driver/Src/stm32g4xx_hal_pwr_ex.c ****        SET_BIT(PWR->PUCRE, GPIONumber);
 329:Drivers/STM32G4xx_HAL_Driver/Src/stm32g4xx_hal_pwr_ex.c ****        CLEAR_BIT(PWR->PDCRE, GPIONumber);
 330:Drivers/STM32G4xx_HAL_Driver/Src/stm32g4xx_hal_pwr_ex.c ****        break;
 331:Drivers/STM32G4xx_HAL_Driver/Src/stm32g4xx_hal_pwr_ex.c ****     case PWR_GPIO_F:
 332:Drivers/STM32G4xx_HAL_Driver/Src/stm32g4xx_hal_pwr_ex.c ****        SET_BIT(PWR->PUCRF, (GPIONumber & PWR_PORTF_AVAILABLE_PINS));
 333:Drivers/STM32G4xx_HAL_Driver/Src/stm32g4xx_hal_pwr_ex.c ****        CLEAR_BIT(PWR->PDCRF, (GPIONumber & PWR_PORTF_AVAILABLE_PINS));
 334:Drivers/STM32G4xx_HAL_Driver/Src/stm32g4xx_hal_pwr_ex.c ****        break;
 335:Drivers/STM32G4xx_HAL_Driver/Src/stm32g4xx_hal_pwr_ex.c ****     case PWR_GPIO_G:
 336:Drivers/STM32G4xx_HAL_Driver/Src/stm32g4xx_hal_pwr_ex.c ****        SET_BIT(PWR->PUCRG, (GPIONumber & PWR_PORTG_AVAILABLE_PINS));
 452              		.loc 1 336 8 view .LVU103
 453 0010 284B     		ldr	r3, .L68
 454 0012 1A6D     		ldr	r2, [r3, #80]
 455 0014 01F48061 		and	r1, r1, #1024
 456              	.LVL16:
 457              		.loc 1 336 8 is_stmt 0 view .LVU104
 458 0018 1143     		orrs	r1, r1, r2
 459 001a 1965     		str	r1, [r3, #80]
 337:Drivers/STM32G4xx_HAL_Driver/Src/stm32g4xx_hal_pwr_ex.c ****        CLEAR_BIT(PWR->PDCRG, ((GPIONumber & PWR_PORTG_AVAILABLE_PINS) & (~(PWR_GPIO_BIT_10))));
 460              		.loc 1 337 8 is_stmt 1 view .LVU105
 461 001c 5A6D     		ldr	r2, [r3, #84]
 462 001e 5A65     		str	r2, [r3, #84]
 338:Drivers/STM32G4xx_HAL_Driver/Src/stm32g4xx_hal_pwr_ex.c ****        break;
 463              		.loc 1 338 8 view .LVU106
 304:Drivers/STM32G4xx_HAL_Driver/Src/stm32g4xx_hal_pwr_ex.c **** 
 464              		.loc 1 304 21 is_stmt 0 view .LVU107
 465 0020 0020     		movs	r0, #0
 466              	.LVL17:
 467              		.loc 1 338 8 view .LVU108
 468 0022 7047     		bx	lr
 469              	.LVL18:
ARM GAS  /tmp/ccv7Xt7x.s 			page 16


 470              	.L66:
 312:Drivers/STM32G4xx_HAL_Driver/Src/stm32g4xx_hal_pwr_ex.c ****        CLEAR_BIT(PWR->PDCRA, (GPIONumber & (~(PWR_GPIO_BIT_13|PWR_GPIO_BIT_15))));
 471              		.loc 1 312 8 is_stmt 1 view .LVU109
 472 0024 234B     		ldr	r3, .L68
 473 0026 186A     		ldr	r0, [r3, #32]
 474              	.LVL19:
 312:Drivers/STM32G4xx_HAL_Driver/Src/stm32g4xx_hal_pwr_ex.c ****        CLEAR_BIT(PWR->PDCRA, (GPIONumber & (~(PWR_GPIO_BIT_13|PWR_GPIO_BIT_15))));
 475              		.loc 1 312 8 is_stmt 0 view .LVU110
 476 0028 21F48042 		bic	r2, r1, #16384
 477 002c 0243     		orrs	r2, r2, r0
 478 002e 1A62     		str	r2, [r3, #32]
 313:Drivers/STM32G4xx_HAL_Driver/Src/stm32g4xx_hal_pwr_ex.c ****        break;
 479              		.loc 1 313 8 is_stmt 1 view .LVU111
 480 0030 5A6A     		ldr	r2, [r3, #36]
 481 0032 21F42041 		bic	r1, r1, #40960
 482              	.LVL20:
 313:Drivers/STM32G4xx_HAL_Driver/Src/stm32g4xx_hal_pwr_ex.c ****        break;
 483              		.loc 1 313 8 is_stmt 0 view .LVU112
 484 0036 22EA0102 		bic	r2, r2, r1
 485 003a 5A62     		str	r2, [r3, #36]
 314:Drivers/STM32G4xx_HAL_Driver/Src/stm32g4xx_hal_pwr_ex.c ****     case PWR_GPIO_B:
 486              		.loc 1 314 8 is_stmt 1 view .LVU113
 304:Drivers/STM32G4xx_HAL_Driver/Src/stm32g4xx_hal_pwr_ex.c **** 
 487              		.loc 1 304 21 is_stmt 0 view .LVU114
 488 003c 0020     		movs	r0, #0
 314:Drivers/STM32G4xx_HAL_Driver/Src/stm32g4xx_hal_pwr_ex.c ****     case PWR_GPIO_B:
 489              		.loc 1 314 8 view .LVU115
 490 003e 7047     		bx	lr
 491              	.LVL21:
 492              	.L65:
 316:Drivers/STM32G4xx_HAL_Driver/Src/stm32g4xx_hal_pwr_ex.c ****        CLEAR_BIT(PWR->PDCRB, (GPIONumber & (~(PWR_GPIO_BIT_4))));
 493              		.loc 1 316 8 is_stmt 1 view .LVU116
 494 0040 1C4B     		ldr	r3, .L68
 495 0042 9A6A     		ldr	r2, [r3, #40]
 496 0044 0A43     		orrs	r2, r2, r1
 497 0046 9A62     		str	r2, [r3, #40]
 317:Drivers/STM32G4xx_HAL_Driver/Src/stm32g4xx_hal_pwr_ex.c ****        break;
 498              		.loc 1 317 8 view .LVU117
 499 0048 DA6A     		ldr	r2, [r3, #44]
 500 004a 21F01001 		bic	r1, r1, #16
 501              	.LVL22:
 317:Drivers/STM32G4xx_HAL_Driver/Src/stm32g4xx_hal_pwr_ex.c ****        break;
 502              		.loc 1 317 8 is_stmt 0 view .LVU118
 503 004e 22EA0102 		bic	r2, r2, r1
 504 0052 DA62     		str	r2, [r3, #44]
 318:Drivers/STM32G4xx_HAL_Driver/Src/stm32g4xx_hal_pwr_ex.c ****     case PWR_GPIO_C:
 505              		.loc 1 318 8 is_stmt 1 view .LVU119
 304:Drivers/STM32G4xx_HAL_Driver/Src/stm32g4xx_hal_pwr_ex.c **** 
 506              		.loc 1 304 21 is_stmt 0 view .LVU120
 507 0054 0020     		movs	r0, #0
 508              	.LVL23:
 318:Drivers/STM32G4xx_HAL_Driver/Src/stm32g4xx_hal_pwr_ex.c ****     case PWR_GPIO_C:
 509              		.loc 1 318 8 view .LVU121
 510 0056 7047     		bx	lr
 511              	.LVL24:
 512              	.L64:
 320:Drivers/STM32G4xx_HAL_Driver/Src/stm32g4xx_hal_pwr_ex.c ****        CLEAR_BIT(PWR->PDCRC, GPIONumber);
ARM GAS  /tmp/ccv7Xt7x.s 			page 17


 513              		.loc 1 320 8 is_stmt 1 view .LVU122
 514 0058 164B     		ldr	r3, .L68
 515 005a 1A6B     		ldr	r2, [r3, #48]
 516 005c 0A43     		orrs	r2, r2, r1
 517 005e 1A63     		str	r2, [r3, #48]
 321:Drivers/STM32G4xx_HAL_Driver/Src/stm32g4xx_hal_pwr_ex.c ****        break;
 518              		.loc 1 321 8 view .LVU123
 519 0060 5A6B     		ldr	r2, [r3, #52]
 520 0062 22EA0101 		bic	r1, r2, r1
 521              	.LVL25:
 321:Drivers/STM32G4xx_HAL_Driver/Src/stm32g4xx_hal_pwr_ex.c ****        break;
 522              		.loc 1 321 8 is_stmt 0 view .LVU124
 523 0066 5963     		str	r1, [r3, #52]
 322:Drivers/STM32G4xx_HAL_Driver/Src/stm32g4xx_hal_pwr_ex.c ****     case PWR_GPIO_D:
 524              		.loc 1 322 8 is_stmt 1 view .LVU125
 304:Drivers/STM32G4xx_HAL_Driver/Src/stm32g4xx_hal_pwr_ex.c **** 
 525              		.loc 1 304 21 is_stmt 0 view .LVU126
 526 0068 0020     		movs	r0, #0
 527              	.LVL26:
 322:Drivers/STM32G4xx_HAL_Driver/Src/stm32g4xx_hal_pwr_ex.c ****     case PWR_GPIO_D:
 528              		.loc 1 322 8 view .LVU127
 529 006a 7047     		bx	lr
 530              	.LVL27:
 531              	.L63:
 324:Drivers/STM32G4xx_HAL_Driver/Src/stm32g4xx_hal_pwr_ex.c ****        CLEAR_BIT(PWR->PDCRD, GPIONumber);
 532              		.loc 1 324 8 is_stmt 1 view .LVU128
 533 006c 114B     		ldr	r3, .L68
 534 006e 9A6B     		ldr	r2, [r3, #56]
 535 0070 0A43     		orrs	r2, r2, r1
 536 0072 9A63     		str	r2, [r3, #56]
 325:Drivers/STM32G4xx_HAL_Driver/Src/stm32g4xx_hal_pwr_ex.c ****        break;
 537              		.loc 1 325 8 view .LVU129
 538 0074 DA6B     		ldr	r2, [r3, #60]
 539 0076 22EA0101 		bic	r1, r2, r1
 540              	.LVL28:
 325:Drivers/STM32G4xx_HAL_Driver/Src/stm32g4xx_hal_pwr_ex.c ****        break;
 541              		.loc 1 325 8 is_stmt 0 view .LVU130
 542 007a D963     		str	r1, [r3, #60]
 326:Drivers/STM32G4xx_HAL_Driver/Src/stm32g4xx_hal_pwr_ex.c ****     case PWR_GPIO_E:
 543              		.loc 1 326 8 is_stmt 1 view .LVU131
 304:Drivers/STM32G4xx_HAL_Driver/Src/stm32g4xx_hal_pwr_ex.c **** 
 544              		.loc 1 304 21 is_stmt 0 view .LVU132
 545 007c 0020     		movs	r0, #0
 546              	.LVL29:
 326:Drivers/STM32G4xx_HAL_Driver/Src/stm32g4xx_hal_pwr_ex.c ****     case PWR_GPIO_E:
 547              		.loc 1 326 8 view .LVU133
 548 007e 7047     		bx	lr
 549              	.LVL30:
 550              	.L62:
 328:Drivers/STM32G4xx_HAL_Driver/Src/stm32g4xx_hal_pwr_ex.c ****        CLEAR_BIT(PWR->PDCRE, GPIONumber);
 551              		.loc 1 328 8 is_stmt 1 view .LVU134
 552 0080 0C4B     		ldr	r3, .L68
 553 0082 1A6C     		ldr	r2, [r3, #64]
 554 0084 0A43     		orrs	r2, r2, r1
 555 0086 1A64     		str	r2, [r3, #64]
 329:Drivers/STM32G4xx_HAL_Driver/Src/stm32g4xx_hal_pwr_ex.c ****        break;
 556              		.loc 1 329 8 view .LVU135
ARM GAS  /tmp/ccv7Xt7x.s 			page 18


 557 0088 5A6C     		ldr	r2, [r3, #68]
 558 008a 22EA0101 		bic	r1, r2, r1
 559              	.LVL31:
 329:Drivers/STM32G4xx_HAL_Driver/Src/stm32g4xx_hal_pwr_ex.c ****        break;
 560              		.loc 1 329 8 is_stmt 0 view .LVU136
 561 008e 5964     		str	r1, [r3, #68]
 330:Drivers/STM32G4xx_HAL_Driver/Src/stm32g4xx_hal_pwr_ex.c ****     case PWR_GPIO_F:
 562              		.loc 1 330 8 is_stmt 1 view .LVU137
 304:Drivers/STM32G4xx_HAL_Driver/Src/stm32g4xx_hal_pwr_ex.c **** 
 563              		.loc 1 304 21 is_stmt 0 view .LVU138
 564 0090 0020     		movs	r0, #0
 565              	.LVL32:
 330:Drivers/STM32G4xx_HAL_Driver/Src/stm32g4xx_hal_pwr_ex.c ****     case PWR_GPIO_F:
 566              		.loc 1 330 8 view .LVU139
 567 0092 7047     		bx	lr
 568              	.LVL33:
 569              	.L61:
 332:Drivers/STM32G4xx_HAL_Driver/Src/stm32g4xx_hal_pwr_ex.c ****        CLEAR_BIT(PWR->PDCRF, (GPIONumber & PWR_PORTF_AVAILABLE_PINS));
 570              		.loc 1 332 8 is_stmt 1 view .LVU140
 571 0094 074B     		ldr	r3, .L68
 572 0096 40F20762 		movw	r2, #1543
 573 009a 986C     		ldr	r0, [r3, #72]
 574              	.LVL34:
 332:Drivers/STM32G4xx_HAL_Driver/Src/stm32g4xx_hal_pwr_ex.c ****        CLEAR_BIT(PWR->PDCRF, (GPIONumber & PWR_PORTF_AVAILABLE_PINS));
 575              		.loc 1 332 8 is_stmt 0 view .LVU141
 576 009c 1140     		ands	r1, r1, r2
 577              	.LVL35:
 332:Drivers/STM32G4xx_HAL_Driver/Src/stm32g4xx_hal_pwr_ex.c ****        CLEAR_BIT(PWR->PDCRF, (GPIONumber & PWR_PORTF_AVAILABLE_PINS));
 578              		.loc 1 332 8 view .LVU142
 579 009e 0843     		orrs	r0, r0, r1
 580 00a0 9864     		str	r0, [r3, #72]
 333:Drivers/STM32G4xx_HAL_Driver/Src/stm32g4xx_hal_pwr_ex.c ****        break;
 581              		.loc 1 333 8 is_stmt 1 view .LVU143
 582 00a2 DA6C     		ldr	r2, [r3, #76]
 583 00a4 22EA0101 		bic	r1, r2, r1
 584 00a8 D964     		str	r1, [r3, #76]
 334:Drivers/STM32G4xx_HAL_Driver/Src/stm32g4xx_hal_pwr_ex.c ****     case PWR_GPIO_G:
 585              		.loc 1 334 8 view .LVU144
 304:Drivers/STM32G4xx_HAL_Driver/Src/stm32g4xx_hal_pwr_ex.c **** 
 586              		.loc 1 304 21 is_stmt 0 view .LVU145
 587 00aa 0020     		movs	r0, #0
 334:Drivers/STM32G4xx_HAL_Driver/Src/stm32g4xx_hal_pwr_ex.c ****     case PWR_GPIO_G:
 588              		.loc 1 334 8 view .LVU146
 589 00ac 7047     		bx	lr
 590              	.LVL36:
 591              	.L67:
 339:Drivers/STM32G4xx_HAL_Driver/Src/stm32g4xx_hal_pwr_ex.c ****     default:
 340:Drivers/STM32G4xx_HAL_Driver/Src/stm32g4xx_hal_pwr_ex.c ****       status = HAL_ERROR;
 592              		.loc 1 340 14 view .LVU147
 593 00ae 0120     		movs	r0, #1
 594              	.LVL37:
 341:Drivers/STM32G4xx_HAL_Driver/Src/stm32g4xx_hal_pwr_ex.c ****       break;
 342:Drivers/STM32G4xx_HAL_Driver/Src/stm32g4xx_hal_pwr_ex.c ****   }
 343:Drivers/STM32G4xx_HAL_Driver/Src/stm32g4xx_hal_pwr_ex.c **** 
 344:Drivers/STM32G4xx_HAL_Driver/Src/stm32g4xx_hal_pwr_ex.c ****   return status;
 595              		.loc 1 344 3 is_stmt 1 view .LVU148
 345:Drivers/STM32G4xx_HAL_Driver/Src/stm32g4xx_hal_pwr_ex.c **** }
ARM GAS  /tmp/ccv7Xt7x.s 			page 19


 596              		.loc 1 345 1 is_stmt 0 view .LVU149
 597 00b0 7047     		bx	lr
 598              	.L69:
 599 00b2 00BF     		.align	2
 600              	.L68:
 601 00b4 00700040 		.word	1073770496
 602              		.cfi_endproc
 603              	.LFE335:
 605              		.section	.text.HAL_PWREx_DisableGPIOPullUp,"ax",%progbits
 606              		.align	1
 607              		.p2align 2,,3
 608              		.global	HAL_PWREx_DisableGPIOPullUp
 609              		.syntax unified
 610              		.thumb
 611              		.thumb_func
 612              		.fpu fpv4-sp-d16
 614              	HAL_PWREx_DisableGPIOPullUp:
 615              	.LVL38:
 616              	.LFB336:
 346:Drivers/STM32G4xx_HAL_Driver/Src/stm32g4xx_hal_pwr_ex.c **** 
 347:Drivers/STM32G4xx_HAL_Driver/Src/stm32g4xx_hal_pwr_ex.c **** 
 348:Drivers/STM32G4xx_HAL_Driver/Src/stm32g4xx_hal_pwr_ex.c **** /**
 349:Drivers/STM32G4xx_HAL_Driver/Src/stm32g4xx_hal_pwr_ex.c ****   * @brief Disable GPIO pull-up state in Standby mode and Shutdown modes.
 350:Drivers/STM32G4xx_HAL_Driver/Src/stm32g4xx_hal_pwr_ex.c ****   * @note  Reset the relevant PUy bits of PWR_PUCRx register used to configure the I/O
 351:Drivers/STM32G4xx_HAL_Driver/Src/stm32g4xx_hal_pwr_ex.c ****   *        in pull-up state in Standby and Shutdown modes.
 352:Drivers/STM32G4xx_HAL_Driver/Src/stm32g4xx_hal_pwr_ex.c ****   * @note  Even if a PUy bit to reset is reserved, the other PUy bits entered as input
 353:Drivers/STM32G4xx_HAL_Driver/Src/stm32g4xx_hal_pwr_ex.c ****   *        parameter at the same time are reset.
 354:Drivers/STM32G4xx_HAL_Driver/Src/stm32g4xx_hal_pwr_ex.c ****   * @param  GPIO: Specifies the IO port. This parameter can be PWR_GPIO_A, ..., PWR_GPIO_G
 355:Drivers/STM32G4xx_HAL_Driver/Src/stm32g4xx_hal_pwr_ex.c ****   *          (or PWR_GPIO_I depending on the devices) to select the GPIO peripheral.
 356:Drivers/STM32G4xx_HAL_Driver/Src/stm32g4xx_hal_pwr_ex.c ****   * @param  GPIONumber: Specify the I/O pins numbers.
 357:Drivers/STM32G4xx_HAL_Driver/Src/stm32g4xx_hal_pwr_ex.c ****   *         This parameter can be one of the following values:
 358:Drivers/STM32G4xx_HAL_Driver/Src/stm32g4xx_hal_pwr_ex.c ****   *         PWR_GPIO_BIT_0, ..., PWR_GPIO_BIT_15 (except for the port where less
 359:Drivers/STM32G4xx_HAL_Driver/Src/stm32g4xx_hal_pwr_ex.c ****   *         I/O pins are available) or the logical OR of several of them to reset
 360:Drivers/STM32G4xx_HAL_Driver/Src/stm32g4xx_hal_pwr_ex.c ****   *         several bits for a given port in a single API call.
 361:Drivers/STM32G4xx_HAL_Driver/Src/stm32g4xx_hal_pwr_ex.c ****   * @retval HAL Status
 362:Drivers/STM32G4xx_HAL_Driver/Src/stm32g4xx_hal_pwr_ex.c ****   */
 363:Drivers/STM32G4xx_HAL_Driver/Src/stm32g4xx_hal_pwr_ex.c **** HAL_StatusTypeDef HAL_PWREx_DisableGPIOPullUp(uint32_t GPIO, uint32_t GPIONumber)
 364:Drivers/STM32G4xx_HAL_Driver/Src/stm32g4xx_hal_pwr_ex.c **** {
 617              		.loc 1 364 1 is_stmt 1 view -0
 618              		.cfi_startproc
 619              		@ args = 0, pretend = 0, frame = 0
 620              		@ frame_needed = 0, uses_anonymous_args = 0
 621              		@ link register save eliminated.
 365:Drivers/STM32G4xx_HAL_Driver/Src/stm32g4xx_hal_pwr_ex.c ****   HAL_StatusTypeDef status = HAL_OK;
 622              		.loc 1 365 3 view .LVU151
 366:Drivers/STM32G4xx_HAL_Driver/Src/stm32g4xx_hal_pwr_ex.c **** 
 367:Drivers/STM32G4xx_HAL_Driver/Src/stm32g4xx_hal_pwr_ex.c ****   assert_param(IS_PWR_GPIO(GPIO));
 623              		.loc 1 367 3 view .LVU152
 368:Drivers/STM32G4xx_HAL_Driver/Src/stm32g4xx_hal_pwr_ex.c ****   assert_param(IS_PWR_GPIO_BIT_NUMBER(GPIONumber));
 624              		.loc 1 368 3 view .LVU153
 369:Drivers/STM32G4xx_HAL_Driver/Src/stm32g4xx_hal_pwr_ex.c **** 
 370:Drivers/STM32G4xx_HAL_Driver/Src/stm32g4xx_hal_pwr_ex.c ****   switch (GPIO)
 625              		.loc 1 370 3 view .LVU154
 626 0000 0628     		cmp	r0, #6
 627 0002 3DD8     		bhi	.L80
 628 0004 DFE800F0 		tbb	[pc, r0]
 629              	.L73:
ARM GAS  /tmp/ccv7Xt7x.s 			page 20


 630 0008 0D       		.byte	(.L79-.L73)/2
 631 0009 16       		.byte	(.L78-.L73)/2
 632 000a 1D       		.byte	(.L77-.L73)/2
 633 000b 24       		.byte	(.L76-.L73)/2
 634 000c 2B       		.byte	(.L75-.L73)/2
 635 000d 32       		.byte	(.L74-.L73)/2
 636 000e 04       		.byte	(.L72-.L73)/2
 637 000f 00       		.p2align 1
 638              	.L72:
 371:Drivers/STM32G4xx_HAL_Driver/Src/stm32g4xx_hal_pwr_ex.c ****   {
 372:Drivers/STM32G4xx_HAL_Driver/Src/stm32g4xx_hal_pwr_ex.c ****     case PWR_GPIO_A:
 373:Drivers/STM32G4xx_HAL_Driver/Src/stm32g4xx_hal_pwr_ex.c ****        CLEAR_BIT(PWR->PUCRA, (GPIONumber & (~(PWR_GPIO_BIT_14))));
 374:Drivers/STM32G4xx_HAL_Driver/Src/stm32g4xx_hal_pwr_ex.c ****        break;
 375:Drivers/STM32G4xx_HAL_Driver/Src/stm32g4xx_hal_pwr_ex.c ****     case PWR_GPIO_B:
 376:Drivers/STM32G4xx_HAL_Driver/Src/stm32g4xx_hal_pwr_ex.c ****        CLEAR_BIT(PWR->PUCRB, GPIONumber);
 377:Drivers/STM32G4xx_HAL_Driver/Src/stm32g4xx_hal_pwr_ex.c ****        break;
 378:Drivers/STM32G4xx_HAL_Driver/Src/stm32g4xx_hal_pwr_ex.c ****     case PWR_GPIO_C:
 379:Drivers/STM32G4xx_HAL_Driver/Src/stm32g4xx_hal_pwr_ex.c ****        CLEAR_BIT(PWR->PUCRC, GPIONumber);
 380:Drivers/STM32G4xx_HAL_Driver/Src/stm32g4xx_hal_pwr_ex.c ****        break;
 381:Drivers/STM32G4xx_HAL_Driver/Src/stm32g4xx_hal_pwr_ex.c ****     case PWR_GPIO_D:
 382:Drivers/STM32G4xx_HAL_Driver/Src/stm32g4xx_hal_pwr_ex.c ****        CLEAR_BIT(PWR->PUCRD, GPIONumber);
 383:Drivers/STM32G4xx_HAL_Driver/Src/stm32g4xx_hal_pwr_ex.c ****        break;
 384:Drivers/STM32G4xx_HAL_Driver/Src/stm32g4xx_hal_pwr_ex.c ****     case PWR_GPIO_E:
 385:Drivers/STM32G4xx_HAL_Driver/Src/stm32g4xx_hal_pwr_ex.c ****        CLEAR_BIT(PWR->PUCRE, GPIONumber);
 386:Drivers/STM32G4xx_HAL_Driver/Src/stm32g4xx_hal_pwr_ex.c ****        break;
 387:Drivers/STM32G4xx_HAL_Driver/Src/stm32g4xx_hal_pwr_ex.c ****     case PWR_GPIO_F:
 388:Drivers/STM32G4xx_HAL_Driver/Src/stm32g4xx_hal_pwr_ex.c ****        CLEAR_BIT(PWR->PUCRF, (GPIONumber & PWR_PORTF_AVAILABLE_PINS));
 389:Drivers/STM32G4xx_HAL_Driver/Src/stm32g4xx_hal_pwr_ex.c ****        break;
 390:Drivers/STM32G4xx_HAL_Driver/Src/stm32g4xx_hal_pwr_ex.c ****     case PWR_GPIO_G:
 391:Drivers/STM32G4xx_HAL_Driver/Src/stm32g4xx_hal_pwr_ex.c ****        CLEAR_BIT(PWR->PUCRG, (GPIONumber & PWR_PORTG_AVAILABLE_PINS));
 639              		.loc 1 391 8 view .LVU155
 640 0010 1C4A     		ldr	r2, .L81
 641 0012 136D     		ldr	r3, [r2, #80]
 642 0014 01F48061 		and	r1, r1, #1024
 643              	.LVL39:
 644              		.loc 1 391 8 is_stmt 0 view .LVU156
 645 0018 23EA0101 		bic	r1, r3, r1
 646 001c 1165     		str	r1, [r2, #80]
 392:Drivers/STM32G4xx_HAL_Driver/Src/stm32g4xx_hal_pwr_ex.c ****        break;
 647              		.loc 1 392 8 is_stmt 1 view .LVU157
 365:Drivers/STM32G4xx_HAL_Driver/Src/stm32g4xx_hal_pwr_ex.c **** 
 648              		.loc 1 365 21 is_stmt 0 view .LVU158
 649 001e 0020     		movs	r0, #0
 650              	.LVL40:
 651              		.loc 1 392 8 view .LVU159
 652 0020 7047     		bx	lr
 653              	.LVL41:
 654              	.L79:
 373:Drivers/STM32G4xx_HAL_Driver/Src/stm32g4xx_hal_pwr_ex.c ****        break;
 655              		.loc 1 373 8 is_stmt 1 view .LVU160
 656 0022 184A     		ldr	r2, .L81
 657 0024 136A     		ldr	r3, [r2, #32]
 658 0026 21F48041 		bic	r1, r1, #16384
 659              	.LVL42:
 373:Drivers/STM32G4xx_HAL_Driver/Src/stm32g4xx_hal_pwr_ex.c ****        break;
 660              		.loc 1 373 8 is_stmt 0 view .LVU161
 661 002a 23EA0103 		bic	r3, r3, r1
ARM GAS  /tmp/ccv7Xt7x.s 			page 21


 662 002e 1362     		str	r3, [r2, #32]
 374:Drivers/STM32G4xx_HAL_Driver/Src/stm32g4xx_hal_pwr_ex.c ****     case PWR_GPIO_B:
 663              		.loc 1 374 8 is_stmt 1 view .LVU162
 365:Drivers/STM32G4xx_HAL_Driver/Src/stm32g4xx_hal_pwr_ex.c **** 
 664              		.loc 1 365 21 is_stmt 0 view .LVU163
 665 0030 0020     		movs	r0, #0
 666              	.LVL43:
 374:Drivers/STM32G4xx_HAL_Driver/Src/stm32g4xx_hal_pwr_ex.c ****     case PWR_GPIO_B:
 667              		.loc 1 374 8 view .LVU164
 668 0032 7047     		bx	lr
 669              	.LVL44:
 670              	.L78:
 376:Drivers/STM32G4xx_HAL_Driver/Src/stm32g4xx_hal_pwr_ex.c ****        break;
 671              		.loc 1 376 8 is_stmt 1 view .LVU165
 672 0034 134A     		ldr	r2, .L81
 673 0036 936A     		ldr	r3, [r2, #40]
 674 0038 23EA0101 		bic	r1, r3, r1
 675              	.LVL45:
 376:Drivers/STM32G4xx_HAL_Driver/Src/stm32g4xx_hal_pwr_ex.c ****        break;
 676              		.loc 1 376 8 is_stmt 0 view .LVU166
 677 003c 9162     		str	r1, [r2, #40]
 377:Drivers/STM32G4xx_HAL_Driver/Src/stm32g4xx_hal_pwr_ex.c ****     case PWR_GPIO_C:
 678              		.loc 1 377 8 is_stmt 1 view .LVU167
 365:Drivers/STM32G4xx_HAL_Driver/Src/stm32g4xx_hal_pwr_ex.c **** 
 679              		.loc 1 365 21 is_stmt 0 view .LVU168
 680 003e 0020     		movs	r0, #0
 681              	.LVL46:
 377:Drivers/STM32G4xx_HAL_Driver/Src/stm32g4xx_hal_pwr_ex.c ****     case PWR_GPIO_C:
 682              		.loc 1 377 8 view .LVU169
 683 0040 7047     		bx	lr
 684              	.LVL47:
 685              	.L77:
 379:Drivers/STM32G4xx_HAL_Driver/Src/stm32g4xx_hal_pwr_ex.c ****        break;
 686              		.loc 1 379 8 is_stmt 1 view .LVU170
 687 0042 104A     		ldr	r2, .L81
 688 0044 136B     		ldr	r3, [r2, #48]
 689 0046 23EA0101 		bic	r1, r3, r1
 690              	.LVL48:
 379:Drivers/STM32G4xx_HAL_Driver/Src/stm32g4xx_hal_pwr_ex.c ****        break;
 691              		.loc 1 379 8 is_stmt 0 view .LVU171
 692 004a 1163     		str	r1, [r2, #48]
 380:Drivers/STM32G4xx_HAL_Driver/Src/stm32g4xx_hal_pwr_ex.c ****     case PWR_GPIO_D:
 693              		.loc 1 380 8 is_stmt 1 view .LVU172
 365:Drivers/STM32G4xx_HAL_Driver/Src/stm32g4xx_hal_pwr_ex.c **** 
 694              		.loc 1 365 21 is_stmt 0 view .LVU173
 695 004c 0020     		movs	r0, #0
 696              	.LVL49:
 380:Drivers/STM32G4xx_HAL_Driver/Src/stm32g4xx_hal_pwr_ex.c ****     case PWR_GPIO_D:
 697              		.loc 1 380 8 view .LVU174
 698 004e 7047     		bx	lr
 699              	.LVL50:
 700              	.L76:
 382:Drivers/STM32G4xx_HAL_Driver/Src/stm32g4xx_hal_pwr_ex.c ****        break;
 701              		.loc 1 382 8 is_stmt 1 view .LVU175
 702 0050 0C4A     		ldr	r2, .L81
 703 0052 936B     		ldr	r3, [r2, #56]
 704 0054 23EA0101 		bic	r1, r3, r1
ARM GAS  /tmp/ccv7Xt7x.s 			page 22


 705              	.LVL51:
 382:Drivers/STM32G4xx_HAL_Driver/Src/stm32g4xx_hal_pwr_ex.c ****        break;
 706              		.loc 1 382 8 is_stmt 0 view .LVU176
 707 0058 9163     		str	r1, [r2, #56]
 383:Drivers/STM32G4xx_HAL_Driver/Src/stm32g4xx_hal_pwr_ex.c ****     case PWR_GPIO_E:
 708              		.loc 1 383 8 is_stmt 1 view .LVU177
 365:Drivers/STM32G4xx_HAL_Driver/Src/stm32g4xx_hal_pwr_ex.c **** 
 709              		.loc 1 365 21 is_stmt 0 view .LVU178
 710 005a 0020     		movs	r0, #0
 711              	.LVL52:
 383:Drivers/STM32G4xx_HAL_Driver/Src/stm32g4xx_hal_pwr_ex.c ****     case PWR_GPIO_E:
 712              		.loc 1 383 8 view .LVU179
 713 005c 7047     		bx	lr
 714              	.LVL53:
 715              	.L75:
 385:Drivers/STM32G4xx_HAL_Driver/Src/stm32g4xx_hal_pwr_ex.c ****        break;
 716              		.loc 1 385 8 is_stmt 1 view .LVU180
 717 005e 094A     		ldr	r2, .L81
 718 0060 136C     		ldr	r3, [r2, #64]
 719 0062 23EA0101 		bic	r1, r3, r1
 720              	.LVL54:
 385:Drivers/STM32G4xx_HAL_Driver/Src/stm32g4xx_hal_pwr_ex.c ****        break;
 721              		.loc 1 385 8 is_stmt 0 view .LVU181
 722 0066 1164     		str	r1, [r2, #64]
 386:Drivers/STM32G4xx_HAL_Driver/Src/stm32g4xx_hal_pwr_ex.c ****     case PWR_GPIO_F:
 723              		.loc 1 386 8 is_stmt 1 view .LVU182
 365:Drivers/STM32G4xx_HAL_Driver/Src/stm32g4xx_hal_pwr_ex.c **** 
 724              		.loc 1 365 21 is_stmt 0 view .LVU183
 725 0068 0020     		movs	r0, #0
 726              	.LVL55:
 386:Drivers/STM32G4xx_HAL_Driver/Src/stm32g4xx_hal_pwr_ex.c ****     case PWR_GPIO_F:
 727              		.loc 1 386 8 view .LVU184
 728 006a 7047     		bx	lr
 729              	.LVL56:
 730              	.L74:
 388:Drivers/STM32G4xx_HAL_Driver/Src/stm32g4xx_hal_pwr_ex.c ****        break;
 731              		.loc 1 388 8 is_stmt 1 view .LVU185
 732 006c 0548     		ldr	r0, .L81
 733              	.LVL57:
 388:Drivers/STM32G4xx_HAL_Driver/Src/stm32g4xx_hal_pwr_ex.c ****        break;
 734              		.loc 1 388 8 is_stmt 0 view .LVU186
 735 006e 40F20762 		movw	r2, #1543
 736 0072 836C     		ldr	r3, [r0, #72]
 737 0074 1140     		ands	r1, r1, r2
 738              	.LVL58:
 388:Drivers/STM32G4xx_HAL_Driver/Src/stm32g4xx_hal_pwr_ex.c ****        break;
 739              		.loc 1 388 8 view .LVU187
 740 0076 23EA0103 		bic	r3, r3, r1
 741 007a 8364     		str	r3, [r0, #72]
 389:Drivers/STM32G4xx_HAL_Driver/Src/stm32g4xx_hal_pwr_ex.c ****     case PWR_GPIO_G:
 742              		.loc 1 389 8 is_stmt 1 view .LVU188
 365:Drivers/STM32G4xx_HAL_Driver/Src/stm32g4xx_hal_pwr_ex.c **** 
 743              		.loc 1 365 21 is_stmt 0 view .LVU189
 744 007c 0020     		movs	r0, #0
 389:Drivers/STM32G4xx_HAL_Driver/Src/stm32g4xx_hal_pwr_ex.c ****     case PWR_GPIO_G:
 745              		.loc 1 389 8 view .LVU190
 746 007e 7047     		bx	lr
ARM GAS  /tmp/ccv7Xt7x.s 			page 23


 747              	.LVL59:
 748              	.L80:
 393:Drivers/STM32G4xx_HAL_Driver/Src/stm32g4xx_hal_pwr_ex.c ****     default:
 394:Drivers/STM32G4xx_HAL_Driver/Src/stm32g4xx_hal_pwr_ex.c ****        status = HAL_ERROR;
 749              		.loc 1 394 15 view .LVU191
 750 0080 0120     		movs	r0, #1
 751              	.LVL60:
 395:Drivers/STM32G4xx_HAL_Driver/Src/stm32g4xx_hal_pwr_ex.c ****        break;
 396:Drivers/STM32G4xx_HAL_Driver/Src/stm32g4xx_hal_pwr_ex.c ****   }
 397:Drivers/STM32G4xx_HAL_Driver/Src/stm32g4xx_hal_pwr_ex.c **** 
 398:Drivers/STM32G4xx_HAL_Driver/Src/stm32g4xx_hal_pwr_ex.c ****   return status;
 752              		.loc 1 398 3 is_stmt 1 view .LVU192
 399:Drivers/STM32G4xx_HAL_Driver/Src/stm32g4xx_hal_pwr_ex.c **** }
 753              		.loc 1 399 1 is_stmt 0 view .LVU193
 754 0082 7047     		bx	lr
 755              	.L82:
 756              		.align	2
 757              	.L81:
 758 0084 00700040 		.word	1073770496
 759              		.cfi_endproc
 760              	.LFE336:
 762              		.section	.text.HAL_PWREx_EnableGPIOPullDown,"ax",%progbits
 763              		.align	1
 764              		.p2align 2,,3
 765              		.global	HAL_PWREx_EnableGPIOPullDown
 766              		.syntax unified
 767              		.thumb
 768              		.thumb_func
 769              		.fpu fpv4-sp-d16
 771              	HAL_PWREx_EnableGPIOPullDown:
 772              	.LVL61:
 773              	.LFB337:
 400:Drivers/STM32G4xx_HAL_Driver/Src/stm32g4xx_hal_pwr_ex.c **** 
 401:Drivers/STM32G4xx_HAL_Driver/Src/stm32g4xx_hal_pwr_ex.c **** 
 402:Drivers/STM32G4xx_HAL_Driver/Src/stm32g4xx_hal_pwr_ex.c **** 
 403:Drivers/STM32G4xx_HAL_Driver/Src/stm32g4xx_hal_pwr_ex.c **** /**
 404:Drivers/STM32G4xx_HAL_Driver/Src/stm32g4xx_hal_pwr_ex.c ****   * @brief Enable GPIO pull-down state in Standby and Shutdown modes.
 405:Drivers/STM32G4xx_HAL_Driver/Src/stm32g4xx_hal_pwr_ex.c ****   * @note  Set the relevant PDy bits of PWR_PDCRx register to configure the I/O in
 406:Drivers/STM32G4xx_HAL_Driver/Src/stm32g4xx_hal_pwr_ex.c ****   *        pull-down state in Standby and Shutdown modes.
 407:Drivers/STM32G4xx_HAL_Driver/Src/stm32g4xx_hal_pwr_ex.c ****   * @note  This state is effective in Standby and Shutdown modes only if APC bit
 408:Drivers/STM32G4xx_HAL_Driver/Src/stm32g4xx_hal_pwr_ex.c ****   *        is set through HAL_PWREx_EnablePullUpPullDownConfig() API.
 409:Drivers/STM32G4xx_HAL_Driver/Src/stm32g4xx_hal_pwr_ex.c ****   * @note  The configuration is lost when exiting the Shutdown mode due to the
 410:Drivers/STM32G4xx_HAL_Driver/Src/stm32g4xx_hal_pwr_ex.c ****   *        power-on reset, maintained when exiting the Standby mode.
 411:Drivers/STM32G4xx_HAL_Driver/Src/stm32g4xx_hal_pwr_ex.c ****   * @note  To avoid any conflict at Standby and Shutdown modes exits, the corresponding
 412:Drivers/STM32G4xx_HAL_Driver/Src/stm32g4xx_hal_pwr_ex.c ****   *        PUy bit of PWR_PUCRx register is cleared unless it is reserved.
 413:Drivers/STM32G4xx_HAL_Driver/Src/stm32g4xx_hal_pwr_ex.c ****   * @note  Even if a PDy bit to set is reserved, the other PDy bits entered as input
 414:Drivers/STM32G4xx_HAL_Driver/Src/stm32g4xx_hal_pwr_ex.c ****   *        parameter at the same time are set.
 415:Drivers/STM32G4xx_HAL_Driver/Src/stm32g4xx_hal_pwr_ex.c ****   * @param  GPIO: Specify the IO port. This parameter can be PWR_GPIO_A..PWR_GPIO_G
 416:Drivers/STM32G4xx_HAL_Driver/Src/stm32g4xx_hal_pwr_ex.c ****   *         (or PWR_GPIO_I depending on the devices) to select the GPIO peripheral.
 417:Drivers/STM32G4xx_HAL_Driver/Src/stm32g4xx_hal_pwr_ex.c ****   * @param  GPIONumber: Specify the I/O pins numbers.
 418:Drivers/STM32G4xx_HAL_Driver/Src/stm32g4xx_hal_pwr_ex.c ****   *         This parameter can be one of the following values:
 419:Drivers/STM32G4xx_HAL_Driver/Src/stm32g4xx_hal_pwr_ex.c ****   *         PWR_GPIO_BIT_0, ..., PWR_GPIO_BIT_15 (except for the port where less
 420:Drivers/STM32G4xx_HAL_Driver/Src/stm32g4xx_hal_pwr_ex.c ****   *         I/O pins are available) or the logical OR of several of them to set
 421:Drivers/STM32G4xx_HAL_Driver/Src/stm32g4xx_hal_pwr_ex.c ****   *         several bits for a given port in a single API call.
 422:Drivers/STM32G4xx_HAL_Driver/Src/stm32g4xx_hal_pwr_ex.c ****   * @retval HAL Status
 423:Drivers/STM32G4xx_HAL_Driver/Src/stm32g4xx_hal_pwr_ex.c ****   */
 424:Drivers/STM32G4xx_HAL_Driver/Src/stm32g4xx_hal_pwr_ex.c **** HAL_StatusTypeDef HAL_PWREx_EnableGPIOPullDown(uint32_t GPIO, uint32_t GPIONumber)
ARM GAS  /tmp/ccv7Xt7x.s 			page 24


 425:Drivers/STM32G4xx_HAL_Driver/Src/stm32g4xx_hal_pwr_ex.c **** {
 774              		.loc 1 425 1 is_stmt 1 view -0
 775              		.cfi_startproc
 776              		@ args = 0, pretend = 0, frame = 0
 777              		@ frame_needed = 0, uses_anonymous_args = 0
 778              		@ link register save eliminated.
 426:Drivers/STM32G4xx_HAL_Driver/Src/stm32g4xx_hal_pwr_ex.c ****   HAL_StatusTypeDef status = HAL_OK;
 779              		.loc 1 426 3 view .LVU195
 427:Drivers/STM32G4xx_HAL_Driver/Src/stm32g4xx_hal_pwr_ex.c **** 
 428:Drivers/STM32G4xx_HAL_Driver/Src/stm32g4xx_hal_pwr_ex.c ****   assert_param(IS_PWR_GPIO(GPIO));
 780              		.loc 1 428 3 view .LVU196
 429:Drivers/STM32G4xx_HAL_Driver/Src/stm32g4xx_hal_pwr_ex.c ****   assert_param(IS_PWR_GPIO_BIT_NUMBER(GPIONumber));
 781              		.loc 1 429 3 view .LVU197
 430:Drivers/STM32G4xx_HAL_Driver/Src/stm32g4xx_hal_pwr_ex.c **** 
 431:Drivers/STM32G4xx_HAL_Driver/Src/stm32g4xx_hal_pwr_ex.c ****   switch (GPIO)
 782              		.loc 1 431 3 view .LVU198
 783 0000 0628     		cmp	r0, #6
 784 0002 55D8     		bhi	.L93
 785 0004 DFE800F0 		tbb	[pc, r0]
 786              	.L86:
 787 0008 0F       		.byte	(.L92-.L86)/2
 788 0009 1D       		.byte	(.L91-.L86)/2
 789 000a 29       		.byte	(.L90-.L86)/2
 790 000b 33       		.byte	(.L89-.L86)/2
 791 000c 3D       		.byte	(.L88-.L86)/2
 792 000d 47       		.byte	(.L87-.L86)/2
 793 000e 04       		.byte	(.L85-.L86)/2
 794 000f 00       		.p2align 1
 795              	.L85:
 432:Drivers/STM32G4xx_HAL_Driver/Src/stm32g4xx_hal_pwr_ex.c ****   {
 433:Drivers/STM32G4xx_HAL_Driver/Src/stm32g4xx_hal_pwr_ex.c ****     case PWR_GPIO_A:
 434:Drivers/STM32G4xx_HAL_Driver/Src/stm32g4xx_hal_pwr_ex.c ****        SET_BIT(PWR->PDCRA, (GPIONumber & (~(PWR_GPIO_BIT_13|PWR_GPIO_BIT_15))));
 435:Drivers/STM32G4xx_HAL_Driver/Src/stm32g4xx_hal_pwr_ex.c ****        CLEAR_BIT(PWR->PUCRA, (GPIONumber & (~(PWR_GPIO_BIT_14))));
 436:Drivers/STM32G4xx_HAL_Driver/Src/stm32g4xx_hal_pwr_ex.c ****        break;
 437:Drivers/STM32G4xx_HAL_Driver/Src/stm32g4xx_hal_pwr_ex.c ****     case PWR_GPIO_B:
 438:Drivers/STM32G4xx_HAL_Driver/Src/stm32g4xx_hal_pwr_ex.c ****        SET_BIT(PWR->PDCRB, (GPIONumber & (~(PWR_GPIO_BIT_4))));
 439:Drivers/STM32G4xx_HAL_Driver/Src/stm32g4xx_hal_pwr_ex.c ****        CLEAR_BIT(PWR->PUCRB, GPIONumber);
 440:Drivers/STM32G4xx_HAL_Driver/Src/stm32g4xx_hal_pwr_ex.c ****        break;
 441:Drivers/STM32G4xx_HAL_Driver/Src/stm32g4xx_hal_pwr_ex.c ****     case PWR_GPIO_C:
 442:Drivers/STM32G4xx_HAL_Driver/Src/stm32g4xx_hal_pwr_ex.c ****        SET_BIT(PWR->PDCRC, GPIONumber);
 443:Drivers/STM32G4xx_HAL_Driver/Src/stm32g4xx_hal_pwr_ex.c ****        CLEAR_BIT(PWR->PUCRC, GPIONumber);
 444:Drivers/STM32G4xx_HAL_Driver/Src/stm32g4xx_hal_pwr_ex.c ****        break;
 445:Drivers/STM32G4xx_HAL_Driver/Src/stm32g4xx_hal_pwr_ex.c ****     case PWR_GPIO_D:
 446:Drivers/STM32G4xx_HAL_Driver/Src/stm32g4xx_hal_pwr_ex.c ****        SET_BIT(PWR->PDCRD, GPIONumber);
 447:Drivers/STM32G4xx_HAL_Driver/Src/stm32g4xx_hal_pwr_ex.c ****        CLEAR_BIT(PWR->PUCRD, GPIONumber);
 448:Drivers/STM32G4xx_HAL_Driver/Src/stm32g4xx_hal_pwr_ex.c ****        break;
 449:Drivers/STM32G4xx_HAL_Driver/Src/stm32g4xx_hal_pwr_ex.c ****     case PWR_GPIO_E:
 450:Drivers/STM32G4xx_HAL_Driver/Src/stm32g4xx_hal_pwr_ex.c ****        SET_BIT(PWR->PDCRE, GPIONumber);
 451:Drivers/STM32G4xx_HAL_Driver/Src/stm32g4xx_hal_pwr_ex.c ****        CLEAR_BIT(PWR->PUCRE, GPIONumber);
 452:Drivers/STM32G4xx_HAL_Driver/Src/stm32g4xx_hal_pwr_ex.c ****        break;
 453:Drivers/STM32G4xx_HAL_Driver/Src/stm32g4xx_hal_pwr_ex.c ****     case PWR_GPIO_F:
 454:Drivers/STM32G4xx_HAL_Driver/Src/stm32g4xx_hal_pwr_ex.c ****        SET_BIT(PWR->PDCRF, (GPIONumber & PWR_PORTF_AVAILABLE_PINS));
 455:Drivers/STM32G4xx_HAL_Driver/Src/stm32g4xx_hal_pwr_ex.c ****        CLEAR_BIT(PWR->PUCRF, (GPIONumber & PWR_PORTF_AVAILABLE_PINS));
 456:Drivers/STM32G4xx_HAL_Driver/Src/stm32g4xx_hal_pwr_ex.c ****        break;
 457:Drivers/STM32G4xx_HAL_Driver/Src/stm32g4xx_hal_pwr_ex.c ****     case PWR_GPIO_G:
 458:Drivers/STM32G4xx_HAL_Driver/Src/stm32g4xx_hal_pwr_ex.c ****        SET_BIT(PWR->PDCRG, ((GPIONumber & PWR_PORTG_AVAILABLE_PINS) & (~(PWR_GPIO_BIT_10))));
 796              		.loc 1 458 8 view .LVU199
ARM GAS  /tmp/ccv7Xt7x.s 			page 25


 797 0010 284B     		ldr	r3, .L94
 798 0012 5A6D     		ldr	r2, [r3, #84]
 799 0014 5A65     		str	r2, [r3, #84]
 459:Drivers/STM32G4xx_HAL_Driver/Src/stm32g4xx_hal_pwr_ex.c ****        CLEAR_BIT(PWR->PUCRG, (GPIONumber & PWR_PORTG_AVAILABLE_PINS));
 800              		.loc 1 459 8 view .LVU200
 801 0016 1A6D     		ldr	r2, [r3, #80]
 802 0018 01F48061 		and	r1, r1, #1024
 803              	.LVL62:
 804              		.loc 1 459 8 is_stmt 0 view .LVU201
 805 001c 22EA0101 		bic	r1, r2, r1
 806 0020 1965     		str	r1, [r3, #80]
 460:Drivers/STM32G4xx_HAL_Driver/Src/stm32g4xx_hal_pwr_ex.c ****        break;
 807              		.loc 1 460 8 is_stmt 1 view .LVU202
 426:Drivers/STM32G4xx_HAL_Driver/Src/stm32g4xx_hal_pwr_ex.c **** 
 808              		.loc 1 426 21 is_stmt 0 view .LVU203
 809 0022 0020     		movs	r0, #0
 810              	.LVL63:
 811              		.loc 1 460 8 view .LVU204
 812 0024 7047     		bx	lr
 813              	.LVL64:
 814              	.L92:
 434:Drivers/STM32G4xx_HAL_Driver/Src/stm32g4xx_hal_pwr_ex.c ****        CLEAR_BIT(PWR->PUCRA, (GPIONumber & (~(PWR_GPIO_BIT_14))));
 815              		.loc 1 434 8 is_stmt 1 view .LVU205
 816 0026 234B     		ldr	r3, .L94
 817 0028 586A     		ldr	r0, [r3, #36]
 818              	.LVL65:
 434:Drivers/STM32G4xx_HAL_Driver/Src/stm32g4xx_hal_pwr_ex.c ****        CLEAR_BIT(PWR->PUCRA, (GPIONumber & (~(PWR_GPIO_BIT_14))));
 819              		.loc 1 434 8 is_stmt 0 view .LVU206
 820 002a 21F42042 		bic	r2, r1, #40960
 821 002e 0243     		orrs	r2, r2, r0
 822 0030 5A62     		str	r2, [r3, #36]
 435:Drivers/STM32G4xx_HAL_Driver/Src/stm32g4xx_hal_pwr_ex.c ****        break;
 823              		.loc 1 435 8 is_stmt 1 view .LVU207
 824 0032 1A6A     		ldr	r2, [r3, #32]
 825 0034 21F48041 		bic	r1, r1, #16384
 826              	.LVL66:
 435:Drivers/STM32G4xx_HAL_Driver/Src/stm32g4xx_hal_pwr_ex.c ****        break;
 827              		.loc 1 435 8 is_stmt 0 view .LVU208
 828 0038 22EA0102 		bic	r2, r2, r1
 829 003c 1A62     		str	r2, [r3, #32]
 436:Drivers/STM32G4xx_HAL_Driver/Src/stm32g4xx_hal_pwr_ex.c ****     case PWR_GPIO_B:
 830              		.loc 1 436 8 is_stmt 1 view .LVU209
 426:Drivers/STM32G4xx_HAL_Driver/Src/stm32g4xx_hal_pwr_ex.c **** 
 831              		.loc 1 426 21 is_stmt 0 view .LVU210
 832 003e 0020     		movs	r0, #0
 436:Drivers/STM32G4xx_HAL_Driver/Src/stm32g4xx_hal_pwr_ex.c ****     case PWR_GPIO_B:
 833              		.loc 1 436 8 view .LVU211
 834 0040 7047     		bx	lr
 835              	.LVL67:
 836              	.L91:
 438:Drivers/STM32G4xx_HAL_Driver/Src/stm32g4xx_hal_pwr_ex.c ****        CLEAR_BIT(PWR->PUCRB, GPIONumber);
 837              		.loc 1 438 8 is_stmt 1 view .LVU212
 838 0042 1C4B     		ldr	r3, .L94
 839 0044 D86A     		ldr	r0, [r3, #44]
 840              	.LVL68:
 438:Drivers/STM32G4xx_HAL_Driver/Src/stm32g4xx_hal_pwr_ex.c ****        CLEAR_BIT(PWR->PUCRB, GPIONumber);
 841              		.loc 1 438 8 is_stmt 0 view .LVU213
ARM GAS  /tmp/ccv7Xt7x.s 			page 26


 842 0046 21F01002 		bic	r2, r1, #16
 843 004a 0243     		orrs	r2, r2, r0
 844 004c DA62     		str	r2, [r3, #44]
 439:Drivers/STM32G4xx_HAL_Driver/Src/stm32g4xx_hal_pwr_ex.c ****        break;
 845              		.loc 1 439 8 is_stmt 1 view .LVU214
 846 004e 9A6A     		ldr	r2, [r3, #40]
 847 0050 22EA0101 		bic	r1, r2, r1
 848              	.LVL69:
 439:Drivers/STM32G4xx_HAL_Driver/Src/stm32g4xx_hal_pwr_ex.c ****        break;
 849              		.loc 1 439 8 is_stmt 0 view .LVU215
 850 0054 9962     		str	r1, [r3, #40]
 440:Drivers/STM32G4xx_HAL_Driver/Src/stm32g4xx_hal_pwr_ex.c ****     case PWR_GPIO_C:
 851              		.loc 1 440 8 is_stmt 1 view .LVU216
 426:Drivers/STM32G4xx_HAL_Driver/Src/stm32g4xx_hal_pwr_ex.c **** 
 852              		.loc 1 426 21 is_stmt 0 view .LVU217
 853 0056 0020     		movs	r0, #0
 440:Drivers/STM32G4xx_HAL_Driver/Src/stm32g4xx_hal_pwr_ex.c ****     case PWR_GPIO_C:
 854              		.loc 1 440 8 view .LVU218
 855 0058 7047     		bx	lr
 856              	.LVL70:
 857              	.L90:
 442:Drivers/STM32G4xx_HAL_Driver/Src/stm32g4xx_hal_pwr_ex.c ****        CLEAR_BIT(PWR->PUCRC, GPIONumber);
 858              		.loc 1 442 8 is_stmt 1 view .LVU219
 859 005a 164B     		ldr	r3, .L94
 860 005c 5A6B     		ldr	r2, [r3, #52]
 861 005e 0A43     		orrs	r2, r2, r1
 862 0060 5A63     		str	r2, [r3, #52]
 443:Drivers/STM32G4xx_HAL_Driver/Src/stm32g4xx_hal_pwr_ex.c ****        break;
 863              		.loc 1 443 8 view .LVU220
 864 0062 1A6B     		ldr	r2, [r3, #48]
 865 0064 22EA0101 		bic	r1, r2, r1
 866              	.LVL71:
 443:Drivers/STM32G4xx_HAL_Driver/Src/stm32g4xx_hal_pwr_ex.c ****        break;
 867              		.loc 1 443 8 is_stmt 0 view .LVU221
 868 0068 1963     		str	r1, [r3, #48]
 444:Drivers/STM32G4xx_HAL_Driver/Src/stm32g4xx_hal_pwr_ex.c ****     case PWR_GPIO_D:
 869              		.loc 1 444 8 is_stmt 1 view .LVU222
 426:Drivers/STM32G4xx_HAL_Driver/Src/stm32g4xx_hal_pwr_ex.c **** 
 870              		.loc 1 426 21 is_stmt 0 view .LVU223
 871 006a 0020     		movs	r0, #0
 872              	.LVL72:
 444:Drivers/STM32G4xx_HAL_Driver/Src/stm32g4xx_hal_pwr_ex.c ****     case PWR_GPIO_D:
 873              		.loc 1 444 8 view .LVU224
 874 006c 7047     		bx	lr
 875              	.LVL73:
 876              	.L89:
 446:Drivers/STM32G4xx_HAL_Driver/Src/stm32g4xx_hal_pwr_ex.c ****        CLEAR_BIT(PWR->PUCRD, GPIONumber);
 877              		.loc 1 446 8 is_stmt 1 view .LVU225
 878 006e 114B     		ldr	r3, .L94
 879 0070 DA6B     		ldr	r2, [r3, #60]
 880 0072 0A43     		orrs	r2, r2, r1
 881 0074 DA63     		str	r2, [r3, #60]
 447:Drivers/STM32G4xx_HAL_Driver/Src/stm32g4xx_hal_pwr_ex.c ****        break;
 882              		.loc 1 447 8 view .LVU226
 883 0076 9A6B     		ldr	r2, [r3, #56]
 884 0078 22EA0101 		bic	r1, r2, r1
 885              	.LVL74:
ARM GAS  /tmp/ccv7Xt7x.s 			page 27


 447:Drivers/STM32G4xx_HAL_Driver/Src/stm32g4xx_hal_pwr_ex.c ****        break;
 886              		.loc 1 447 8 is_stmt 0 view .LVU227
 887 007c 9963     		str	r1, [r3, #56]
 448:Drivers/STM32G4xx_HAL_Driver/Src/stm32g4xx_hal_pwr_ex.c ****     case PWR_GPIO_E:
 888              		.loc 1 448 8 is_stmt 1 view .LVU228
 426:Drivers/STM32G4xx_HAL_Driver/Src/stm32g4xx_hal_pwr_ex.c **** 
 889              		.loc 1 426 21 is_stmt 0 view .LVU229
 890 007e 0020     		movs	r0, #0
 891              	.LVL75:
 448:Drivers/STM32G4xx_HAL_Driver/Src/stm32g4xx_hal_pwr_ex.c ****     case PWR_GPIO_E:
 892              		.loc 1 448 8 view .LVU230
 893 0080 7047     		bx	lr
 894              	.LVL76:
 895              	.L88:
 450:Drivers/STM32G4xx_HAL_Driver/Src/stm32g4xx_hal_pwr_ex.c ****        CLEAR_BIT(PWR->PUCRE, GPIONumber);
 896              		.loc 1 450 8 is_stmt 1 view .LVU231
 897 0082 0C4B     		ldr	r3, .L94
 898 0084 5A6C     		ldr	r2, [r3, #68]
 899 0086 0A43     		orrs	r2, r2, r1
 900 0088 5A64     		str	r2, [r3, #68]
 451:Drivers/STM32G4xx_HAL_Driver/Src/stm32g4xx_hal_pwr_ex.c ****        break;
 901              		.loc 1 451 8 view .LVU232
 902 008a 1A6C     		ldr	r2, [r3, #64]
 903 008c 22EA0101 		bic	r1, r2, r1
 904              	.LVL77:
 451:Drivers/STM32G4xx_HAL_Driver/Src/stm32g4xx_hal_pwr_ex.c ****        break;
 905              		.loc 1 451 8 is_stmt 0 view .LVU233
 906 0090 1964     		str	r1, [r3, #64]
 452:Drivers/STM32G4xx_HAL_Driver/Src/stm32g4xx_hal_pwr_ex.c ****     case PWR_GPIO_F:
 907              		.loc 1 452 8 is_stmt 1 view .LVU234
 426:Drivers/STM32G4xx_HAL_Driver/Src/stm32g4xx_hal_pwr_ex.c **** 
 908              		.loc 1 426 21 is_stmt 0 view .LVU235
 909 0092 0020     		movs	r0, #0
 910              	.LVL78:
 452:Drivers/STM32G4xx_HAL_Driver/Src/stm32g4xx_hal_pwr_ex.c ****     case PWR_GPIO_F:
 911              		.loc 1 452 8 view .LVU236
 912 0094 7047     		bx	lr
 913              	.LVL79:
 914              	.L87:
 454:Drivers/STM32G4xx_HAL_Driver/Src/stm32g4xx_hal_pwr_ex.c ****        CLEAR_BIT(PWR->PUCRF, (GPIONumber & PWR_PORTF_AVAILABLE_PINS));
 915              		.loc 1 454 8 is_stmt 1 view .LVU237
 916 0096 074B     		ldr	r3, .L94
 917 0098 40F20762 		movw	r2, #1543
 918 009c D86C     		ldr	r0, [r3, #76]
 919              	.LVL80:
 454:Drivers/STM32G4xx_HAL_Driver/Src/stm32g4xx_hal_pwr_ex.c ****        CLEAR_BIT(PWR->PUCRF, (GPIONumber & PWR_PORTF_AVAILABLE_PINS));
 920              		.loc 1 454 8 is_stmt 0 view .LVU238
 921 009e 1140     		ands	r1, r1, r2
 922              	.LVL81:
 454:Drivers/STM32G4xx_HAL_Driver/Src/stm32g4xx_hal_pwr_ex.c ****        CLEAR_BIT(PWR->PUCRF, (GPIONumber & PWR_PORTF_AVAILABLE_PINS));
 923              		.loc 1 454 8 view .LVU239
 924 00a0 0843     		orrs	r0, r0, r1
 925 00a2 D864     		str	r0, [r3, #76]
 455:Drivers/STM32G4xx_HAL_Driver/Src/stm32g4xx_hal_pwr_ex.c ****        break;
 926              		.loc 1 455 8 is_stmt 1 view .LVU240
 927 00a4 9A6C     		ldr	r2, [r3, #72]
 928 00a6 22EA0101 		bic	r1, r2, r1
ARM GAS  /tmp/ccv7Xt7x.s 			page 28


 929 00aa 9964     		str	r1, [r3, #72]
 456:Drivers/STM32G4xx_HAL_Driver/Src/stm32g4xx_hal_pwr_ex.c ****     case PWR_GPIO_G:
 930              		.loc 1 456 8 view .LVU241
 426:Drivers/STM32G4xx_HAL_Driver/Src/stm32g4xx_hal_pwr_ex.c **** 
 931              		.loc 1 426 21 is_stmt 0 view .LVU242
 932 00ac 0020     		movs	r0, #0
 456:Drivers/STM32G4xx_HAL_Driver/Src/stm32g4xx_hal_pwr_ex.c ****     case PWR_GPIO_G:
 933              		.loc 1 456 8 view .LVU243
 934 00ae 7047     		bx	lr
 935              	.LVL82:
 936              	.L93:
 461:Drivers/STM32G4xx_HAL_Driver/Src/stm32g4xx_hal_pwr_ex.c ****     default:
 462:Drivers/STM32G4xx_HAL_Driver/Src/stm32g4xx_hal_pwr_ex.c ****       status = HAL_ERROR;
 937              		.loc 1 462 14 view .LVU244
 938 00b0 0120     		movs	r0, #1
 939              	.LVL83:
 463:Drivers/STM32G4xx_HAL_Driver/Src/stm32g4xx_hal_pwr_ex.c ****       break;
 464:Drivers/STM32G4xx_HAL_Driver/Src/stm32g4xx_hal_pwr_ex.c ****   }
 465:Drivers/STM32G4xx_HAL_Driver/Src/stm32g4xx_hal_pwr_ex.c **** 
 466:Drivers/STM32G4xx_HAL_Driver/Src/stm32g4xx_hal_pwr_ex.c ****   return status;
 940              		.loc 1 466 3 is_stmt 1 view .LVU245
 467:Drivers/STM32G4xx_HAL_Driver/Src/stm32g4xx_hal_pwr_ex.c **** }
 941              		.loc 1 467 1 is_stmt 0 view .LVU246
 942 00b2 7047     		bx	lr
 943              	.L95:
 944              		.align	2
 945              	.L94:
 946 00b4 00700040 		.word	1073770496
 947              		.cfi_endproc
 948              	.LFE337:
 950              		.section	.text.HAL_PWREx_DisableGPIOPullDown,"ax",%progbits
 951              		.align	1
 952              		.p2align 2,,3
 953              		.global	HAL_PWREx_DisableGPIOPullDown
 954              		.syntax unified
 955              		.thumb
 956              		.thumb_func
 957              		.fpu fpv4-sp-d16
 959              	HAL_PWREx_DisableGPIOPullDown:
 960              	.LVL84:
 961              	.LFB338:
 468:Drivers/STM32G4xx_HAL_Driver/Src/stm32g4xx_hal_pwr_ex.c **** 
 469:Drivers/STM32G4xx_HAL_Driver/Src/stm32g4xx_hal_pwr_ex.c **** 
 470:Drivers/STM32G4xx_HAL_Driver/Src/stm32g4xx_hal_pwr_ex.c **** /**
 471:Drivers/STM32G4xx_HAL_Driver/Src/stm32g4xx_hal_pwr_ex.c ****   * @brief Disable GPIO pull-down state in Standby and Shutdown modes.
 472:Drivers/STM32G4xx_HAL_Driver/Src/stm32g4xx_hal_pwr_ex.c ****   * @note  Reset the relevant PDy bits of PWR_PDCRx register used to configure the I/O
 473:Drivers/STM32G4xx_HAL_Driver/Src/stm32g4xx_hal_pwr_ex.c ****   *        in pull-down state in Standby and Shutdown modes.
 474:Drivers/STM32G4xx_HAL_Driver/Src/stm32g4xx_hal_pwr_ex.c ****   * @note  Even if a PDy bit to reset is reserved, the other PDy bits entered as input
 475:Drivers/STM32G4xx_HAL_Driver/Src/stm32g4xx_hal_pwr_ex.c ****   *        parameter at the same time are reset.
 476:Drivers/STM32G4xx_HAL_Driver/Src/stm32g4xx_hal_pwr_ex.c ****   * @param  GPIO: Specifies the IO port. This parameter can be PWR_GPIO_A..PWR_GPIO_G
 477:Drivers/STM32G4xx_HAL_Driver/Src/stm32g4xx_hal_pwr_ex.c ****   *         (or PWR_GPIO_I depending on the devices) to select the GPIO peripheral.
 478:Drivers/STM32G4xx_HAL_Driver/Src/stm32g4xx_hal_pwr_ex.c ****   * @param  GPIONumber: Specify the I/O pins numbers.
 479:Drivers/STM32G4xx_HAL_Driver/Src/stm32g4xx_hal_pwr_ex.c ****   *         This parameter can be one of the following values:
 480:Drivers/STM32G4xx_HAL_Driver/Src/stm32g4xx_hal_pwr_ex.c ****   *         PWR_GPIO_BIT_0, ..., PWR_GPIO_BIT_15 (except for the port where less
 481:Drivers/STM32G4xx_HAL_Driver/Src/stm32g4xx_hal_pwr_ex.c ****   *         I/O pins are available) or the logical OR of several of them to reset
 482:Drivers/STM32G4xx_HAL_Driver/Src/stm32g4xx_hal_pwr_ex.c ****   *         several bits for a given port in a single API call.
 483:Drivers/STM32G4xx_HAL_Driver/Src/stm32g4xx_hal_pwr_ex.c ****   * @retval HAL Status
ARM GAS  /tmp/ccv7Xt7x.s 			page 29


 484:Drivers/STM32G4xx_HAL_Driver/Src/stm32g4xx_hal_pwr_ex.c ****   */
 485:Drivers/STM32G4xx_HAL_Driver/Src/stm32g4xx_hal_pwr_ex.c **** HAL_StatusTypeDef HAL_PWREx_DisableGPIOPullDown(uint32_t GPIO, uint32_t GPIONumber)
 486:Drivers/STM32G4xx_HAL_Driver/Src/stm32g4xx_hal_pwr_ex.c **** {
 962              		.loc 1 486 1 is_stmt 1 view -0
 963              		.cfi_startproc
 964              		@ args = 0, pretend = 0, frame = 0
 965              		@ frame_needed = 0, uses_anonymous_args = 0
 966              		@ link register save eliminated.
 487:Drivers/STM32G4xx_HAL_Driver/Src/stm32g4xx_hal_pwr_ex.c ****   HAL_StatusTypeDef status = HAL_OK;
 967              		.loc 1 487 3 view .LVU248
 488:Drivers/STM32G4xx_HAL_Driver/Src/stm32g4xx_hal_pwr_ex.c **** 
 489:Drivers/STM32G4xx_HAL_Driver/Src/stm32g4xx_hal_pwr_ex.c ****   assert_param(IS_PWR_GPIO(GPIO));
 968              		.loc 1 489 3 view .LVU249
 490:Drivers/STM32G4xx_HAL_Driver/Src/stm32g4xx_hal_pwr_ex.c ****   assert_param(IS_PWR_GPIO_BIT_NUMBER(GPIONumber));
 969              		.loc 1 490 3 view .LVU250
 491:Drivers/STM32G4xx_HAL_Driver/Src/stm32g4xx_hal_pwr_ex.c **** 
 492:Drivers/STM32G4xx_HAL_Driver/Src/stm32g4xx_hal_pwr_ex.c ****   switch (GPIO)
 970              		.loc 1 492 3 view .LVU251
 971 0000 0628     		cmp	r0, #6
 972 0002 3BD8     		bhi	.L106
 973 0004 DFE800F0 		tbb	[pc, r0]
 974              	.L99:
 975 0008 09       		.byte	(.L105-.L99)/2
 976 0009 12       		.byte	(.L104-.L99)/2
 977 000a 1B       		.byte	(.L103-.L99)/2
 978 000b 22       		.byte	(.L102-.L99)/2
 979 000c 29       		.byte	(.L101-.L99)/2
 980 000d 30       		.byte	(.L100-.L99)/2
 981 000e 04       		.byte	(.L98-.L99)/2
 982 000f 00       		.p2align 1
 983              	.L98:
 493:Drivers/STM32G4xx_HAL_Driver/Src/stm32g4xx_hal_pwr_ex.c ****   {
 494:Drivers/STM32G4xx_HAL_Driver/Src/stm32g4xx_hal_pwr_ex.c ****     case PWR_GPIO_A:
 495:Drivers/STM32G4xx_HAL_Driver/Src/stm32g4xx_hal_pwr_ex.c ****        CLEAR_BIT(PWR->PDCRA, (GPIONumber & (~(PWR_GPIO_BIT_13|PWR_GPIO_BIT_15))));
 496:Drivers/STM32G4xx_HAL_Driver/Src/stm32g4xx_hal_pwr_ex.c ****        break;
 497:Drivers/STM32G4xx_HAL_Driver/Src/stm32g4xx_hal_pwr_ex.c ****     case PWR_GPIO_B:
 498:Drivers/STM32G4xx_HAL_Driver/Src/stm32g4xx_hal_pwr_ex.c ****        CLEAR_BIT(PWR->PDCRB, (GPIONumber & (~(PWR_GPIO_BIT_4))));
 499:Drivers/STM32G4xx_HAL_Driver/Src/stm32g4xx_hal_pwr_ex.c ****        break;
 500:Drivers/STM32G4xx_HAL_Driver/Src/stm32g4xx_hal_pwr_ex.c ****     case PWR_GPIO_C:
 501:Drivers/STM32G4xx_HAL_Driver/Src/stm32g4xx_hal_pwr_ex.c ****        CLEAR_BIT(PWR->PDCRC, GPIONumber);
 502:Drivers/STM32G4xx_HAL_Driver/Src/stm32g4xx_hal_pwr_ex.c ****        break;
 503:Drivers/STM32G4xx_HAL_Driver/Src/stm32g4xx_hal_pwr_ex.c ****     case PWR_GPIO_D:
 504:Drivers/STM32G4xx_HAL_Driver/Src/stm32g4xx_hal_pwr_ex.c ****        CLEAR_BIT(PWR->PDCRD, GPIONumber);
 505:Drivers/STM32G4xx_HAL_Driver/Src/stm32g4xx_hal_pwr_ex.c ****        break;
 506:Drivers/STM32G4xx_HAL_Driver/Src/stm32g4xx_hal_pwr_ex.c ****     case PWR_GPIO_E:
 507:Drivers/STM32G4xx_HAL_Driver/Src/stm32g4xx_hal_pwr_ex.c ****        CLEAR_BIT(PWR->PDCRE, GPIONumber);
 508:Drivers/STM32G4xx_HAL_Driver/Src/stm32g4xx_hal_pwr_ex.c ****        break;
 509:Drivers/STM32G4xx_HAL_Driver/Src/stm32g4xx_hal_pwr_ex.c ****     case PWR_GPIO_F:
 510:Drivers/STM32G4xx_HAL_Driver/Src/stm32g4xx_hal_pwr_ex.c ****        CLEAR_BIT(PWR->PDCRF, (GPIONumber & PWR_PORTF_AVAILABLE_PINS));
 511:Drivers/STM32G4xx_HAL_Driver/Src/stm32g4xx_hal_pwr_ex.c ****        break;
 512:Drivers/STM32G4xx_HAL_Driver/Src/stm32g4xx_hal_pwr_ex.c ****     case PWR_GPIO_G:
 513:Drivers/STM32G4xx_HAL_Driver/Src/stm32g4xx_hal_pwr_ex.c ****        CLEAR_BIT(PWR->PDCRG, ((GPIONumber & PWR_PORTG_AVAILABLE_PINS) & (~(PWR_GPIO_BIT_10))));
 984              		.loc 1 513 8 view .LVU252
 985 0010 1B4B     		ldr	r3, .L107
 986 0012 5A6D     		ldr	r2, [r3, #84]
 987 0014 5A65     		str	r2, [r3, #84]
 514:Drivers/STM32G4xx_HAL_Driver/Src/stm32g4xx_hal_pwr_ex.c ****        break;
ARM GAS  /tmp/ccv7Xt7x.s 			page 30


 988              		.loc 1 514 8 view .LVU253
 487:Drivers/STM32G4xx_HAL_Driver/Src/stm32g4xx_hal_pwr_ex.c **** 
 989              		.loc 1 487 21 is_stmt 0 view .LVU254
 990 0016 0020     		movs	r0, #0
 991              	.LVL85:
 992              		.loc 1 514 8 view .LVU255
 993 0018 7047     		bx	lr
 994              	.LVL86:
 995              	.L105:
 495:Drivers/STM32G4xx_HAL_Driver/Src/stm32g4xx_hal_pwr_ex.c ****        break;
 996              		.loc 1 495 8 is_stmt 1 view .LVU256
 997 001a 194A     		ldr	r2, .L107
 998 001c 536A     		ldr	r3, [r2, #36]
 999 001e 21F42041 		bic	r1, r1, #40960
 1000              	.LVL87:
 495:Drivers/STM32G4xx_HAL_Driver/Src/stm32g4xx_hal_pwr_ex.c ****        break;
 1001              		.loc 1 495 8 is_stmt 0 view .LVU257
 1002 0022 23EA0103 		bic	r3, r3, r1
 1003 0026 5362     		str	r3, [r2, #36]
 496:Drivers/STM32G4xx_HAL_Driver/Src/stm32g4xx_hal_pwr_ex.c ****     case PWR_GPIO_B:
 1004              		.loc 1 496 8 is_stmt 1 view .LVU258
 487:Drivers/STM32G4xx_HAL_Driver/Src/stm32g4xx_hal_pwr_ex.c **** 
 1005              		.loc 1 487 21 is_stmt 0 view .LVU259
 1006 0028 0020     		movs	r0, #0
 1007              	.LVL88:
 496:Drivers/STM32G4xx_HAL_Driver/Src/stm32g4xx_hal_pwr_ex.c ****     case PWR_GPIO_B:
 1008              		.loc 1 496 8 view .LVU260
 1009 002a 7047     		bx	lr
 1010              	.LVL89:
 1011              	.L104:
 498:Drivers/STM32G4xx_HAL_Driver/Src/stm32g4xx_hal_pwr_ex.c ****        break;
 1012              		.loc 1 498 8 is_stmt 1 view .LVU261
 1013 002c 144A     		ldr	r2, .L107
 1014 002e D36A     		ldr	r3, [r2, #44]
 1015 0030 21F01001 		bic	r1, r1, #16
 1016              	.LVL90:
 498:Drivers/STM32G4xx_HAL_Driver/Src/stm32g4xx_hal_pwr_ex.c ****        break;
 1017              		.loc 1 498 8 is_stmt 0 view .LVU262
 1018 0034 23EA0103 		bic	r3, r3, r1
 1019 0038 D362     		str	r3, [r2, #44]
 499:Drivers/STM32G4xx_HAL_Driver/Src/stm32g4xx_hal_pwr_ex.c ****     case PWR_GPIO_C:
 1020              		.loc 1 499 8 is_stmt 1 view .LVU263
 487:Drivers/STM32G4xx_HAL_Driver/Src/stm32g4xx_hal_pwr_ex.c **** 
 1021              		.loc 1 487 21 is_stmt 0 view .LVU264
 1022 003a 0020     		movs	r0, #0
 1023              	.LVL91:
 499:Drivers/STM32G4xx_HAL_Driver/Src/stm32g4xx_hal_pwr_ex.c ****     case PWR_GPIO_C:
 1024              		.loc 1 499 8 view .LVU265
 1025 003c 7047     		bx	lr
 1026              	.LVL92:
 1027              	.L103:
 501:Drivers/STM32G4xx_HAL_Driver/Src/stm32g4xx_hal_pwr_ex.c ****        break;
 1028              		.loc 1 501 8 is_stmt 1 view .LVU266
 1029 003e 104A     		ldr	r2, .L107
 1030 0040 536B     		ldr	r3, [r2, #52]
 1031 0042 23EA0101 		bic	r1, r3, r1
 1032              	.LVL93:
ARM GAS  /tmp/ccv7Xt7x.s 			page 31


 501:Drivers/STM32G4xx_HAL_Driver/Src/stm32g4xx_hal_pwr_ex.c ****        break;
 1033              		.loc 1 501 8 is_stmt 0 view .LVU267
 1034 0046 5163     		str	r1, [r2, #52]
 502:Drivers/STM32G4xx_HAL_Driver/Src/stm32g4xx_hal_pwr_ex.c ****     case PWR_GPIO_D:
 1035              		.loc 1 502 8 is_stmt 1 view .LVU268
 487:Drivers/STM32G4xx_HAL_Driver/Src/stm32g4xx_hal_pwr_ex.c **** 
 1036              		.loc 1 487 21 is_stmt 0 view .LVU269
 1037 0048 0020     		movs	r0, #0
 1038              	.LVL94:
 502:Drivers/STM32G4xx_HAL_Driver/Src/stm32g4xx_hal_pwr_ex.c ****     case PWR_GPIO_D:
 1039              		.loc 1 502 8 view .LVU270
 1040 004a 7047     		bx	lr
 1041              	.LVL95:
 1042              	.L102:
 504:Drivers/STM32G4xx_HAL_Driver/Src/stm32g4xx_hal_pwr_ex.c ****        break;
 1043              		.loc 1 504 8 is_stmt 1 view .LVU271
 1044 004c 0C4A     		ldr	r2, .L107
 1045 004e D36B     		ldr	r3, [r2, #60]
 1046 0050 23EA0101 		bic	r1, r3, r1
 1047              	.LVL96:
 504:Drivers/STM32G4xx_HAL_Driver/Src/stm32g4xx_hal_pwr_ex.c ****        break;
 1048              		.loc 1 504 8 is_stmt 0 view .LVU272
 1049 0054 D163     		str	r1, [r2, #60]
 505:Drivers/STM32G4xx_HAL_Driver/Src/stm32g4xx_hal_pwr_ex.c ****     case PWR_GPIO_E:
 1050              		.loc 1 505 8 is_stmt 1 view .LVU273
 487:Drivers/STM32G4xx_HAL_Driver/Src/stm32g4xx_hal_pwr_ex.c **** 
 1051              		.loc 1 487 21 is_stmt 0 view .LVU274
 1052 0056 0020     		movs	r0, #0
 1053              	.LVL97:
 505:Drivers/STM32G4xx_HAL_Driver/Src/stm32g4xx_hal_pwr_ex.c ****     case PWR_GPIO_E:
 1054              		.loc 1 505 8 view .LVU275
 1055 0058 7047     		bx	lr
 1056              	.LVL98:
 1057              	.L101:
 507:Drivers/STM32G4xx_HAL_Driver/Src/stm32g4xx_hal_pwr_ex.c ****        break;
 1058              		.loc 1 507 8 is_stmt 1 view .LVU276
 1059 005a 094A     		ldr	r2, .L107
 1060 005c 536C     		ldr	r3, [r2, #68]
 1061 005e 23EA0101 		bic	r1, r3, r1
 1062              	.LVL99:
 507:Drivers/STM32G4xx_HAL_Driver/Src/stm32g4xx_hal_pwr_ex.c ****        break;
 1063              		.loc 1 507 8 is_stmt 0 view .LVU277
 1064 0062 5164     		str	r1, [r2, #68]
 508:Drivers/STM32G4xx_HAL_Driver/Src/stm32g4xx_hal_pwr_ex.c ****     case PWR_GPIO_F:
 1065              		.loc 1 508 8 is_stmt 1 view .LVU278
 487:Drivers/STM32G4xx_HAL_Driver/Src/stm32g4xx_hal_pwr_ex.c **** 
 1066              		.loc 1 487 21 is_stmt 0 view .LVU279
 1067 0064 0020     		movs	r0, #0
 1068              	.LVL100:
 508:Drivers/STM32G4xx_HAL_Driver/Src/stm32g4xx_hal_pwr_ex.c ****     case PWR_GPIO_F:
 1069              		.loc 1 508 8 view .LVU280
 1070 0066 7047     		bx	lr
 1071              	.LVL101:
 1072              	.L100:
 510:Drivers/STM32G4xx_HAL_Driver/Src/stm32g4xx_hal_pwr_ex.c ****        break;
 1073              		.loc 1 510 8 is_stmt 1 view .LVU281
 1074 0068 054A     		ldr	r2, .L107
ARM GAS  /tmp/ccv7Xt7x.s 			page 32


 1075 006a 40F20760 		movw	r0, #1543
 1076              	.LVL102:
 510:Drivers/STM32G4xx_HAL_Driver/Src/stm32g4xx_hal_pwr_ex.c ****        break;
 1077              		.loc 1 510 8 is_stmt 0 view .LVU282
 1078 006e D36C     		ldr	r3, [r2, #76]
 1079 0070 0140     		ands	r1, r1, r0
 1080              	.LVL103:
 510:Drivers/STM32G4xx_HAL_Driver/Src/stm32g4xx_hal_pwr_ex.c ****        break;
 1081              		.loc 1 510 8 view .LVU283
 1082 0072 23EA0101 		bic	r1, r3, r1
 1083 0076 D164     		str	r1, [r2, #76]
 511:Drivers/STM32G4xx_HAL_Driver/Src/stm32g4xx_hal_pwr_ex.c ****     case PWR_GPIO_G:
 1084              		.loc 1 511 8 is_stmt 1 view .LVU284
 487:Drivers/STM32G4xx_HAL_Driver/Src/stm32g4xx_hal_pwr_ex.c **** 
 1085              		.loc 1 487 21 is_stmt 0 view .LVU285
 1086 0078 0020     		movs	r0, #0
 511:Drivers/STM32G4xx_HAL_Driver/Src/stm32g4xx_hal_pwr_ex.c ****     case PWR_GPIO_G:
 1087              		.loc 1 511 8 view .LVU286
 1088 007a 7047     		bx	lr
 1089              	.LVL104:
 1090              	.L106:
 515:Drivers/STM32G4xx_HAL_Driver/Src/stm32g4xx_hal_pwr_ex.c ****     default:
 516:Drivers/STM32G4xx_HAL_Driver/Src/stm32g4xx_hal_pwr_ex.c ****       status = HAL_ERROR;
 1091              		.loc 1 516 14 view .LVU287
 1092 007c 0120     		movs	r0, #1
 1093              	.LVL105:
 517:Drivers/STM32G4xx_HAL_Driver/Src/stm32g4xx_hal_pwr_ex.c ****       break;
 518:Drivers/STM32G4xx_HAL_Driver/Src/stm32g4xx_hal_pwr_ex.c ****   }
 519:Drivers/STM32G4xx_HAL_Driver/Src/stm32g4xx_hal_pwr_ex.c **** 
 520:Drivers/STM32G4xx_HAL_Driver/Src/stm32g4xx_hal_pwr_ex.c ****   return status;
 1094              		.loc 1 520 3 is_stmt 1 view .LVU288
 521:Drivers/STM32G4xx_HAL_Driver/Src/stm32g4xx_hal_pwr_ex.c **** }
 1095              		.loc 1 521 1 is_stmt 0 view .LVU289
 1096 007e 7047     		bx	lr
 1097              	.L108:
 1098              		.align	2
 1099              	.L107:
 1100 0080 00700040 		.word	1073770496
 1101              		.cfi_endproc
 1102              	.LFE338:
 1104              		.section	.text.HAL_PWREx_EnablePullUpPullDownConfig,"ax",%progbits
 1105              		.align	1
 1106              		.p2align 2,,3
 1107              		.global	HAL_PWREx_EnablePullUpPullDownConfig
 1108              		.syntax unified
 1109              		.thumb
 1110              		.thumb_func
 1111              		.fpu fpv4-sp-d16
 1113              	HAL_PWREx_EnablePullUpPullDownConfig:
 1114              	.LFB339:
 522:Drivers/STM32G4xx_HAL_Driver/Src/stm32g4xx_hal_pwr_ex.c **** 
 523:Drivers/STM32G4xx_HAL_Driver/Src/stm32g4xx_hal_pwr_ex.c **** 
 524:Drivers/STM32G4xx_HAL_Driver/Src/stm32g4xx_hal_pwr_ex.c **** 
 525:Drivers/STM32G4xx_HAL_Driver/Src/stm32g4xx_hal_pwr_ex.c **** /**
 526:Drivers/STM32G4xx_HAL_Driver/Src/stm32g4xx_hal_pwr_ex.c ****   * @brief Enable pull-up and pull-down configuration.
 527:Drivers/STM32G4xx_HAL_Driver/Src/stm32g4xx_hal_pwr_ex.c ****   * @note  When APC bit is set, the I/O pull-up and pull-down configurations defined in
 528:Drivers/STM32G4xx_HAL_Driver/Src/stm32g4xx_hal_pwr_ex.c ****   *        PWR_PUCRx and PWR_PDCRx registers are applied in Standby and Shutdown modes.
ARM GAS  /tmp/ccv7Xt7x.s 			page 33


 529:Drivers/STM32G4xx_HAL_Driver/Src/stm32g4xx_hal_pwr_ex.c ****   * @note  Pull-up set by PUy bit of PWR_PUCRx register is not activated if the corresponding
 530:Drivers/STM32G4xx_HAL_Driver/Src/stm32g4xx_hal_pwr_ex.c ****   *        PDy bit of PWR_PDCRx register is also set (pull-down configuration priority is higher).
 531:Drivers/STM32G4xx_HAL_Driver/Src/stm32g4xx_hal_pwr_ex.c ****   *        HAL_PWREx_EnableGPIOPullUp() and HAL_PWREx_EnableGPIOPullDown() API's ensure there
 532:Drivers/STM32G4xx_HAL_Driver/Src/stm32g4xx_hal_pwr_ex.c ****   *        is no conflict when setting PUy or PDy bit.
 533:Drivers/STM32G4xx_HAL_Driver/Src/stm32g4xx_hal_pwr_ex.c ****   * @retval None
 534:Drivers/STM32G4xx_HAL_Driver/Src/stm32g4xx_hal_pwr_ex.c ****   */
 535:Drivers/STM32G4xx_HAL_Driver/Src/stm32g4xx_hal_pwr_ex.c **** void HAL_PWREx_EnablePullUpPullDownConfig(void)
 536:Drivers/STM32G4xx_HAL_Driver/Src/stm32g4xx_hal_pwr_ex.c **** {
 1115              		.loc 1 536 1 is_stmt 1 view -0
 1116              		.cfi_startproc
 1117              		@ args = 0, pretend = 0, frame = 0
 1118              		@ frame_needed = 0, uses_anonymous_args = 0
 1119              		@ link register save eliminated.
 537:Drivers/STM32G4xx_HAL_Driver/Src/stm32g4xx_hal_pwr_ex.c ****   SET_BIT(PWR->CR3, PWR_CR3_APC);
 1120              		.loc 1 537 3 view .LVU291
 1121 0000 024A     		ldr	r2, .L110
 1122 0002 9368     		ldr	r3, [r2, #8]
 1123 0004 43F48063 		orr	r3, r3, #1024
 1124 0008 9360     		str	r3, [r2, #8]
 538:Drivers/STM32G4xx_HAL_Driver/Src/stm32g4xx_hal_pwr_ex.c **** }
 1125              		.loc 1 538 1 is_stmt 0 view .LVU292
 1126 000a 7047     		bx	lr
 1127              	.L111:
 1128              		.align	2
 1129              	.L110:
 1130 000c 00700040 		.word	1073770496
 1131              		.cfi_endproc
 1132              	.LFE339:
 1134              		.section	.text.HAL_PWREx_DisablePullUpPullDownConfig,"ax",%progbits
 1135              		.align	1
 1136              		.p2align 2,,3
 1137              		.global	HAL_PWREx_DisablePullUpPullDownConfig
 1138              		.syntax unified
 1139              		.thumb
 1140              		.thumb_func
 1141              		.fpu fpv4-sp-d16
 1143              	HAL_PWREx_DisablePullUpPullDownConfig:
 1144              	.LFB340:
 539:Drivers/STM32G4xx_HAL_Driver/Src/stm32g4xx_hal_pwr_ex.c **** 
 540:Drivers/STM32G4xx_HAL_Driver/Src/stm32g4xx_hal_pwr_ex.c **** 
 541:Drivers/STM32G4xx_HAL_Driver/Src/stm32g4xx_hal_pwr_ex.c **** /**
 542:Drivers/STM32G4xx_HAL_Driver/Src/stm32g4xx_hal_pwr_ex.c ****   * @brief Disable pull-up and pull-down configuration.
 543:Drivers/STM32G4xx_HAL_Driver/Src/stm32g4xx_hal_pwr_ex.c ****   * @note  When APC bit is cleared, the I/O pull-up and pull-down configurations defined in
 544:Drivers/STM32G4xx_HAL_Driver/Src/stm32g4xx_hal_pwr_ex.c ****   *        PWR_PUCRx and PWR_PDCRx registers are not applied in Standby and Shutdown modes.
 545:Drivers/STM32G4xx_HAL_Driver/Src/stm32g4xx_hal_pwr_ex.c ****   * @retval None
 546:Drivers/STM32G4xx_HAL_Driver/Src/stm32g4xx_hal_pwr_ex.c ****   */
 547:Drivers/STM32G4xx_HAL_Driver/Src/stm32g4xx_hal_pwr_ex.c **** void HAL_PWREx_DisablePullUpPullDownConfig(void)
 548:Drivers/STM32G4xx_HAL_Driver/Src/stm32g4xx_hal_pwr_ex.c **** {
 1145              		.loc 1 548 1 is_stmt 1 view -0
 1146              		.cfi_startproc
 1147              		@ args = 0, pretend = 0, frame = 0
 1148              		@ frame_needed = 0, uses_anonymous_args = 0
 1149              		@ link register save eliminated.
 549:Drivers/STM32G4xx_HAL_Driver/Src/stm32g4xx_hal_pwr_ex.c ****   CLEAR_BIT(PWR->CR3, PWR_CR3_APC);
 1150              		.loc 1 549 3 view .LVU294
 1151 0000 024A     		ldr	r2, .L113
 1152 0002 9368     		ldr	r3, [r2, #8]
ARM GAS  /tmp/ccv7Xt7x.s 			page 34


 1153 0004 23F48063 		bic	r3, r3, #1024
 1154 0008 9360     		str	r3, [r2, #8]
 550:Drivers/STM32G4xx_HAL_Driver/Src/stm32g4xx_hal_pwr_ex.c **** }
 1155              		.loc 1 550 1 is_stmt 0 view .LVU295
 1156 000a 7047     		bx	lr
 1157              	.L114:
 1158              		.align	2
 1159              	.L113:
 1160 000c 00700040 		.word	1073770496
 1161              		.cfi_endproc
 1162              	.LFE340:
 1164              		.section	.text.HAL_PWREx_EnableSRAM2ContentRetention,"ax",%progbits
 1165              		.align	1
 1166              		.p2align 2,,3
 1167              		.global	HAL_PWREx_EnableSRAM2ContentRetention
 1168              		.syntax unified
 1169              		.thumb
 1170              		.thumb_func
 1171              		.fpu fpv4-sp-d16
 1173              	HAL_PWREx_EnableSRAM2ContentRetention:
 1174              	.LFB341:
 551:Drivers/STM32G4xx_HAL_Driver/Src/stm32g4xx_hal_pwr_ex.c **** 
 552:Drivers/STM32G4xx_HAL_Driver/Src/stm32g4xx_hal_pwr_ex.c **** 
 553:Drivers/STM32G4xx_HAL_Driver/Src/stm32g4xx_hal_pwr_ex.c **** 
 554:Drivers/STM32G4xx_HAL_Driver/Src/stm32g4xx_hal_pwr_ex.c **** /**
 555:Drivers/STM32G4xx_HAL_Driver/Src/stm32g4xx_hal_pwr_ex.c ****   * @brief Enable SRAM2 content retention in Standby mode.
 556:Drivers/STM32G4xx_HAL_Driver/Src/stm32g4xx_hal_pwr_ex.c ****   * @note  When RRS bit is set, SRAM2 is powered by the low-power regulator in
 557:Drivers/STM32G4xx_HAL_Driver/Src/stm32g4xx_hal_pwr_ex.c ****   *         Standby mode and its content is kept.
 558:Drivers/STM32G4xx_HAL_Driver/Src/stm32g4xx_hal_pwr_ex.c ****   * @retval None
 559:Drivers/STM32G4xx_HAL_Driver/Src/stm32g4xx_hal_pwr_ex.c ****   */
 560:Drivers/STM32G4xx_HAL_Driver/Src/stm32g4xx_hal_pwr_ex.c **** void HAL_PWREx_EnableSRAM2ContentRetention(void)
 561:Drivers/STM32G4xx_HAL_Driver/Src/stm32g4xx_hal_pwr_ex.c **** {
 1175              		.loc 1 561 1 is_stmt 1 view -0
 1176              		.cfi_startproc
 1177              		@ args = 0, pretend = 0, frame = 0
 1178              		@ frame_needed = 0, uses_anonymous_args = 0
 1179              		@ link register save eliminated.
 562:Drivers/STM32G4xx_HAL_Driver/Src/stm32g4xx_hal_pwr_ex.c ****   SET_BIT(PWR->CR3, PWR_CR3_RRS);
 1180              		.loc 1 562 3 view .LVU297
 1181 0000 024A     		ldr	r2, .L116
 1182 0002 9368     		ldr	r3, [r2, #8]
 1183 0004 43F48073 		orr	r3, r3, #256
 1184 0008 9360     		str	r3, [r2, #8]
 563:Drivers/STM32G4xx_HAL_Driver/Src/stm32g4xx_hal_pwr_ex.c **** }
 1185              		.loc 1 563 1 is_stmt 0 view .LVU298
 1186 000a 7047     		bx	lr
 1187              	.L117:
 1188              		.align	2
 1189              	.L116:
 1190 000c 00700040 		.word	1073770496
 1191              		.cfi_endproc
 1192              	.LFE341:
 1194              		.section	.text.HAL_PWREx_DisableSRAM2ContentRetention,"ax",%progbits
 1195              		.align	1
 1196              		.p2align 2,,3
 1197              		.global	HAL_PWREx_DisableSRAM2ContentRetention
 1198              		.syntax unified
ARM GAS  /tmp/ccv7Xt7x.s 			page 35


 1199              		.thumb
 1200              		.thumb_func
 1201              		.fpu fpv4-sp-d16
 1203              	HAL_PWREx_DisableSRAM2ContentRetention:
 1204              	.LFB342:
 564:Drivers/STM32G4xx_HAL_Driver/Src/stm32g4xx_hal_pwr_ex.c **** 
 565:Drivers/STM32G4xx_HAL_Driver/Src/stm32g4xx_hal_pwr_ex.c **** 
 566:Drivers/STM32G4xx_HAL_Driver/Src/stm32g4xx_hal_pwr_ex.c **** /**
 567:Drivers/STM32G4xx_HAL_Driver/Src/stm32g4xx_hal_pwr_ex.c ****   * @brief Disable SRAM2 content retention in Standby mode.
 568:Drivers/STM32G4xx_HAL_Driver/Src/stm32g4xx_hal_pwr_ex.c ****   * @note  When RRS bit is reset, SRAM2 is powered off in Standby mode
 569:Drivers/STM32G4xx_HAL_Driver/Src/stm32g4xx_hal_pwr_ex.c ****   *        and its content is lost.
 570:Drivers/STM32G4xx_HAL_Driver/Src/stm32g4xx_hal_pwr_ex.c ****   * @retval None
 571:Drivers/STM32G4xx_HAL_Driver/Src/stm32g4xx_hal_pwr_ex.c ****   */
 572:Drivers/STM32G4xx_HAL_Driver/Src/stm32g4xx_hal_pwr_ex.c **** void HAL_PWREx_DisableSRAM2ContentRetention(void)
 573:Drivers/STM32G4xx_HAL_Driver/Src/stm32g4xx_hal_pwr_ex.c **** {
 1205              		.loc 1 573 1 is_stmt 1 view -0
 1206              		.cfi_startproc
 1207              		@ args = 0, pretend = 0, frame = 0
 1208              		@ frame_needed = 0, uses_anonymous_args = 0
 1209              		@ link register save eliminated.
 574:Drivers/STM32G4xx_HAL_Driver/Src/stm32g4xx_hal_pwr_ex.c ****   CLEAR_BIT(PWR->CR3, PWR_CR3_RRS);
 1210              		.loc 1 574 3 view .LVU300
 1211 0000 024A     		ldr	r2, .L119
 1212 0002 9368     		ldr	r3, [r2, #8]
 1213 0004 23F48073 		bic	r3, r3, #256
 1214 0008 9360     		str	r3, [r2, #8]
 575:Drivers/STM32G4xx_HAL_Driver/Src/stm32g4xx_hal_pwr_ex.c **** }
 1215              		.loc 1 575 1 is_stmt 0 view .LVU301
 1216 000a 7047     		bx	lr
 1217              	.L120:
 1218              		.align	2
 1219              	.L119:
 1220 000c 00700040 		.word	1073770496
 1221              		.cfi_endproc
 1222              	.LFE342:
 1224              		.section	.text.HAL_PWREx_EnablePVM1,"ax",%progbits
 1225              		.align	1
 1226              		.p2align 2,,3
 1227              		.global	HAL_PWREx_EnablePVM1
 1228              		.syntax unified
 1229              		.thumb
 1230              		.thumb_func
 1231              		.fpu fpv4-sp-d16
 1233              	HAL_PWREx_EnablePVM1:
 1234              	.LFB343:
 576:Drivers/STM32G4xx_HAL_Driver/Src/stm32g4xx_hal_pwr_ex.c **** 
 577:Drivers/STM32G4xx_HAL_Driver/Src/stm32g4xx_hal_pwr_ex.c **** 
 578:Drivers/STM32G4xx_HAL_Driver/Src/stm32g4xx_hal_pwr_ex.c **** 
 579:Drivers/STM32G4xx_HAL_Driver/Src/stm32g4xx_hal_pwr_ex.c **** 
 580:Drivers/STM32G4xx_HAL_Driver/Src/stm32g4xx_hal_pwr_ex.c **** #if defined(PWR_CR2_PVME1)
 581:Drivers/STM32G4xx_HAL_Driver/Src/stm32g4xx_hal_pwr_ex.c **** /**
 582:Drivers/STM32G4xx_HAL_Driver/Src/stm32g4xx_hal_pwr_ex.c ****   * @brief Enable the Power Voltage Monitoring 1: VDDA versus FASTCOMP minimum voltage.
 583:Drivers/STM32G4xx_HAL_Driver/Src/stm32g4xx_hal_pwr_ex.c ****   * @retval None
 584:Drivers/STM32G4xx_HAL_Driver/Src/stm32g4xx_hal_pwr_ex.c ****   */
 585:Drivers/STM32G4xx_HAL_Driver/Src/stm32g4xx_hal_pwr_ex.c **** void HAL_PWREx_EnablePVM1(void)
 586:Drivers/STM32G4xx_HAL_Driver/Src/stm32g4xx_hal_pwr_ex.c **** {
 1235              		.loc 1 586 1 is_stmt 1 view -0
ARM GAS  /tmp/ccv7Xt7x.s 			page 36


 1236              		.cfi_startproc
 1237              		@ args = 0, pretend = 0, frame = 0
 1238              		@ frame_needed = 0, uses_anonymous_args = 0
 1239              		@ link register save eliminated.
 587:Drivers/STM32G4xx_HAL_Driver/Src/stm32g4xx_hal_pwr_ex.c ****   SET_BIT(PWR->CR2, PWR_PVM_1);
 1240              		.loc 1 587 3 view .LVU303
 1241 0000 024A     		ldr	r2, .L122
 1242 0002 5368     		ldr	r3, [r2, #4]
 1243 0004 43F01003 		orr	r3, r3, #16
 1244 0008 5360     		str	r3, [r2, #4]
 588:Drivers/STM32G4xx_HAL_Driver/Src/stm32g4xx_hal_pwr_ex.c **** }
 1245              		.loc 1 588 1 is_stmt 0 view .LVU304
 1246 000a 7047     		bx	lr
 1247              	.L123:
 1248              		.align	2
 1249              	.L122:
 1250 000c 00700040 		.word	1073770496
 1251              		.cfi_endproc
 1252              	.LFE343:
 1254              		.section	.text.HAL_PWREx_DisablePVM1,"ax",%progbits
 1255              		.align	1
 1256              		.p2align 2,,3
 1257              		.global	HAL_PWREx_DisablePVM1
 1258              		.syntax unified
 1259              		.thumb
 1260              		.thumb_func
 1261              		.fpu fpv4-sp-d16
 1263              	HAL_PWREx_DisablePVM1:
 1264              	.LFB344:
 589:Drivers/STM32G4xx_HAL_Driver/Src/stm32g4xx_hal_pwr_ex.c **** 
 590:Drivers/STM32G4xx_HAL_Driver/Src/stm32g4xx_hal_pwr_ex.c **** /**
 591:Drivers/STM32G4xx_HAL_Driver/Src/stm32g4xx_hal_pwr_ex.c ****   * @brief Disable the Power Voltage Monitoring 1: VDDA versus FASTCOMP minimum voltage.
 592:Drivers/STM32G4xx_HAL_Driver/Src/stm32g4xx_hal_pwr_ex.c ****   * @retval None
 593:Drivers/STM32G4xx_HAL_Driver/Src/stm32g4xx_hal_pwr_ex.c ****   */
 594:Drivers/STM32G4xx_HAL_Driver/Src/stm32g4xx_hal_pwr_ex.c **** void HAL_PWREx_DisablePVM1(void)
 595:Drivers/STM32G4xx_HAL_Driver/Src/stm32g4xx_hal_pwr_ex.c **** {
 1265              		.loc 1 595 1 is_stmt 1 view -0
 1266              		.cfi_startproc
 1267              		@ args = 0, pretend = 0, frame = 0
 1268              		@ frame_needed = 0, uses_anonymous_args = 0
 1269              		@ link register save eliminated.
 596:Drivers/STM32G4xx_HAL_Driver/Src/stm32g4xx_hal_pwr_ex.c ****   CLEAR_BIT(PWR->CR2, PWR_PVM_1);
 1270              		.loc 1 596 3 view .LVU306
 1271 0000 024A     		ldr	r2, .L125
 1272 0002 5368     		ldr	r3, [r2, #4]
 1273 0004 23F01003 		bic	r3, r3, #16
 1274 0008 5360     		str	r3, [r2, #4]
 597:Drivers/STM32G4xx_HAL_Driver/Src/stm32g4xx_hal_pwr_ex.c **** }
 1275              		.loc 1 597 1 is_stmt 0 view .LVU307
 1276 000a 7047     		bx	lr
 1277              	.L126:
 1278              		.align	2
 1279              	.L125:
 1280 000c 00700040 		.word	1073770496
 1281              		.cfi_endproc
 1282              	.LFE344:
 1284              		.section	.text.HAL_PWREx_EnablePVM2,"ax",%progbits
ARM GAS  /tmp/ccv7Xt7x.s 			page 37


 1285              		.align	1
 1286              		.p2align 2,,3
 1287              		.global	HAL_PWREx_EnablePVM2
 1288              		.syntax unified
 1289              		.thumb
 1290              		.thumb_func
 1291              		.fpu fpv4-sp-d16
 1293              	HAL_PWREx_EnablePVM2:
 1294              	.LFB345:
 598:Drivers/STM32G4xx_HAL_Driver/Src/stm32g4xx_hal_pwr_ex.c **** #endif /* PWR_CR2_PVME1 */
 599:Drivers/STM32G4xx_HAL_Driver/Src/stm32g4xx_hal_pwr_ex.c **** 
 600:Drivers/STM32G4xx_HAL_Driver/Src/stm32g4xx_hal_pwr_ex.c **** 
 601:Drivers/STM32G4xx_HAL_Driver/Src/stm32g4xx_hal_pwr_ex.c **** #if defined(PWR_CR2_PVME2)
 602:Drivers/STM32G4xx_HAL_Driver/Src/stm32g4xx_hal_pwr_ex.c **** /**
 603:Drivers/STM32G4xx_HAL_Driver/Src/stm32g4xx_hal_pwr_ex.c ****   * @brief Enable the Power Voltage Monitoring 2: VDDA versus FASTDAC minimum voltage.
 604:Drivers/STM32G4xx_HAL_Driver/Src/stm32g4xx_hal_pwr_ex.c ****   * @retval None
 605:Drivers/STM32G4xx_HAL_Driver/Src/stm32g4xx_hal_pwr_ex.c ****   */
 606:Drivers/STM32G4xx_HAL_Driver/Src/stm32g4xx_hal_pwr_ex.c **** void HAL_PWREx_EnablePVM2(void)
 607:Drivers/STM32G4xx_HAL_Driver/Src/stm32g4xx_hal_pwr_ex.c **** {
 1295              		.loc 1 607 1 is_stmt 1 view -0
 1296              		.cfi_startproc
 1297              		@ args = 0, pretend = 0, frame = 0
 1298              		@ frame_needed = 0, uses_anonymous_args = 0
 1299              		@ link register save eliminated.
 608:Drivers/STM32G4xx_HAL_Driver/Src/stm32g4xx_hal_pwr_ex.c ****   SET_BIT(PWR->CR2, PWR_PVM_2);
 1300              		.loc 1 608 3 view .LVU309
 1301 0000 024A     		ldr	r2, .L128
 1302 0002 5368     		ldr	r3, [r2, #4]
 1303 0004 43F02003 		orr	r3, r3, #32
 1304 0008 5360     		str	r3, [r2, #4]
 609:Drivers/STM32G4xx_HAL_Driver/Src/stm32g4xx_hal_pwr_ex.c **** }
 1305              		.loc 1 609 1 is_stmt 0 view .LVU310
 1306 000a 7047     		bx	lr
 1307              	.L129:
 1308              		.align	2
 1309              	.L128:
 1310 000c 00700040 		.word	1073770496
 1311              		.cfi_endproc
 1312              	.LFE345:
 1314              		.section	.text.HAL_PWREx_DisablePVM2,"ax",%progbits
 1315              		.align	1
 1316              		.p2align 2,,3
 1317              		.global	HAL_PWREx_DisablePVM2
 1318              		.syntax unified
 1319              		.thumb
 1320              		.thumb_func
 1321              		.fpu fpv4-sp-d16
 1323              	HAL_PWREx_DisablePVM2:
 1324              	.LFB346:
 610:Drivers/STM32G4xx_HAL_Driver/Src/stm32g4xx_hal_pwr_ex.c **** 
 611:Drivers/STM32G4xx_HAL_Driver/Src/stm32g4xx_hal_pwr_ex.c **** /**
 612:Drivers/STM32G4xx_HAL_Driver/Src/stm32g4xx_hal_pwr_ex.c ****   * @brief Disable the Power Voltage Monitoring 2: VDDA versus FASTDAC minimum voltage.
 613:Drivers/STM32G4xx_HAL_Driver/Src/stm32g4xx_hal_pwr_ex.c ****   * @retval None
 614:Drivers/STM32G4xx_HAL_Driver/Src/stm32g4xx_hal_pwr_ex.c ****   */
 615:Drivers/STM32G4xx_HAL_Driver/Src/stm32g4xx_hal_pwr_ex.c **** void HAL_PWREx_DisablePVM2(void)
 616:Drivers/STM32G4xx_HAL_Driver/Src/stm32g4xx_hal_pwr_ex.c **** {
 1325              		.loc 1 616 1 is_stmt 1 view -0
ARM GAS  /tmp/ccv7Xt7x.s 			page 38


 1326              		.cfi_startproc
 1327              		@ args = 0, pretend = 0, frame = 0
 1328              		@ frame_needed = 0, uses_anonymous_args = 0
 1329              		@ link register save eliminated.
 617:Drivers/STM32G4xx_HAL_Driver/Src/stm32g4xx_hal_pwr_ex.c ****   CLEAR_BIT(PWR->CR2, PWR_PVM_2);
 1330              		.loc 1 617 3 view .LVU312
 1331 0000 024A     		ldr	r2, .L131
 1332 0002 5368     		ldr	r3, [r2, #4]
 1333 0004 23F02003 		bic	r3, r3, #32
 1334 0008 5360     		str	r3, [r2, #4]
 618:Drivers/STM32G4xx_HAL_Driver/Src/stm32g4xx_hal_pwr_ex.c **** }
 1335              		.loc 1 618 1 is_stmt 0 view .LVU313
 1336 000a 7047     		bx	lr
 1337              	.L132:
 1338              		.align	2
 1339              	.L131:
 1340 000c 00700040 		.word	1073770496
 1341              		.cfi_endproc
 1342              	.LFE346:
 1344              		.section	.text.HAL_PWREx_EnablePVM3,"ax",%progbits
 1345              		.align	1
 1346              		.p2align 2,,3
 1347              		.global	HAL_PWREx_EnablePVM3
 1348              		.syntax unified
 1349              		.thumb
 1350              		.thumb_func
 1351              		.fpu fpv4-sp-d16
 1353              	HAL_PWREx_EnablePVM3:
 1354              	.LFB347:
 619:Drivers/STM32G4xx_HAL_Driver/Src/stm32g4xx_hal_pwr_ex.c **** #endif /* PWR_CR2_PVME2 */
 620:Drivers/STM32G4xx_HAL_Driver/Src/stm32g4xx_hal_pwr_ex.c **** 
 621:Drivers/STM32G4xx_HAL_Driver/Src/stm32g4xx_hal_pwr_ex.c **** 
 622:Drivers/STM32G4xx_HAL_Driver/Src/stm32g4xx_hal_pwr_ex.c **** /**
 623:Drivers/STM32G4xx_HAL_Driver/Src/stm32g4xx_hal_pwr_ex.c ****   * @brief Enable the Power Voltage Monitoring 3: VDDA versus ADC minimum voltage 1.62V.
 624:Drivers/STM32G4xx_HAL_Driver/Src/stm32g4xx_hal_pwr_ex.c ****   * @retval None
 625:Drivers/STM32G4xx_HAL_Driver/Src/stm32g4xx_hal_pwr_ex.c ****   */
 626:Drivers/STM32G4xx_HAL_Driver/Src/stm32g4xx_hal_pwr_ex.c **** void HAL_PWREx_EnablePVM3(void)
 627:Drivers/STM32G4xx_HAL_Driver/Src/stm32g4xx_hal_pwr_ex.c **** {
 1355              		.loc 1 627 1 is_stmt 1 view -0
 1356              		.cfi_startproc
 1357              		@ args = 0, pretend = 0, frame = 0
 1358              		@ frame_needed = 0, uses_anonymous_args = 0
 1359              		@ link register save eliminated.
 628:Drivers/STM32G4xx_HAL_Driver/Src/stm32g4xx_hal_pwr_ex.c ****   SET_BIT(PWR->CR2, PWR_PVM_3);
 1360              		.loc 1 628 3 view .LVU315
 1361 0000 024A     		ldr	r2, .L134
 1362 0002 5368     		ldr	r3, [r2, #4]
 1363 0004 43F04003 		orr	r3, r3, #64
 1364 0008 5360     		str	r3, [r2, #4]
 629:Drivers/STM32G4xx_HAL_Driver/Src/stm32g4xx_hal_pwr_ex.c **** }
 1365              		.loc 1 629 1 is_stmt 0 view .LVU316
 1366 000a 7047     		bx	lr
 1367              	.L135:
 1368              		.align	2
 1369              	.L134:
 1370 000c 00700040 		.word	1073770496
 1371              		.cfi_endproc
ARM GAS  /tmp/ccv7Xt7x.s 			page 39


 1372              	.LFE347:
 1374              		.section	.text.HAL_PWREx_DisablePVM3,"ax",%progbits
 1375              		.align	1
 1376              		.p2align 2,,3
 1377              		.global	HAL_PWREx_DisablePVM3
 1378              		.syntax unified
 1379              		.thumb
 1380              		.thumb_func
 1381              		.fpu fpv4-sp-d16
 1383              	HAL_PWREx_DisablePVM3:
 1384              	.LFB348:
 630:Drivers/STM32G4xx_HAL_Driver/Src/stm32g4xx_hal_pwr_ex.c **** 
 631:Drivers/STM32G4xx_HAL_Driver/Src/stm32g4xx_hal_pwr_ex.c **** /**
 632:Drivers/STM32G4xx_HAL_Driver/Src/stm32g4xx_hal_pwr_ex.c ****   * @brief Disable the Power Voltage Monitoring 3: VDDA versus ADC minimum voltage 1.62V.
 633:Drivers/STM32G4xx_HAL_Driver/Src/stm32g4xx_hal_pwr_ex.c ****   * @retval None
 634:Drivers/STM32G4xx_HAL_Driver/Src/stm32g4xx_hal_pwr_ex.c ****   */
 635:Drivers/STM32G4xx_HAL_Driver/Src/stm32g4xx_hal_pwr_ex.c **** void HAL_PWREx_DisablePVM3(void)
 636:Drivers/STM32G4xx_HAL_Driver/Src/stm32g4xx_hal_pwr_ex.c **** {
 1385              		.loc 1 636 1 is_stmt 1 view -0
 1386              		.cfi_startproc
 1387              		@ args = 0, pretend = 0, frame = 0
 1388              		@ frame_needed = 0, uses_anonymous_args = 0
 1389              		@ link register save eliminated.
 637:Drivers/STM32G4xx_HAL_Driver/Src/stm32g4xx_hal_pwr_ex.c ****   CLEAR_BIT(PWR->CR2, PWR_PVM_3);
 1390              		.loc 1 637 3 view .LVU318
 1391 0000 024A     		ldr	r2, .L137
 1392 0002 5368     		ldr	r3, [r2, #4]
 1393 0004 23F04003 		bic	r3, r3, #64
 1394 0008 5360     		str	r3, [r2, #4]
 638:Drivers/STM32G4xx_HAL_Driver/Src/stm32g4xx_hal_pwr_ex.c **** }
 1395              		.loc 1 638 1 is_stmt 0 view .LVU319
 1396 000a 7047     		bx	lr
 1397              	.L138:
 1398              		.align	2
 1399              	.L137:
 1400 000c 00700040 		.word	1073770496
 1401              		.cfi_endproc
 1402              	.LFE348:
 1404              		.section	.text.HAL_PWREx_EnablePVM4,"ax",%progbits
 1405              		.align	1
 1406              		.p2align 2,,3
 1407              		.global	HAL_PWREx_EnablePVM4
 1408              		.syntax unified
 1409              		.thumb
 1410              		.thumb_func
 1411              		.fpu fpv4-sp-d16
 1413              	HAL_PWREx_EnablePVM4:
 1414              	.LFB349:
 639:Drivers/STM32G4xx_HAL_Driver/Src/stm32g4xx_hal_pwr_ex.c **** 
 640:Drivers/STM32G4xx_HAL_Driver/Src/stm32g4xx_hal_pwr_ex.c **** 
 641:Drivers/STM32G4xx_HAL_Driver/Src/stm32g4xx_hal_pwr_ex.c **** /**
 642:Drivers/STM32G4xx_HAL_Driver/Src/stm32g4xx_hal_pwr_ex.c ****   * @brief Enable the Power Voltage Monitoring 4: VDDA versus OPAMP/DAC minimum voltage 1.8V.
 643:Drivers/STM32G4xx_HAL_Driver/Src/stm32g4xx_hal_pwr_ex.c ****   * @retval None
 644:Drivers/STM32G4xx_HAL_Driver/Src/stm32g4xx_hal_pwr_ex.c ****   */
 645:Drivers/STM32G4xx_HAL_Driver/Src/stm32g4xx_hal_pwr_ex.c **** void HAL_PWREx_EnablePVM4(void)
 646:Drivers/STM32G4xx_HAL_Driver/Src/stm32g4xx_hal_pwr_ex.c **** {
 1415              		.loc 1 646 1 is_stmt 1 view -0
ARM GAS  /tmp/ccv7Xt7x.s 			page 40


 1416              		.cfi_startproc
 1417              		@ args = 0, pretend = 0, frame = 0
 1418              		@ frame_needed = 0, uses_anonymous_args = 0
 1419              		@ link register save eliminated.
 647:Drivers/STM32G4xx_HAL_Driver/Src/stm32g4xx_hal_pwr_ex.c ****   SET_BIT(PWR->CR2, PWR_PVM_4);
 1420              		.loc 1 647 3 view .LVU321
 1421 0000 024A     		ldr	r2, .L140
 1422 0002 5368     		ldr	r3, [r2, #4]
 1423 0004 43F08003 		orr	r3, r3, #128
 1424 0008 5360     		str	r3, [r2, #4]
 648:Drivers/STM32G4xx_HAL_Driver/Src/stm32g4xx_hal_pwr_ex.c **** }
 1425              		.loc 1 648 1 is_stmt 0 view .LVU322
 1426 000a 7047     		bx	lr
 1427              	.L141:
 1428              		.align	2
 1429              	.L140:
 1430 000c 00700040 		.word	1073770496
 1431              		.cfi_endproc
 1432              	.LFE349:
 1434              		.section	.text.HAL_PWREx_DisablePVM4,"ax",%progbits
 1435              		.align	1
 1436              		.p2align 2,,3
 1437              		.global	HAL_PWREx_DisablePVM4
 1438              		.syntax unified
 1439              		.thumb
 1440              		.thumb_func
 1441              		.fpu fpv4-sp-d16
 1443              	HAL_PWREx_DisablePVM4:
 1444              	.LFB350:
 649:Drivers/STM32G4xx_HAL_Driver/Src/stm32g4xx_hal_pwr_ex.c **** 
 650:Drivers/STM32G4xx_HAL_Driver/Src/stm32g4xx_hal_pwr_ex.c **** /**
 651:Drivers/STM32G4xx_HAL_Driver/Src/stm32g4xx_hal_pwr_ex.c ****   * @brief Disable the Power Voltage Monitoring 4: VDDA versus OPAMP/DAC minimum voltage 1.8V.
 652:Drivers/STM32G4xx_HAL_Driver/Src/stm32g4xx_hal_pwr_ex.c ****   * @retval None
 653:Drivers/STM32G4xx_HAL_Driver/Src/stm32g4xx_hal_pwr_ex.c ****   */
 654:Drivers/STM32G4xx_HAL_Driver/Src/stm32g4xx_hal_pwr_ex.c **** void HAL_PWREx_DisablePVM4(void)
 655:Drivers/STM32G4xx_HAL_Driver/Src/stm32g4xx_hal_pwr_ex.c **** {
 1445              		.loc 1 655 1 is_stmt 1 view -0
 1446              		.cfi_startproc
 1447              		@ args = 0, pretend = 0, frame = 0
 1448              		@ frame_needed = 0, uses_anonymous_args = 0
 1449              		@ link register save eliminated.
 656:Drivers/STM32G4xx_HAL_Driver/Src/stm32g4xx_hal_pwr_ex.c ****   CLEAR_BIT(PWR->CR2, PWR_PVM_4);
 1450              		.loc 1 656 3 view .LVU324
 1451 0000 024A     		ldr	r2, .L143
 1452 0002 5368     		ldr	r3, [r2, #4]
 1453 0004 23F08003 		bic	r3, r3, #128
 1454 0008 5360     		str	r3, [r2, #4]
 657:Drivers/STM32G4xx_HAL_Driver/Src/stm32g4xx_hal_pwr_ex.c **** }
 1455              		.loc 1 657 1 is_stmt 0 view .LVU325
 1456 000a 7047     		bx	lr
 1457              	.L144:
 1458              		.align	2
 1459              	.L143:
 1460 000c 00700040 		.word	1073770496
 1461              		.cfi_endproc
 1462              	.LFE350:
 1464              		.section	.text.HAL_PWREx_ConfigPVM,"ax",%progbits
ARM GAS  /tmp/ccv7Xt7x.s 			page 41


 1465              		.align	1
 1466              		.p2align 2,,3
 1467              		.global	HAL_PWREx_ConfigPVM
 1468              		.syntax unified
 1469              		.thumb
 1470              		.thumb_func
 1471              		.fpu fpv4-sp-d16
 1473              	HAL_PWREx_ConfigPVM:
 1474              	.LVL106:
 1475              	.LFB351:
 658:Drivers/STM32G4xx_HAL_Driver/Src/stm32g4xx_hal_pwr_ex.c **** 
 659:Drivers/STM32G4xx_HAL_Driver/Src/stm32g4xx_hal_pwr_ex.c **** 
 660:Drivers/STM32G4xx_HAL_Driver/Src/stm32g4xx_hal_pwr_ex.c **** 
 661:Drivers/STM32G4xx_HAL_Driver/Src/stm32g4xx_hal_pwr_ex.c **** 
 662:Drivers/STM32G4xx_HAL_Driver/Src/stm32g4xx_hal_pwr_ex.c **** /**
 663:Drivers/STM32G4xx_HAL_Driver/Src/stm32g4xx_hal_pwr_ex.c ****   * @brief Configure the Peripheral Voltage Monitoring (PVM).
 664:Drivers/STM32G4xx_HAL_Driver/Src/stm32g4xx_hal_pwr_ex.c ****   * @param sConfigPVM: pointer to a PWR_PVMTypeDef structure that contains the
 665:Drivers/STM32G4xx_HAL_Driver/Src/stm32g4xx_hal_pwr_ex.c ****   *        PVM configuration information.
 666:Drivers/STM32G4xx_HAL_Driver/Src/stm32g4xx_hal_pwr_ex.c ****   * @note The API configures a single PVM according to the information contained
 667:Drivers/STM32G4xx_HAL_Driver/Src/stm32g4xx_hal_pwr_ex.c ****   *       in the input structure. To configure several PVMs, the API must be singly
 668:Drivers/STM32G4xx_HAL_Driver/Src/stm32g4xx_hal_pwr_ex.c ****   *       called for each PVM used.
 669:Drivers/STM32G4xx_HAL_Driver/Src/stm32g4xx_hal_pwr_ex.c ****   * @note Refer to the electrical characteristics of your device datasheet for
 670:Drivers/STM32G4xx_HAL_Driver/Src/stm32g4xx_hal_pwr_ex.c ****   *         more details about the voltage thresholds corresponding to each
 671:Drivers/STM32G4xx_HAL_Driver/Src/stm32g4xx_hal_pwr_ex.c ****   *         detection level and to each monitored supply.
 672:Drivers/STM32G4xx_HAL_Driver/Src/stm32g4xx_hal_pwr_ex.c ****   * @retval HAL status
 673:Drivers/STM32G4xx_HAL_Driver/Src/stm32g4xx_hal_pwr_ex.c ****   */
 674:Drivers/STM32G4xx_HAL_Driver/Src/stm32g4xx_hal_pwr_ex.c **** HAL_StatusTypeDef HAL_PWREx_ConfigPVM(PWR_PVMTypeDef *sConfigPVM)
 675:Drivers/STM32G4xx_HAL_Driver/Src/stm32g4xx_hal_pwr_ex.c **** {
 1476              		.loc 1 675 1 is_stmt 1 view -0
 1477              		.cfi_startproc
 1478              		@ args = 0, pretend = 0, frame = 0
 1479              		@ frame_needed = 0, uses_anonymous_args = 0
 1480              		@ link register save eliminated.
 676:Drivers/STM32G4xx_HAL_Driver/Src/stm32g4xx_hal_pwr_ex.c ****   HAL_StatusTypeDef status = HAL_OK;
 1481              		.loc 1 676 3 view .LVU327
 677:Drivers/STM32G4xx_HAL_Driver/Src/stm32g4xx_hal_pwr_ex.c **** 
 678:Drivers/STM32G4xx_HAL_Driver/Src/stm32g4xx_hal_pwr_ex.c ****   /* Check the parameters */
 679:Drivers/STM32G4xx_HAL_Driver/Src/stm32g4xx_hal_pwr_ex.c ****   assert_param(IS_PWR_PVM_TYPE(sConfigPVM->PVMType));
 1482              		.loc 1 679 3 view .LVU328
 680:Drivers/STM32G4xx_HAL_Driver/Src/stm32g4xx_hal_pwr_ex.c ****   assert_param(IS_PWR_PVM_MODE(sConfigPVM->Mode));
 1483              		.loc 1 680 3 view .LVU329
 681:Drivers/STM32G4xx_HAL_Driver/Src/stm32g4xx_hal_pwr_ex.c **** 
 682:Drivers/STM32G4xx_HAL_Driver/Src/stm32g4xx_hal_pwr_ex.c **** 
 683:Drivers/STM32G4xx_HAL_Driver/Src/stm32g4xx_hal_pwr_ex.c ****   /* Configure EXTI 35 to 38 interrupts if so required:
 684:Drivers/STM32G4xx_HAL_Driver/Src/stm32g4xx_hal_pwr_ex.c ****      scan through PVMType to detect which PVMx is set and
 685:Drivers/STM32G4xx_HAL_Driver/Src/stm32g4xx_hal_pwr_ex.c ****      configure the corresponding EXTI line accordingly. */
 686:Drivers/STM32G4xx_HAL_Driver/Src/stm32g4xx_hal_pwr_ex.c ****   switch (sConfigPVM->PVMType)
 1484              		.loc 1 686 3 view .LVU330
 1485              		.loc 1 686 21 is_stmt 0 view .LVU331
 1486 0000 0368     		ldr	r3, [r0]
 1487              		.loc 1 686 3 view .LVU332
 1488 0002 202B     		cmp	r3, #32
 1489 0004 00F09680 		beq	.L146
 1490 0008 32D9     		bls	.L213
 1491 000a 402B     		cmp	r3, #64
 1492 000c 63D0     		beq	.L150
 1493 000e 802B     		cmp	r3, #128
ARM GAS  /tmp/ccv7Xt7x.s 			page 42


 1494 0010 5FD1     		bne	.L211
 687:Drivers/STM32G4xx_HAL_Driver/Src/stm32g4xx_hal_pwr_ex.c ****   {
 688:Drivers/STM32G4xx_HAL_Driver/Src/stm32g4xx_hal_pwr_ex.c **** #if defined(PWR_CR2_PVME1)
 689:Drivers/STM32G4xx_HAL_Driver/Src/stm32g4xx_hal_pwr_ex.c ****     case PWR_PVM_1:
 690:Drivers/STM32G4xx_HAL_Driver/Src/stm32g4xx_hal_pwr_ex.c ****       /* Clear any previous config. Keep it clear if no event or IT mode is selected */
 691:Drivers/STM32G4xx_HAL_Driver/Src/stm32g4xx_hal_pwr_ex.c ****       __HAL_PWR_PVM1_EXTI_DISABLE_EVENT();
 692:Drivers/STM32G4xx_HAL_Driver/Src/stm32g4xx_hal_pwr_ex.c ****       __HAL_PWR_PVM1_EXTI_DISABLE_IT();
 693:Drivers/STM32G4xx_HAL_Driver/Src/stm32g4xx_hal_pwr_ex.c ****       __HAL_PWR_PVM1_EXTI_DISABLE_FALLING_EDGE();
 694:Drivers/STM32G4xx_HAL_Driver/Src/stm32g4xx_hal_pwr_ex.c ****       __HAL_PWR_PVM1_EXTI_DISABLE_RISING_EDGE();
 695:Drivers/STM32G4xx_HAL_Driver/Src/stm32g4xx_hal_pwr_ex.c **** 
 696:Drivers/STM32G4xx_HAL_Driver/Src/stm32g4xx_hal_pwr_ex.c ****       /* Configure interrupt mode */
 697:Drivers/STM32G4xx_HAL_Driver/Src/stm32g4xx_hal_pwr_ex.c ****       if((sConfigPVM->Mode & PVM_MODE_IT) == PVM_MODE_IT)
 698:Drivers/STM32G4xx_HAL_Driver/Src/stm32g4xx_hal_pwr_ex.c ****       {
 699:Drivers/STM32G4xx_HAL_Driver/Src/stm32g4xx_hal_pwr_ex.c ****         __HAL_PWR_PVM1_EXTI_ENABLE_IT();
 700:Drivers/STM32G4xx_HAL_Driver/Src/stm32g4xx_hal_pwr_ex.c ****       }
 701:Drivers/STM32G4xx_HAL_Driver/Src/stm32g4xx_hal_pwr_ex.c **** 
 702:Drivers/STM32G4xx_HAL_Driver/Src/stm32g4xx_hal_pwr_ex.c ****       /* Configure event mode */
 703:Drivers/STM32G4xx_HAL_Driver/Src/stm32g4xx_hal_pwr_ex.c ****       if((sConfigPVM->Mode & PVM_MODE_EVT) == PVM_MODE_EVT)
 704:Drivers/STM32G4xx_HAL_Driver/Src/stm32g4xx_hal_pwr_ex.c ****       {
 705:Drivers/STM32G4xx_HAL_Driver/Src/stm32g4xx_hal_pwr_ex.c ****         __HAL_PWR_PVM1_EXTI_ENABLE_EVENT();
 706:Drivers/STM32G4xx_HAL_Driver/Src/stm32g4xx_hal_pwr_ex.c ****       }
 707:Drivers/STM32G4xx_HAL_Driver/Src/stm32g4xx_hal_pwr_ex.c **** 
 708:Drivers/STM32G4xx_HAL_Driver/Src/stm32g4xx_hal_pwr_ex.c ****       /* Configure the edge */
 709:Drivers/STM32G4xx_HAL_Driver/Src/stm32g4xx_hal_pwr_ex.c ****       if((sConfigPVM->Mode & PVM_RISING_EDGE) == PVM_RISING_EDGE)
 710:Drivers/STM32G4xx_HAL_Driver/Src/stm32g4xx_hal_pwr_ex.c ****       {
 711:Drivers/STM32G4xx_HAL_Driver/Src/stm32g4xx_hal_pwr_ex.c ****         __HAL_PWR_PVM1_EXTI_ENABLE_RISING_EDGE();
 712:Drivers/STM32G4xx_HAL_Driver/Src/stm32g4xx_hal_pwr_ex.c ****       }
 713:Drivers/STM32G4xx_HAL_Driver/Src/stm32g4xx_hal_pwr_ex.c **** 
 714:Drivers/STM32G4xx_HAL_Driver/Src/stm32g4xx_hal_pwr_ex.c ****       if((sConfigPVM->Mode & PVM_FALLING_EDGE) == PVM_FALLING_EDGE)
 715:Drivers/STM32G4xx_HAL_Driver/Src/stm32g4xx_hal_pwr_ex.c ****       {
 716:Drivers/STM32G4xx_HAL_Driver/Src/stm32g4xx_hal_pwr_ex.c ****         __HAL_PWR_PVM1_EXTI_ENABLE_FALLING_EDGE();
 717:Drivers/STM32G4xx_HAL_Driver/Src/stm32g4xx_hal_pwr_ex.c ****       }
 718:Drivers/STM32G4xx_HAL_Driver/Src/stm32g4xx_hal_pwr_ex.c ****       break;
 719:Drivers/STM32G4xx_HAL_Driver/Src/stm32g4xx_hal_pwr_ex.c **** #endif /* PWR_CR2_PVME1 */
 720:Drivers/STM32G4xx_HAL_Driver/Src/stm32g4xx_hal_pwr_ex.c **** 
 721:Drivers/STM32G4xx_HAL_Driver/Src/stm32g4xx_hal_pwr_ex.c **** #if defined(PWR_CR2_PVME2)
 722:Drivers/STM32G4xx_HAL_Driver/Src/stm32g4xx_hal_pwr_ex.c ****     case PWR_PVM_2:
 723:Drivers/STM32G4xx_HAL_Driver/Src/stm32g4xx_hal_pwr_ex.c ****       /* Clear any previous config. Keep it clear if no event or IT mode is selected */
 724:Drivers/STM32G4xx_HAL_Driver/Src/stm32g4xx_hal_pwr_ex.c ****       __HAL_PWR_PVM2_EXTI_DISABLE_EVENT();
 725:Drivers/STM32G4xx_HAL_Driver/Src/stm32g4xx_hal_pwr_ex.c ****       __HAL_PWR_PVM2_EXTI_DISABLE_IT();
 726:Drivers/STM32G4xx_HAL_Driver/Src/stm32g4xx_hal_pwr_ex.c ****       __HAL_PWR_PVM2_EXTI_DISABLE_FALLING_EDGE();
 727:Drivers/STM32G4xx_HAL_Driver/Src/stm32g4xx_hal_pwr_ex.c ****       __HAL_PWR_PVM2_EXTI_DISABLE_RISING_EDGE();
 728:Drivers/STM32G4xx_HAL_Driver/Src/stm32g4xx_hal_pwr_ex.c **** 
 729:Drivers/STM32G4xx_HAL_Driver/Src/stm32g4xx_hal_pwr_ex.c ****       /* Configure interrupt mode */
 730:Drivers/STM32G4xx_HAL_Driver/Src/stm32g4xx_hal_pwr_ex.c ****       if((sConfigPVM->Mode & PVM_MODE_IT) == PVM_MODE_IT)
 731:Drivers/STM32G4xx_HAL_Driver/Src/stm32g4xx_hal_pwr_ex.c ****       {
 732:Drivers/STM32G4xx_HAL_Driver/Src/stm32g4xx_hal_pwr_ex.c ****         __HAL_PWR_PVM2_EXTI_ENABLE_IT();
 733:Drivers/STM32G4xx_HAL_Driver/Src/stm32g4xx_hal_pwr_ex.c ****       }
 734:Drivers/STM32G4xx_HAL_Driver/Src/stm32g4xx_hal_pwr_ex.c **** 
 735:Drivers/STM32G4xx_HAL_Driver/Src/stm32g4xx_hal_pwr_ex.c ****       /* Configure event mode */
 736:Drivers/STM32G4xx_HAL_Driver/Src/stm32g4xx_hal_pwr_ex.c ****       if((sConfigPVM->Mode & PVM_MODE_EVT) == PVM_MODE_EVT)
 737:Drivers/STM32G4xx_HAL_Driver/Src/stm32g4xx_hal_pwr_ex.c ****       {
 738:Drivers/STM32G4xx_HAL_Driver/Src/stm32g4xx_hal_pwr_ex.c ****         __HAL_PWR_PVM2_EXTI_ENABLE_EVENT();
 739:Drivers/STM32G4xx_HAL_Driver/Src/stm32g4xx_hal_pwr_ex.c ****       }
 740:Drivers/STM32G4xx_HAL_Driver/Src/stm32g4xx_hal_pwr_ex.c **** 
 741:Drivers/STM32G4xx_HAL_Driver/Src/stm32g4xx_hal_pwr_ex.c ****       /* Configure the edge */
 742:Drivers/STM32G4xx_HAL_Driver/Src/stm32g4xx_hal_pwr_ex.c ****       if((sConfigPVM->Mode & PVM_RISING_EDGE) == PVM_RISING_EDGE)
ARM GAS  /tmp/ccv7Xt7x.s 			page 43


 743:Drivers/STM32G4xx_HAL_Driver/Src/stm32g4xx_hal_pwr_ex.c ****       {
 744:Drivers/STM32G4xx_HAL_Driver/Src/stm32g4xx_hal_pwr_ex.c ****         __HAL_PWR_PVM2_EXTI_ENABLE_RISING_EDGE();
 745:Drivers/STM32G4xx_HAL_Driver/Src/stm32g4xx_hal_pwr_ex.c ****       }
 746:Drivers/STM32G4xx_HAL_Driver/Src/stm32g4xx_hal_pwr_ex.c **** 
 747:Drivers/STM32G4xx_HAL_Driver/Src/stm32g4xx_hal_pwr_ex.c ****       if((sConfigPVM->Mode & PVM_FALLING_EDGE) == PVM_FALLING_EDGE)
 748:Drivers/STM32G4xx_HAL_Driver/Src/stm32g4xx_hal_pwr_ex.c ****       {
 749:Drivers/STM32G4xx_HAL_Driver/Src/stm32g4xx_hal_pwr_ex.c ****         __HAL_PWR_PVM2_EXTI_ENABLE_FALLING_EDGE();
 750:Drivers/STM32G4xx_HAL_Driver/Src/stm32g4xx_hal_pwr_ex.c ****       }
 751:Drivers/STM32G4xx_HAL_Driver/Src/stm32g4xx_hal_pwr_ex.c ****       break;
 752:Drivers/STM32G4xx_HAL_Driver/Src/stm32g4xx_hal_pwr_ex.c **** #endif /* PWR_CR2_PVME2 */
 753:Drivers/STM32G4xx_HAL_Driver/Src/stm32g4xx_hal_pwr_ex.c **** 
 754:Drivers/STM32G4xx_HAL_Driver/Src/stm32g4xx_hal_pwr_ex.c ****     case PWR_PVM_3:
 755:Drivers/STM32G4xx_HAL_Driver/Src/stm32g4xx_hal_pwr_ex.c ****       /* Clear any previous config. Keep it clear if no event or IT mode is selected */
 756:Drivers/STM32G4xx_HAL_Driver/Src/stm32g4xx_hal_pwr_ex.c ****       __HAL_PWR_PVM3_EXTI_DISABLE_EVENT();
 757:Drivers/STM32G4xx_HAL_Driver/Src/stm32g4xx_hal_pwr_ex.c ****       __HAL_PWR_PVM3_EXTI_DISABLE_IT();
 758:Drivers/STM32G4xx_HAL_Driver/Src/stm32g4xx_hal_pwr_ex.c ****       __HAL_PWR_PVM3_EXTI_DISABLE_FALLING_EDGE();
 759:Drivers/STM32G4xx_HAL_Driver/Src/stm32g4xx_hal_pwr_ex.c ****       __HAL_PWR_PVM3_EXTI_DISABLE_RISING_EDGE();
 760:Drivers/STM32G4xx_HAL_Driver/Src/stm32g4xx_hal_pwr_ex.c **** 
 761:Drivers/STM32G4xx_HAL_Driver/Src/stm32g4xx_hal_pwr_ex.c ****       /* Configure interrupt mode */
 762:Drivers/STM32G4xx_HAL_Driver/Src/stm32g4xx_hal_pwr_ex.c ****       if((sConfigPVM->Mode & PVM_MODE_IT) == PVM_MODE_IT)
 763:Drivers/STM32G4xx_HAL_Driver/Src/stm32g4xx_hal_pwr_ex.c ****       {
 764:Drivers/STM32G4xx_HAL_Driver/Src/stm32g4xx_hal_pwr_ex.c ****         __HAL_PWR_PVM3_EXTI_ENABLE_IT();
 765:Drivers/STM32G4xx_HAL_Driver/Src/stm32g4xx_hal_pwr_ex.c ****       }
 766:Drivers/STM32G4xx_HAL_Driver/Src/stm32g4xx_hal_pwr_ex.c **** 
 767:Drivers/STM32G4xx_HAL_Driver/Src/stm32g4xx_hal_pwr_ex.c ****       /* Configure event mode */
 768:Drivers/STM32G4xx_HAL_Driver/Src/stm32g4xx_hal_pwr_ex.c ****       if((sConfigPVM->Mode & PVM_MODE_EVT) == PVM_MODE_EVT)
 769:Drivers/STM32G4xx_HAL_Driver/Src/stm32g4xx_hal_pwr_ex.c ****       {
 770:Drivers/STM32G4xx_HAL_Driver/Src/stm32g4xx_hal_pwr_ex.c ****         __HAL_PWR_PVM3_EXTI_ENABLE_EVENT();
 771:Drivers/STM32G4xx_HAL_Driver/Src/stm32g4xx_hal_pwr_ex.c ****       }
 772:Drivers/STM32G4xx_HAL_Driver/Src/stm32g4xx_hal_pwr_ex.c **** 
 773:Drivers/STM32G4xx_HAL_Driver/Src/stm32g4xx_hal_pwr_ex.c ****       /* Configure the edge */
 774:Drivers/STM32G4xx_HAL_Driver/Src/stm32g4xx_hal_pwr_ex.c ****       if((sConfigPVM->Mode & PVM_RISING_EDGE) == PVM_RISING_EDGE)
 775:Drivers/STM32G4xx_HAL_Driver/Src/stm32g4xx_hal_pwr_ex.c ****       {
 776:Drivers/STM32G4xx_HAL_Driver/Src/stm32g4xx_hal_pwr_ex.c ****         __HAL_PWR_PVM3_EXTI_ENABLE_RISING_EDGE();
 777:Drivers/STM32G4xx_HAL_Driver/Src/stm32g4xx_hal_pwr_ex.c ****       }
 778:Drivers/STM32G4xx_HAL_Driver/Src/stm32g4xx_hal_pwr_ex.c **** 
 779:Drivers/STM32G4xx_HAL_Driver/Src/stm32g4xx_hal_pwr_ex.c ****       if((sConfigPVM->Mode & PVM_FALLING_EDGE) == PVM_FALLING_EDGE)
 780:Drivers/STM32G4xx_HAL_Driver/Src/stm32g4xx_hal_pwr_ex.c ****       {
 781:Drivers/STM32G4xx_HAL_Driver/Src/stm32g4xx_hal_pwr_ex.c ****         __HAL_PWR_PVM3_EXTI_ENABLE_FALLING_EDGE();
 782:Drivers/STM32G4xx_HAL_Driver/Src/stm32g4xx_hal_pwr_ex.c ****       }
 783:Drivers/STM32G4xx_HAL_Driver/Src/stm32g4xx_hal_pwr_ex.c ****       break;
 784:Drivers/STM32G4xx_HAL_Driver/Src/stm32g4xx_hal_pwr_ex.c **** 
 785:Drivers/STM32G4xx_HAL_Driver/Src/stm32g4xx_hal_pwr_ex.c ****     case PWR_PVM_4:
 786:Drivers/STM32G4xx_HAL_Driver/Src/stm32g4xx_hal_pwr_ex.c ****       /* Clear any previous config. Keep it clear if no event or IT mode is selected */
 787:Drivers/STM32G4xx_HAL_Driver/Src/stm32g4xx_hal_pwr_ex.c ****       __HAL_PWR_PVM4_EXTI_DISABLE_EVENT();
 1495              		.loc 1 787 7 is_stmt 1 view .LVU333
 1496 0012 604B     		ldr	r3, .L214
 1497 0014 5A6A     		ldr	r2, [r3, #36]
 1498 0016 22F04002 		bic	r2, r2, #64
 1499 001a 5A62     		str	r2, [r3, #36]
 788:Drivers/STM32G4xx_HAL_Driver/Src/stm32g4xx_hal_pwr_ex.c ****       __HAL_PWR_PVM4_EXTI_DISABLE_IT();
 1500              		.loc 1 788 7 view .LVU334
 1501 001c 1A6A     		ldr	r2, [r3, #32]
 1502 001e 22F04002 		bic	r2, r2, #64
 1503 0022 1A62     		str	r2, [r3, #32]
 789:Drivers/STM32G4xx_HAL_Driver/Src/stm32g4xx_hal_pwr_ex.c ****       __HAL_PWR_PVM4_EXTI_DISABLE_FALLING_EDGE();
 1504              		.loc 1 789 7 view .LVU335
ARM GAS  /tmp/ccv7Xt7x.s 			page 44


 1505 0024 DA6A     		ldr	r2, [r3, #44]
 1506 0026 22F04002 		bic	r2, r2, #64
 1507 002a DA62     		str	r2, [r3, #44]
 790:Drivers/STM32G4xx_HAL_Driver/Src/stm32g4xx_hal_pwr_ex.c ****       __HAL_PWR_PVM4_EXTI_DISABLE_RISING_EDGE();
 1508              		.loc 1 790 7 view .LVU336
 1509 002c 9A6A     		ldr	r2, [r3, #40]
 1510 002e 22F04002 		bic	r2, r2, #64
 1511 0032 9A62     		str	r2, [r3, #40]
 791:Drivers/STM32G4xx_HAL_Driver/Src/stm32g4xx_hal_pwr_ex.c **** 
 792:Drivers/STM32G4xx_HAL_Driver/Src/stm32g4xx_hal_pwr_ex.c ****       /* Configure interrupt mode */
 793:Drivers/STM32G4xx_HAL_Driver/Src/stm32g4xx_hal_pwr_ex.c ****       if((sConfigPVM->Mode & PVM_MODE_IT) == PVM_MODE_IT)
 1512              		.loc 1 793 7 view .LVU337
 1513              		.loc 1 793 21 is_stmt 0 view .LVU338
 1514 0034 4268     		ldr	r2, [r0, #4]
 1515              		.loc 1 793 9 view .LVU339
 1516 0036 D103     		lsls	r1, r2, #15
 1517 0038 03D5     		bpl	.L163
 794:Drivers/STM32G4xx_HAL_Driver/Src/stm32g4xx_hal_pwr_ex.c ****       {
 795:Drivers/STM32G4xx_HAL_Driver/Src/stm32g4xx_hal_pwr_ex.c ****         __HAL_PWR_PVM4_EXTI_ENABLE_IT();
 1518              		.loc 1 795 9 is_stmt 1 view .LVU340
 1519 003a 196A     		ldr	r1, [r3, #32]
 1520 003c 41F04001 		orr	r1, r1, #64
 1521 0040 1962     		str	r1, [r3, #32]
 1522              	.L163:
 796:Drivers/STM32G4xx_HAL_Driver/Src/stm32g4xx_hal_pwr_ex.c ****       }
 797:Drivers/STM32G4xx_HAL_Driver/Src/stm32g4xx_hal_pwr_ex.c **** 
 798:Drivers/STM32G4xx_HAL_Driver/Src/stm32g4xx_hal_pwr_ex.c ****       /* Configure event mode */
 799:Drivers/STM32G4xx_HAL_Driver/Src/stm32g4xx_hal_pwr_ex.c ****       if((sConfigPVM->Mode & PVM_MODE_EVT) == PVM_MODE_EVT)
 1523              		.loc 1 799 7 view .LVU341
 1524              		.loc 1 799 9 is_stmt 0 view .LVU342
 1525 0042 9003     		lsls	r0, r2, #14
 1526              	.LVL107:
 1527              		.loc 1 799 9 view .LVU343
 1528 0044 04D5     		bpl	.L164
 800:Drivers/STM32G4xx_HAL_Driver/Src/stm32g4xx_hal_pwr_ex.c ****       {
 801:Drivers/STM32G4xx_HAL_Driver/Src/stm32g4xx_hal_pwr_ex.c ****         __HAL_PWR_PVM4_EXTI_ENABLE_EVENT();
 1529              		.loc 1 801 9 is_stmt 1 view .LVU344
 1530 0046 5349     		ldr	r1, .L214
 1531 0048 4B6A     		ldr	r3, [r1, #36]
 1532 004a 43F04003 		orr	r3, r3, #64
 1533 004e 4B62     		str	r3, [r1, #36]
 1534              	.L164:
 802:Drivers/STM32G4xx_HAL_Driver/Src/stm32g4xx_hal_pwr_ex.c ****       }
 803:Drivers/STM32G4xx_HAL_Driver/Src/stm32g4xx_hal_pwr_ex.c **** 
 804:Drivers/STM32G4xx_HAL_Driver/Src/stm32g4xx_hal_pwr_ex.c ****       /* Configure the edge */
 805:Drivers/STM32G4xx_HAL_Driver/Src/stm32g4xx_hal_pwr_ex.c ****       if((sConfigPVM->Mode & PVM_RISING_EDGE) == PVM_RISING_EDGE)
 1535              		.loc 1 805 7 view .LVU345
 1536              		.loc 1 805 9 is_stmt 0 view .LVU346
 1537 0050 D107     		lsls	r1, r2, #31
 1538 0052 04D5     		bpl	.L165
 806:Drivers/STM32G4xx_HAL_Driver/Src/stm32g4xx_hal_pwr_ex.c ****       {
 807:Drivers/STM32G4xx_HAL_Driver/Src/stm32g4xx_hal_pwr_ex.c ****         __HAL_PWR_PVM4_EXTI_ENABLE_RISING_EDGE();
 1539              		.loc 1 807 9 is_stmt 1 view .LVU347
 1540 0054 4F49     		ldr	r1, .L214
 1541 0056 8B6A     		ldr	r3, [r1, #40]
 1542 0058 43F04003 		orr	r3, r3, #64
 1543 005c 8B62     		str	r3, [r1, #40]
ARM GAS  /tmp/ccv7Xt7x.s 			page 45


 1544              	.L165:
 808:Drivers/STM32G4xx_HAL_Driver/Src/stm32g4xx_hal_pwr_ex.c ****       }
 809:Drivers/STM32G4xx_HAL_Driver/Src/stm32g4xx_hal_pwr_ex.c **** 
 810:Drivers/STM32G4xx_HAL_Driver/Src/stm32g4xx_hal_pwr_ex.c ****       if((sConfigPVM->Mode & PVM_FALLING_EDGE) == PVM_FALLING_EDGE)
 1545              		.loc 1 810 7 view .LVU348
 1546              		.loc 1 810 9 is_stmt 0 view .LVU349
 1547 005e 9307     		lsls	r3, r2, #30
 1548 0060 04D5     		bpl	.L212
 811:Drivers/STM32G4xx_HAL_Driver/Src/stm32g4xx_hal_pwr_ex.c ****       {
 812:Drivers/STM32G4xx_HAL_Driver/Src/stm32g4xx_hal_pwr_ex.c ****         __HAL_PWR_PVM4_EXTI_ENABLE_FALLING_EDGE();
 1549              		.loc 1 812 9 is_stmt 1 view .LVU350
 1550 0062 4C4A     		ldr	r2, .L214
 1551 0064 D36A     		ldr	r3, [r2, #44]
 1552 0066 43F04003 		orr	r3, r3, #64
 1553 006a D362     		str	r3, [r2, #44]
 1554              	.L212:
 676:Drivers/STM32G4xx_HAL_Driver/Src/stm32g4xx_hal_pwr_ex.c **** 
 1555              		.loc 1 676 21 is_stmt 0 view .LVU351
 1556 006c 0020     		movs	r0, #0
 1557              	.LVL108:
 813:Drivers/STM32G4xx_HAL_Driver/Src/stm32g4xx_hal_pwr_ex.c ****       }
 814:Drivers/STM32G4xx_HAL_Driver/Src/stm32g4xx_hal_pwr_ex.c ****       break;
 815:Drivers/STM32G4xx_HAL_Driver/Src/stm32g4xx_hal_pwr_ex.c **** 
 816:Drivers/STM32G4xx_HAL_Driver/Src/stm32g4xx_hal_pwr_ex.c ****     default:
 817:Drivers/STM32G4xx_HAL_Driver/Src/stm32g4xx_hal_pwr_ex.c ****       status = HAL_ERROR;
 818:Drivers/STM32G4xx_HAL_Driver/Src/stm32g4xx_hal_pwr_ex.c ****       break;
 819:Drivers/STM32G4xx_HAL_Driver/Src/stm32g4xx_hal_pwr_ex.c ****   }
 820:Drivers/STM32G4xx_HAL_Driver/Src/stm32g4xx_hal_pwr_ex.c **** 
 821:Drivers/STM32G4xx_HAL_Driver/Src/stm32g4xx_hal_pwr_ex.c ****   return status;
 1558              		.loc 1 821 3 is_stmt 1 view .LVU352
 822:Drivers/STM32G4xx_HAL_Driver/Src/stm32g4xx_hal_pwr_ex.c **** }
 1559              		.loc 1 822 1 is_stmt 0 view .LVU353
 1560 006e 7047     		bx	lr
 1561              	.LVL109:
 1562              	.L213:
 686:Drivers/STM32G4xx_HAL_Driver/Src/stm32g4xx_hal_pwr_ex.c ****   {
 1563              		.loc 1 686 3 view .LVU354
 1564 0070 102B     		cmp	r3, #16
 1565 0072 2ED1     		bne	.L211
 691:Drivers/STM32G4xx_HAL_Driver/Src/stm32g4xx_hal_pwr_ex.c ****       __HAL_PWR_PVM1_EXTI_DISABLE_IT();
 1566              		.loc 1 691 7 is_stmt 1 view .LVU355
 1567 0074 474B     		ldr	r3, .L214
 1568 0076 5A6A     		ldr	r2, [r3, #36]
 1569 0078 22F00802 		bic	r2, r2, #8
 1570 007c 5A62     		str	r2, [r3, #36]
 692:Drivers/STM32G4xx_HAL_Driver/Src/stm32g4xx_hal_pwr_ex.c ****       __HAL_PWR_PVM1_EXTI_DISABLE_FALLING_EDGE();
 1571              		.loc 1 692 7 view .LVU356
 1572 007e 1A6A     		ldr	r2, [r3, #32]
 1573 0080 22F00802 		bic	r2, r2, #8
 1574 0084 1A62     		str	r2, [r3, #32]
 693:Drivers/STM32G4xx_HAL_Driver/Src/stm32g4xx_hal_pwr_ex.c ****       __HAL_PWR_PVM1_EXTI_DISABLE_RISING_EDGE();
 1575              		.loc 1 693 7 view .LVU357
 1576 0086 DA6A     		ldr	r2, [r3, #44]
 1577 0088 22F00802 		bic	r2, r2, #8
 1578 008c DA62     		str	r2, [r3, #44]
 694:Drivers/STM32G4xx_HAL_Driver/Src/stm32g4xx_hal_pwr_ex.c **** 
 1579              		.loc 1 694 7 view .LVU358
ARM GAS  /tmp/ccv7Xt7x.s 			page 46


 1580 008e 9A6A     		ldr	r2, [r3, #40]
 1581 0090 22F00802 		bic	r2, r2, #8
 1582 0094 9A62     		str	r2, [r3, #40]
 697:Drivers/STM32G4xx_HAL_Driver/Src/stm32g4xx_hal_pwr_ex.c ****       {
 1583              		.loc 1 697 7 view .LVU359
 697:Drivers/STM32G4xx_HAL_Driver/Src/stm32g4xx_hal_pwr_ex.c ****       {
 1584              		.loc 1 697 21 is_stmt 0 view .LVU360
 1585 0096 4268     		ldr	r2, [r0, #4]
 697:Drivers/STM32G4xx_HAL_Driver/Src/stm32g4xx_hal_pwr_ex.c ****       {
 1586              		.loc 1 697 9 view .LVU361
 1587 0098 D003     		lsls	r0, r2, #15
 1588              	.LVL110:
 697:Drivers/STM32G4xx_HAL_Driver/Src/stm32g4xx_hal_pwr_ex.c ****       {
 1589              		.loc 1 697 9 view .LVU362
 1590 009a 03D5     		bpl	.L152
 699:Drivers/STM32G4xx_HAL_Driver/Src/stm32g4xx_hal_pwr_ex.c ****       }
 1591              		.loc 1 699 9 is_stmt 1 view .LVU363
 1592 009c 196A     		ldr	r1, [r3, #32]
 1593 009e 41F00801 		orr	r1, r1, #8
 1594 00a2 1962     		str	r1, [r3, #32]
 1595              	.L152:
 703:Drivers/STM32G4xx_HAL_Driver/Src/stm32g4xx_hal_pwr_ex.c ****       {
 1596              		.loc 1 703 7 view .LVU364
 703:Drivers/STM32G4xx_HAL_Driver/Src/stm32g4xx_hal_pwr_ex.c ****       {
 1597              		.loc 1 703 9 is_stmt 0 view .LVU365
 1598 00a4 9103     		lsls	r1, r2, #14
 1599 00a6 04D5     		bpl	.L153
 705:Drivers/STM32G4xx_HAL_Driver/Src/stm32g4xx_hal_pwr_ex.c ****       }
 1600              		.loc 1 705 9 is_stmt 1 view .LVU366
 1601 00a8 3A49     		ldr	r1, .L214
 1602 00aa 4B6A     		ldr	r3, [r1, #36]
 1603 00ac 43F00803 		orr	r3, r3, #8
 1604 00b0 4B62     		str	r3, [r1, #36]
 1605              	.L153:
 709:Drivers/STM32G4xx_HAL_Driver/Src/stm32g4xx_hal_pwr_ex.c ****       {
 1606              		.loc 1 709 7 view .LVU367
 709:Drivers/STM32G4xx_HAL_Driver/Src/stm32g4xx_hal_pwr_ex.c ****       {
 1607              		.loc 1 709 9 is_stmt 0 view .LVU368
 1608 00b2 D307     		lsls	r3, r2, #31
 1609 00b4 04D5     		bpl	.L154
 711:Drivers/STM32G4xx_HAL_Driver/Src/stm32g4xx_hal_pwr_ex.c ****       }
 1610              		.loc 1 711 9 is_stmt 1 view .LVU369
 1611 00b6 3749     		ldr	r1, .L214
 1612 00b8 8B6A     		ldr	r3, [r1, #40]
 1613 00ba 43F00803 		orr	r3, r3, #8
 1614 00be 8B62     		str	r3, [r1, #40]
 1615              	.L154:
 714:Drivers/STM32G4xx_HAL_Driver/Src/stm32g4xx_hal_pwr_ex.c ****       {
 1616              		.loc 1 714 7 view .LVU370
 714:Drivers/STM32G4xx_HAL_Driver/Src/stm32g4xx_hal_pwr_ex.c ****       {
 1617              		.loc 1 714 9 is_stmt 0 view .LVU371
 1618 00c0 9007     		lsls	r0, r2, #30
 1619 00c2 D3D5     		bpl	.L212
 716:Drivers/STM32G4xx_HAL_Driver/Src/stm32g4xx_hal_pwr_ex.c ****       }
 1620              		.loc 1 716 9 is_stmt 1 view .LVU372
 1621 00c4 334A     		ldr	r2, .L214
 1622 00c6 D36A     		ldr	r3, [r2, #44]
ARM GAS  /tmp/ccv7Xt7x.s 			page 47


 1623 00c8 43F00803 		orr	r3, r3, #8
 1624 00cc D362     		str	r3, [r2, #44]
 676:Drivers/STM32G4xx_HAL_Driver/Src/stm32g4xx_hal_pwr_ex.c **** 
 1625              		.loc 1 676 21 is_stmt 0 view .LVU373
 1626 00ce 0020     		movs	r0, #0
 1627 00d0 7047     		bx	lr
 1628              	.LVL111:
 1629              	.L211:
 817:Drivers/STM32G4xx_HAL_Driver/Src/stm32g4xx_hal_pwr_ex.c ****       break;
 1630              		.loc 1 817 14 view .LVU374
 1631 00d2 0120     		movs	r0, #1
 1632              	.LVL112:
 817:Drivers/STM32G4xx_HAL_Driver/Src/stm32g4xx_hal_pwr_ex.c ****       break;
 1633              		.loc 1 817 14 view .LVU375
 1634 00d4 7047     		bx	lr
 1635              	.LVL113:
 1636              	.L150:
 756:Drivers/STM32G4xx_HAL_Driver/Src/stm32g4xx_hal_pwr_ex.c ****       __HAL_PWR_PVM3_EXTI_DISABLE_IT();
 1637              		.loc 1 756 7 is_stmt 1 view .LVU376
 1638 00d6 2F4B     		ldr	r3, .L214
 1639 00d8 5A6A     		ldr	r2, [r3, #36]
 1640 00da 22F02002 		bic	r2, r2, #32
 1641 00de 5A62     		str	r2, [r3, #36]
 757:Drivers/STM32G4xx_HAL_Driver/Src/stm32g4xx_hal_pwr_ex.c ****       __HAL_PWR_PVM3_EXTI_DISABLE_FALLING_EDGE();
 1642              		.loc 1 757 7 view .LVU377
 1643 00e0 1A6A     		ldr	r2, [r3, #32]
 1644 00e2 22F02002 		bic	r2, r2, #32
 1645 00e6 1A62     		str	r2, [r3, #32]
 758:Drivers/STM32G4xx_HAL_Driver/Src/stm32g4xx_hal_pwr_ex.c ****       __HAL_PWR_PVM3_EXTI_DISABLE_RISING_EDGE();
 1646              		.loc 1 758 7 view .LVU378
 1647 00e8 DA6A     		ldr	r2, [r3, #44]
 1648 00ea 22F02002 		bic	r2, r2, #32
 1649 00ee DA62     		str	r2, [r3, #44]
 759:Drivers/STM32G4xx_HAL_Driver/Src/stm32g4xx_hal_pwr_ex.c **** 
 1650              		.loc 1 759 7 view .LVU379
 1651 00f0 9A6A     		ldr	r2, [r3, #40]
 1652 00f2 22F02002 		bic	r2, r2, #32
 1653 00f6 9A62     		str	r2, [r3, #40]
 762:Drivers/STM32G4xx_HAL_Driver/Src/stm32g4xx_hal_pwr_ex.c ****       {
 1654              		.loc 1 762 7 view .LVU380
 762:Drivers/STM32G4xx_HAL_Driver/Src/stm32g4xx_hal_pwr_ex.c ****       {
 1655              		.loc 1 762 21 is_stmt 0 view .LVU381
 1656 00f8 4268     		ldr	r2, [r0, #4]
 762:Drivers/STM32G4xx_HAL_Driver/Src/stm32g4xx_hal_pwr_ex.c ****       {
 1657              		.loc 1 762 9 view .LVU382
 1658 00fa D003     		lsls	r0, r2, #15
 1659              	.LVL114:
 762:Drivers/STM32G4xx_HAL_Driver/Src/stm32g4xx_hal_pwr_ex.c ****       {
 1660              		.loc 1 762 9 view .LVU383
 1661 00fc 03D5     		bpl	.L160
 764:Drivers/STM32G4xx_HAL_Driver/Src/stm32g4xx_hal_pwr_ex.c ****       }
 1662              		.loc 1 764 9 is_stmt 1 view .LVU384
 1663 00fe 196A     		ldr	r1, [r3, #32]
 1664 0100 41F02001 		orr	r1, r1, #32
 1665 0104 1962     		str	r1, [r3, #32]
 1666              	.L160:
 768:Drivers/STM32G4xx_HAL_Driver/Src/stm32g4xx_hal_pwr_ex.c ****       {
ARM GAS  /tmp/ccv7Xt7x.s 			page 48


 1667              		.loc 1 768 7 view .LVU385
 768:Drivers/STM32G4xx_HAL_Driver/Src/stm32g4xx_hal_pwr_ex.c ****       {
 1668              		.loc 1 768 9 is_stmt 0 view .LVU386
 1669 0106 9103     		lsls	r1, r2, #14
 1670 0108 04D5     		bpl	.L161
 770:Drivers/STM32G4xx_HAL_Driver/Src/stm32g4xx_hal_pwr_ex.c ****       }
 1671              		.loc 1 770 9 is_stmt 1 view .LVU387
 1672 010a 2249     		ldr	r1, .L214
 1673 010c 4B6A     		ldr	r3, [r1, #36]
 1674 010e 43F02003 		orr	r3, r3, #32
 1675 0112 4B62     		str	r3, [r1, #36]
 1676              	.L161:
 774:Drivers/STM32G4xx_HAL_Driver/Src/stm32g4xx_hal_pwr_ex.c ****       {
 1677              		.loc 1 774 7 view .LVU388
 774:Drivers/STM32G4xx_HAL_Driver/Src/stm32g4xx_hal_pwr_ex.c ****       {
 1678              		.loc 1 774 9 is_stmt 0 view .LVU389
 1679 0114 D307     		lsls	r3, r2, #31
 1680 0116 04D5     		bpl	.L162
 776:Drivers/STM32G4xx_HAL_Driver/Src/stm32g4xx_hal_pwr_ex.c ****       }
 1681              		.loc 1 776 9 is_stmt 1 view .LVU390
 1682 0118 1E49     		ldr	r1, .L214
 1683 011a 8B6A     		ldr	r3, [r1, #40]
 1684 011c 43F02003 		orr	r3, r3, #32
 1685 0120 8B62     		str	r3, [r1, #40]
 1686              	.L162:
 779:Drivers/STM32G4xx_HAL_Driver/Src/stm32g4xx_hal_pwr_ex.c ****       {
 1687              		.loc 1 779 7 view .LVU391
 779:Drivers/STM32G4xx_HAL_Driver/Src/stm32g4xx_hal_pwr_ex.c ****       {
 1688              		.loc 1 779 9 is_stmt 0 view .LVU392
 1689 0122 9007     		lsls	r0, r2, #30
 1690 0124 A2D5     		bpl	.L212
 781:Drivers/STM32G4xx_HAL_Driver/Src/stm32g4xx_hal_pwr_ex.c ****       }
 1691              		.loc 1 781 9 is_stmt 1 view .LVU393
 1692 0126 1B4A     		ldr	r2, .L214
 1693 0128 D36A     		ldr	r3, [r2, #44]
 1694 012a 43F02003 		orr	r3, r3, #32
 1695 012e D362     		str	r3, [r2, #44]
 676:Drivers/STM32G4xx_HAL_Driver/Src/stm32g4xx_hal_pwr_ex.c **** 
 1696              		.loc 1 676 21 is_stmt 0 view .LVU394
 1697 0130 0020     		movs	r0, #0
 1698 0132 7047     		bx	lr
 1699              	.LVL115:
 1700              	.L146:
 724:Drivers/STM32G4xx_HAL_Driver/Src/stm32g4xx_hal_pwr_ex.c ****       __HAL_PWR_PVM2_EXTI_DISABLE_IT();
 1701              		.loc 1 724 7 is_stmt 1 view .LVU395
 1702 0134 174B     		ldr	r3, .L214
 1703 0136 5A6A     		ldr	r2, [r3, #36]
 1704 0138 22F01002 		bic	r2, r2, #16
 1705 013c 5A62     		str	r2, [r3, #36]
 725:Drivers/STM32G4xx_HAL_Driver/Src/stm32g4xx_hal_pwr_ex.c ****       __HAL_PWR_PVM2_EXTI_DISABLE_FALLING_EDGE();
 1706              		.loc 1 725 7 view .LVU396
 1707 013e 1A6A     		ldr	r2, [r3, #32]
 1708 0140 22F01002 		bic	r2, r2, #16
 1709 0144 1A62     		str	r2, [r3, #32]
 726:Drivers/STM32G4xx_HAL_Driver/Src/stm32g4xx_hal_pwr_ex.c ****       __HAL_PWR_PVM2_EXTI_DISABLE_RISING_EDGE();
 1710              		.loc 1 726 7 view .LVU397
 1711 0146 DA6A     		ldr	r2, [r3, #44]
ARM GAS  /tmp/ccv7Xt7x.s 			page 49


 1712 0148 22F01002 		bic	r2, r2, #16
 1713 014c DA62     		str	r2, [r3, #44]
 727:Drivers/STM32G4xx_HAL_Driver/Src/stm32g4xx_hal_pwr_ex.c **** 
 1714              		.loc 1 727 7 view .LVU398
 1715 014e 9A6A     		ldr	r2, [r3, #40]
 1716 0150 22F01002 		bic	r2, r2, #16
 1717 0154 9A62     		str	r2, [r3, #40]
 730:Drivers/STM32G4xx_HAL_Driver/Src/stm32g4xx_hal_pwr_ex.c ****       {
 1718              		.loc 1 730 7 view .LVU399
 730:Drivers/STM32G4xx_HAL_Driver/Src/stm32g4xx_hal_pwr_ex.c ****       {
 1719              		.loc 1 730 21 is_stmt 0 view .LVU400
 1720 0156 4268     		ldr	r2, [r0, #4]
 730:Drivers/STM32G4xx_HAL_Driver/Src/stm32g4xx_hal_pwr_ex.c ****       {
 1721              		.loc 1 730 9 view .LVU401
 1722 0158 D103     		lsls	r1, r2, #15
 1723 015a 03D5     		bpl	.L156
 732:Drivers/STM32G4xx_HAL_Driver/Src/stm32g4xx_hal_pwr_ex.c ****       }
 1724              		.loc 1 732 9 is_stmt 1 view .LVU402
 1725 015c 196A     		ldr	r1, [r3, #32]
 1726 015e 41F01001 		orr	r1, r1, #16
 1727 0162 1962     		str	r1, [r3, #32]
 1728              	.L156:
 736:Drivers/STM32G4xx_HAL_Driver/Src/stm32g4xx_hal_pwr_ex.c ****       {
 1729              		.loc 1 736 7 view .LVU403
 736:Drivers/STM32G4xx_HAL_Driver/Src/stm32g4xx_hal_pwr_ex.c ****       {
 1730              		.loc 1 736 9 is_stmt 0 view .LVU404
 1731 0164 9003     		lsls	r0, r2, #14
 1732              	.LVL116:
 736:Drivers/STM32G4xx_HAL_Driver/Src/stm32g4xx_hal_pwr_ex.c ****       {
 1733              		.loc 1 736 9 view .LVU405
 1734 0166 04D5     		bpl	.L157
 738:Drivers/STM32G4xx_HAL_Driver/Src/stm32g4xx_hal_pwr_ex.c ****       }
 1735              		.loc 1 738 9 is_stmt 1 view .LVU406
 1736 0168 0A49     		ldr	r1, .L214
 1737 016a 4B6A     		ldr	r3, [r1, #36]
 1738 016c 43F01003 		orr	r3, r3, #16
 1739 0170 4B62     		str	r3, [r1, #36]
 1740              	.L157:
 742:Drivers/STM32G4xx_HAL_Driver/Src/stm32g4xx_hal_pwr_ex.c ****       {
 1741              		.loc 1 742 7 view .LVU407
 742:Drivers/STM32G4xx_HAL_Driver/Src/stm32g4xx_hal_pwr_ex.c ****       {
 1742              		.loc 1 742 9 is_stmt 0 view .LVU408
 1743 0172 D107     		lsls	r1, r2, #31
 1744 0174 04D5     		bpl	.L158
 744:Drivers/STM32G4xx_HAL_Driver/Src/stm32g4xx_hal_pwr_ex.c ****       }
 1745              		.loc 1 744 9 is_stmt 1 view .LVU409
 1746 0176 0749     		ldr	r1, .L214
 1747 0178 8B6A     		ldr	r3, [r1, #40]
 1748 017a 43F01003 		orr	r3, r3, #16
 1749 017e 8B62     		str	r3, [r1, #40]
 1750              	.L158:
 747:Drivers/STM32G4xx_HAL_Driver/Src/stm32g4xx_hal_pwr_ex.c ****       {
 1751              		.loc 1 747 7 view .LVU410
 747:Drivers/STM32G4xx_HAL_Driver/Src/stm32g4xx_hal_pwr_ex.c ****       {
 1752              		.loc 1 747 9 is_stmt 0 view .LVU411
 1753 0180 9307     		lsls	r3, r2, #30
 1754 0182 7FF573AF 		bpl	.L212
ARM GAS  /tmp/ccv7Xt7x.s 			page 50


 749:Drivers/STM32G4xx_HAL_Driver/Src/stm32g4xx_hal_pwr_ex.c ****       }
 1755              		.loc 1 749 9 is_stmt 1 view .LVU412
 1756 0186 034A     		ldr	r2, .L214
 1757 0188 D36A     		ldr	r3, [r2, #44]
 1758 018a 43F01003 		orr	r3, r3, #16
 1759 018e D362     		str	r3, [r2, #44]
 676:Drivers/STM32G4xx_HAL_Driver/Src/stm32g4xx_hal_pwr_ex.c **** 
 1760              		.loc 1 676 21 is_stmt 0 view .LVU413
 1761 0190 0020     		movs	r0, #0
 1762 0192 7047     		bx	lr
 1763              	.L215:
 1764              		.align	2
 1765              	.L214:
 1766 0194 00040140 		.word	1073808384
 1767              		.cfi_endproc
 1768              	.LFE351:
 1770              		.section	.text.HAL_PWREx_EnableLowPowerRunMode,"ax",%progbits
 1771              		.align	1
 1772              		.p2align 2,,3
 1773              		.global	HAL_PWREx_EnableLowPowerRunMode
 1774              		.syntax unified
 1775              		.thumb
 1776              		.thumb_func
 1777              		.fpu fpv4-sp-d16
 1779              	HAL_PWREx_EnableLowPowerRunMode:
 1780              	.LFB352:
 823:Drivers/STM32G4xx_HAL_Driver/Src/stm32g4xx_hal_pwr_ex.c **** 
 824:Drivers/STM32G4xx_HAL_Driver/Src/stm32g4xx_hal_pwr_ex.c **** 
 825:Drivers/STM32G4xx_HAL_Driver/Src/stm32g4xx_hal_pwr_ex.c **** /**
 826:Drivers/STM32G4xx_HAL_Driver/Src/stm32g4xx_hal_pwr_ex.c ****   * @brief Enter Low-power Run mode
 827:Drivers/STM32G4xx_HAL_Driver/Src/stm32g4xx_hal_pwr_ex.c ****   * @note  In Low-power Run mode, all I/O pins keep the same state as in Run mode.
 828:Drivers/STM32G4xx_HAL_Driver/Src/stm32g4xx_hal_pwr_ex.c ****   * @note  When Regulator is set to PWR_LOWPOWERREGULATOR_ON, the user can optionally configure the
 829:Drivers/STM32G4xx_HAL_Driver/Src/stm32g4xx_hal_pwr_ex.c ****   *        Flash in power-down monde in setting the RUN_PD bit in FLASH_ACR register.
 830:Drivers/STM32G4xx_HAL_Driver/Src/stm32g4xx_hal_pwr_ex.c ****   *        Additionally, the clock frequency must be reduced below 2 MHz.
 831:Drivers/STM32G4xx_HAL_Driver/Src/stm32g4xx_hal_pwr_ex.c ****   *        Setting RUN_PD in FLASH_ACR then appropriately reducing the clock frequency must
 832:Drivers/STM32G4xx_HAL_Driver/Src/stm32g4xx_hal_pwr_ex.c ****   *        be done before calling HAL_PWREx_EnableLowPowerRunMode() API.
 833:Drivers/STM32G4xx_HAL_Driver/Src/stm32g4xx_hal_pwr_ex.c ****   * @retval None
 834:Drivers/STM32G4xx_HAL_Driver/Src/stm32g4xx_hal_pwr_ex.c ****   */
 835:Drivers/STM32G4xx_HAL_Driver/Src/stm32g4xx_hal_pwr_ex.c **** void HAL_PWREx_EnableLowPowerRunMode(void)
 836:Drivers/STM32G4xx_HAL_Driver/Src/stm32g4xx_hal_pwr_ex.c **** {
 1781              		.loc 1 836 1 is_stmt 1 view -0
 1782              		.cfi_startproc
 1783              		@ args = 0, pretend = 0, frame = 0
 1784              		@ frame_needed = 0, uses_anonymous_args = 0
 1785              		@ link register save eliminated.
 837:Drivers/STM32G4xx_HAL_Driver/Src/stm32g4xx_hal_pwr_ex.c ****   /* Set Regulator parameter */
 838:Drivers/STM32G4xx_HAL_Driver/Src/stm32g4xx_hal_pwr_ex.c ****   SET_BIT(PWR->CR1, PWR_CR1_LPR);
 1786              		.loc 1 838 3 view .LVU415
 1787 0000 024A     		ldr	r2, .L217
 1788 0002 1368     		ldr	r3, [r2]
 1789 0004 43F48043 		orr	r3, r3, #16384
 1790 0008 1360     		str	r3, [r2]
 839:Drivers/STM32G4xx_HAL_Driver/Src/stm32g4xx_hal_pwr_ex.c **** }
 1791              		.loc 1 839 1 is_stmt 0 view .LVU416
 1792 000a 7047     		bx	lr
 1793              	.L218:
 1794              		.align	2
ARM GAS  /tmp/ccv7Xt7x.s 			page 51


 1795              	.L217:
 1796 000c 00700040 		.word	1073770496
 1797              		.cfi_endproc
 1798              	.LFE352:
 1800              		.section	.text.HAL_PWREx_DisableLowPowerRunMode,"ax",%progbits
 1801              		.align	1
 1802              		.p2align 2,,3
 1803              		.global	HAL_PWREx_DisableLowPowerRunMode
 1804              		.syntax unified
 1805              		.thumb
 1806              		.thumb_func
 1807              		.fpu fpv4-sp-d16
 1809              	HAL_PWREx_DisableLowPowerRunMode:
 1810              	.LFB353:
 840:Drivers/STM32G4xx_HAL_Driver/Src/stm32g4xx_hal_pwr_ex.c **** 
 841:Drivers/STM32G4xx_HAL_Driver/Src/stm32g4xx_hal_pwr_ex.c **** 
 842:Drivers/STM32G4xx_HAL_Driver/Src/stm32g4xx_hal_pwr_ex.c **** /**
 843:Drivers/STM32G4xx_HAL_Driver/Src/stm32g4xx_hal_pwr_ex.c ****   * @brief Exit Low-power Run mode.
 844:Drivers/STM32G4xx_HAL_Driver/Src/stm32g4xx_hal_pwr_ex.c ****   * @note  Before HAL_PWREx_DisableLowPowerRunMode() completion, the function checks that
 845:Drivers/STM32G4xx_HAL_Driver/Src/stm32g4xx_hal_pwr_ex.c ****   *        REGLPF has been properly reset (otherwise, HAL_PWREx_DisableLowPowerRunMode
 846:Drivers/STM32G4xx_HAL_Driver/Src/stm32g4xx_hal_pwr_ex.c ****   *        returns HAL_TIMEOUT status). The system clock frequency can then be
 847:Drivers/STM32G4xx_HAL_Driver/Src/stm32g4xx_hal_pwr_ex.c ****   *        increased above 2 MHz.
 848:Drivers/STM32G4xx_HAL_Driver/Src/stm32g4xx_hal_pwr_ex.c ****   * @retval HAL Status
 849:Drivers/STM32G4xx_HAL_Driver/Src/stm32g4xx_hal_pwr_ex.c ****   */
 850:Drivers/STM32G4xx_HAL_Driver/Src/stm32g4xx_hal_pwr_ex.c **** HAL_StatusTypeDef HAL_PWREx_DisableLowPowerRunMode(void)
 851:Drivers/STM32G4xx_HAL_Driver/Src/stm32g4xx_hal_pwr_ex.c **** {
 1811              		.loc 1 851 1 is_stmt 1 view -0
 1812              		.cfi_startproc
 1813              		@ args = 0, pretend = 0, frame = 0
 1814              		@ frame_needed = 0, uses_anonymous_args = 0
 1815              		@ link register save eliminated.
 852:Drivers/STM32G4xx_HAL_Driver/Src/stm32g4xx_hal_pwr_ex.c ****   uint32_t wait_loop_index;
 1816              		.loc 1 852 3 view .LVU418
 853:Drivers/STM32G4xx_HAL_Driver/Src/stm32g4xx_hal_pwr_ex.c **** 
 854:Drivers/STM32G4xx_HAL_Driver/Src/stm32g4xx_hal_pwr_ex.c ****   /* Clear LPR bit */
 855:Drivers/STM32G4xx_HAL_Driver/Src/stm32g4xx_hal_pwr_ex.c ****   CLEAR_BIT(PWR->CR1, PWR_CR1_LPR);
 1817              		.loc 1 855 3 view .LVU419
 1818 0000 0F49     		ldr	r1, .L235
 856:Drivers/STM32G4xx_HAL_Driver/Src/stm32g4xx_hal_pwr_ex.c **** 
 857:Drivers/STM32G4xx_HAL_Driver/Src/stm32g4xx_hal_pwr_ex.c ****   /* Wait until REGLPF is reset */
 858:Drivers/STM32G4xx_HAL_Driver/Src/stm32g4xx_hal_pwr_ex.c ****   wait_loop_index = (PWR_FLAG_SETTING_DELAY_US * (SystemCoreClock / 1000000U));
 1819              		.loc 1 858 67 is_stmt 0 view .LVU420
 1820 0002 104B     		ldr	r3, .L235+4
 855:Drivers/STM32G4xx_HAL_Driver/Src/stm32g4xx_hal_pwr_ex.c **** 
 1821              		.loc 1 855 3 view .LVU421
 1822 0004 0868     		ldr	r0, [r1]
 1823              		.loc 1 858 67 view .LVU422
 1824 0006 104A     		ldr	r2, .L235+8
 855:Drivers/STM32G4xx_HAL_Driver/Src/stm32g4xx_hal_pwr_ex.c **** 
 1825              		.loc 1 855 3 view .LVU423
 1826 0008 20F48040 		bic	r0, r0, #16384
 1827 000c 0860     		str	r0, [r1]
 1828              		.loc 1 858 3 is_stmt 1 view .LVU424
 1829              		.loc 1 858 67 is_stmt 0 view .LVU425
 1830 000e 1B68     		ldr	r3, [r3]
 859:Drivers/STM32G4xx_HAL_Driver/Src/stm32g4xx_hal_pwr_ex.c ****   while ((HAL_IS_BIT_SET(PWR->SR2, PWR_SR2_REGLPF)) && (wait_loop_index != 0U))
 1831              		.loc 1 859 11 view .LVU426
ARM GAS  /tmp/ccv7Xt7x.s 			page 52


 1832 0010 4869     		ldr	r0, [r1, #20]
 858:Drivers/STM32G4xx_HAL_Driver/Src/stm32g4xx_hal_pwr_ex.c ****   while ((HAL_IS_BIT_SET(PWR->SR2, PWR_SR2_REGLPF)) && (wait_loop_index != 0U))
 1833              		.loc 1 858 67 view .LVU427
 1834 0012 A2FB0323 		umull	r2, r3, r2, r3
 1835 0016 9A0C     		lsrs	r2, r3, #18
 858:Drivers/STM32G4xx_HAL_Driver/Src/stm32g4xx_hal_pwr_ex.c ****   while ((HAL_IS_BIT_SET(PWR->SR2, PWR_SR2_REGLPF)) && (wait_loop_index != 0U))
 1836              		.loc 1 858 19 view .LVU428
 1837 0018 3223     		movs	r3, #50
 1838 001a 03FB02F3 		mul	r3, r3, r2
 1839              	.LVL117:
 1840              		.loc 1 859 3 is_stmt 1 view .LVU429
 1841              		.loc 1 859 9 is_stmt 0 view .LVU430
 1842 001e 8205     		lsls	r2, r0, #22
 1843 0020 05D5     		bpl	.L220
 1844              	.L234:
 1845              		.loc 1 859 53 view .LVU431
 1846 0022 23B1     		cbz	r3, .L220
 860:Drivers/STM32G4xx_HAL_Driver/Src/stm32g4xx_hal_pwr_ex.c ****   {
 861:Drivers/STM32G4xx_HAL_Driver/Src/stm32g4xx_hal_pwr_ex.c ****     wait_loop_index--;
 1847              		.loc 1 861 5 is_stmt 1 view .LVU432
 859:Drivers/STM32G4xx_HAL_Driver/Src/stm32g4xx_hal_pwr_ex.c ****   {
 1848              		.loc 1 859 11 is_stmt 0 view .LVU433
 1849 0024 4A69     		ldr	r2, [r1, #20]
 859:Drivers/STM32G4xx_HAL_Driver/Src/stm32g4xx_hal_pwr_ex.c ****   {
 1850              		.loc 1 859 9 view .LVU434
 1851 0026 9205     		lsls	r2, r2, #22
 1852              		.loc 1 861 20 view .LVU435
 1853 0028 03F1FF33 		add	r3, r3, #-1
 1854              	.LVL118:
 859:Drivers/STM32G4xx_HAL_Driver/Src/stm32g4xx_hal_pwr_ex.c ****   {
 1855              		.loc 1 859 9 view .LVU436
 1856 002c F9D4     		bmi	.L234
 1857              	.L220:
 862:Drivers/STM32G4xx_HAL_Driver/Src/stm32g4xx_hal_pwr_ex.c ****   }
 863:Drivers/STM32G4xx_HAL_Driver/Src/stm32g4xx_hal_pwr_ex.c ****   if (HAL_IS_BIT_SET(PWR->SR2, PWR_SR2_REGLPF))
 1858              		.loc 1 863 3 is_stmt 1 view .LVU437
 1859              		.loc 1 863 7 is_stmt 0 view .LVU438
 1860 002e 044B     		ldr	r3, .L235
 1861              	.LVL119:
 1862              		.loc 1 863 7 view .LVU439
 1863 0030 5B69     		ldr	r3, [r3, #20]
 864:Drivers/STM32G4xx_HAL_Driver/Src/stm32g4xx_hal_pwr_ex.c ****   {
 865:Drivers/STM32G4xx_HAL_Driver/Src/stm32g4xx_hal_pwr_ex.c ****     return HAL_TIMEOUT;
 1864              		.loc 1 865 12 view .LVU440
 1865 0032 13F4007F 		tst	r3, #512
 866:Drivers/STM32G4xx_HAL_Driver/Src/stm32g4xx_hal_pwr_ex.c ****   }
 867:Drivers/STM32G4xx_HAL_Driver/Src/stm32g4xx_hal_pwr_ex.c **** 
 868:Drivers/STM32G4xx_HAL_Driver/Src/stm32g4xx_hal_pwr_ex.c ****   return HAL_OK;
 869:Drivers/STM32G4xx_HAL_Driver/Src/stm32g4xx_hal_pwr_ex.c **** }
 1866              		.loc 1 869 1 view .LVU441
 1867 0036 14BF     		ite	ne
 1868 0038 0320     		movne	r0, #3
 1869 003a 0020     		moveq	r0, #0
 1870 003c 7047     		bx	lr
 1871              	.L236:
 1872 003e 00BF     		.align	2
 1873              	.L235:
ARM GAS  /tmp/ccv7Xt7x.s 			page 53


 1874 0040 00700040 		.word	1073770496
 1875 0044 00000000 		.word	SystemCoreClock
 1876 0048 83DE1B43 		.word	1125899907
 1877              		.cfi_endproc
 1878              	.LFE353:
 1880              		.section	.text.HAL_PWREx_EnterSTOP0Mode,"ax",%progbits
 1881              		.align	1
 1882              		.p2align 2,,3
 1883              		.global	HAL_PWREx_EnterSTOP0Mode
 1884              		.syntax unified
 1885              		.thumb
 1886              		.thumb_func
 1887              		.fpu fpv4-sp-d16
 1889              	HAL_PWREx_EnterSTOP0Mode:
 1890              	.LVL120:
 1891              	.LFB354:
 870:Drivers/STM32G4xx_HAL_Driver/Src/stm32g4xx_hal_pwr_ex.c **** 
 871:Drivers/STM32G4xx_HAL_Driver/Src/stm32g4xx_hal_pwr_ex.c **** 
 872:Drivers/STM32G4xx_HAL_Driver/Src/stm32g4xx_hal_pwr_ex.c **** /**
 873:Drivers/STM32G4xx_HAL_Driver/Src/stm32g4xx_hal_pwr_ex.c ****   * @brief Enter Stop 0 mode.
 874:Drivers/STM32G4xx_HAL_Driver/Src/stm32g4xx_hal_pwr_ex.c ****   * @note  In Stop 0 mode, main and low voltage regulators are ON.
 875:Drivers/STM32G4xx_HAL_Driver/Src/stm32g4xx_hal_pwr_ex.c ****   * @note  In Stop 0 mode, all I/O pins keep the same state as in Run mode.
 876:Drivers/STM32G4xx_HAL_Driver/Src/stm32g4xx_hal_pwr_ex.c ****   * @note  All clocks in the VCORE domain are stopped; the PLL, the HSI
 877:Drivers/STM32G4xx_HAL_Driver/Src/stm32g4xx_hal_pwr_ex.c ****   *        and the HSE oscillators are disabled. Some peripherals with the wakeup capability
 878:Drivers/STM32G4xx_HAL_Driver/Src/stm32g4xx_hal_pwr_ex.c ****   *        (I2Cx, USARTx and LPUART) can switch on the HSI to receive a frame, and switch off the H
 879:Drivers/STM32G4xx_HAL_Driver/Src/stm32g4xx_hal_pwr_ex.c ****   *        after receiving the frame if it is not a wakeup frame. In this case, the HSI clock is pr
 880:Drivers/STM32G4xx_HAL_Driver/Src/stm32g4xx_hal_pwr_ex.c ****   *        only to the peripheral requesting it.
 881:Drivers/STM32G4xx_HAL_Driver/Src/stm32g4xx_hal_pwr_ex.c ****   *        SRAM1, SRAM2 and register contents are preserved.
 882:Drivers/STM32G4xx_HAL_Driver/Src/stm32g4xx_hal_pwr_ex.c ****   *        The BOR is available.
 883:Drivers/STM32G4xx_HAL_Driver/Src/stm32g4xx_hal_pwr_ex.c ****   * @note  When exiting Stop 0 mode by issuing an interrupt or a wakeup event,
 884:Drivers/STM32G4xx_HAL_Driver/Src/stm32g4xx_hal_pwr_ex.c ****   *         the HSI RC oscillator is selected as system clock if STOPWUCK bit in RCC_CFGR register
 885:Drivers/STM32G4xx_HAL_Driver/Src/stm32g4xx_hal_pwr_ex.c ****   *         is set; the HSI oscillator is selected if STOPWUCK is cleared.
 886:Drivers/STM32G4xx_HAL_Driver/Src/stm32g4xx_hal_pwr_ex.c ****   * @note  By keeping the internal regulator ON during Stop 0 mode, the consumption
 887:Drivers/STM32G4xx_HAL_Driver/Src/stm32g4xx_hal_pwr_ex.c ****   *         is higher although the startup time is reduced.
 888:Drivers/STM32G4xx_HAL_Driver/Src/stm32g4xx_hal_pwr_ex.c ****   * @param STOPEntry  specifies if Stop mode in entered with WFI or WFE instruction.
 889:Drivers/STM32G4xx_HAL_Driver/Src/stm32g4xx_hal_pwr_ex.c ****   *          This parameter can be one of the following values:
 890:Drivers/STM32G4xx_HAL_Driver/Src/stm32g4xx_hal_pwr_ex.c ****   *            @arg @ref PWR_STOPENTRY_WFI  Enter Stop mode with WFI instruction
 891:Drivers/STM32G4xx_HAL_Driver/Src/stm32g4xx_hal_pwr_ex.c ****   *            @arg @ref PWR_STOPENTRY_WFE  Enter Stop mode with WFE instruction
 892:Drivers/STM32G4xx_HAL_Driver/Src/stm32g4xx_hal_pwr_ex.c ****   * @retval None
 893:Drivers/STM32G4xx_HAL_Driver/Src/stm32g4xx_hal_pwr_ex.c ****   */
 894:Drivers/STM32G4xx_HAL_Driver/Src/stm32g4xx_hal_pwr_ex.c **** void HAL_PWREx_EnterSTOP0Mode(uint8_t STOPEntry)
 895:Drivers/STM32G4xx_HAL_Driver/Src/stm32g4xx_hal_pwr_ex.c **** {
 1892              		.loc 1 895 1 is_stmt 1 view -0
 1893              		.cfi_startproc
 1894              		@ args = 0, pretend = 0, frame = 0
 1895              		@ frame_needed = 0, uses_anonymous_args = 0
 1896              		@ link register save eliminated.
 896:Drivers/STM32G4xx_HAL_Driver/Src/stm32g4xx_hal_pwr_ex.c ****   /* Check the parameters */
 897:Drivers/STM32G4xx_HAL_Driver/Src/stm32g4xx_hal_pwr_ex.c ****   assert_param(IS_PWR_STOP_ENTRY(STOPEntry));
 1897              		.loc 1 897 3 view .LVU443
 898:Drivers/STM32G4xx_HAL_Driver/Src/stm32g4xx_hal_pwr_ex.c **** 
 899:Drivers/STM32G4xx_HAL_Driver/Src/stm32g4xx_hal_pwr_ex.c ****   /* Stop 0 mode with Main Regulator */
 900:Drivers/STM32G4xx_HAL_Driver/Src/stm32g4xx_hal_pwr_ex.c ****   MODIFY_REG(PWR->CR1, PWR_CR1_LPMS, PWR_CR1_LPMS_STOP0);
 1898              		.loc 1 900 3 view .LVU444
 1899 0000 0B49     		ldr	r1, .L241
 901:Drivers/STM32G4xx_HAL_Driver/Src/stm32g4xx_hal_pwr_ex.c **** 
 902:Drivers/STM32G4xx_HAL_Driver/Src/stm32g4xx_hal_pwr_ex.c ****   /* Set SLEEPDEEP bit of Cortex System Control Register */
ARM GAS  /tmp/ccv7Xt7x.s 			page 54


 903:Drivers/STM32G4xx_HAL_Driver/Src/stm32g4xx_hal_pwr_ex.c ****   SET_BIT(SCB->SCR, ((uint32_t)SCB_SCR_SLEEPDEEP_Msk));
 1900              		.loc 1 903 3 is_stmt 0 view .LVU445
 1901 0002 0C4A     		ldr	r2, .L241+4
 900:Drivers/STM32G4xx_HAL_Driver/Src/stm32g4xx_hal_pwr_ex.c **** 
 1902              		.loc 1 900 3 view .LVU446
 1903 0004 0B68     		ldr	r3, [r1]
 1904 0006 23F00703 		bic	r3, r3, #7
 1905 000a 0B60     		str	r3, [r1]
 1906              		.loc 1 903 3 is_stmt 1 view .LVU447
 1907 000c 1369     		ldr	r3, [r2, #16]
 904:Drivers/STM32G4xx_HAL_Driver/Src/stm32g4xx_hal_pwr_ex.c **** 
 905:Drivers/STM32G4xx_HAL_Driver/Src/stm32g4xx_hal_pwr_ex.c ****   /* Select Stop mode entry --------------------------------------------------*/
 906:Drivers/STM32G4xx_HAL_Driver/Src/stm32g4xx_hal_pwr_ex.c ****   if(STOPEntry == PWR_STOPENTRY_WFI)
 1908              		.loc 1 906 5 is_stmt 0 view .LVU448
 1909 000e 0128     		cmp	r0, #1
 903:Drivers/STM32G4xx_HAL_Driver/Src/stm32g4xx_hal_pwr_ex.c **** 
 1910              		.loc 1 903 3 view .LVU449
 1911 0010 43F00403 		orr	r3, r3, #4
 1912 0014 1361     		str	r3, [r2, #16]
 1913              		.loc 1 906 3 is_stmt 1 view .LVU450
 1914              		.loc 1 906 5 is_stmt 0 view .LVU451
 1915 0016 08D0     		beq	.L240
 907:Drivers/STM32G4xx_HAL_Driver/Src/stm32g4xx_hal_pwr_ex.c ****   {
 908:Drivers/STM32G4xx_HAL_Driver/Src/stm32g4xx_hal_pwr_ex.c ****     /* Request Wait For Interrupt */
 909:Drivers/STM32G4xx_HAL_Driver/Src/stm32g4xx_hal_pwr_ex.c ****     __WFI();
 910:Drivers/STM32G4xx_HAL_Driver/Src/stm32g4xx_hal_pwr_ex.c ****   }
 911:Drivers/STM32G4xx_HAL_Driver/Src/stm32g4xx_hal_pwr_ex.c ****   else
 912:Drivers/STM32G4xx_HAL_Driver/Src/stm32g4xx_hal_pwr_ex.c ****   {
 913:Drivers/STM32G4xx_HAL_Driver/Src/stm32g4xx_hal_pwr_ex.c ****     /* Request Wait For Event */
 914:Drivers/STM32G4xx_HAL_Driver/Src/stm32g4xx_hal_pwr_ex.c ****     __SEV();
 1916              		.loc 1 914 5 is_stmt 1 view .LVU452
 1917              		.syntax unified
 1918              	@ 914 "Drivers/STM32G4xx_HAL_Driver/Src/stm32g4xx_hal_pwr_ex.c" 1
 1919 0018 40BF     		sev
 1920              	@ 0 "" 2
 915:Drivers/STM32G4xx_HAL_Driver/Src/stm32g4xx_hal_pwr_ex.c ****     __WFE();
 1921              		.loc 1 915 5 view .LVU453
 1922              	@ 915 "Drivers/STM32G4xx_HAL_Driver/Src/stm32g4xx_hal_pwr_ex.c" 1
 1923 001a 20BF     		wfe
 1924              	@ 0 "" 2
 916:Drivers/STM32G4xx_HAL_Driver/Src/stm32g4xx_hal_pwr_ex.c ****     __WFE();
 1925              		.loc 1 916 5 view .LVU454
 1926              	@ 916 "Drivers/STM32G4xx_HAL_Driver/Src/stm32g4xx_hal_pwr_ex.c" 1
 1927 001c 20BF     		wfe
 1928              	@ 0 "" 2
 1929              		.thumb
 1930              		.syntax unified
 1931              	.L239:
 917:Drivers/STM32G4xx_HAL_Driver/Src/stm32g4xx_hal_pwr_ex.c ****   }
 918:Drivers/STM32G4xx_HAL_Driver/Src/stm32g4xx_hal_pwr_ex.c **** 
 919:Drivers/STM32G4xx_HAL_Driver/Src/stm32g4xx_hal_pwr_ex.c ****   /* Reset SLEEPDEEP bit of Cortex System Control Register */
 920:Drivers/STM32G4xx_HAL_Driver/Src/stm32g4xx_hal_pwr_ex.c ****   CLEAR_BIT(SCB->SCR, ((uint32_t)SCB_SCR_SLEEPDEEP_Msk));
 1932              		.loc 1 920 3 view .LVU455
 1933 001e 054A     		ldr	r2, .L241+4
 1934 0020 1369     		ldr	r3, [r2, #16]
 1935 0022 23F00403 		bic	r3, r3, #4
 1936 0026 1361     		str	r3, [r2, #16]
ARM GAS  /tmp/ccv7Xt7x.s 			page 55


 921:Drivers/STM32G4xx_HAL_Driver/Src/stm32g4xx_hal_pwr_ex.c **** }
 1937              		.loc 1 921 1 is_stmt 0 view .LVU456
 1938 0028 7047     		bx	lr
 1939              	.L240:
 909:Drivers/STM32G4xx_HAL_Driver/Src/stm32g4xx_hal_pwr_ex.c ****   }
 1940              		.loc 1 909 5 is_stmt 1 view .LVU457
 1941              		.syntax unified
 1942              	@ 909 "Drivers/STM32G4xx_HAL_Driver/Src/stm32g4xx_hal_pwr_ex.c" 1
 1943 002a 30BF     		wfi
 1944              	@ 0 "" 2
 1945              		.thumb
 1946              		.syntax unified
 1947 002c F7E7     		b	.L239
 1948              	.L242:
 1949 002e 00BF     		.align	2
 1950              	.L241:
 1951 0030 00700040 		.word	1073770496
 1952 0034 00ED00E0 		.word	-536810240
 1953              		.cfi_endproc
 1954              	.LFE354:
 1956              		.section	.text.HAL_PWREx_EnterSTOP1Mode,"ax",%progbits
 1957              		.align	1
 1958              		.p2align 2,,3
 1959              		.global	HAL_PWREx_EnterSTOP1Mode
 1960              		.syntax unified
 1961              		.thumb
 1962              		.thumb_func
 1963              		.fpu fpv4-sp-d16
 1965              	HAL_PWREx_EnterSTOP1Mode:
 1966              	.LVL121:
 1967              	.LFB355:
 922:Drivers/STM32G4xx_HAL_Driver/Src/stm32g4xx_hal_pwr_ex.c **** 
 923:Drivers/STM32G4xx_HAL_Driver/Src/stm32g4xx_hal_pwr_ex.c **** 
 924:Drivers/STM32G4xx_HAL_Driver/Src/stm32g4xx_hal_pwr_ex.c **** /**
 925:Drivers/STM32G4xx_HAL_Driver/Src/stm32g4xx_hal_pwr_ex.c ****   * @brief Enter Stop 1 mode.
 926:Drivers/STM32G4xx_HAL_Driver/Src/stm32g4xx_hal_pwr_ex.c ****   * @note  In Stop 1 mode, only low power voltage regulator is ON.
 927:Drivers/STM32G4xx_HAL_Driver/Src/stm32g4xx_hal_pwr_ex.c ****   * @note  In Stop 1 mode, all I/O pins keep the same state as in Run mode.
 928:Drivers/STM32G4xx_HAL_Driver/Src/stm32g4xx_hal_pwr_ex.c ****   * @note  All clocks in the VCORE domain are stopped; the PLL, the HSI
 929:Drivers/STM32G4xx_HAL_Driver/Src/stm32g4xx_hal_pwr_ex.c ****   *        and the HSE oscillators are disabled. Some peripherals with the wakeup capability
 930:Drivers/STM32G4xx_HAL_Driver/Src/stm32g4xx_hal_pwr_ex.c ****   *        (I2Cx, USARTx and LPUART) can switch on the HSI to receive a frame, and switch off the H
 931:Drivers/STM32G4xx_HAL_Driver/Src/stm32g4xx_hal_pwr_ex.c ****   *        after receiving the frame if it is not a wakeup frame. In this case, the HSI clock is pr
 932:Drivers/STM32G4xx_HAL_Driver/Src/stm32g4xx_hal_pwr_ex.c ****   *        only to the peripheral requesting it.
 933:Drivers/STM32G4xx_HAL_Driver/Src/stm32g4xx_hal_pwr_ex.c ****   *        SRAM1, SRAM2 and register contents are preserved.
 934:Drivers/STM32G4xx_HAL_Driver/Src/stm32g4xx_hal_pwr_ex.c ****   *        The BOR is available.
 935:Drivers/STM32G4xx_HAL_Driver/Src/stm32g4xx_hal_pwr_ex.c ****   * @note  When exiting Stop 1 mode by issuing an interrupt or a wakeup event,
 936:Drivers/STM32G4xx_HAL_Driver/Src/stm32g4xx_hal_pwr_ex.c ****   *         the HSI RC oscillator is selected as system clock if STOPWUCK bit in RCC_CFGR register
 937:Drivers/STM32G4xx_HAL_Driver/Src/stm32g4xx_hal_pwr_ex.c ****   *         is set.
 938:Drivers/STM32G4xx_HAL_Driver/Src/stm32g4xx_hal_pwr_ex.c ****   * @note  Due to low power mode, an additional startup delay is incurred when waking up from Stop 
 939:Drivers/STM32G4xx_HAL_Driver/Src/stm32g4xx_hal_pwr_ex.c ****   * @param STOPEntry  specifies if Stop mode in entered with WFI or WFE instruction.
 940:Drivers/STM32G4xx_HAL_Driver/Src/stm32g4xx_hal_pwr_ex.c ****   *          This parameter can be one of the following values:
 941:Drivers/STM32G4xx_HAL_Driver/Src/stm32g4xx_hal_pwr_ex.c ****   *            @arg @ref PWR_STOPENTRY_WFI  Enter Stop mode with WFI instruction
 942:Drivers/STM32G4xx_HAL_Driver/Src/stm32g4xx_hal_pwr_ex.c ****   *            @arg @ref PWR_STOPENTRY_WFE  Enter Stop mode with WFE instruction
 943:Drivers/STM32G4xx_HAL_Driver/Src/stm32g4xx_hal_pwr_ex.c ****   * @retval None
 944:Drivers/STM32G4xx_HAL_Driver/Src/stm32g4xx_hal_pwr_ex.c ****   */
 945:Drivers/STM32G4xx_HAL_Driver/Src/stm32g4xx_hal_pwr_ex.c **** void HAL_PWREx_EnterSTOP1Mode(uint8_t STOPEntry)
 946:Drivers/STM32G4xx_HAL_Driver/Src/stm32g4xx_hal_pwr_ex.c **** {
 1968              		.loc 1 946 1 view -0
ARM GAS  /tmp/ccv7Xt7x.s 			page 56


 1969              		.cfi_startproc
 1970              		@ args = 0, pretend = 0, frame = 0
 1971              		@ frame_needed = 0, uses_anonymous_args = 0
 1972              		@ link register save eliminated.
 947:Drivers/STM32G4xx_HAL_Driver/Src/stm32g4xx_hal_pwr_ex.c ****   /* Check the parameters */
 948:Drivers/STM32G4xx_HAL_Driver/Src/stm32g4xx_hal_pwr_ex.c ****   assert_param(IS_PWR_STOP_ENTRY(STOPEntry));
 1973              		.loc 1 948 3 view .LVU459
 949:Drivers/STM32G4xx_HAL_Driver/Src/stm32g4xx_hal_pwr_ex.c **** 
 950:Drivers/STM32G4xx_HAL_Driver/Src/stm32g4xx_hal_pwr_ex.c ****   /* Stop 1 mode with Low-Power Regulator */
 951:Drivers/STM32G4xx_HAL_Driver/Src/stm32g4xx_hal_pwr_ex.c ****   MODIFY_REG(PWR->CR1, PWR_CR1_LPMS, PWR_CR1_LPMS_STOP1);
 1974              		.loc 1 951 3 view .LVU460
 1975 0000 0C49     		ldr	r1, .L247
 952:Drivers/STM32G4xx_HAL_Driver/Src/stm32g4xx_hal_pwr_ex.c **** 
 953:Drivers/STM32G4xx_HAL_Driver/Src/stm32g4xx_hal_pwr_ex.c ****   /* Set SLEEPDEEP bit of Cortex System Control Register */
 954:Drivers/STM32G4xx_HAL_Driver/Src/stm32g4xx_hal_pwr_ex.c ****   SET_BIT(SCB->SCR, ((uint32_t)SCB_SCR_SLEEPDEEP_Msk));
 1976              		.loc 1 954 3 is_stmt 0 view .LVU461
 1977 0002 0D4A     		ldr	r2, .L247+4
 951:Drivers/STM32G4xx_HAL_Driver/Src/stm32g4xx_hal_pwr_ex.c **** 
 1978              		.loc 1 951 3 view .LVU462
 1979 0004 0B68     		ldr	r3, [r1]
 1980 0006 23F00703 		bic	r3, r3, #7
 1981 000a 43F00103 		orr	r3, r3, #1
 1982 000e 0B60     		str	r3, [r1]
 1983              		.loc 1 954 3 is_stmt 1 view .LVU463
 1984 0010 1369     		ldr	r3, [r2, #16]
 955:Drivers/STM32G4xx_HAL_Driver/Src/stm32g4xx_hal_pwr_ex.c **** 
 956:Drivers/STM32G4xx_HAL_Driver/Src/stm32g4xx_hal_pwr_ex.c ****   /* Select Stop mode entry --------------------------------------------------*/
 957:Drivers/STM32G4xx_HAL_Driver/Src/stm32g4xx_hal_pwr_ex.c ****   if(STOPEntry == PWR_STOPENTRY_WFI)
 1985              		.loc 1 957 5 is_stmt 0 view .LVU464
 1986 0012 0128     		cmp	r0, #1
 954:Drivers/STM32G4xx_HAL_Driver/Src/stm32g4xx_hal_pwr_ex.c **** 
 1987              		.loc 1 954 3 view .LVU465
 1988 0014 43F00403 		orr	r3, r3, #4
 1989 0018 1361     		str	r3, [r2, #16]
 1990              		.loc 1 957 3 is_stmt 1 view .LVU466
 1991              		.loc 1 957 5 is_stmt 0 view .LVU467
 1992 001a 08D0     		beq	.L246
 958:Drivers/STM32G4xx_HAL_Driver/Src/stm32g4xx_hal_pwr_ex.c ****   {
 959:Drivers/STM32G4xx_HAL_Driver/Src/stm32g4xx_hal_pwr_ex.c ****     /* Request Wait For Interrupt */
 960:Drivers/STM32G4xx_HAL_Driver/Src/stm32g4xx_hal_pwr_ex.c ****     __WFI();
 961:Drivers/STM32G4xx_HAL_Driver/Src/stm32g4xx_hal_pwr_ex.c ****   }
 962:Drivers/STM32G4xx_HAL_Driver/Src/stm32g4xx_hal_pwr_ex.c ****   else
 963:Drivers/STM32G4xx_HAL_Driver/Src/stm32g4xx_hal_pwr_ex.c ****   {
 964:Drivers/STM32G4xx_HAL_Driver/Src/stm32g4xx_hal_pwr_ex.c ****     /* Request Wait For Event */
 965:Drivers/STM32G4xx_HAL_Driver/Src/stm32g4xx_hal_pwr_ex.c ****     __SEV();
 1993              		.loc 1 965 5 is_stmt 1 view .LVU468
 1994              		.syntax unified
 1995              	@ 965 "Drivers/STM32G4xx_HAL_Driver/Src/stm32g4xx_hal_pwr_ex.c" 1
 1996 001c 40BF     		sev
 1997              	@ 0 "" 2
 966:Drivers/STM32G4xx_HAL_Driver/Src/stm32g4xx_hal_pwr_ex.c ****     __WFE();
 1998              		.loc 1 966 5 view .LVU469
 1999              	@ 966 "Drivers/STM32G4xx_HAL_Driver/Src/stm32g4xx_hal_pwr_ex.c" 1
 2000 001e 20BF     		wfe
 2001              	@ 0 "" 2
 967:Drivers/STM32G4xx_HAL_Driver/Src/stm32g4xx_hal_pwr_ex.c ****     __WFE();
 2002              		.loc 1 967 5 view .LVU470
ARM GAS  /tmp/ccv7Xt7x.s 			page 57


 2003              	@ 967 "Drivers/STM32G4xx_HAL_Driver/Src/stm32g4xx_hal_pwr_ex.c" 1
 2004 0020 20BF     		wfe
 2005              	@ 0 "" 2
 2006              		.thumb
 2007              		.syntax unified
 2008              	.L245:
 968:Drivers/STM32G4xx_HAL_Driver/Src/stm32g4xx_hal_pwr_ex.c ****   }
 969:Drivers/STM32G4xx_HAL_Driver/Src/stm32g4xx_hal_pwr_ex.c **** 
 970:Drivers/STM32G4xx_HAL_Driver/Src/stm32g4xx_hal_pwr_ex.c ****   /* Reset SLEEPDEEP bit of Cortex System Control Register */
 971:Drivers/STM32G4xx_HAL_Driver/Src/stm32g4xx_hal_pwr_ex.c ****   CLEAR_BIT(SCB->SCR, ((uint32_t)SCB_SCR_SLEEPDEEP_Msk));
 2009              		.loc 1 971 3 view .LVU471
 2010 0022 054A     		ldr	r2, .L247+4
 2011 0024 1369     		ldr	r3, [r2, #16]
 2012 0026 23F00403 		bic	r3, r3, #4
 2013 002a 1361     		str	r3, [r2, #16]
 972:Drivers/STM32G4xx_HAL_Driver/Src/stm32g4xx_hal_pwr_ex.c **** }
 2014              		.loc 1 972 1 is_stmt 0 view .LVU472
 2015 002c 7047     		bx	lr
 2016              	.L246:
 960:Drivers/STM32G4xx_HAL_Driver/Src/stm32g4xx_hal_pwr_ex.c ****   }
 2017              		.loc 1 960 5 is_stmt 1 view .LVU473
 2018              		.syntax unified
 2019              	@ 960 "Drivers/STM32G4xx_HAL_Driver/Src/stm32g4xx_hal_pwr_ex.c" 1
 2020 002e 30BF     		wfi
 2021              	@ 0 "" 2
 2022              		.thumb
 2023              		.syntax unified
 2024 0030 F7E7     		b	.L245
 2025              	.L248:
 2026 0032 00BF     		.align	2
 2027              	.L247:
 2028 0034 00700040 		.word	1073770496
 2029 0038 00ED00E0 		.word	-536810240
 2030              		.cfi_endproc
 2031              	.LFE355:
 2033              		.section	.text.HAL_PWREx_EnterSHUTDOWNMode,"ax",%progbits
 2034              		.align	1
 2035              		.p2align 2,,3
 2036              		.global	HAL_PWREx_EnterSHUTDOWNMode
 2037              		.syntax unified
 2038              		.thumb
 2039              		.thumb_func
 2040              		.fpu fpv4-sp-d16
 2042              	HAL_PWREx_EnterSHUTDOWNMode:
 2043              	.LFB356:
 973:Drivers/STM32G4xx_HAL_Driver/Src/stm32g4xx_hal_pwr_ex.c **** 
 974:Drivers/STM32G4xx_HAL_Driver/Src/stm32g4xx_hal_pwr_ex.c **** 
 975:Drivers/STM32G4xx_HAL_Driver/Src/stm32g4xx_hal_pwr_ex.c **** 
 976:Drivers/STM32G4xx_HAL_Driver/Src/stm32g4xx_hal_pwr_ex.c **** 
 977:Drivers/STM32G4xx_HAL_Driver/Src/stm32g4xx_hal_pwr_ex.c **** /**
 978:Drivers/STM32G4xx_HAL_Driver/Src/stm32g4xx_hal_pwr_ex.c ****   * @brief Enter Shutdown mode.
 979:Drivers/STM32G4xx_HAL_Driver/Src/stm32g4xx_hal_pwr_ex.c ****   * @note  In Shutdown mode, the PLL, the HSI, the LSI and the HSE oscillators are switched
 980:Drivers/STM32G4xx_HAL_Driver/Src/stm32g4xx_hal_pwr_ex.c ****   *        off. The voltage regulator is disabled and Vcore domain is powered off.
 981:Drivers/STM32G4xx_HAL_Driver/Src/stm32g4xx_hal_pwr_ex.c ****   *        SRAM1, SRAM2 and registers contents are lost except for registers in the Backup domain.
 982:Drivers/STM32G4xx_HAL_Driver/Src/stm32g4xx_hal_pwr_ex.c ****   *        The BOR is not available.
 983:Drivers/STM32G4xx_HAL_Driver/Src/stm32g4xx_hal_pwr_ex.c ****   * @note  The I/Os can be configured either with a pull-up or pull-down or can be kept in analog s
 984:Drivers/STM32G4xx_HAL_Driver/Src/stm32g4xx_hal_pwr_ex.c ****   * @retval None
ARM GAS  /tmp/ccv7Xt7x.s 			page 58


 985:Drivers/STM32G4xx_HAL_Driver/Src/stm32g4xx_hal_pwr_ex.c ****   */
 986:Drivers/STM32G4xx_HAL_Driver/Src/stm32g4xx_hal_pwr_ex.c **** void HAL_PWREx_EnterSHUTDOWNMode(void)
 987:Drivers/STM32G4xx_HAL_Driver/Src/stm32g4xx_hal_pwr_ex.c **** {
 2044              		.loc 1 987 1 view -0
 2045              		.cfi_startproc
 2046              		@ args = 0, pretend = 0, frame = 0
 2047              		@ frame_needed = 0, uses_anonymous_args = 0
 2048              		@ link register save eliminated.
 988:Drivers/STM32G4xx_HAL_Driver/Src/stm32g4xx_hal_pwr_ex.c **** 
 989:Drivers/STM32G4xx_HAL_Driver/Src/stm32g4xx_hal_pwr_ex.c ****   /* Set Shutdown mode */
 990:Drivers/STM32G4xx_HAL_Driver/Src/stm32g4xx_hal_pwr_ex.c ****   MODIFY_REG(PWR->CR1, PWR_CR1_LPMS, PWR_CR1_LPMS_SHUTDOWN);
 2049              		.loc 1 990 3 view .LVU475
 2050 0000 0649     		ldr	r1, .L250
 991:Drivers/STM32G4xx_HAL_Driver/Src/stm32g4xx_hal_pwr_ex.c **** 
 992:Drivers/STM32G4xx_HAL_Driver/Src/stm32g4xx_hal_pwr_ex.c ****   /* Set SLEEPDEEP bit of Cortex System Control Register */
 993:Drivers/STM32G4xx_HAL_Driver/Src/stm32g4xx_hal_pwr_ex.c ****   SET_BIT(SCB->SCR, ((uint32_t)SCB_SCR_SLEEPDEEP_Msk));
 2051              		.loc 1 993 3 is_stmt 0 view .LVU476
 2052 0002 074A     		ldr	r2, .L250+4
 990:Drivers/STM32G4xx_HAL_Driver/Src/stm32g4xx_hal_pwr_ex.c **** 
 2053              		.loc 1 990 3 view .LVU477
 2054 0004 0B68     		ldr	r3, [r1]
 2055 0006 23F00703 		bic	r3, r3, #7
 2056 000a 43F00403 		orr	r3, r3, #4
 2057 000e 0B60     		str	r3, [r1]
 2058              		.loc 1 993 3 is_stmt 1 view .LVU478
 2059 0010 1369     		ldr	r3, [r2, #16]
 2060 0012 43F00403 		orr	r3, r3, #4
 2061 0016 1361     		str	r3, [r2, #16]
 994:Drivers/STM32G4xx_HAL_Driver/Src/stm32g4xx_hal_pwr_ex.c **** 
 995:Drivers/STM32G4xx_HAL_Driver/Src/stm32g4xx_hal_pwr_ex.c **** /* This option is used to ensure that store operations are completed */
 996:Drivers/STM32G4xx_HAL_Driver/Src/stm32g4xx_hal_pwr_ex.c **** #if defined ( __CC_ARM)
 997:Drivers/STM32G4xx_HAL_Driver/Src/stm32g4xx_hal_pwr_ex.c ****   __force_stores();
 998:Drivers/STM32G4xx_HAL_Driver/Src/stm32g4xx_hal_pwr_ex.c **** #endif
 999:Drivers/STM32G4xx_HAL_Driver/Src/stm32g4xx_hal_pwr_ex.c ****   /* Request Wait For Interrupt */
1000:Drivers/STM32G4xx_HAL_Driver/Src/stm32g4xx_hal_pwr_ex.c ****   __WFI();
 2062              		.loc 1 1000 3 view .LVU479
 2063              		.syntax unified
 2064              	@ 1000 "Drivers/STM32G4xx_HAL_Driver/Src/stm32g4xx_hal_pwr_ex.c" 1
 2065 0018 30BF     		wfi
 2066              	@ 0 "" 2
1001:Drivers/STM32G4xx_HAL_Driver/Src/stm32g4xx_hal_pwr_ex.c **** }
 2067              		.loc 1 1001 1 is_stmt 0 view .LVU480
 2068              		.thumb
 2069              		.syntax unified
 2070 001a 7047     		bx	lr
 2071              	.L251:
 2072              		.align	2
 2073              	.L250:
 2074 001c 00700040 		.word	1073770496
 2075 0020 00ED00E0 		.word	-536810240
 2076              		.cfi_endproc
 2077              	.LFE356:
 2079              		.section	.text.HAL_PWREx_PVM1Callback,"ax",%progbits
 2080              		.align	1
 2081              		.p2align 2,,3
 2082              		.weak	HAL_PWREx_PVM1Callback
 2083              		.syntax unified
ARM GAS  /tmp/ccv7Xt7x.s 			page 59


 2084              		.thumb
 2085              		.thumb_func
 2086              		.fpu fpv4-sp-d16
 2088              	HAL_PWREx_PVM1Callback:
 2089              	.LFB358:
1002:Drivers/STM32G4xx_HAL_Driver/Src/stm32g4xx_hal_pwr_ex.c **** 
1003:Drivers/STM32G4xx_HAL_Driver/Src/stm32g4xx_hal_pwr_ex.c **** 
1004:Drivers/STM32G4xx_HAL_Driver/Src/stm32g4xx_hal_pwr_ex.c **** 
1005:Drivers/STM32G4xx_HAL_Driver/Src/stm32g4xx_hal_pwr_ex.c **** 
1006:Drivers/STM32G4xx_HAL_Driver/Src/stm32g4xx_hal_pwr_ex.c **** /**
1007:Drivers/STM32G4xx_HAL_Driver/Src/stm32g4xx_hal_pwr_ex.c ****   * @brief This function handles the PWR PVD/PVMx interrupt request.
1008:Drivers/STM32G4xx_HAL_Driver/Src/stm32g4xx_hal_pwr_ex.c ****   * @note This API should be called under the PVD_PVM_IRQHandler().
1009:Drivers/STM32G4xx_HAL_Driver/Src/stm32g4xx_hal_pwr_ex.c ****   * @retval None
1010:Drivers/STM32G4xx_HAL_Driver/Src/stm32g4xx_hal_pwr_ex.c ****   */
1011:Drivers/STM32G4xx_HAL_Driver/Src/stm32g4xx_hal_pwr_ex.c **** void HAL_PWREx_PVD_PVM_IRQHandler(void)
1012:Drivers/STM32G4xx_HAL_Driver/Src/stm32g4xx_hal_pwr_ex.c **** {
1013:Drivers/STM32G4xx_HAL_Driver/Src/stm32g4xx_hal_pwr_ex.c ****   /* Check PWR exti flag */
1014:Drivers/STM32G4xx_HAL_Driver/Src/stm32g4xx_hal_pwr_ex.c ****   if(__HAL_PWR_PVD_EXTI_GET_FLAG() != 0U)
1015:Drivers/STM32G4xx_HAL_Driver/Src/stm32g4xx_hal_pwr_ex.c ****   {
1016:Drivers/STM32G4xx_HAL_Driver/Src/stm32g4xx_hal_pwr_ex.c ****     /* PWR PVD interrupt user callback */
1017:Drivers/STM32G4xx_HAL_Driver/Src/stm32g4xx_hal_pwr_ex.c ****     HAL_PWR_PVDCallback();
1018:Drivers/STM32G4xx_HAL_Driver/Src/stm32g4xx_hal_pwr_ex.c **** 
1019:Drivers/STM32G4xx_HAL_Driver/Src/stm32g4xx_hal_pwr_ex.c ****     /* Clear PVD exti pending bit */
1020:Drivers/STM32G4xx_HAL_Driver/Src/stm32g4xx_hal_pwr_ex.c ****     __HAL_PWR_PVD_EXTI_CLEAR_FLAG();
1021:Drivers/STM32G4xx_HAL_Driver/Src/stm32g4xx_hal_pwr_ex.c ****   }
1022:Drivers/STM32G4xx_HAL_Driver/Src/stm32g4xx_hal_pwr_ex.c ****   /* Next, successively check PVMx exti flags */
1023:Drivers/STM32G4xx_HAL_Driver/Src/stm32g4xx_hal_pwr_ex.c **** #if defined(PWR_CR2_PVME1)
1024:Drivers/STM32G4xx_HAL_Driver/Src/stm32g4xx_hal_pwr_ex.c ****   if(__HAL_PWR_PVM1_EXTI_GET_FLAG() != 0U)
1025:Drivers/STM32G4xx_HAL_Driver/Src/stm32g4xx_hal_pwr_ex.c ****   {
1026:Drivers/STM32G4xx_HAL_Driver/Src/stm32g4xx_hal_pwr_ex.c ****     /* PWR PVM1 interrupt user callback */
1027:Drivers/STM32G4xx_HAL_Driver/Src/stm32g4xx_hal_pwr_ex.c ****     HAL_PWREx_PVM1Callback();
1028:Drivers/STM32G4xx_HAL_Driver/Src/stm32g4xx_hal_pwr_ex.c **** 
1029:Drivers/STM32G4xx_HAL_Driver/Src/stm32g4xx_hal_pwr_ex.c ****     /* Clear PVM1 exti pending bit */
1030:Drivers/STM32G4xx_HAL_Driver/Src/stm32g4xx_hal_pwr_ex.c ****     __HAL_PWR_PVM1_EXTI_CLEAR_FLAG();
1031:Drivers/STM32G4xx_HAL_Driver/Src/stm32g4xx_hal_pwr_ex.c ****   }
1032:Drivers/STM32G4xx_HAL_Driver/Src/stm32g4xx_hal_pwr_ex.c **** #endif /* PWR_CR2_PVME1 */
1033:Drivers/STM32G4xx_HAL_Driver/Src/stm32g4xx_hal_pwr_ex.c **** #if defined(PWR_CR2_PVME2)
1034:Drivers/STM32G4xx_HAL_Driver/Src/stm32g4xx_hal_pwr_ex.c ****   if(__HAL_PWR_PVM2_EXTI_GET_FLAG() != 0U)
1035:Drivers/STM32G4xx_HAL_Driver/Src/stm32g4xx_hal_pwr_ex.c ****   {
1036:Drivers/STM32G4xx_HAL_Driver/Src/stm32g4xx_hal_pwr_ex.c ****     /* PWR PVM2 interrupt user callback */
1037:Drivers/STM32G4xx_HAL_Driver/Src/stm32g4xx_hal_pwr_ex.c ****     HAL_PWREx_PVM2Callback();
1038:Drivers/STM32G4xx_HAL_Driver/Src/stm32g4xx_hal_pwr_ex.c **** 
1039:Drivers/STM32G4xx_HAL_Driver/Src/stm32g4xx_hal_pwr_ex.c ****     /* Clear PVM2 exti pending bit */
1040:Drivers/STM32G4xx_HAL_Driver/Src/stm32g4xx_hal_pwr_ex.c ****     __HAL_PWR_PVM2_EXTI_CLEAR_FLAG();
1041:Drivers/STM32G4xx_HAL_Driver/Src/stm32g4xx_hal_pwr_ex.c ****   }
1042:Drivers/STM32G4xx_HAL_Driver/Src/stm32g4xx_hal_pwr_ex.c **** #endif /* PWR_CR2_PVME2 */
1043:Drivers/STM32G4xx_HAL_Driver/Src/stm32g4xx_hal_pwr_ex.c ****   if(__HAL_PWR_PVM3_EXTI_GET_FLAG() != 0U)
1044:Drivers/STM32G4xx_HAL_Driver/Src/stm32g4xx_hal_pwr_ex.c ****   {
1045:Drivers/STM32G4xx_HAL_Driver/Src/stm32g4xx_hal_pwr_ex.c ****     /* PWR PVM3 interrupt user callback */
1046:Drivers/STM32G4xx_HAL_Driver/Src/stm32g4xx_hal_pwr_ex.c ****     HAL_PWREx_PVM3Callback();
1047:Drivers/STM32G4xx_HAL_Driver/Src/stm32g4xx_hal_pwr_ex.c **** 
1048:Drivers/STM32G4xx_HAL_Driver/Src/stm32g4xx_hal_pwr_ex.c ****     /* Clear PVM3 exti pending bit */
1049:Drivers/STM32G4xx_HAL_Driver/Src/stm32g4xx_hal_pwr_ex.c ****     __HAL_PWR_PVM3_EXTI_CLEAR_FLAG();
1050:Drivers/STM32G4xx_HAL_Driver/Src/stm32g4xx_hal_pwr_ex.c ****   }
1051:Drivers/STM32G4xx_HAL_Driver/Src/stm32g4xx_hal_pwr_ex.c ****   if(__HAL_PWR_PVM4_EXTI_GET_FLAG() != 0U)
1052:Drivers/STM32G4xx_HAL_Driver/Src/stm32g4xx_hal_pwr_ex.c ****   {
1053:Drivers/STM32G4xx_HAL_Driver/Src/stm32g4xx_hal_pwr_ex.c ****     /* PWR PVM4 interrupt user callback */
ARM GAS  /tmp/ccv7Xt7x.s 			page 60


1054:Drivers/STM32G4xx_HAL_Driver/Src/stm32g4xx_hal_pwr_ex.c ****     HAL_PWREx_PVM4Callback();
1055:Drivers/STM32G4xx_HAL_Driver/Src/stm32g4xx_hal_pwr_ex.c **** 
1056:Drivers/STM32G4xx_HAL_Driver/Src/stm32g4xx_hal_pwr_ex.c ****     /* Clear PVM4 exti pending bit */
1057:Drivers/STM32G4xx_HAL_Driver/Src/stm32g4xx_hal_pwr_ex.c ****     __HAL_PWR_PVM4_EXTI_CLEAR_FLAG();
1058:Drivers/STM32G4xx_HAL_Driver/Src/stm32g4xx_hal_pwr_ex.c ****   }
1059:Drivers/STM32G4xx_HAL_Driver/Src/stm32g4xx_hal_pwr_ex.c **** }
1060:Drivers/STM32G4xx_HAL_Driver/Src/stm32g4xx_hal_pwr_ex.c **** 
1061:Drivers/STM32G4xx_HAL_Driver/Src/stm32g4xx_hal_pwr_ex.c **** 
1062:Drivers/STM32G4xx_HAL_Driver/Src/stm32g4xx_hal_pwr_ex.c **** #if defined(PWR_CR2_PVME1)
1063:Drivers/STM32G4xx_HAL_Driver/Src/stm32g4xx_hal_pwr_ex.c **** /**
1064:Drivers/STM32G4xx_HAL_Driver/Src/stm32g4xx_hal_pwr_ex.c ****   * @brief PWR PVM1 interrupt callback
1065:Drivers/STM32G4xx_HAL_Driver/Src/stm32g4xx_hal_pwr_ex.c ****   * @retval None
1066:Drivers/STM32G4xx_HAL_Driver/Src/stm32g4xx_hal_pwr_ex.c ****   */
1067:Drivers/STM32G4xx_HAL_Driver/Src/stm32g4xx_hal_pwr_ex.c **** __weak void HAL_PWREx_PVM1Callback(void)
1068:Drivers/STM32G4xx_HAL_Driver/Src/stm32g4xx_hal_pwr_ex.c **** {
 2090              		.loc 1 1068 1 is_stmt 1 view -0
 2091              		.cfi_startproc
 2092              		@ args = 0, pretend = 0, frame = 0
 2093              		@ frame_needed = 0, uses_anonymous_args = 0
 2094              		@ link register save eliminated.
1069:Drivers/STM32G4xx_HAL_Driver/Src/stm32g4xx_hal_pwr_ex.c ****   /* NOTE : This function should not be modified; when the callback is needed,
1070:Drivers/STM32G4xx_HAL_Driver/Src/stm32g4xx_hal_pwr_ex.c ****             HAL_PWREx_PVM1Callback() API can be implemented in the user file
1071:Drivers/STM32G4xx_HAL_Driver/Src/stm32g4xx_hal_pwr_ex.c ****    */
1072:Drivers/STM32G4xx_HAL_Driver/Src/stm32g4xx_hal_pwr_ex.c **** }
 2095              		.loc 1 1072 1 view .LVU482
 2096 0000 7047     		bx	lr
 2097              		.cfi_endproc
 2098              	.LFE358:
 2100 0002 00BF     		.section	.text.HAL_PWREx_PVM2Callback,"ax",%progbits
 2101              		.align	1
 2102              		.p2align 2,,3
 2103              		.weak	HAL_PWREx_PVM2Callback
 2104              		.syntax unified
 2105              		.thumb
 2106              		.thumb_func
 2107              		.fpu fpv4-sp-d16
 2109              	HAL_PWREx_PVM2Callback:
 2110              	.LFB367:
 2111              		.cfi_startproc
 2112              		@ args = 0, pretend = 0, frame = 0
 2113              		@ frame_needed = 0, uses_anonymous_args = 0
 2114              		@ link register save eliminated.
 2115 0000 7047     		bx	lr
 2116              		.cfi_endproc
 2117              	.LFE367:
 2119 0002 00BF     		.section	.text.HAL_PWREx_PVM3Callback,"ax",%progbits
 2120              		.align	1
 2121              		.p2align 2,,3
 2122              		.weak	HAL_PWREx_PVM3Callback
 2123              		.syntax unified
 2124              		.thumb
 2125              		.thumb_func
 2126              		.fpu fpv4-sp-d16
 2128              	HAL_PWREx_PVM3Callback:
 2129              	.LFB369:
 2130              		.cfi_startproc
 2131              		@ args = 0, pretend = 0, frame = 0
ARM GAS  /tmp/ccv7Xt7x.s 			page 61


 2132              		@ frame_needed = 0, uses_anonymous_args = 0
 2133              		@ link register save eliminated.
 2134 0000 7047     		bx	lr
 2135              		.cfi_endproc
 2136              	.LFE369:
 2138 0002 00BF     		.section	.text.HAL_PWREx_PVM4Callback,"ax",%progbits
 2139              		.align	1
 2140              		.p2align 2,,3
 2141              		.weak	HAL_PWREx_PVM4Callback
 2142              		.syntax unified
 2143              		.thumb
 2144              		.thumb_func
 2145              		.fpu fpv4-sp-d16
 2147              	HAL_PWREx_PVM4Callback:
 2148              	.LFB371:
 2149              		.cfi_startproc
 2150              		@ args = 0, pretend = 0, frame = 0
 2151              		@ frame_needed = 0, uses_anonymous_args = 0
 2152              		@ link register save eliminated.
 2153 0000 7047     		bx	lr
 2154              		.cfi_endproc
 2155              	.LFE371:
 2157 0002 00BF     		.section	.text.HAL_PWREx_PVD_PVM_IRQHandler,"ax",%progbits
 2158              		.align	1
 2159              		.p2align 2,,3
 2160              		.global	HAL_PWREx_PVD_PVM_IRQHandler
 2161              		.syntax unified
 2162              		.thumb
 2163              		.thumb_func
 2164              		.fpu fpv4-sp-d16
 2166              	HAL_PWREx_PVD_PVM_IRQHandler:
 2167              	.LFB357:
1012:Drivers/STM32G4xx_HAL_Driver/Src/stm32g4xx_hal_pwr_ex.c ****   /* Check PWR exti flag */
 2168              		.loc 1 1012 1 view -0
 2169              		.cfi_startproc
 2170              		@ args = 0, pretend = 0, frame = 0
 2171              		@ frame_needed = 0, uses_anonymous_args = 0
1014:Drivers/STM32G4xx_HAL_Driver/Src/stm32g4xx_hal_pwr_ex.c ****   {
 2172              		.loc 1 1014 3 view .LVU484
1012:Drivers/STM32G4xx_HAL_Driver/Src/stm32g4xx_hal_pwr_ex.c ****   /* Check PWR exti flag */
 2173              		.loc 1 1012 1 is_stmt 0 view .LVU485
 2174 0000 10B5     		push	{r4, lr}
 2175              	.LCFI7:
 2176              		.cfi_def_cfa_offset 8
 2177              		.cfi_offset 4, -8
 2178              		.cfi_offset 14, -4
1014:Drivers/STM32G4xx_HAL_Driver/Src/stm32g4xx_hal_pwr_ex.c ****   {
 2179              		.loc 1 1014 6 view .LVU486
 2180 0002 174C     		ldr	r4, .L283
 2181 0004 6369     		ldr	r3, [r4, #20]
1014:Drivers/STM32G4xx_HAL_Driver/Src/stm32g4xx_hal_pwr_ex.c ****   {
 2182              		.loc 1 1014 5 view .LVU487
 2183 0006 DB03     		lsls	r3, r3, #15
 2184 0008 24D4     		bmi	.L278
 2185              	.L257:
1024:Drivers/STM32G4xx_HAL_Driver/Src/stm32g4xx_hal_pwr_ex.c ****   {
 2186              		.loc 1 1024 3 is_stmt 1 view .LVU488
ARM GAS  /tmp/ccv7Xt7x.s 			page 62


1024:Drivers/STM32G4xx_HAL_Driver/Src/stm32g4xx_hal_pwr_ex.c ****   {
 2187              		.loc 1 1024 6 is_stmt 0 view .LVU489
 2188 000a 154C     		ldr	r4, .L283
 2189 000c 636B     		ldr	r3, [r4, #52]
1024:Drivers/STM32G4xx_HAL_Driver/Src/stm32g4xx_hal_pwr_ex.c ****   {
 2190              		.loc 1 1024 5 view .LVU490
 2191 000e 1807     		lsls	r0, r3, #28
 2192 0010 1BD4     		bmi	.L279
 2193              	.L258:
1034:Drivers/STM32G4xx_HAL_Driver/Src/stm32g4xx_hal_pwr_ex.c ****   {
 2194              		.loc 1 1034 3 is_stmt 1 view .LVU491
1034:Drivers/STM32G4xx_HAL_Driver/Src/stm32g4xx_hal_pwr_ex.c ****   {
 2195              		.loc 1 1034 6 is_stmt 0 view .LVU492
 2196 0012 134C     		ldr	r4, .L283
 2197 0014 636B     		ldr	r3, [r4, #52]
1034:Drivers/STM32G4xx_HAL_Driver/Src/stm32g4xx_hal_pwr_ex.c ****   {
 2198              		.loc 1 1034 5 view .LVU493
 2199 0016 D906     		lsls	r1, r3, #27
 2200 0018 12D4     		bmi	.L280
 2201              	.L259:
1043:Drivers/STM32G4xx_HAL_Driver/Src/stm32g4xx_hal_pwr_ex.c ****   {
 2202              		.loc 1 1043 3 is_stmt 1 view .LVU494
1043:Drivers/STM32G4xx_HAL_Driver/Src/stm32g4xx_hal_pwr_ex.c ****   {
 2203              		.loc 1 1043 6 is_stmt 0 view .LVU495
 2204 001a 114C     		ldr	r4, .L283
 2205 001c 636B     		ldr	r3, [r4, #52]
1043:Drivers/STM32G4xx_HAL_Driver/Src/stm32g4xx_hal_pwr_ex.c ****   {
 2206              		.loc 1 1043 5 view .LVU496
 2207 001e 9A06     		lsls	r2, r3, #26
 2208 0020 09D4     		bmi	.L281
 2209              	.L260:
1051:Drivers/STM32G4xx_HAL_Driver/Src/stm32g4xx_hal_pwr_ex.c ****   {
 2210              		.loc 1 1051 3 is_stmt 1 view .LVU497
1051:Drivers/STM32G4xx_HAL_Driver/Src/stm32g4xx_hal_pwr_ex.c ****   {
 2211              		.loc 1 1051 6 is_stmt 0 view .LVU498
 2212 0022 0F4C     		ldr	r4, .L283
 2213 0024 636B     		ldr	r3, [r4, #52]
1051:Drivers/STM32G4xx_HAL_Driver/Src/stm32g4xx_hal_pwr_ex.c ****   {
 2214              		.loc 1 1051 5 view .LVU499
 2215 0026 5B06     		lsls	r3, r3, #25
 2216 0028 00D4     		bmi	.L282
1059:Drivers/STM32G4xx_HAL_Driver/Src/stm32g4xx_hal_pwr_ex.c **** 
 2217              		.loc 1 1059 1 view .LVU500
 2218 002a 10BD     		pop	{r4, pc}
 2219              	.L282:
1054:Drivers/STM32G4xx_HAL_Driver/Src/stm32g4xx_hal_pwr_ex.c **** 
 2220              		.loc 1 1054 5 is_stmt 1 view .LVU501
 2221 002c FFF7FEFF 		bl	HAL_PWREx_PVM4Callback
 2222              	.LVL122:
1057:Drivers/STM32G4xx_HAL_Driver/Src/stm32g4xx_hal_pwr_ex.c ****   }
 2223              		.loc 1 1057 5 view .LVU502
 2224 0030 4023     		movs	r3, #64
 2225 0032 6363     		str	r3, [r4, #52]
1059:Drivers/STM32G4xx_HAL_Driver/Src/stm32g4xx_hal_pwr_ex.c **** 
 2226              		.loc 1 1059 1 is_stmt 0 view .LVU503
 2227 0034 10BD     		pop	{r4, pc}
 2228              	.L281:
ARM GAS  /tmp/ccv7Xt7x.s 			page 63


1046:Drivers/STM32G4xx_HAL_Driver/Src/stm32g4xx_hal_pwr_ex.c **** 
 2229              		.loc 1 1046 5 is_stmt 1 view .LVU504
 2230 0036 FFF7FEFF 		bl	HAL_PWREx_PVM3Callback
 2231              	.LVL123:
1049:Drivers/STM32G4xx_HAL_Driver/Src/stm32g4xx_hal_pwr_ex.c ****   }
 2232              		.loc 1 1049 5 view .LVU505
 2233 003a 2023     		movs	r3, #32
 2234 003c 6363     		str	r3, [r4, #52]
 2235 003e F0E7     		b	.L260
 2236              	.L280:
1037:Drivers/STM32G4xx_HAL_Driver/Src/stm32g4xx_hal_pwr_ex.c **** 
 2237              		.loc 1 1037 5 view .LVU506
 2238 0040 FFF7FEFF 		bl	HAL_PWREx_PVM2Callback
 2239              	.LVL124:
1040:Drivers/STM32G4xx_HAL_Driver/Src/stm32g4xx_hal_pwr_ex.c ****   }
 2240              		.loc 1 1040 5 view .LVU507
 2241 0044 1023     		movs	r3, #16
 2242 0046 6363     		str	r3, [r4, #52]
 2243 0048 E7E7     		b	.L259
 2244              	.L279:
1027:Drivers/STM32G4xx_HAL_Driver/Src/stm32g4xx_hal_pwr_ex.c **** 
 2245              		.loc 1 1027 5 view .LVU508
 2246 004a FFF7FEFF 		bl	HAL_PWREx_PVM1Callback
 2247              	.LVL125:
1030:Drivers/STM32G4xx_HAL_Driver/Src/stm32g4xx_hal_pwr_ex.c ****   }
 2248              		.loc 1 1030 5 view .LVU509
 2249 004e 0823     		movs	r3, #8
 2250 0050 6363     		str	r3, [r4, #52]
 2251 0052 DEE7     		b	.L258
 2252              	.L278:
1017:Drivers/STM32G4xx_HAL_Driver/Src/stm32g4xx_hal_pwr_ex.c **** 
 2253              		.loc 1 1017 5 view .LVU510
 2254 0054 FFF7FEFF 		bl	HAL_PWR_PVDCallback
 2255              	.LVL126:
1020:Drivers/STM32G4xx_HAL_Driver/Src/stm32g4xx_hal_pwr_ex.c ****   }
 2256              		.loc 1 1020 5 view .LVU511
 2257 0058 4FF48033 		mov	r3, #65536
 2258 005c 6361     		str	r3, [r4, #20]
 2259 005e D4E7     		b	.L257
 2260              	.L284:
 2261              		.align	2
 2262              	.L283:
 2263 0060 00040140 		.word	1073808384
 2264              		.cfi_endproc
 2265              	.LFE357:
 2267              		.section	.text.HAL_PWREx_EnableUCPDStandbyMode,"ax",%progbits
 2268              		.align	1
 2269              		.p2align 2,,3
 2270              		.global	HAL_PWREx_EnableUCPDStandbyMode
 2271              		.syntax unified
 2272              		.thumb
 2273              		.thumb_func
 2274              		.fpu fpv4-sp-d16
 2276              	HAL_PWREx_EnableUCPDStandbyMode:
 2277              	.LFB362:
1073:Drivers/STM32G4xx_HAL_Driver/Src/stm32g4xx_hal_pwr_ex.c **** #endif /* PWR_CR2_PVME1 */
1074:Drivers/STM32G4xx_HAL_Driver/Src/stm32g4xx_hal_pwr_ex.c **** 
ARM GAS  /tmp/ccv7Xt7x.s 			page 64


1075:Drivers/STM32G4xx_HAL_Driver/Src/stm32g4xx_hal_pwr_ex.c **** #if defined(PWR_CR2_PVME2)
1076:Drivers/STM32G4xx_HAL_Driver/Src/stm32g4xx_hal_pwr_ex.c **** /**
1077:Drivers/STM32G4xx_HAL_Driver/Src/stm32g4xx_hal_pwr_ex.c ****   * @brief PWR PVM2 interrupt callback
1078:Drivers/STM32G4xx_HAL_Driver/Src/stm32g4xx_hal_pwr_ex.c ****   * @retval None
1079:Drivers/STM32G4xx_HAL_Driver/Src/stm32g4xx_hal_pwr_ex.c ****   */
1080:Drivers/STM32G4xx_HAL_Driver/Src/stm32g4xx_hal_pwr_ex.c **** __weak void HAL_PWREx_PVM2Callback(void)
1081:Drivers/STM32G4xx_HAL_Driver/Src/stm32g4xx_hal_pwr_ex.c **** {
1082:Drivers/STM32G4xx_HAL_Driver/Src/stm32g4xx_hal_pwr_ex.c ****   /* NOTE : This function should not be modified; when the callback is needed,
1083:Drivers/STM32G4xx_HAL_Driver/Src/stm32g4xx_hal_pwr_ex.c ****             HAL_PWREx_PVM2Callback() API can be implemented in the user file
1084:Drivers/STM32G4xx_HAL_Driver/Src/stm32g4xx_hal_pwr_ex.c ****    */
1085:Drivers/STM32G4xx_HAL_Driver/Src/stm32g4xx_hal_pwr_ex.c **** }
1086:Drivers/STM32G4xx_HAL_Driver/Src/stm32g4xx_hal_pwr_ex.c **** #endif /* PWR_CR2_PVME2 */
1087:Drivers/STM32G4xx_HAL_Driver/Src/stm32g4xx_hal_pwr_ex.c **** 
1088:Drivers/STM32G4xx_HAL_Driver/Src/stm32g4xx_hal_pwr_ex.c **** /**
1089:Drivers/STM32G4xx_HAL_Driver/Src/stm32g4xx_hal_pwr_ex.c ****   * @brief PWR PVM3 interrupt callback
1090:Drivers/STM32G4xx_HAL_Driver/Src/stm32g4xx_hal_pwr_ex.c ****   * @retval None
1091:Drivers/STM32G4xx_HAL_Driver/Src/stm32g4xx_hal_pwr_ex.c ****   */
1092:Drivers/STM32G4xx_HAL_Driver/Src/stm32g4xx_hal_pwr_ex.c **** __weak void HAL_PWREx_PVM3Callback(void)
1093:Drivers/STM32G4xx_HAL_Driver/Src/stm32g4xx_hal_pwr_ex.c **** {
1094:Drivers/STM32G4xx_HAL_Driver/Src/stm32g4xx_hal_pwr_ex.c ****   /* NOTE : This function should not be modified; when the callback is needed,
1095:Drivers/STM32G4xx_HAL_Driver/Src/stm32g4xx_hal_pwr_ex.c ****             HAL_PWREx_PVM3Callback() API can be implemented in the user file
1096:Drivers/STM32G4xx_HAL_Driver/Src/stm32g4xx_hal_pwr_ex.c ****    */
1097:Drivers/STM32G4xx_HAL_Driver/Src/stm32g4xx_hal_pwr_ex.c **** }
1098:Drivers/STM32G4xx_HAL_Driver/Src/stm32g4xx_hal_pwr_ex.c **** 
1099:Drivers/STM32G4xx_HAL_Driver/Src/stm32g4xx_hal_pwr_ex.c **** /**
1100:Drivers/STM32G4xx_HAL_Driver/Src/stm32g4xx_hal_pwr_ex.c ****   * @brief PWR PVM4 interrupt callback
1101:Drivers/STM32G4xx_HAL_Driver/Src/stm32g4xx_hal_pwr_ex.c ****   * @retval None
1102:Drivers/STM32G4xx_HAL_Driver/Src/stm32g4xx_hal_pwr_ex.c ****   */
1103:Drivers/STM32G4xx_HAL_Driver/Src/stm32g4xx_hal_pwr_ex.c **** __weak void HAL_PWREx_PVM4Callback(void)
1104:Drivers/STM32G4xx_HAL_Driver/Src/stm32g4xx_hal_pwr_ex.c **** {
1105:Drivers/STM32G4xx_HAL_Driver/Src/stm32g4xx_hal_pwr_ex.c ****   /* NOTE : This function should not be modified; when the callback is needed,
1106:Drivers/STM32G4xx_HAL_Driver/Src/stm32g4xx_hal_pwr_ex.c ****             HAL_PWREx_PVM4Callback() API can be implemented in the user file
1107:Drivers/STM32G4xx_HAL_Driver/Src/stm32g4xx_hal_pwr_ex.c ****    */
1108:Drivers/STM32G4xx_HAL_Driver/Src/stm32g4xx_hal_pwr_ex.c **** }
1109:Drivers/STM32G4xx_HAL_Driver/Src/stm32g4xx_hal_pwr_ex.c **** 
1110:Drivers/STM32G4xx_HAL_Driver/Src/stm32g4xx_hal_pwr_ex.c **** #if defined(PWR_CR3_UCPD_STDBY)
1111:Drivers/STM32G4xx_HAL_Driver/Src/stm32g4xx_hal_pwr_ex.c **** /**
1112:Drivers/STM32G4xx_HAL_Driver/Src/stm32g4xx_hal_pwr_ex.c ****   * @brief Enable UCPD configuration memorization in Standby.
1113:Drivers/STM32G4xx_HAL_Driver/Src/stm32g4xx_hal_pwr_ex.c ****   * @retval None
1114:Drivers/STM32G4xx_HAL_Driver/Src/stm32g4xx_hal_pwr_ex.c ****   */
1115:Drivers/STM32G4xx_HAL_Driver/Src/stm32g4xx_hal_pwr_ex.c **** void HAL_PWREx_EnableUCPDStandbyMode(void)
1116:Drivers/STM32G4xx_HAL_Driver/Src/stm32g4xx_hal_pwr_ex.c **** {
 2278              		.loc 1 1116 1 view -0
 2279              		.cfi_startproc
 2280              		@ args = 0, pretend = 0, frame = 0
 2281              		@ frame_needed = 0, uses_anonymous_args = 0
 2282              		@ link register save eliminated.
1117:Drivers/STM32G4xx_HAL_Driver/Src/stm32g4xx_hal_pwr_ex.c ****   /* Memorize UCPD configuration when entering standby mode */
1118:Drivers/STM32G4xx_HAL_Driver/Src/stm32g4xx_hal_pwr_ex.c ****   SET_BIT(PWR->CR3, PWR_CR3_UCPD_STDBY);
 2283              		.loc 1 1118 3 view .LVU513
 2284 0000 024A     		ldr	r2, .L286
 2285 0002 9368     		ldr	r3, [r2, #8]
 2286 0004 43F40053 		orr	r3, r3, #8192
 2287 0008 9360     		str	r3, [r2, #8]
1119:Drivers/STM32G4xx_HAL_Driver/Src/stm32g4xx_hal_pwr_ex.c **** }
 2288              		.loc 1 1119 1 is_stmt 0 view .LVU514
 2289 000a 7047     		bx	lr
ARM GAS  /tmp/ccv7Xt7x.s 			page 65


 2290              	.L287:
 2291              		.align	2
 2292              	.L286:
 2293 000c 00700040 		.word	1073770496
 2294              		.cfi_endproc
 2295              	.LFE362:
 2297              		.section	.text.HAL_PWREx_DisableUCPDStandbyMode,"ax",%progbits
 2298              		.align	1
 2299              		.p2align 2,,3
 2300              		.global	HAL_PWREx_DisableUCPDStandbyMode
 2301              		.syntax unified
 2302              		.thumb
 2303              		.thumb_func
 2304              		.fpu fpv4-sp-d16
 2306              	HAL_PWREx_DisableUCPDStandbyMode:
 2307              	.LFB363:
1120:Drivers/STM32G4xx_HAL_Driver/Src/stm32g4xx_hal_pwr_ex.c **** 
1121:Drivers/STM32G4xx_HAL_Driver/Src/stm32g4xx_hal_pwr_ex.c **** /**
1122:Drivers/STM32G4xx_HAL_Driver/Src/stm32g4xx_hal_pwr_ex.c ****   * @brief Disable UCPD configuration memorization in Standby.
1123:Drivers/STM32G4xx_HAL_Driver/Src/stm32g4xx_hal_pwr_ex.c ****   * @note  This function must be called on exiting the Standby mode and before any UCPD
1124:Drivers/STM32G4xx_HAL_Driver/Src/stm32g4xx_hal_pwr_ex.c ****   *        configuration update.
1125:Drivers/STM32G4xx_HAL_Driver/Src/stm32g4xx_hal_pwr_ex.c ****   * @retval None
1126:Drivers/STM32G4xx_HAL_Driver/Src/stm32g4xx_hal_pwr_ex.c ****   */
1127:Drivers/STM32G4xx_HAL_Driver/Src/stm32g4xx_hal_pwr_ex.c **** void HAL_PWREx_DisableUCPDStandbyMode(void)
1128:Drivers/STM32G4xx_HAL_Driver/Src/stm32g4xx_hal_pwr_ex.c **** {
 2308              		.loc 1 1128 1 is_stmt 1 view -0
 2309              		.cfi_startproc
 2310              		@ args = 0, pretend = 0, frame = 0
 2311              		@ frame_needed = 0, uses_anonymous_args = 0
 2312              		@ link register save eliminated.
1129:Drivers/STM32G4xx_HAL_Driver/Src/stm32g4xx_hal_pwr_ex.c ****   /* Write 0 immediately after Standby exit when using UCPD,
1130:Drivers/STM32G4xx_HAL_Driver/Src/stm32g4xx_hal_pwr_ex.c ****      and before writing any UCPD registers */
1131:Drivers/STM32G4xx_HAL_Driver/Src/stm32g4xx_hal_pwr_ex.c ****   CLEAR_BIT(PWR->CR3, PWR_CR3_UCPD_STDBY);
 2313              		.loc 1 1131 3 view .LVU516
 2314 0000 024A     		ldr	r2, .L289
 2315 0002 9368     		ldr	r3, [r2, #8]
 2316 0004 23F40053 		bic	r3, r3, #8192
 2317 0008 9360     		str	r3, [r2, #8]
1132:Drivers/STM32G4xx_HAL_Driver/Src/stm32g4xx_hal_pwr_ex.c **** }
 2318              		.loc 1 1132 1 is_stmt 0 view .LVU517
 2319 000a 7047     		bx	lr
 2320              	.L290:
 2321              		.align	2
 2322              	.L289:
 2323 000c 00700040 		.word	1073770496
 2324              		.cfi_endproc
 2325              	.LFE363:
 2327              		.section	.text.HAL_PWREx_EnableUCPDDeadBattery,"ax",%progbits
 2328              		.align	1
 2329              		.p2align 2,,3
 2330              		.global	HAL_PWREx_EnableUCPDDeadBattery
 2331              		.syntax unified
 2332              		.thumb
 2333              		.thumb_func
 2334              		.fpu fpv4-sp-d16
 2336              	HAL_PWREx_EnableUCPDDeadBattery:
 2337              	.LFB364:
ARM GAS  /tmp/ccv7Xt7x.s 			page 66


1133:Drivers/STM32G4xx_HAL_Driver/Src/stm32g4xx_hal_pwr_ex.c **** #endif /* PWR_CR3_UCPD_STDBY */
1134:Drivers/STM32G4xx_HAL_Driver/Src/stm32g4xx_hal_pwr_ex.c **** 
1135:Drivers/STM32G4xx_HAL_Driver/Src/stm32g4xx_hal_pwr_ex.c **** #if defined(PWR_CR3_UCPD_DBDIS)
1136:Drivers/STM32G4xx_HAL_Driver/Src/stm32g4xx_hal_pwr_ex.c **** /**
1137:Drivers/STM32G4xx_HAL_Driver/Src/stm32g4xx_hal_pwr_ex.c ****   * @brief Enable the USB Type-C dead battery pull-down behavior
1138:Drivers/STM32G4xx_HAL_Driver/Src/stm32g4xx_hal_pwr_ex.c ****   *        on UCPDx_CC1 and UCPDx_CC2 pins
1139:Drivers/STM32G4xx_HAL_Driver/Src/stm32g4xx_hal_pwr_ex.c ****   * @retval None
1140:Drivers/STM32G4xx_HAL_Driver/Src/stm32g4xx_hal_pwr_ex.c ****   */
1141:Drivers/STM32G4xx_HAL_Driver/Src/stm32g4xx_hal_pwr_ex.c **** void HAL_PWREx_EnableUCPDDeadBattery(void)
1142:Drivers/STM32G4xx_HAL_Driver/Src/stm32g4xx_hal_pwr_ex.c **** {
 2338              		.loc 1 1142 1 is_stmt 1 view -0
 2339              		.cfi_startproc
 2340              		@ args = 0, pretend = 0, frame = 0
 2341              		@ frame_needed = 0, uses_anonymous_args = 0
 2342              		@ link register save eliminated.
1143:Drivers/STM32G4xx_HAL_Driver/Src/stm32g4xx_hal_pwr_ex.c ****   /* Write 0 to enable the USB Type-C dead battery pull-down behavior */
1144:Drivers/STM32G4xx_HAL_Driver/Src/stm32g4xx_hal_pwr_ex.c ****   CLEAR_BIT(PWR->CR3, PWR_CR3_UCPD_DBDIS);
 2343              		.loc 1 1144 3 view .LVU519
 2344 0000 024A     		ldr	r2, .L292
 2345 0002 9368     		ldr	r3, [r2, #8]
 2346 0004 23F48043 		bic	r3, r3, #16384
 2347 0008 9360     		str	r3, [r2, #8]
1145:Drivers/STM32G4xx_HAL_Driver/Src/stm32g4xx_hal_pwr_ex.c **** }
 2348              		.loc 1 1145 1 is_stmt 0 view .LVU520
 2349 000a 7047     		bx	lr
 2350              	.L293:
 2351              		.align	2
 2352              	.L292:
 2353 000c 00700040 		.word	1073770496
 2354              		.cfi_endproc
 2355              	.LFE364:
 2357              		.section	.text.HAL_PWREx_DisableUCPDDeadBattery,"ax",%progbits
 2358              		.align	1
 2359              		.p2align 2,,3
 2360              		.global	HAL_PWREx_DisableUCPDDeadBattery
 2361              		.syntax unified
 2362              		.thumb
 2363              		.thumb_func
 2364              		.fpu fpv4-sp-d16
 2366              	HAL_PWREx_DisableUCPDDeadBattery:
 2367              	.LFB365:
1146:Drivers/STM32G4xx_HAL_Driver/Src/stm32g4xx_hal_pwr_ex.c **** 
1147:Drivers/STM32G4xx_HAL_Driver/Src/stm32g4xx_hal_pwr_ex.c **** /**
1148:Drivers/STM32G4xx_HAL_Driver/Src/stm32g4xx_hal_pwr_ex.c ****   * @brief Disable the USB Type-C dead battery pull-down behavior
1149:Drivers/STM32G4xx_HAL_Driver/Src/stm32g4xx_hal_pwr_ex.c ****   *        on UCPDx_CC1 and UCPDx_CC2 pins
1150:Drivers/STM32G4xx_HAL_Driver/Src/stm32g4xx_hal_pwr_ex.c ****   * @note After exiting reset, the USB Type-C dead battery behavior will be enabled,
1151:Drivers/STM32G4xx_HAL_Driver/Src/stm32g4xx_hal_pwr_ex.c ****   *       which may have a pull-down effect on CC1 and CC2 pins.
1152:Drivers/STM32G4xx_HAL_Driver/Src/stm32g4xx_hal_pwr_ex.c ****   *       It is recommended to disable it in all cases, either to stop this pull-down
1153:Drivers/STM32G4xx_HAL_Driver/Src/stm32g4xx_hal_pwr_ex.c ****   *       or to hand over control to the UCPD (which should therefore be
1154:Drivers/STM32G4xx_HAL_Driver/Src/stm32g4xx_hal_pwr_ex.c ****   *       initialized before doing the disable).
1155:Drivers/STM32G4xx_HAL_Driver/Src/stm32g4xx_hal_pwr_ex.c ****   * @retval None
1156:Drivers/STM32G4xx_HAL_Driver/Src/stm32g4xx_hal_pwr_ex.c ****   */
1157:Drivers/STM32G4xx_HAL_Driver/Src/stm32g4xx_hal_pwr_ex.c **** void HAL_PWREx_DisableUCPDDeadBattery(void)
1158:Drivers/STM32G4xx_HAL_Driver/Src/stm32g4xx_hal_pwr_ex.c **** {
 2368              		.loc 1 1158 1 is_stmt 1 view -0
 2369              		.cfi_startproc
 2370              		@ args = 0, pretend = 0, frame = 0
ARM GAS  /tmp/ccv7Xt7x.s 			page 67


 2371              		@ frame_needed = 0, uses_anonymous_args = 0
 2372              		@ link register save eliminated.
1159:Drivers/STM32G4xx_HAL_Driver/Src/stm32g4xx_hal_pwr_ex.c ****   /* Write 1 to disable the USB Type-C dead battery pull-down behavior */
1160:Drivers/STM32G4xx_HAL_Driver/Src/stm32g4xx_hal_pwr_ex.c ****   SET_BIT(PWR->CR3, PWR_CR3_UCPD_DBDIS);
 2373              		.loc 1 1160 3 view .LVU522
 2374 0000 024A     		ldr	r2, .L295
 2375 0002 9368     		ldr	r3, [r2, #8]
 2376 0004 43F48043 		orr	r3, r3, #16384
 2377 0008 9360     		str	r3, [r2, #8]
1161:Drivers/STM32G4xx_HAL_Driver/Src/stm32g4xx_hal_pwr_ex.c **** }
 2378              		.loc 1 1161 1 is_stmt 0 view .LVU523
 2379 000a 7047     		bx	lr
 2380              	.L296:
 2381              		.align	2
 2382              	.L295:
 2383 000c 00700040 		.word	1073770496
 2384              		.cfi_endproc
 2385              	.LFE365:
 2387              		.text
 2388              	.Letext0:
 2389              		.file 2 "/usr/lib/gcc/arm-none-eabi/8.3.1/include/stdint.h"
 2390              		.file 3 "Drivers/CMSIS/Include/core_cm4.h"
 2391              		.file 4 "Drivers/CMSIS/Device/ST/STM32G4xx/Include/system_stm32g4xx.h"
 2392              		.file 5 "Drivers/CMSIS/Device/ST/STM32G4xx/Include/stm32g431xx.h"
 2393              		.file 6 "Drivers/STM32G4xx_HAL_Driver/Inc/stm32g4xx_hal_def.h"
 2394              		.file 7 "Drivers/STM32G4xx_HAL_Driver/Inc/stm32g4xx_hal_flash.h"
 2395              		.file 8 "Drivers/STM32G4xx_HAL_Driver/Inc/stm32g4xx_hal_pwr_ex.h"
 2396              		.file 9 "Drivers/STM32G4xx_HAL_Driver/Inc/stm32g4xx_hal_uart.h"
 2397              		.file 10 "Drivers/STM32G4xx_HAL_Driver/Inc/stm32g4xx_hal.h"
 2398              		.file 11 "Drivers/STM32G4xx_HAL_Driver/Inc/stm32g4xx_hal_pwr.h"
ARM GAS  /tmp/ccv7Xt7x.s 			page 68

