ARM GAS  /tmp/ccQyu1mP.s 			page 1


   1              		.cpu cortex-m4
   2              		.eabi_attribute 27, 1
   3              		.eabi_attribute 28, 1
   4              		.eabi_attribute 20, 1
   5              		.eabi_attribute 21, 1
   6              		.eabi_attribute 23, 3
   7              		.eabi_attribute 24, 1
   8              		.eabi_attribute 25, 1
   9              		.eabi_attribute 26, 1
  10              		.eabi_attribute 30, 2
  11              		.eabi_attribute 34, 1
  12              		.eabi_attribute 18, 4
  13              		.file	"stm32g4xx_hal_dma.c"
  14              		.text
  15              	.Ltext0:
  16              		.cfi_sections	.debug_frame
  17              		.section	.text.HAL_DMA_Init,"ax",%progbits
  18              		.align	1
  19              		.p2align 2,,3
  20              		.global	HAL_DMA_Init
  21              		.arch armv7e-m
  22              		.syntax unified
  23              		.thumb
  24              		.thumb_func
  25              		.fpu fpv4-sp-d16
  27              	HAL_DMA_Init:
  28              	.LVL0:
  29              	.LFB329:
  30              		.file 1 "Drivers/STM32G4xx_HAL_Driver/Src/stm32g4xx_hal_dma.c"
   1:Drivers/STM32G4xx_HAL_Driver/Src/stm32g4xx_hal_dma.c **** /**
   2:Drivers/STM32G4xx_HAL_Driver/Src/stm32g4xx_hal_dma.c ****   ******************************************************************************
   3:Drivers/STM32G4xx_HAL_Driver/Src/stm32g4xx_hal_dma.c ****   * @file    stm32g4xx_hal_dma.c
   4:Drivers/STM32G4xx_HAL_Driver/Src/stm32g4xx_hal_dma.c ****   * @author  MCD Application Team
   5:Drivers/STM32G4xx_HAL_Driver/Src/stm32g4xx_hal_dma.c ****   * @brief   DMA HAL module driver.
   6:Drivers/STM32G4xx_HAL_Driver/Src/stm32g4xx_hal_dma.c ****   *         This file provides firmware functions to manage the following
   7:Drivers/STM32G4xx_HAL_Driver/Src/stm32g4xx_hal_dma.c ****   *         functionalities of the Direct Memory Access (DMA) peripheral:
   8:Drivers/STM32G4xx_HAL_Driver/Src/stm32g4xx_hal_dma.c ****   *           + Initialization and de-initialization functions
   9:Drivers/STM32G4xx_HAL_Driver/Src/stm32g4xx_hal_dma.c ****   *           + IO operation functions
  10:Drivers/STM32G4xx_HAL_Driver/Src/stm32g4xx_hal_dma.c ****   *           + Peripheral State and errors functions
  11:Drivers/STM32G4xx_HAL_Driver/Src/stm32g4xx_hal_dma.c ****   *
  12:Drivers/STM32G4xx_HAL_Driver/Src/stm32g4xx_hal_dma.c ****   ******************************************************************************
  13:Drivers/STM32G4xx_HAL_Driver/Src/stm32g4xx_hal_dma.c ****   * @attention
  14:Drivers/STM32G4xx_HAL_Driver/Src/stm32g4xx_hal_dma.c ****   *
  15:Drivers/STM32G4xx_HAL_Driver/Src/stm32g4xx_hal_dma.c ****   * Copyright (c) 2019 STMicroelectronics.
  16:Drivers/STM32G4xx_HAL_Driver/Src/stm32g4xx_hal_dma.c ****   * All rights reserved.
  17:Drivers/STM32G4xx_HAL_Driver/Src/stm32g4xx_hal_dma.c ****   *
  18:Drivers/STM32G4xx_HAL_Driver/Src/stm32g4xx_hal_dma.c ****   * This software is licensed under terms that can be found in the LICENSE file
  19:Drivers/STM32G4xx_HAL_Driver/Src/stm32g4xx_hal_dma.c ****   * in the root directory of this software component.
  20:Drivers/STM32G4xx_HAL_Driver/Src/stm32g4xx_hal_dma.c ****   * If no LICENSE file comes with this software, it is provided AS-IS.
  21:Drivers/STM32G4xx_HAL_Driver/Src/stm32g4xx_hal_dma.c ****   *
  22:Drivers/STM32G4xx_HAL_Driver/Src/stm32g4xx_hal_dma.c ****   ******************************************************************************
  23:Drivers/STM32G4xx_HAL_Driver/Src/stm32g4xx_hal_dma.c ****   @verbatim
  24:Drivers/STM32G4xx_HAL_Driver/Src/stm32g4xx_hal_dma.c ****   ==============================================================================
  25:Drivers/STM32G4xx_HAL_Driver/Src/stm32g4xx_hal_dma.c ****                         ##### How to use this driver #####
  26:Drivers/STM32G4xx_HAL_Driver/Src/stm32g4xx_hal_dma.c ****   ==============================================================================
  27:Drivers/STM32G4xx_HAL_Driver/Src/stm32g4xx_hal_dma.c ****   [..]
  28:Drivers/STM32G4xx_HAL_Driver/Src/stm32g4xx_hal_dma.c ****    (#) Enable and configure the peripheral to be connected to the DMA Channel
ARM GAS  /tmp/ccQyu1mP.s 			page 2


  29:Drivers/STM32G4xx_HAL_Driver/Src/stm32g4xx_hal_dma.c ****        (except for internal SRAM / FLASH memories: no initialization is
  30:Drivers/STM32G4xx_HAL_Driver/Src/stm32g4xx_hal_dma.c ****        necessary). Please refer to the Reference manual for connection between peripherals
  31:Drivers/STM32G4xx_HAL_Driver/Src/stm32g4xx_hal_dma.c ****        and DMA requests.
  32:Drivers/STM32G4xx_HAL_Driver/Src/stm32g4xx_hal_dma.c **** 
  33:Drivers/STM32G4xx_HAL_Driver/Src/stm32g4xx_hal_dma.c ****    (#) For a given Channel, program the required configuration through the following parameters:
  34:Drivers/STM32G4xx_HAL_Driver/Src/stm32g4xx_hal_dma.c ****        Channel request, Transfer Direction, Source and Destination data formats,
  35:Drivers/STM32G4xx_HAL_Driver/Src/stm32g4xx_hal_dma.c ****        Circular or Normal mode, Channel Priority level, Source and Destination Increment mode
  36:Drivers/STM32G4xx_HAL_Driver/Src/stm32g4xx_hal_dma.c ****        using HAL_DMA_Init() function.
  37:Drivers/STM32G4xx_HAL_Driver/Src/stm32g4xx_hal_dma.c **** 
  38:Drivers/STM32G4xx_HAL_Driver/Src/stm32g4xx_hal_dma.c ****        Prior to HAL_DMA_Init the peripheral clock shall be enabled for both DMA & DMAMUX
  39:Drivers/STM32G4xx_HAL_Driver/Src/stm32g4xx_hal_dma.c ****        thanks to:
  40:Drivers/STM32G4xx_HAL_Driver/Src/stm32g4xx_hal_dma.c ****       (##) DMA1 or DMA2: __HAL_RCC_DMA1_CLK_ENABLE() or  __HAL_RCC_DMA2_CLK_ENABLE() ;
  41:Drivers/STM32G4xx_HAL_Driver/Src/stm32g4xx_hal_dma.c ****       (##) DMAMUX1:      __HAL_RCC_DMAMUX1_CLK_ENABLE();
  42:Drivers/STM32G4xx_HAL_Driver/Src/stm32g4xx_hal_dma.c **** 
  43:Drivers/STM32G4xx_HAL_Driver/Src/stm32g4xx_hal_dma.c ****    (#) Use HAL_DMA_GetState() function to return the DMA state and HAL_DMA_GetError() in case of er
  44:Drivers/STM32G4xx_HAL_Driver/Src/stm32g4xx_hal_dma.c ****        detection.
  45:Drivers/STM32G4xx_HAL_Driver/Src/stm32g4xx_hal_dma.c **** 
  46:Drivers/STM32G4xx_HAL_Driver/Src/stm32g4xx_hal_dma.c ****    (#) Use HAL_DMA_Abort() function to abort the current transfer
  47:Drivers/STM32G4xx_HAL_Driver/Src/stm32g4xx_hal_dma.c **** 
  48:Drivers/STM32G4xx_HAL_Driver/Src/stm32g4xx_hal_dma.c ****      -@-   In Memory-to-Memory transfer mode, Circular mode is not allowed.
  49:Drivers/STM32G4xx_HAL_Driver/Src/stm32g4xx_hal_dma.c **** 
  50:Drivers/STM32G4xx_HAL_Driver/Src/stm32g4xx_hal_dma.c ****      *** Polling mode IO operation ***
  51:Drivers/STM32G4xx_HAL_Driver/Src/stm32g4xx_hal_dma.c ****      =================================
  52:Drivers/STM32G4xx_HAL_Driver/Src/stm32g4xx_hal_dma.c ****     [..]
  53:Drivers/STM32G4xx_HAL_Driver/Src/stm32g4xx_hal_dma.c ****           (+) Use HAL_DMA_Start() to start DMA transfer after the configuration of Source
  54:Drivers/STM32G4xx_HAL_Driver/Src/stm32g4xx_hal_dma.c ****               address and destination address and the Length of data to be transferred
  55:Drivers/STM32G4xx_HAL_Driver/Src/stm32g4xx_hal_dma.c ****           (+) Use HAL_DMA_PollForTransfer() to poll for the end of current transfer, in this
  56:Drivers/STM32G4xx_HAL_Driver/Src/stm32g4xx_hal_dma.c ****               case a fixed Timeout can be configured by User depending from his application.
  57:Drivers/STM32G4xx_HAL_Driver/Src/stm32g4xx_hal_dma.c **** 
  58:Drivers/STM32G4xx_HAL_Driver/Src/stm32g4xx_hal_dma.c ****      *** Interrupt mode IO operation ***
  59:Drivers/STM32G4xx_HAL_Driver/Src/stm32g4xx_hal_dma.c ****      ===================================
  60:Drivers/STM32G4xx_HAL_Driver/Src/stm32g4xx_hal_dma.c ****     [..]
  61:Drivers/STM32G4xx_HAL_Driver/Src/stm32g4xx_hal_dma.c ****           (+) Configure the DMA interrupt priority using HAL_NVIC_SetPriority()
  62:Drivers/STM32G4xx_HAL_Driver/Src/stm32g4xx_hal_dma.c ****           (+) Enable the DMA IRQ handler using HAL_NVIC_EnableIRQ()
  63:Drivers/STM32G4xx_HAL_Driver/Src/stm32g4xx_hal_dma.c ****           (+) Use HAL_DMA_Start_IT() to start DMA transfer after the configuration of
  64:Drivers/STM32G4xx_HAL_Driver/Src/stm32g4xx_hal_dma.c ****               Source address and destination address and the Length of data to be transferred.
  65:Drivers/STM32G4xx_HAL_Driver/Src/stm32g4xx_hal_dma.c ****               In this case the DMA interrupt is configured
  66:Drivers/STM32G4xx_HAL_Driver/Src/stm32g4xx_hal_dma.c ****           (+) Use HAL_DMA_IRQHandler() called under DMA_IRQHandler() Interrupt subroutine
  67:Drivers/STM32G4xx_HAL_Driver/Src/stm32g4xx_hal_dma.c ****           (+) At the end of data transfer HAL_DMA_IRQHandler() function is executed and user can
  68:Drivers/STM32G4xx_HAL_Driver/Src/stm32g4xx_hal_dma.c ****               add his own function to register callbacks with HAL_DMA_RegisterCallback().
  69:Drivers/STM32G4xx_HAL_Driver/Src/stm32g4xx_hal_dma.c **** 
  70:Drivers/STM32G4xx_HAL_Driver/Src/stm32g4xx_hal_dma.c ****      *** DMA HAL driver macros list ***
  71:Drivers/STM32G4xx_HAL_Driver/Src/stm32g4xx_hal_dma.c ****      =============================================
  72:Drivers/STM32G4xx_HAL_Driver/Src/stm32g4xx_hal_dma.c ****       [..]
  73:Drivers/STM32G4xx_HAL_Driver/Src/stm32g4xx_hal_dma.c ****        Below the list of macros in DMA HAL driver.
  74:Drivers/STM32G4xx_HAL_Driver/Src/stm32g4xx_hal_dma.c **** 
  75:Drivers/STM32G4xx_HAL_Driver/Src/stm32g4xx_hal_dma.c ****        (+) __HAL_DMA_ENABLE: Enable the specified DMA Channel.
  76:Drivers/STM32G4xx_HAL_Driver/Src/stm32g4xx_hal_dma.c ****        (+) __HAL_DMA_DISABLE: Disable the specified DMA Channel.
  77:Drivers/STM32G4xx_HAL_Driver/Src/stm32g4xx_hal_dma.c ****        (+) __HAL_DMA_GET_FLAG: Get the DMA Channel pending flags.
  78:Drivers/STM32G4xx_HAL_Driver/Src/stm32g4xx_hal_dma.c ****        (+) __HAL_DMA_CLEAR_FLAG: Clear the DMA Channel pending flags.
  79:Drivers/STM32G4xx_HAL_Driver/Src/stm32g4xx_hal_dma.c ****        (+) __HAL_DMA_ENABLE_IT: Enable the specified DMA Channel interrupts.
  80:Drivers/STM32G4xx_HAL_Driver/Src/stm32g4xx_hal_dma.c ****        (+) __HAL_DMA_DISABLE_IT: Disable the specified DMA Channel interrupts.
  81:Drivers/STM32G4xx_HAL_Driver/Src/stm32g4xx_hal_dma.c ****        (+) __HAL_DMA_GET_IT_SOURCE: Check whether the specified DMA Channel interrupt has occurred 
  82:Drivers/STM32G4xx_HAL_Driver/Src/stm32g4xx_hal_dma.c **** 
  83:Drivers/STM32G4xx_HAL_Driver/Src/stm32g4xx_hal_dma.c ****      [..]
  84:Drivers/STM32G4xx_HAL_Driver/Src/stm32g4xx_hal_dma.c ****       (@) You can refer to the DMA HAL driver header file for more useful macros
  85:Drivers/STM32G4xx_HAL_Driver/Src/stm32g4xx_hal_dma.c **** 
ARM GAS  /tmp/ccQyu1mP.s 			page 3


  86:Drivers/STM32G4xx_HAL_Driver/Src/stm32g4xx_hal_dma.c ****   @endverbatim
  87:Drivers/STM32G4xx_HAL_Driver/Src/stm32g4xx_hal_dma.c ****   */
  88:Drivers/STM32G4xx_HAL_Driver/Src/stm32g4xx_hal_dma.c **** 
  89:Drivers/STM32G4xx_HAL_Driver/Src/stm32g4xx_hal_dma.c **** /* Includes ------------------------------------------------------------------*/
  90:Drivers/STM32G4xx_HAL_Driver/Src/stm32g4xx_hal_dma.c **** #include "stm32g4xx_hal.h"
  91:Drivers/STM32G4xx_HAL_Driver/Src/stm32g4xx_hal_dma.c **** 
  92:Drivers/STM32G4xx_HAL_Driver/Src/stm32g4xx_hal_dma.c **** /** @addtogroup STM32G4xx_HAL_Driver
  93:Drivers/STM32G4xx_HAL_Driver/Src/stm32g4xx_hal_dma.c ****   * @{
  94:Drivers/STM32G4xx_HAL_Driver/Src/stm32g4xx_hal_dma.c ****   */
  95:Drivers/STM32G4xx_HAL_Driver/Src/stm32g4xx_hal_dma.c **** 
  96:Drivers/STM32G4xx_HAL_Driver/Src/stm32g4xx_hal_dma.c **** /** @defgroup DMA DMA
  97:Drivers/STM32G4xx_HAL_Driver/Src/stm32g4xx_hal_dma.c ****   * @brief DMA HAL module driver
  98:Drivers/STM32G4xx_HAL_Driver/Src/stm32g4xx_hal_dma.c ****   * @{
  99:Drivers/STM32G4xx_HAL_Driver/Src/stm32g4xx_hal_dma.c ****   */
 100:Drivers/STM32G4xx_HAL_Driver/Src/stm32g4xx_hal_dma.c **** 
 101:Drivers/STM32G4xx_HAL_Driver/Src/stm32g4xx_hal_dma.c **** #ifdef HAL_DMA_MODULE_ENABLED
 102:Drivers/STM32G4xx_HAL_Driver/Src/stm32g4xx_hal_dma.c **** 
 103:Drivers/STM32G4xx_HAL_Driver/Src/stm32g4xx_hal_dma.c **** /* Private typedef -----------------------------------------------------------*/
 104:Drivers/STM32G4xx_HAL_Driver/Src/stm32g4xx_hal_dma.c **** /* Private define ------------------------------------------------------------*/
 105:Drivers/STM32G4xx_HAL_Driver/Src/stm32g4xx_hal_dma.c **** /* Private macro -------------------------------------------------------------*/
 106:Drivers/STM32G4xx_HAL_Driver/Src/stm32g4xx_hal_dma.c **** /* Private variables ---------------------------------------------------------*/
 107:Drivers/STM32G4xx_HAL_Driver/Src/stm32g4xx_hal_dma.c **** /* Private function prototypes -----------------------------------------------*/
 108:Drivers/STM32G4xx_HAL_Driver/Src/stm32g4xx_hal_dma.c **** /** @defgroup DMA_Private_Functions DMA Private Functions
 109:Drivers/STM32G4xx_HAL_Driver/Src/stm32g4xx_hal_dma.c ****   * @{
 110:Drivers/STM32G4xx_HAL_Driver/Src/stm32g4xx_hal_dma.c ****   */
 111:Drivers/STM32G4xx_HAL_Driver/Src/stm32g4xx_hal_dma.c **** static void DMA_SetConfig(DMA_HandleTypeDef *hdma, uint32_t SrcAddress, uint32_t DstAddress, uint32
 112:Drivers/STM32G4xx_HAL_Driver/Src/stm32g4xx_hal_dma.c **** 
 113:Drivers/STM32G4xx_HAL_Driver/Src/stm32g4xx_hal_dma.c **** static void DMA_CalcDMAMUXChannelBaseAndMask(DMA_HandleTypeDef *hdma);
 114:Drivers/STM32G4xx_HAL_Driver/Src/stm32g4xx_hal_dma.c **** static void DMA_CalcDMAMUXRequestGenBaseAndMask(DMA_HandleTypeDef *hdma);
 115:Drivers/STM32G4xx_HAL_Driver/Src/stm32g4xx_hal_dma.c **** 
 116:Drivers/STM32G4xx_HAL_Driver/Src/stm32g4xx_hal_dma.c **** /**
 117:Drivers/STM32G4xx_HAL_Driver/Src/stm32g4xx_hal_dma.c ****   * @}
 118:Drivers/STM32G4xx_HAL_Driver/Src/stm32g4xx_hal_dma.c ****   */
 119:Drivers/STM32G4xx_HAL_Driver/Src/stm32g4xx_hal_dma.c **** 
 120:Drivers/STM32G4xx_HAL_Driver/Src/stm32g4xx_hal_dma.c **** /* Exported functions ---------------------------------------------------------*/
 121:Drivers/STM32G4xx_HAL_Driver/Src/stm32g4xx_hal_dma.c **** 
 122:Drivers/STM32G4xx_HAL_Driver/Src/stm32g4xx_hal_dma.c **** /** @defgroup DMA_Exported_Functions DMA Exported Functions
 123:Drivers/STM32G4xx_HAL_Driver/Src/stm32g4xx_hal_dma.c ****   * @{
 124:Drivers/STM32G4xx_HAL_Driver/Src/stm32g4xx_hal_dma.c ****   */
 125:Drivers/STM32G4xx_HAL_Driver/Src/stm32g4xx_hal_dma.c **** 
 126:Drivers/STM32G4xx_HAL_Driver/Src/stm32g4xx_hal_dma.c **** /** @defgroup DMA_Exported_Functions_Group1 Initialization and de-initialization functions
 127:Drivers/STM32G4xx_HAL_Driver/Src/stm32g4xx_hal_dma.c ****   *  @brief   Initialization and de-initialization functions
 128:Drivers/STM32G4xx_HAL_Driver/Src/stm32g4xx_hal_dma.c ****   *
 129:Drivers/STM32G4xx_HAL_Driver/Src/stm32g4xx_hal_dma.c **** @verbatim
 130:Drivers/STM32G4xx_HAL_Driver/Src/stm32g4xx_hal_dma.c ****  ===============================================================================
 131:Drivers/STM32G4xx_HAL_Driver/Src/stm32g4xx_hal_dma.c ****              ##### Initialization and de-initialization functions  #####
 132:Drivers/STM32G4xx_HAL_Driver/Src/stm32g4xx_hal_dma.c ****  ===============================================================================
 133:Drivers/STM32G4xx_HAL_Driver/Src/stm32g4xx_hal_dma.c ****     [..]
 134:Drivers/STM32G4xx_HAL_Driver/Src/stm32g4xx_hal_dma.c ****     This section provides functions allowing to initialize the DMA Channel source
 135:Drivers/STM32G4xx_HAL_Driver/Src/stm32g4xx_hal_dma.c ****     and destination addresses, incrementation and data sizes, transfer direction,
 136:Drivers/STM32G4xx_HAL_Driver/Src/stm32g4xx_hal_dma.c ****     circular/normal mode selection, memory-to-memory mode selection and Channel priority value.
 137:Drivers/STM32G4xx_HAL_Driver/Src/stm32g4xx_hal_dma.c ****     [..]
 138:Drivers/STM32G4xx_HAL_Driver/Src/stm32g4xx_hal_dma.c ****     The HAL_DMA_Init() function follows the DMA configuration procedures as described in
 139:Drivers/STM32G4xx_HAL_Driver/Src/stm32g4xx_hal_dma.c ****     reference manual.
 140:Drivers/STM32G4xx_HAL_Driver/Src/stm32g4xx_hal_dma.c **** 
 141:Drivers/STM32G4xx_HAL_Driver/Src/stm32g4xx_hal_dma.c **** @endverbatim
 142:Drivers/STM32G4xx_HAL_Driver/Src/stm32g4xx_hal_dma.c ****   * @{
ARM GAS  /tmp/ccQyu1mP.s 			page 4


 143:Drivers/STM32G4xx_HAL_Driver/Src/stm32g4xx_hal_dma.c ****   */
 144:Drivers/STM32G4xx_HAL_Driver/Src/stm32g4xx_hal_dma.c **** 
 145:Drivers/STM32G4xx_HAL_Driver/Src/stm32g4xx_hal_dma.c **** /**
 146:Drivers/STM32G4xx_HAL_Driver/Src/stm32g4xx_hal_dma.c ****   * @brief  Initialize the DMA according to the specified
 147:Drivers/STM32G4xx_HAL_Driver/Src/stm32g4xx_hal_dma.c ****   *         parameters in the DMA_InitTypeDef and initialize the associated handle.
 148:Drivers/STM32G4xx_HAL_Driver/Src/stm32g4xx_hal_dma.c ****   * @param  hdma Pointer to a DMA_HandleTypeDef structure that contains
 149:Drivers/STM32G4xx_HAL_Driver/Src/stm32g4xx_hal_dma.c ****   *               the configuration information for the specified DMA Channel.
 150:Drivers/STM32G4xx_HAL_Driver/Src/stm32g4xx_hal_dma.c ****   * @retval HAL status
 151:Drivers/STM32G4xx_HAL_Driver/Src/stm32g4xx_hal_dma.c ****   */
 152:Drivers/STM32G4xx_HAL_Driver/Src/stm32g4xx_hal_dma.c **** HAL_StatusTypeDef HAL_DMA_Init(DMA_HandleTypeDef *hdma)
 153:Drivers/STM32G4xx_HAL_Driver/Src/stm32g4xx_hal_dma.c **** {
  31              		.loc 1 153 1 view -0
  32              		.cfi_startproc
  33              		@ args = 0, pretend = 0, frame = 0
  34              		@ frame_needed = 0, uses_anonymous_args = 0
 154:Drivers/STM32G4xx_HAL_Driver/Src/stm32g4xx_hal_dma.c ****   uint32_t tmp;
  35              		.loc 1 154 3 view .LVU1
 155:Drivers/STM32G4xx_HAL_Driver/Src/stm32g4xx_hal_dma.c **** 
 156:Drivers/STM32G4xx_HAL_Driver/Src/stm32g4xx_hal_dma.c ****   /* Check the DMA handle allocation */
 157:Drivers/STM32G4xx_HAL_Driver/Src/stm32g4xx_hal_dma.c ****   if (hdma == NULL)
  36              		.loc 1 157 3 view .LVU2
  37              		.loc 1 157 6 is_stmt 0 view .LVU3
  38 0000 0028     		cmp	r0, #0
  39 0002 7CD0     		beq	.L9
  40 0004 0346     		mov	r3, r0
 158:Drivers/STM32G4xx_HAL_Driver/Src/stm32g4xx_hal_dma.c ****   {
 159:Drivers/STM32G4xx_HAL_Driver/Src/stm32g4xx_hal_dma.c ****     return HAL_ERROR;
 160:Drivers/STM32G4xx_HAL_Driver/Src/stm32g4xx_hal_dma.c ****   }
 161:Drivers/STM32G4xx_HAL_Driver/Src/stm32g4xx_hal_dma.c **** 
 162:Drivers/STM32G4xx_HAL_Driver/Src/stm32g4xx_hal_dma.c ****   /* Check the parameters */
 163:Drivers/STM32G4xx_HAL_Driver/Src/stm32g4xx_hal_dma.c ****   assert_param(IS_DMA_ALL_INSTANCE(hdma->Instance));
  41              		.loc 1 163 3 is_stmt 1 view .LVU4
 164:Drivers/STM32G4xx_HAL_Driver/Src/stm32g4xx_hal_dma.c ****   assert_param(IS_DMA_DIRECTION(hdma->Init.Direction));
  42              		.loc 1 164 3 view .LVU5
 165:Drivers/STM32G4xx_HAL_Driver/Src/stm32g4xx_hal_dma.c ****   assert_param(IS_DMA_PERIPHERAL_INC_STATE(hdma->Init.PeriphInc));
  43              		.loc 1 165 3 view .LVU6
 166:Drivers/STM32G4xx_HAL_Driver/Src/stm32g4xx_hal_dma.c ****   assert_param(IS_DMA_MEMORY_INC_STATE(hdma->Init.MemInc));
  44              		.loc 1 166 3 view .LVU7
 167:Drivers/STM32G4xx_HAL_Driver/Src/stm32g4xx_hal_dma.c ****   assert_param(IS_DMA_PERIPHERAL_DATA_SIZE(hdma->Init.PeriphDataAlignment));
  45              		.loc 1 167 3 view .LVU8
 168:Drivers/STM32G4xx_HAL_Driver/Src/stm32g4xx_hal_dma.c ****   assert_param(IS_DMA_MEMORY_DATA_SIZE(hdma->Init.MemDataAlignment));
  46              		.loc 1 168 3 view .LVU9
 169:Drivers/STM32G4xx_HAL_Driver/Src/stm32g4xx_hal_dma.c ****   assert_param(IS_DMA_MODE(hdma->Init.Mode));
  47              		.loc 1 169 3 view .LVU10
 170:Drivers/STM32G4xx_HAL_Driver/Src/stm32g4xx_hal_dma.c ****   assert_param(IS_DMA_PRIORITY(hdma->Init.Priority));
  48              		.loc 1 170 3 view .LVU11
 171:Drivers/STM32G4xx_HAL_Driver/Src/stm32g4xx_hal_dma.c **** 
 172:Drivers/STM32G4xx_HAL_Driver/Src/stm32g4xx_hal_dma.c ****   assert_param(IS_DMA_ALL_REQUEST(hdma->Init.Request));
  49              		.loc 1 172 3 view .LVU12
 173:Drivers/STM32G4xx_HAL_Driver/Src/stm32g4xx_hal_dma.c **** 
 174:Drivers/STM32G4xx_HAL_Driver/Src/stm32g4xx_hal_dma.c ****   /* Compute the channel index */
 175:Drivers/STM32G4xx_HAL_Driver/Src/stm32g4xx_hal_dma.c ****   if ((uint32_t)(hdma->Instance) < (uint32_t)(DMA2_Channel1))
  50              		.loc 1 175 3 view .LVU13
  51              		.loc 1 175 6 is_stmt 0 view .LVU14
  52 0006 3F4A     		ldr	r2, .L18
  53              		.loc 1 175 22 view .LVU15
  54 0008 0068     		ldr	r0, [r0]
ARM GAS  /tmp/ccQyu1mP.s 			page 5


  55              	.LVL1:
  56              		.loc 1 175 6 view .LVU16
  57 000a 9042     		cmp	r0, r2
 153:Drivers/STM32G4xx_HAL_Driver/Src/stm32g4xx_hal_dma.c ****   uint32_t tmp;
  58              		.loc 1 153 1 view .LVU17
  59 000c 2DE9F041 		push	{r4, r5, r6, r7, r8, lr}
  60              	.LCFI0:
  61              		.cfi_def_cfa_offset 24
  62              		.cfi_offset 4, -24
  63              		.cfi_offset 5, -20
  64              		.cfi_offset 6, -16
  65              		.cfi_offset 7, -12
  66              		.cfi_offset 8, -8
  67              		.cfi_offset 14, -4
  68              		.loc 1 175 6 view .LVU18
  69 0010 61D9     		bls	.L16
 176:Drivers/STM32G4xx_HAL_Driver/Src/stm32g4xx_hal_dma.c ****   {
 177:Drivers/STM32G4xx_HAL_Driver/Src/stm32g4xx_hal_dma.c ****     /* DMA1 */
 178:Drivers/STM32G4xx_HAL_Driver/Src/stm32g4xx_hal_dma.c ****     hdma->ChannelIndex = (((uint32_t)hdma->Instance - (uint32_t)DMA1_Channel1) / ((uint32_t)DMA1_Ch
 179:Drivers/STM32G4xx_HAL_Driver/Src/stm32g4xx_hal_dma.c ****     hdma->DmaBaseAddress = DMA1;
 180:Drivers/STM32G4xx_HAL_Driver/Src/stm32g4xx_hal_dma.c ****   }
 181:Drivers/STM32G4xx_HAL_Driver/Src/stm32g4xx_hal_dma.c ****   else
 182:Drivers/STM32G4xx_HAL_Driver/Src/stm32g4xx_hal_dma.c ****   {
 183:Drivers/STM32G4xx_HAL_Driver/Src/stm32g4xx_hal_dma.c ****     /* DMA2 */
 184:Drivers/STM32G4xx_HAL_Driver/Src/stm32g4xx_hal_dma.c ****     hdma->ChannelIndex = (((uint32_t)hdma->Instance - (uint32_t)DMA2_Channel1) / ((uint32_t)DMA2_Ch
  70              		.loc 1 184 5 is_stmt 1 view .LVU19
  71              		.loc 1 184 53 is_stmt 0 view .LVU20
  72 0012 3D49     		ldr	r1, .L18+4
  73              		.loc 1 184 80 view .LVU21
  74 0014 3D4A     		ldr	r2, .L18+8
 185:Drivers/STM32G4xx_HAL_Driver/Src/stm32g4xx_hal_dma.c ****     hdma->DmaBaseAddress = DMA2;
  75              		.loc 1 185 26 view .LVU22
  76 0016 3E4C     		ldr	r4, .L18+12
 184:Drivers/STM32G4xx_HAL_Driver/Src/stm32g4xx_hal_dma.c ****     hdma->DmaBaseAddress = DMA2;
  77              		.loc 1 184 53 view .LVU23
  78 0018 0144     		add	r1, r1, r0
 184:Drivers/STM32G4xx_HAL_Driver/Src/stm32g4xx_hal_dma.c ****     hdma->DmaBaseAddress = DMA2;
  79              		.loc 1 184 80 view .LVU24
  80 001a A2FB0121 		umull	r2, r1, r2, r1
  81 001e 0909     		lsrs	r1, r1, #4
 184:Drivers/STM32G4xx_HAL_Driver/Src/stm32g4xx_hal_dma.c ****     hdma->DmaBaseAddress = DMA2;
  82              		.loc 1 184 135 view .LVU25
  83 0020 8900     		lsls	r1, r1, #2
  84              		.loc 1 185 5 is_stmt 1 view .LVU26
  85              	.L4:
 186:Drivers/STM32G4xx_HAL_Driver/Src/stm32g4xx_hal_dma.c ****   }
 187:Drivers/STM32G4xx_HAL_Driver/Src/stm32g4xx_hal_dma.c **** 
 188:Drivers/STM32G4xx_HAL_Driver/Src/stm32g4xx_hal_dma.c ****   /* Change DMA peripheral state */
 189:Drivers/STM32G4xx_HAL_Driver/Src/stm32g4xx_hal_dma.c ****   hdma->State = HAL_DMA_STATE_BUSY;
 190:Drivers/STM32G4xx_HAL_Driver/Src/stm32g4xx_hal_dma.c **** 
 191:Drivers/STM32G4xx_HAL_Driver/Src/stm32g4xx_hal_dma.c ****   /* Get the CR register value */
 192:Drivers/STM32G4xx_HAL_Driver/Src/stm32g4xx_hal_dma.c ****   tmp = hdma->Instance->CCR;
 193:Drivers/STM32G4xx_HAL_Driver/Src/stm32g4xx_hal_dma.c **** 
 194:Drivers/STM32G4xx_HAL_Driver/Src/stm32g4xx_hal_dma.c ****   /* Clear PL, MSIZE, PSIZE, MINC, PINC, CIRC, DIR and MEM2MEM bits */
 195:Drivers/STM32G4xx_HAL_Driver/Src/stm32g4xx_hal_dma.c ****   tmp &= ((uint32_t)~(DMA_CCR_PL    | DMA_CCR_MSIZE  | DMA_CCR_PSIZE  |
 196:Drivers/STM32G4xx_HAL_Driver/Src/stm32g4xx_hal_dma.c ****                       DMA_CCR_MINC  | DMA_CCR_PINC   | DMA_CCR_CIRC   |
 197:Drivers/STM32G4xx_HAL_Driver/Src/stm32g4xx_hal_dma.c ****                       DMA_CCR_DIR   | DMA_CCR_MEM2MEM));
ARM GAS  /tmp/ccQyu1mP.s 			page 6


 198:Drivers/STM32G4xx_HAL_Driver/Src/stm32g4xx_hal_dma.c **** 
 199:Drivers/STM32G4xx_HAL_Driver/Src/stm32g4xx_hal_dma.c ****   /* Prepare the DMA Channel configuration */
 200:Drivers/STM32G4xx_HAL_Driver/Src/stm32g4xx_hal_dma.c ****   tmp |=  hdma->Init.Direction        |
  86              		.loc 1 200 39 is_stmt 0 view .LVU27
  87 0022 D3E90272 		ldrd	r7, r2, [r3, #8]
 201:Drivers/STM32G4xx_HAL_Driver/Src/stm32g4xx_hal_dma.c ****           hdma->Init.PeriphInc           | hdma->Init.MemInc           |
  88              		.loc 1 201 42 view .LVU28
  89 0026 1E69     		ldr	r6, [r3, #16]
  90 0028 1C64     		str	r4, [r3, #64]
 200:Drivers/STM32G4xx_HAL_Driver/Src/stm32g4xx_hal_dma.c ****           hdma->Init.PeriphInc           | hdma->Init.MemInc           |
  91              		.loc 1 200 39 view .LVU29
  92 002a 3A43     		orrs	r2, r2, r7
  93              		.loc 1 201 72 view .LVU30
  94 002c 5C69     		ldr	r4, [r3, #20]
 202:Drivers/STM32G4xx_HAL_Driver/Src/stm32g4xx_hal_dma.c ****           hdma->Init.PeriphDataAlignment | hdma->Init.MemDataAlignment |
  95              		.loc 1 202 42 view .LVU31
  96 002e 9D69     		ldr	r5, [r3, #24]
  97              	.LBB14:
  98              	.LBB15:
 203:Drivers/STM32G4xx_HAL_Driver/Src/stm32g4xx_hal_dma.c ****           hdma->Init.Mode                | hdma->Init.Priority;
 204:Drivers/STM32G4xx_HAL_Driver/Src/stm32g4xx_hal_dma.c **** 
 205:Drivers/STM32G4xx_HAL_Driver/Src/stm32g4xx_hal_dma.c ****   /* Write to DMA Channel CR register */
 206:Drivers/STM32G4xx_HAL_Driver/Src/stm32g4xx_hal_dma.c ****   hdma->Instance->CCR = tmp;
 207:Drivers/STM32G4xx_HAL_Driver/Src/stm32g4xx_hal_dma.c **** 
 208:Drivers/STM32G4xx_HAL_Driver/Src/stm32g4xx_hal_dma.c ****   /* Initialize parameters for DMAMUX channel :
 209:Drivers/STM32G4xx_HAL_Driver/Src/stm32g4xx_hal_dma.c ****      DMAmuxChannel, DMAmuxChannelStatus and DMAmuxChannelStatusMask
 210:Drivers/STM32G4xx_HAL_Driver/Src/stm32g4xx_hal_dma.c ****   */
 211:Drivers/STM32G4xx_HAL_Driver/Src/stm32g4xx_hal_dma.c ****   DMA_CalcDMAMUXChannelBaseAndMask(hdma);
 212:Drivers/STM32G4xx_HAL_Driver/Src/stm32g4xx_hal_dma.c **** 
 213:Drivers/STM32G4xx_HAL_Driver/Src/stm32g4xx_hal_dma.c ****   if (hdma->Init.Direction == DMA_MEMORY_TO_MEMORY)
 214:Drivers/STM32G4xx_HAL_Driver/Src/stm32g4xx_hal_dma.c ****   {
 215:Drivers/STM32G4xx_HAL_Driver/Src/stm32g4xx_hal_dma.c ****     /* if memory to memory force the request to 0*/
 216:Drivers/STM32G4xx_HAL_Driver/Src/stm32g4xx_hal_dma.c ****     hdma->Init.Request = DMA_REQUEST_MEM2MEM;
 217:Drivers/STM32G4xx_HAL_Driver/Src/stm32g4xx_hal_dma.c ****   }
 218:Drivers/STM32G4xx_HAL_Driver/Src/stm32g4xx_hal_dma.c **** 
 219:Drivers/STM32G4xx_HAL_Driver/Src/stm32g4xx_hal_dma.c ****   /* Set peripheral request  to DMAMUX channel */
 220:Drivers/STM32G4xx_HAL_Driver/Src/stm32g4xx_hal_dma.c ****   hdma->DMAmuxChannel->CCR = (hdma->Init.Request & DMAMUX_CxCR_DMAREQ_ID);
 221:Drivers/STM32G4xx_HAL_Driver/Src/stm32g4xx_hal_dma.c **** 
 222:Drivers/STM32G4xx_HAL_Driver/Src/stm32g4xx_hal_dma.c ****   /* Clear the DMAMUX synchro overrun flag */
 223:Drivers/STM32G4xx_HAL_Driver/Src/stm32g4xx_hal_dma.c ****   hdma->DMAmuxChannelStatus->CFR = hdma->DMAmuxChannelStatusMask;
 224:Drivers/STM32G4xx_HAL_Driver/Src/stm32g4xx_hal_dma.c **** 
 225:Drivers/STM32G4xx_HAL_Driver/Src/stm32g4xx_hal_dma.c ****   if (((hdma->Init.Request >  0U) && (hdma->Init.Request <= DMA_REQUEST_GENERATOR3)))
 226:Drivers/STM32G4xx_HAL_Driver/Src/stm32g4xx_hal_dma.c ****   {
 227:Drivers/STM32G4xx_HAL_Driver/Src/stm32g4xx_hal_dma.c ****     /* Initialize parameters for DMAMUX request generator :
 228:Drivers/STM32G4xx_HAL_Driver/Src/stm32g4xx_hal_dma.c ****        DMAmuxRequestGen, DMAmuxRequestGenStatus and DMAmuxRequestGenStatusMask
 229:Drivers/STM32G4xx_HAL_Driver/Src/stm32g4xx_hal_dma.c ****     */
 230:Drivers/STM32G4xx_HAL_Driver/Src/stm32g4xx_hal_dma.c ****     DMA_CalcDMAMUXRequestGenBaseAndMask(hdma);
 231:Drivers/STM32G4xx_HAL_Driver/Src/stm32g4xx_hal_dma.c **** 
 232:Drivers/STM32G4xx_HAL_Driver/Src/stm32g4xx_hal_dma.c ****     /* Reset the DMAMUX request generator register*/
 233:Drivers/STM32G4xx_HAL_Driver/Src/stm32g4xx_hal_dma.c ****     hdma->DMAmuxRequestGen->RGCR = 0U;
 234:Drivers/STM32G4xx_HAL_Driver/Src/stm32g4xx_hal_dma.c **** 
 235:Drivers/STM32G4xx_HAL_Driver/Src/stm32g4xx_hal_dma.c ****     /* Clear the DMAMUX request generator overrun flag */
 236:Drivers/STM32G4xx_HAL_Driver/Src/stm32g4xx_hal_dma.c ****     hdma->DMAmuxRequestGenStatus->RGCFR = hdma->DMAmuxRequestGenStatusMask;
 237:Drivers/STM32G4xx_HAL_Driver/Src/stm32g4xx_hal_dma.c ****   }
 238:Drivers/STM32G4xx_HAL_Driver/Src/stm32g4xx_hal_dma.c ****   else
 239:Drivers/STM32G4xx_HAL_Driver/Src/stm32g4xx_hal_dma.c ****   {
 240:Drivers/STM32G4xx_HAL_Driver/Src/stm32g4xx_hal_dma.c ****     hdma->DMAmuxRequestGen = 0U;
ARM GAS  /tmp/ccQyu1mP.s 			page 7


 241:Drivers/STM32G4xx_HAL_Driver/Src/stm32g4xx_hal_dma.c ****     hdma->DMAmuxRequestGenStatus = 0U;
 242:Drivers/STM32G4xx_HAL_Driver/Src/stm32g4xx_hal_dma.c ****     hdma->DMAmuxRequestGenStatusMask = 0U;
 243:Drivers/STM32G4xx_HAL_Driver/Src/stm32g4xx_hal_dma.c ****   }
 244:Drivers/STM32G4xx_HAL_Driver/Src/stm32g4xx_hal_dma.c **** 
 245:Drivers/STM32G4xx_HAL_Driver/Src/stm32g4xx_hal_dma.c ****   /* Initialize the error code */
 246:Drivers/STM32G4xx_HAL_Driver/Src/stm32g4xx_hal_dma.c ****   hdma->ErrorCode = HAL_DMA_ERROR_NONE;
 247:Drivers/STM32G4xx_HAL_Driver/Src/stm32g4xx_hal_dma.c **** 
 248:Drivers/STM32G4xx_HAL_Driver/Src/stm32g4xx_hal_dma.c ****   /* Initialize the DMA state*/
 249:Drivers/STM32G4xx_HAL_Driver/Src/stm32g4xx_hal_dma.c ****   hdma->State  = HAL_DMA_STATE_READY;
 250:Drivers/STM32G4xx_HAL_Driver/Src/stm32g4xx_hal_dma.c **** 
 251:Drivers/STM32G4xx_HAL_Driver/Src/stm32g4xx_hal_dma.c ****   /* Allocate lock resource and initialize it */
 252:Drivers/STM32G4xx_HAL_Driver/Src/stm32g4xx_hal_dma.c ****   hdma->Lock = HAL_UNLOCKED;
 253:Drivers/STM32G4xx_HAL_Driver/Src/stm32g4xx_hal_dma.c **** 
 254:Drivers/STM32G4xx_HAL_Driver/Src/stm32g4xx_hal_dma.c ****   return HAL_OK;
 255:Drivers/STM32G4xx_HAL_Driver/Src/stm32g4xx_hal_dma.c **** }
 256:Drivers/STM32G4xx_HAL_Driver/Src/stm32g4xx_hal_dma.c **** 
 257:Drivers/STM32G4xx_HAL_Driver/Src/stm32g4xx_hal_dma.c **** /**
 258:Drivers/STM32G4xx_HAL_Driver/Src/stm32g4xx_hal_dma.c ****   * @brief  DeInitialize the DMA peripheral.
 259:Drivers/STM32G4xx_HAL_Driver/Src/stm32g4xx_hal_dma.c ****   * @param  hdma pointer to a DMA_HandleTypeDef structure that contains
 260:Drivers/STM32G4xx_HAL_Driver/Src/stm32g4xx_hal_dma.c ****   *               the configuration information for the specified DMA Channel.
 261:Drivers/STM32G4xx_HAL_Driver/Src/stm32g4xx_hal_dma.c ****   * @retval HAL status
 262:Drivers/STM32G4xx_HAL_Driver/Src/stm32g4xx_hal_dma.c ****   */
 263:Drivers/STM32G4xx_HAL_Driver/Src/stm32g4xx_hal_dma.c **** HAL_StatusTypeDef HAL_DMA_DeInit(DMA_HandleTypeDef *hdma)
 264:Drivers/STM32G4xx_HAL_Driver/Src/stm32g4xx_hal_dma.c **** {
 265:Drivers/STM32G4xx_HAL_Driver/Src/stm32g4xx_hal_dma.c **** 
 266:Drivers/STM32G4xx_HAL_Driver/Src/stm32g4xx_hal_dma.c ****   /* Check the DMA handle allocation */
 267:Drivers/STM32G4xx_HAL_Driver/Src/stm32g4xx_hal_dma.c ****   if (NULL == hdma)
 268:Drivers/STM32G4xx_HAL_Driver/Src/stm32g4xx_hal_dma.c ****   {
 269:Drivers/STM32G4xx_HAL_Driver/Src/stm32g4xx_hal_dma.c ****     return HAL_ERROR;
 270:Drivers/STM32G4xx_HAL_Driver/Src/stm32g4xx_hal_dma.c ****   }
 271:Drivers/STM32G4xx_HAL_Driver/Src/stm32g4xx_hal_dma.c **** 
 272:Drivers/STM32G4xx_HAL_Driver/Src/stm32g4xx_hal_dma.c ****   /* Check the parameters */
 273:Drivers/STM32G4xx_HAL_Driver/Src/stm32g4xx_hal_dma.c ****   assert_param(IS_DMA_ALL_INSTANCE(hdma->Instance));
 274:Drivers/STM32G4xx_HAL_Driver/Src/stm32g4xx_hal_dma.c **** 
 275:Drivers/STM32G4xx_HAL_Driver/Src/stm32g4xx_hal_dma.c ****   /* Disable the selected DMA Channelx */
 276:Drivers/STM32G4xx_HAL_Driver/Src/stm32g4xx_hal_dma.c ****   __HAL_DMA_DISABLE(hdma);
 277:Drivers/STM32G4xx_HAL_Driver/Src/stm32g4xx_hal_dma.c **** 
 278:Drivers/STM32G4xx_HAL_Driver/Src/stm32g4xx_hal_dma.c ****   /* Compute the channel index */
 279:Drivers/STM32G4xx_HAL_Driver/Src/stm32g4xx_hal_dma.c ****   if ((uint32_t)(hdma->Instance) < (uint32_t)(DMA2_Channel1))
 280:Drivers/STM32G4xx_HAL_Driver/Src/stm32g4xx_hal_dma.c ****   {
 281:Drivers/STM32G4xx_HAL_Driver/Src/stm32g4xx_hal_dma.c ****     /* DMA1 */
 282:Drivers/STM32G4xx_HAL_Driver/Src/stm32g4xx_hal_dma.c ****     hdma->ChannelIndex = (((uint32_t)hdma->Instance - (uint32_t)DMA1_Channel1) / ((uint32_t)DMA1_Ch
 283:Drivers/STM32G4xx_HAL_Driver/Src/stm32g4xx_hal_dma.c ****     hdma->DmaBaseAddress = DMA1;
 284:Drivers/STM32G4xx_HAL_Driver/Src/stm32g4xx_hal_dma.c ****   }
 285:Drivers/STM32G4xx_HAL_Driver/Src/stm32g4xx_hal_dma.c ****   else
 286:Drivers/STM32G4xx_HAL_Driver/Src/stm32g4xx_hal_dma.c ****   {
 287:Drivers/STM32G4xx_HAL_Driver/Src/stm32g4xx_hal_dma.c ****     /* DMA2 */
 288:Drivers/STM32G4xx_HAL_Driver/Src/stm32g4xx_hal_dma.c ****     hdma->ChannelIndex = (((uint32_t)hdma->Instance - (uint32_t)DMA2_Channel1) / ((uint32_t)DMA2_Ch
 289:Drivers/STM32G4xx_HAL_Driver/Src/stm32g4xx_hal_dma.c ****     hdma->DmaBaseAddress = DMA2;
 290:Drivers/STM32G4xx_HAL_Driver/Src/stm32g4xx_hal_dma.c ****   }
 291:Drivers/STM32G4xx_HAL_Driver/Src/stm32g4xx_hal_dma.c **** 
 292:Drivers/STM32G4xx_HAL_Driver/Src/stm32g4xx_hal_dma.c ****   /* Reset DMA Channel control register */
 293:Drivers/STM32G4xx_HAL_Driver/Src/stm32g4xx_hal_dma.c ****   hdma->Instance->CCR  = 0;
 294:Drivers/STM32G4xx_HAL_Driver/Src/stm32g4xx_hal_dma.c **** 
 295:Drivers/STM32G4xx_HAL_Driver/Src/stm32g4xx_hal_dma.c ****   /* Clear all flags */
 296:Drivers/STM32G4xx_HAL_Driver/Src/stm32g4xx_hal_dma.c ****   hdma->DmaBaseAddress->IFCR = (DMA_ISR_GIF1 << (hdma->ChannelIndex & 0x1FU));
 297:Drivers/STM32G4xx_HAL_Driver/Src/stm32g4xx_hal_dma.c **** 
ARM GAS  /tmp/ccQyu1mP.s 			page 8


 298:Drivers/STM32G4xx_HAL_Driver/Src/stm32g4xx_hal_dma.c ****   /* Initialize parameters for DMAMUX channel :
 299:Drivers/STM32G4xx_HAL_Driver/Src/stm32g4xx_hal_dma.c ****      DMAmuxChannel, DMAmuxChannelStatus and DMAmuxChannelStatusMask */
 300:Drivers/STM32G4xx_HAL_Driver/Src/stm32g4xx_hal_dma.c **** 
 301:Drivers/STM32G4xx_HAL_Driver/Src/stm32g4xx_hal_dma.c ****   DMA_CalcDMAMUXChannelBaseAndMask(hdma);
 302:Drivers/STM32G4xx_HAL_Driver/Src/stm32g4xx_hal_dma.c **** 
 303:Drivers/STM32G4xx_HAL_Driver/Src/stm32g4xx_hal_dma.c ****   /* Reset the DMAMUX channel that corresponds to the DMA channel */
 304:Drivers/STM32G4xx_HAL_Driver/Src/stm32g4xx_hal_dma.c ****   hdma->DMAmuxChannel->CCR = 0;
 305:Drivers/STM32G4xx_HAL_Driver/Src/stm32g4xx_hal_dma.c **** 
 306:Drivers/STM32G4xx_HAL_Driver/Src/stm32g4xx_hal_dma.c ****   /* Clear the DMAMUX synchro overrun flag */
 307:Drivers/STM32G4xx_HAL_Driver/Src/stm32g4xx_hal_dma.c ****   hdma->DMAmuxChannelStatus->CFR = hdma->DMAmuxChannelStatusMask;
 308:Drivers/STM32G4xx_HAL_Driver/Src/stm32g4xx_hal_dma.c **** 
 309:Drivers/STM32G4xx_HAL_Driver/Src/stm32g4xx_hal_dma.c ****   /* Reset Request generator parameters if any */
 310:Drivers/STM32G4xx_HAL_Driver/Src/stm32g4xx_hal_dma.c ****   if (((hdma->Init.Request >  0U) && (hdma->Init.Request <= DMA_REQUEST_GENERATOR3)))
 311:Drivers/STM32G4xx_HAL_Driver/Src/stm32g4xx_hal_dma.c ****   {
 312:Drivers/STM32G4xx_HAL_Driver/Src/stm32g4xx_hal_dma.c ****     /* Initialize parameters for DMAMUX request generator :
 313:Drivers/STM32G4xx_HAL_Driver/Src/stm32g4xx_hal_dma.c ****        DMAmuxRequestGen, DMAmuxRequestGenStatus and DMAmuxRequestGenStatusMask
 314:Drivers/STM32G4xx_HAL_Driver/Src/stm32g4xx_hal_dma.c ****     */
 315:Drivers/STM32G4xx_HAL_Driver/Src/stm32g4xx_hal_dma.c ****     DMA_CalcDMAMUXRequestGenBaseAndMask(hdma);
 316:Drivers/STM32G4xx_HAL_Driver/Src/stm32g4xx_hal_dma.c **** 
 317:Drivers/STM32G4xx_HAL_Driver/Src/stm32g4xx_hal_dma.c ****     /* Reset the DMAMUX request generator register*/
 318:Drivers/STM32G4xx_HAL_Driver/Src/stm32g4xx_hal_dma.c ****     hdma->DMAmuxRequestGen->RGCR = 0U;
 319:Drivers/STM32G4xx_HAL_Driver/Src/stm32g4xx_hal_dma.c **** 
 320:Drivers/STM32G4xx_HAL_Driver/Src/stm32g4xx_hal_dma.c ****     /* Clear the DMAMUX request generator overrun flag */
 321:Drivers/STM32G4xx_HAL_Driver/Src/stm32g4xx_hal_dma.c ****     hdma->DMAmuxRequestGenStatus->RGCFR = hdma->DMAmuxRequestGenStatusMask;
 322:Drivers/STM32G4xx_HAL_Driver/Src/stm32g4xx_hal_dma.c ****   }
 323:Drivers/STM32G4xx_HAL_Driver/Src/stm32g4xx_hal_dma.c **** 
 324:Drivers/STM32G4xx_HAL_Driver/Src/stm32g4xx_hal_dma.c ****   hdma->DMAmuxRequestGen = 0U;
 325:Drivers/STM32G4xx_HAL_Driver/Src/stm32g4xx_hal_dma.c ****   hdma->DMAmuxRequestGenStatus = 0U;
 326:Drivers/STM32G4xx_HAL_Driver/Src/stm32g4xx_hal_dma.c ****   hdma->DMAmuxRequestGenStatusMask = 0U;
 327:Drivers/STM32G4xx_HAL_Driver/Src/stm32g4xx_hal_dma.c **** 
 328:Drivers/STM32G4xx_HAL_Driver/Src/stm32g4xx_hal_dma.c ****   /* Clean callbacks */
 329:Drivers/STM32G4xx_HAL_Driver/Src/stm32g4xx_hal_dma.c ****   hdma->XferCpltCallback = NULL;
 330:Drivers/STM32G4xx_HAL_Driver/Src/stm32g4xx_hal_dma.c ****   hdma->XferHalfCpltCallback = NULL;
 331:Drivers/STM32G4xx_HAL_Driver/Src/stm32g4xx_hal_dma.c ****   hdma->XferErrorCallback = NULL;
 332:Drivers/STM32G4xx_HAL_Driver/Src/stm32g4xx_hal_dma.c ****   hdma->XferAbortCallback = NULL;
 333:Drivers/STM32G4xx_HAL_Driver/Src/stm32g4xx_hal_dma.c **** 
 334:Drivers/STM32G4xx_HAL_Driver/Src/stm32g4xx_hal_dma.c ****   /* Initialize the error code */
 335:Drivers/STM32G4xx_HAL_Driver/Src/stm32g4xx_hal_dma.c ****   hdma->ErrorCode = HAL_DMA_ERROR_NONE;
 336:Drivers/STM32G4xx_HAL_Driver/Src/stm32g4xx_hal_dma.c **** 
 337:Drivers/STM32G4xx_HAL_Driver/Src/stm32g4xx_hal_dma.c ****   /* Initialize the DMA state */
 338:Drivers/STM32G4xx_HAL_Driver/Src/stm32g4xx_hal_dma.c ****   hdma->State = HAL_DMA_STATE_RESET;
 339:Drivers/STM32G4xx_HAL_Driver/Src/stm32g4xx_hal_dma.c **** 
 340:Drivers/STM32G4xx_HAL_Driver/Src/stm32g4xx_hal_dma.c ****   /* Release Lock */
 341:Drivers/STM32G4xx_HAL_Driver/Src/stm32g4xx_hal_dma.c ****   __HAL_UNLOCK(hdma);
 342:Drivers/STM32G4xx_HAL_Driver/Src/stm32g4xx_hal_dma.c **** 
 343:Drivers/STM32G4xx_HAL_Driver/Src/stm32g4xx_hal_dma.c ****   return HAL_OK;
 344:Drivers/STM32G4xx_HAL_Driver/Src/stm32g4xx_hal_dma.c **** }
 345:Drivers/STM32G4xx_HAL_Driver/Src/stm32g4xx_hal_dma.c **** 
 346:Drivers/STM32G4xx_HAL_Driver/Src/stm32g4xx_hal_dma.c **** /**
 347:Drivers/STM32G4xx_HAL_Driver/Src/stm32g4xx_hal_dma.c ****   * @}
 348:Drivers/STM32G4xx_HAL_Driver/Src/stm32g4xx_hal_dma.c ****   */
 349:Drivers/STM32G4xx_HAL_Driver/Src/stm32g4xx_hal_dma.c **** 
 350:Drivers/STM32G4xx_HAL_Driver/Src/stm32g4xx_hal_dma.c **** /** @defgroup DMA_Exported_Functions_Group2 Input and Output operation functions
 351:Drivers/STM32G4xx_HAL_Driver/Src/stm32g4xx_hal_dma.c ****   *  @brief   Input and Output operation functions
 352:Drivers/STM32G4xx_HAL_Driver/Src/stm32g4xx_hal_dma.c ****   *
 353:Drivers/STM32G4xx_HAL_Driver/Src/stm32g4xx_hal_dma.c **** @verbatim
 354:Drivers/STM32G4xx_HAL_Driver/Src/stm32g4xx_hal_dma.c ****  ===============================================================================
ARM GAS  /tmp/ccQyu1mP.s 			page 9


 355:Drivers/STM32G4xx_HAL_Driver/Src/stm32g4xx_hal_dma.c ****                       #####  IO operation functions  #####
 356:Drivers/STM32G4xx_HAL_Driver/Src/stm32g4xx_hal_dma.c ****  ===============================================================================
 357:Drivers/STM32G4xx_HAL_Driver/Src/stm32g4xx_hal_dma.c ****     [..]  This section provides functions allowing to:
 358:Drivers/STM32G4xx_HAL_Driver/Src/stm32g4xx_hal_dma.c ****       (+) Configure the source, destination address and data length and Start DMA transfer
 359:Drivers/STM32G4xx_HAL_Driver/Src/stm32g4xx_hal_dma.c ****       (+) Configure the source, destination address and data length and
 360:Drivers/STM32G4xx_HAL_Driver/Src/stm32g4xx_hal_dma.c ****           Start DMA transfer with interrupt
 361:Drivers/STM32G4xx_HAL_Driver/Src/stm32g4xx_hal_dma.c ****       (+) Abort DMA transfer
 362:Drivers/STM32G4xx_HAL_Driver/Src/stm32g4xx_hal_dma.c ****       (+) Poll for transfer complete
 363:Drivers/STM32G4xx_HAL_Driver/Src/stm32g4xx_hal_dma.c ****       (+) Handle DMA interrupt request
 364:Drivers/STM32G4xx_HAL_Driver/Src/stm32g4xx_hal_dma.c **** 
 365:Drivers/STM32G4xx_HAL_Driver/Src/stm32g4xx_hal_dma.c **** @endverbatim
 366:Drivers/STM32G4xx_HAL_Driver/Src/stm32g4xx_hal_dma.c ****   * @{
 367:Drivers/STM32G4xx_HAL_Driver/Src/stm32g4xx_hal_dma.c ****   */
 368:Drivers/STM32G4xx_HAL_Driver/Src/stm32g4xx_hal_dma.c **** 
 369:Drivers/STM32G4xx_HAL_Driver/Src/stm32g4xx_hal_dma.c **** /**
 370:Drivers/STM32G4xx_HAL_Driver/Src/stm32g4xx_hal_dma.c ****   * @brief  Start the DMA Transfer.
 371:Drivers/STM32G4xx_HAL_Driver/Src/stm32g4xx_hal_dma.c ****   * @param  hdma pointer to a DMA_HandleTypeDef structure that contains
 372:Drivers/STM32G4xx_HAL_Driver/Src/stm32g4xx_hal_dma.c ****   *               the configuration information for the specified DMA Channel.
 373:Drivers/STM32G4xx_HAL_Driver/Src/stm32g4xx_hal_dma.c ****   * @param  SrcAddress The source memory Buffer address
 374:Drivers/STM32G4xx_HAL_Driver/Src/stm32g4xx_hal_dma.c ****   * @param  DstAddress The destination memory Buffer address
 375:Drivers/STM32G4xx_HAL_Driver/Src/stm32g4xx_hal_dma.c ****   * @param  DataLength The length of data to be transferred from source to destination (up to 256Kb
 376:Drivers/STM32G4xx_HAL_Driver/Src/stm32g4xx_hal_dma.c ****   * @retval HAL status
 377:Drivers/STM32G4xx_HAL_Driver/Src/stm32g4xx_hal_dma.c ****   */
 378:Drivers/STM32G4xx_HAL_Driver/Src/stm32g4xx_hal_dma.c **** HAL_StatusTypeDef HAL_DMA_Start(DMA_HandleTypeDef *hdma, uint32_t SrcAddress, uint32_t DstAddress, 
 379:Drivers/STM32G4xx_HAL_Driver/Src/stm32g4xx_hal_dma.c **** {
 380:Drivers/STM32G4xx_HAL_Driver/Src/stm32g4xx_hal_dma.c ****   HAL_StatusTypeDef status = HAL_OK;
 381:Drivers/STM32G4xx_HAL_Driver/Src/stm32g4xx_hal_dma.c **** 
 382:Drivers/STM32G4xx_HAL_Driver/Src/stm32g4xx_hal_dma.c ****   /* Check the parameters */
 383:Drivers/STM32G4xx_HAL_Driver/Src/stm32g4xx_hal_dma.c ****   assert_param(IS_DMA_BUFFER_SIZE(DataLength));
 384:Drivers/STM32G4xx_HAL_Driver/Src/stm32g4xx_hal_dma.c **** 
 385:Drivers/STM32G4xx_HAL_Driver/Src/stm32g4xx_hal_dma.c ****   /* Process locked */
 386:Drivers/STM32G4xx_HAL_Driver/Src/stm32g4xx_hal_dma.c ****   __HAL_LOCK(hdma);
 387:Drivers/STM32G4xx_HAL_Driver/Src/stm32g4xx_hal_dma.c **** 
 388:Drivers/STM32G4xx_HAL_Driver/Src/stm32g4xx_hal_dma.c ****   if (HAL_DMA_STATE_READY == hdma->State)
 389:Drivers/STM32G4xx_HAL_Driver/Src/stm32g4xx_hal_dma.c ****   {
 390:Drivers/STM32G4xx_HAL_Driver/Src/stm32g4xx_hal_dma.c ****     /* Change DMA peripheral state */
 391:Drivers/STM32G4xx_HAL_Driver/Src/stm32g4xx_hal_dma.c ****     hdma->State = HAL_DMA_STATE_BUSY;
 392:Drivers/STM32G4xx_HAL_Driver/Src/stm32g4xx_hal_dma.c ****     hdma->ErrorCode = HAL_DMA_ERROR_NONE;
 393:Drivers/STM32G4xx_HAL_Driver/Src/stm32g4xx_hal_dma.c **** 
 394:Drivers/STM32G4xx_HAL_Driver/Src/stm32g4xx_hal_dma.c ****     /* Disable the peripheral */
 395:Drivers/STM32G4xx_HAL_Driver/Src/stm32g4xx_hal_dma.c ****     __HAL_DMA_DISABLE(hdma);
 396:Drivers/STM32G4xx_HAL_Driver/Src/stm32g4xx_hal_dma.c **** 
 397:Drivers/STM32G4xx_HAL_Driver/Src/stm32g4xx_hal_dma.c ****     /* Configure the source, destination address and the data length & clear flags*/
 398:Drivers/STM32G4xx_HAL_Driver/Src/stm32g4xx_hal_dma.c ****     DMA_SetConfig(hdma, SrcAddress, DstAddress, DataLength);
 399:Drivers/STM32G4xx_HAL_Driver/Src/stm32g4xx_hal_dma.c **** 
 400:Drivers/STM32G4xx_HAL_Driver/Src/stm32g4xx_hal_dma.c ****     /* Enable the Peripheral */
 401:Drivers/STM32G4xx_HAL_Driver/Src/stm32g4xx_hal_dma.c ****     __HAL_DMA_ENABLE(hdma);
 402:Drivers/STM32G4xx_HAL_Driver/Src/stm32g4xx_hal_dma.c ****   }
 403:Drivers/STM32G4xx_HAL_Driver/Src/stm32g4xx_hal_dma.c ****   else
 404:Drivers/STM32G4xx_HAL_Driver/Src/stm32g4xx_hal_dma.c ****   {
 405:Drivers/STM32G4xx_HAL_Driver/Src/stm32g4xx_hal_dma.c ****     /* Process Unlocked */
 406:Drivers/STM32G4xx_HAL_Driver/Src/stm32g4xx_hal_dma.c ****     __HAL_UNLOCK(hdma);
 407:Drivers/STM32G4xx_HAL_Driver/Src/stm32g4xx_hal_dma.c ****     status = HAL_BUSY;
 408:Drivers/STM32G4xx_HAL_Driver/Src/stm32g4xx_hal_dma.c ****   }
 409:Drivers/STM32G4xx_HAL_Driver/Src/stm32g4xx_hal_dma.c ****   return status;
 410:Drivers/STM32G4xx_HAL_Driver/Src/stm32g4xx_hal_dma.c **** }
 411:Drivers/STM32G4xx_HAL_Driver/Src/stm32g4xx_hal_dma.c **** 
ARM GAS  /tmp/ccQyu1mP.s 			page 10


 412:Drivers/STM32G4xx_HAL_Driver/Src/stm32g4xx_hal_dma.c **** /**
 413:Drivers/STM32G4xx_HAL_Driver/Src/stm32g4xx_hal_dma.c ****   * @brief  Start the DMA Transfer with interrupt enabled.
 414:Drivers/STM32G4xx_HAL_Driver/Src/stm32g4xx_hal_dma.c ****   * @param  hdma pointer to a DMA_HandleTypeDef structure that contains
 415:Drivers/STM32G4xx_HAL_Driver/Src/stm32g4xx_hal_dma.c ****   *               the configuration information for the specified DMA Channel.
 416:Drivers/STM32G4xx_HAL_Driver/Src/stm32g4xx_hal_dma.c ****   * @param  SrcAddress The source memory Buffer address
 417:Drivers/STM32G4xx_HAL_Driver/Src/stm32g4xx_hal_dma.c ****   * @param  DstAddress The destination memory Buffer address
 418:Drivers/STM32G4xx_HAL_Driver/Src/stm32g4xx_hal_dma.c ****   * @param  DataLength The length of data to be transferred from source to destination (up to 256Kb
 419:Drivers/STM32G4xx_HAL_Driver/Src/stm32g4xx_hal_dma.c ****   * @retval HAL status
 420:Drivers/STM32G4xx_HAL_Driver/Src/stm32g4xx_hal_dma.c ****   */
 421:Drivers/STM32G4xx_HAL_Driver/Src/stm32g4xx_hal_dma.c **** HAL_StatusTypeDef HAL_DMA_Start_IT(DMA_HandleTypeDef *hdma, uint32_t SrcAddress, uint32_t DstAddres
 422:Drivers/STM32G4xx_HAL_Driver/Src/stm32g4xx_hal_dma.c ****                                    uint32_t DataLength)
 423:Drivers/STM32G4xx_HAL_Driver/Src/stm32g4xx_hal_dma.c **** {
 424:Drivers/STM32G4xx_HAL_Driver/Src/stm32g4xx_hal_dma.c ****   HAL_StatusTypeDef status = HAL_OK;
 425:Drivers/STM32G4xx_HAL_Driver/Src/stm32g4xx_hal_dma.c **** 
 426:Drivers/STM32G4xx_HAL_Driver/Src/stm32g4xx_hal_dma.c ****   /* Check the parameters */
 427:Drivers/STM32G4xx_HAL_Driver/Src/stm32g4xx_hal_dma.c ****   assert_param(IS_DMA_BUFFER_SIZE(DataLength));
 428:Drivers/STM32G4xx_HAL_Driver/Src/stm32g4xx_hal_dma.c **** 
 429:Drivers/STM32G4xx_HAL_Driver/Src/stm32g4xx_hal_dma.c ****   /* Process locked */
 430:Drivers/STM32G4xx_HAL_Driver/Src/stm32g4xx_hal_dma.c ****   __HAL_LOCK(hdma);
 431:Drivers/STM32G4xx_HAL_Driver/Src/stm32g4xx_hal_dma.c **** 
 432:Drivers/STM32G4xx_HAL_Driver/Src/stm32g4xx_hal_dma.c ****   if (HAL_DMA_STATE_READY == hdma->State)
 433:Drivers/STM32G4xx_HAL_Driver/Src/stm32g4xx_hal_dma.c ****   {
 434:Drivers/STM32G4xx_HAL_Driver/Src/stm32g4xx_hal_dma.c ****     /* Change DMA peripheral state */
 435:Drivers/STM32G4xx_HAL_Driver/Src/stm32g4xx_hal_dma.c ****     hdma->State = HAL_DMA_STATE_BUSY;
 436:Drivers/STM32G4xx_HAL_Driver/Src/stm32g4xx_hal_dma.c ****     hdma->ErrorCode = HAL_DMA_ERROR_NONE;
 437:Drivers/STM32G4xx_HAL_Driver/Src/stm32g4xx_hal_dma.c **** 
 438:Drivers/STM32G4xx_HAL_Driver/Src/stm32g4xx_hal_dma.c ****     /* Disable the peripheral */
 439:Drivers/STM32G4xx_HAL_Driver/Src/stm32g4xx_hal_dma.c ****     __HAL_DMA_DISABLE(hdma);
 440:Drivers/STM32G4xx_HAL_Driver/Src/stm32g4xx_hal_dma.c **** 
 441:Drivers/STM32G4xx_HAL_Driver/Src/stm32g4xx_hal_dma.c ****     /* Configure the source, destination address and the data length & clear flags*/
 442:Drivers/STM32G4xx_HAL_Driver/Src/stm32g4xx_hal_dma.c ****     DMA_SetConfig(hdma, SrcAddress, DstAddress, DataLength);
 443:Drivers/STM32G4xx_HAL_Driver/Src/stm32g4xx_hal_dma.c **** 
 444:Drivers/STM32G4xx_HAL_Driver/Src/stm32g4xx_hal_dma.c ****     /* Enable the transfer complete interrupt */
 445:Drivers/STM32G4xx_HAL_Driver/Src/stm32g4xx_hal_dma.c ****     /* Enable the transfer Error interrupt */
 446:Drivers/STM32G4xx_HAL_Driver/Src/stm32g4xx_hal_dma.c ****     if (NULL != hdma->XferHalfCpltCallback)
 447:Drivers/STM32G4xx_HAL_Driver/Src/stm32g4xx_hal_dma.c ****     {
 448:Drivers/STM32G4xx_HAL_Driver/Src/stm32g4xx_hal_dma.c ****       /* Enable the Half transfer complete interrupt as well */
 449:Drivers/STM32G4xx_HAL_Driver/Src/stm32g4xx_hal_dma.c ****       __HAL_DMA_ENABLE_IT(hdma, (DMA_IT_TC | DMA_IT_HT | DMA_IT_TE));
 450:Drivers/STM32G4xx_HAL_Driver/Src/stm32g4xx_hal_dma.c ****     }
 451:Drivers/STM32G4xx_HAL_Driver/Src/stm32g4xx_hal_dma.c ****     else
 452:Drivers/STM32G4xx_HAL_Driver/Src/stm32g4xx_hal_dma.c ****     {
 453:Drivers/STM32G4xx_HAL_Driver/Src/stm32g4xx_hal_dma.c ****       __HAL_DMA_DISABLE_IT(hdma, DMA_IT_HT);
 454:Drivers/STM32G4xx_HAL_Driver/Src/stm32g4xx_hal_dma.c ****       __HAL_DMA_ENABLE_IT(hdma, (DMA_IT_TC | DMA_IT_TE));
 455:Drivers/STM32G4xx_HAL_Driver/Src/stm32g4xx_hal_dma.c ****     }
 456:Drivers/STM32G4xx_HAL_Driver/Src/stm32g4xx_hal_dma.c **** 
 457:Drivers/STM32G4xx_HAL_Driver/Src/stm32g4xx_hal_dma.c ****     /* Check if DMAMUX Synchronization is enabled*/
 458:Drivers/STM32G4xx_HAL_Driver/Src/stm32g4xx_hal_dma.c ****     if ((hdma->DMAmuxChannel->CCR & DMAMUX_CxCR_SE) != 0U)
 459:Drivers/STM32G4xx_HAL_Driver/Src/stm32g4xx_hal_dma.c ****     {
 460:Drivers/STM32G4xx_HAL_Driver/Src/stm32g4xx_hal_dma.c ****       /* Enable DMAMUX sync overrun IT*/
 461:Drivers/STM32G4xx_HAL_Driver/Src/stm32g4xx_hal_dma.c ****       hdma->DMAmuxChannel->CCR |= DMAMUX_CxCR_SOIE;
 462:Drivers/STM32G4xx_HAL_Driver/Src/stm32g4xx_hal_dma.c ****     }
 463:Drivers/STM32G4xx_HAL_Driver/Src/stm32g4xx_hal_dma.c **** 
 464:Drivers/STM32G4xx_HAL_Driver/Src/stm32g4xx_hal_dma.c ****     if (hdma->DMAmuxRequestGen != 0U)
 465:Drivers/STM32G4xx_HAL_Driver/Src/stm32g4xx_hal_dma.c ****     {
 466:Drivers/STM32G4xx_HAL_Driver/Src/stm32g4xx_hal_dma.c ****       /* if using DMAMUX request generator, enable the DMAMUX request generator overrun IT*/
 467:Drivers/STM32G4xx_HAL_Driver/Src/stm32g4xx_hal_dma.c ****       /* enable the request gen overrun IT*/
 468:Drivers/STM32G4xx_HAL_Driver/Src/stm32g4xx_hal_dma.c ****       hdma->DMAmuxRequestGen->RGCR |= DMAMUX_RGxCR_OIE;
ARM GAS  /tmp/ccQyu1mP.s 			page 11


 469:Drivers/STM32G4xx_HAL_Driver/Src/stm32g4xx_hal_dma.c ****     }
 470:Drivers/STM32G4xx_HAL_Driver/Src/stm32g4xx_hal_dma.c **** 
 471:Drivers/STM32G4xx_HAL_Driver/Src/stm32g4xx_hal_dma.c ****     /* Enable the Peripheral */
 472:Drivers/STM32G4xx_HAL_Driver/Src/stm32g4xx_hal_dma.c ****     __HAL_DMA_ENABLE(hdma);
 473:Drivers/STM32G4xx_HAL_Driver/Src/stm32g4xx_hal_dma.c ****   }
 474:Drivers/STM32G4xx_HAL_Driver/Src/stm32g4xx_hal_dma.c ****   else
 475:Drivers/STM32G4xx_HAL_Driver/Src/stm32g4xx_hal_dma.c ****   {
 476:Drivers/STM32G4xx_HAL_Driver/Src/stm32g4xx_hal_dma.c ****     /* Process Unlocked */
 477:Drivers/STM32G4xx_HAL_Driver/Src/stm32g4xx_hal_dma.c ****     __HAL_UNLOCK(hdma);
 478:Drivers/STM32G4xx_HAL_Driver/Src/stm32g4xx_hal_dma.c **** 
 479:Drivers/STM32G4xx_HAL_Driver/Src/stm32g4xx_hal_dma.c ****     /* Remain BUSY */
 480:Drivers/STM32G4xx_HAL_Driver/Src/stm32g4xx_hal_dma.c ****     status = HAL_BUSY;
 481:Drivers/STM32G4xx_HAL_Driver/Src/stm32g4xx_hal_dma.c ****   }
 482:Drivers/STM32G4xx_HAL_Driver/Src/stm32g4xx_hal_dma.c ****   return status;
 483:Drivers/STM32G4xx_HAL_Driver/Src/stm32g4xx_hal_dma.c **** }
 484:Drivers/STM32G4xx_HAL_Driver/Src/stm32g4xx_hal_dma.c **** 
 485:Drivers/STM32G4xx_HAL_Driver/Src/stm32g4xx_hal_dma.c **** /**
 486:Drivers/STM32G4xx_HAL_Driver/Src/stm32g4xx_hal_dma.c ****   * @brief  Abort the DMA Transfer.
 487:Drivers/STM32G4xx_HAL_Driver/Src/stm32g4xx_hal_dma.c ****   * @param  hdma pointer to a DMA_HandleTypeDef structure that contains
 488:Drivers/STM32G4xx_HAL_Driver/Src/stm32g4xx_hal_dma.c ****   *               the configuration information for the specified DMA Channel.
 489:Drivers/STM32G4xx_HAL_Driver/Src/stm32g4xx_hal_dma.c ****     * @retval HAL status
 490:Drivers/STM32G4xx_HAL_Driver/Src/stm32g4xx_hal_dma.c ****   */
 491:Drivers/STM32G4xx_HAL_Driver/Src/stm32g4xx_hal_dma.c **** HAL_StatusTypeDef HAL_DMA_Abort(DMA_HandleTypeDef *hdma)
 492:Drivers/STM32G4xx_HAL_Driver/Src/stm32g4xx_hal_dma.c **** {
 493:Drivers/STM32G4xx_HAL_Driver/Src/stm32g4xx_hal_dma.c ****   HAL_StatusTypeDef status = HAL_OK;
 494:Drivers/STM32G4xx_HAL_Driver/Src/stm32g4xx_hal_dma.c **** 
 495:Drivers/STM32G4xx_HAL_Driver/Src/stm32g4xx_hal_dma.c ****   if(hdma->State != HAL_DMA_STATE_BUSY)
 496:Drivers/STM32G4xx_HAL_Driver/Src/stm32g4xx_hal_dma.c ****   {
 497:Drivers/STM32G4xx_HAL_Driver/Src/stm32g4xx_hal_dma.c ****     /* no transfer ongoing */
 498:Drivers/STM32G4xx_HAL_Driver/Src/stm32g4xx_hal_dma.c ****     hdma->ErrorCode = HAL_DMA_ERROR_NO_XFER;
 499:Drivers/STM32G4xx_HAL_Driver/Src/stm32g4xx_hal_dma.c **** 
 500:Drivers/STM32G4xx_HAL_Driver/Src/stm32g4xx_hal_dma.c ****     status = HAL_ERROR;
 501:Drivers/STM32G4xx_HAL_Driver/Src/stm32g4xx_hal_dma.c ****   }
 502:Drivers/STM32G4xx_HAL_Driver/Src/stm32g4xx_hal_dma.c ****   else
 503:Drivers/STM32G4xx_HAL_Driver/Src/stm32g4xx_hal_dma.c ****   {
 504:Drivers/STM32G4xx_HAL_Driver/Src/stm32g4xx_hal_dma.c ****      /* Disable DMA IT */
 505:Drivers/STM32G4xx_HAL_Driver/Src/stm32g4xx_hal_dma.c ****      __HAL_DMA_DISABLE_IT(hdma, (DMA_IT_TC | DMA_IT_HT | DMA_IT_TE));
 506:Drivers/STM32G4xx_HAL_Driver/Src/stm32g4xx_hal_dma.c ****      
 507:Drivers/STM32G4xx_HAL_Driver/Src/stm32g4xx_hal_dma.c ****      /* disable the DMAMUX sync overrun IT*/
 508:Drivers/STM32G4xx_HAL_Driver/Src/stm32g4xx_hal_dma.c ****      hdma->DMAmuxChannel->CCR &= ~DMAMUX_CxCR_SOIE;
 509:Drivers/STM32G4xx_HAL_Driver/Src/stm32g4xx_hal_dma.c ****      
 510:Drivers/STM32G4xx_HAL_Driver/Src/stm32g4xx_hal_dma.c ****      /* Disable the channel */
 511:Drivers/STM32G4xx_HAL_Driver/Src/stm32g4xx_hal_dma.c ****      __HAL_DMA_DISABLE(hdma);
 512:Drivers/STM32G4xx_HAL_Driver/Src/stm32g4xx_hal_dma.c ****      
 513:Drivers/STM32G4xx_HAL_Driver/Src/stm32g4xx_hal_dma.c ****      /* Clear all flags */
 514:Drivers/STM32G4xx_HAL_Driver/Src/stm32g4xx_hal_dma.c ****      hdma->DmaBaseAddress->IFCR = (DMA_ISR_GIF1 << (hdma->ChannelIndex & 0x1FU));
 515:Drivers/STM32G4xx_HAL_Driver/Src/stm32g4xx_hal_dma.c ****      
 516:Drivers/STM32G4xx_HAL_Driver/Src/stm32g4xx_hal_dma.c ****      /* Clear the DMAMUX synchro overrun flag */
 517:Drivers/STM32G4xx_HAL_Driver/Src/stm32g4xx_hal_dma.c ****      hdma->DMAmuxChannelStatus->CFR = hdma->DMAmuxChannelStatusMask;
 518:Drivers/STM32G4xx_HAL_Driver/Src/stm32g4xx_hal_dma.c ****      
 519:Drivers/STM32G4xx_HAL_Driver/Src/stm32g4xx_hal_dma.c ****      if (hdma->DMAmuxRequestGen != 0U)
 520:Drivers/STM32G4xx_HAL_Driver/Src/stm32g4xx_hal_dma.c ****      {
 521:Drivers/STM32G4xx_HAL_Driver/Src/stm32g4xx_hal_dma.c ****        /* if using DMAMUX request generator, disable the DMAMUX request generator overrun IT*/
 522:Drivers/STM32G4xx_HAL_Driver/Src/stm32g4xx_hal_dma.c ****        /* disable the request gen overrun IT*/
 523:Drivers/STM32G4xx_HAL_Driver/Src/stm32g4xx_hal_dma.c ****        hdma->DMAmuxRequestGen->RGCR &= ~DMAMUX_RGxCR_OIE;
 524:Drivers/STM32G4xx_HAL_Driver/Src/stm32g4xx_hal_dma.c ****      
 525:Drivers/STM32G4xx_HAL_Driver/Src/stm32g4xx_hal_dma.c ****        /* Clear the DMAMUX request generator overrun flag */
ARM GAS  /tmp/ccQyu1mP.s 			page 12


 526:Drivers/STM32G4xx_HAL_Driver/Src/stm32g4xx_hal_dma.c ****        hdma->DMAmuxRequestGenStatus->RGCFR = hdma->DMAmuxRequestGenStatusMask;
 527:Drivers/STM32G4xx_HAL_Driver/Src/stm32g4xx_hal_dma.c ****      }
 528:Drivers/STM32G4xx_HAL_Driver/Src/stm32g4xx_hal_dma.c ****   }  
 529:Drivers/STM32G4xx_HAL_Driver/Src/stm32g4xx_hal_dma.c ****   /* Change the DMA state */
 530:Drivers/STM32G4xx_HAL_Driver/Src/stm32g4xx_hal_dma.c ****   hdma->State = HAL_DMA_STATE_READY;
 531:Drivers/STM32G4xx_HAL_Driver/Src/stm32g4xx_hal_dma.c **** 
 532:Drivers/STM32G4xx_HAL_Driver/Src/stm32g4xx_hal_dma.c ****   /* Process Unlocked */
 533:Drivers/STM32G4xx_HAL_Driver/Src/stm32g4xx_hal_dma.c ****   __HAL_UNLOCK(hdma);
 534:Drivers/STM32G4xx_HAL_Driver/Src/stm32g4xx_hal_dma.c **** 
 535:Drivers/STM32G4xx_HAL_Driver/Src/stm32g4xx_hal_dma.c ****   return status;
 536:Drivers/STM32G4xx_HAL_Driver/Src/stm32g4xx_hal_dma.c **** }
 537:Drivers/STM32G4xx_HAL_Driver/Src/stm32g4xx_hal_dma.c **** 
 538:Drivers/STM32G4xx_HAL_Driver/Src/stm32g4xx_hal_dma.c **** /**
 539:Drivers/STM32G4xx_HAL_Driver/Src/stm32g4xx_hal_dma.c ****   * @brief  Aborts the DMA Transfer in Interrupt mode.
 540:Drivers/STM32G4xx_HAL_Driver/Src/stm32g4xx_hal_dma.c ****   * @param  hdma pointer to a DMA_HandleTypeDef structure that contains
 541:Drivers/STM32G4xx_HAL_Driver/Src/stm32g4xx_hal_dma.c ****   *              the configuration information for the specified DMA Channel.
 542:Drivers/STM32G4xx_HAL_Driver/Src/stm32g4xx_hal_dma.c ****   * @retval HAL status
 543:Drivers/STM32G4xx_HAL_Driver/Src/stm32g4xx_hal_dma.c ****   */
 544:Drivers/STM32G4xx_HAL_Driver/Src/stm32g4xx_hal_dma.c **** HAL_StatusTypeDef HAL_DMA_Abort_IT(DMA_HandleTypeDef *hdma)
 545:Drivers/STM32G4xx_HAL_Driver/Src/stm32g4xx_hal_dma.c **** {
 546:Drivers/STM32G4xx_HAL_Driver/Src/stm32g4xx_hal_dma.c ****   HAL_StatusTypeDef status = HAL_OK;
 547:Drivers/STM32G4xx_HAL_Driver/Src/stm32g4xx_hal_dma.c **** 
 548:Drivers/STM32G4xx_HAL_Driver/Src/stm32g4xx_hal_dma.c ****   if (HAL_DMA_STATE_BUSY != hdma->State)
 549:Drivers/STM32G4xx_HAL_Driver/Src/stm32g4xx_hal_dma.c ****   {
 550:Drivers/STM32G4xx_HAL_Driver/Src/stm32g4xx_hal_dma.c ****     /* no transfer ongoing */
 551:Drivers/STM32G4xx_HAL_Driver/Src/stm32g4xx_hal_dma.c ****     hdma->ErrorCode = HAL_DMA_ERROR_NO_XFER;
 552:Drivers/STM32G4xx_HAL_Driver/Src/stm32g4xx_hal_dma.c **** 
 553:Drivers/STM32G4xx_HAL_Driver/Src/stm32g4xx_hal_dma.c ****     /* Change the DMA state */
 554:Drivers/STM32G4xx_HAL_Driver/Src/stm32g4xx_hal_dma.c ****     hdma->State = HAL_DMA_STATE_READY;
 555:Drivers/STM32G4xx_HAL_Driver/Src/stm32g4xx_hal_dma.c **** 
 556:Drivers/STM32G4xx_HAL_Driver/Src/stm32g4xx_hal_dma.c ****     /* Process Unlocked */
 557:Drivers/STM32G4xx_HAL_Driver/Src/stm32g4xx_hal_dma.c ****     __HAL_UNLOCK(hdma);
 558:Drivers/STM32G4xx_HAL_Driver/Src/stm32g4xx_hal_dma.c **** 
 559:Drivers/STM32G4xx_HAL_Driver/Src/stm32g4xx_hal_dma.c ****     status = HAL_ERROR;
 560:Drivers/STM32G4xx_HAL_Driver/Src/stm32g4xx_hal_dma.c ****   }
 561:Drivers/STM32G4xx_HAL_Driver/Src/stm32g4xx_hal_dma.c ****   else
 562:Drivers/STM32G4xx_HAL_Driver/Src/stm32g4xx_hal_dma.c ****   {
 563:Drivers/STM32G4xx_HAL_Driver/Src/stm32g4xx_hal_dma.c ****     /* Disable DMA IT */
 564:Drivers/STM32G4xx_HAL_Driver/Src/stm32g4xx_hal_dma.c ****     __HAL_DMA_DISABLE_IT(hdma, (DMA_IT_TC | DMA_IT_HT | DMA_IT_TE));
 565:Drivers/STM32G4xx_HAL_Driver/Src/stm32g4xx_hal_dma.c **** 
 566:Drivers/STM32G4xx_HAL_Driver/Src/stm32g4xx_hal_dma.c ****     /* Disable the channel */
 567:Drivers/STM32G4xx_HAL_Driver/Src/stm32g4xx_hal_dma.c ****     __HAL_DMA_DISABLE(hdma);
 568:Drivers/STM32G4xx_HAL_Driver/Src/stm32g4xx_hal_dma.c **** 
 569:Drivers/STM32G4xx_HAL_Driver/Src/stm32g4xx_hal_dma.c ****     /* disable the DMAMUX sync overrun IT*/
 570:Drivers/STM32G4xx_HAL_Driver/Src/stm32g4xx_hal_dma.c ****     hdma->DMAmuxChannel->CCR &= ~DMAMUX_CxCR_SOIE;
 571:Drivers/STM32G4xx_HAL_Driver/Src/stm32g4xx_hal_dma.c **** 
 572:Drivers/STM32G4xx_HAL_Driver/Src/stm32g4xx_hal_dma.c ****     /* Clear all flags */
 573:Drivers/STM32G4xx_HAL_Driver/Src/stm32g4xx_hal_dma.c ****     hdma->DmaBaseAddress->IFCR = (DMA_ISR_GIF1 << (hdma->ChannelIndex & 0x1FU));
 574:Drivers/STM32G4xx_HAL_Driver/Src/stm32g4xx_hal_dma.c **** 
 575:Drivers/STM32G4xx_HAL_Driver/Src/stm32g4xx_hal_dma.c ****     /* Clear the DMAMUX synchro overrun flag */
 576:Drivers/STM32G4xx_HAL_Driver/Src/stm32g4xx_hal_dma.c ****     hdma->DMAmuxChannelStatus->CFR = hdma->DMAmuxChannelStatusMask;
 577:Drivers/STM32G4xx_HAL_Driver/Src/stm32g4xx_hal_dma.c **** 
 578:Drivers/STM32G4xx_HAL_Driver/Src/stm32g4xx_hal_dma.c ****     if (hdma->DMAmuxRequestGen != 0U)
 579:Drivers/STM32G4xx_HAL_Driver/Src/stm32g4xx_hal_dma.c ****     {
 580:Drivers/STM32G4xx_HAL_Driver/Src/stm32g4xx_hal_dma.c ****       /* if using DMAMUX request generator, disable the DMAMUX request generator overrun IT*/
 581:Drivers/STM32G4xx_HAL_Driver/Src/stm32g4xx_hal_dma.c ****       /* disable the request gen overrun IT*/
 582:Drivers/STM32G4xx_HAL_Driver/Src/stm32g4xx_hal_dma.c ****       hdma->DMAmuxRequestGen->RGCR &= ~DMAMUX_RGxCR_OIE;
ARM GAS  /tmp/ccQyu1mP.s 			page 13


 583:Drivers/STM32G4xx_HAL_Driver/Src/stm32g4xx_hal_dma.c **** 
 584:Drivers/STM32G4xx_HAL_Driver/Src/stm32g4xx_hal_dma.c ****       /* Clear the DMAMUX request generator overrun flag */
 585:Drivers/STM32G4xx_HAL_Driver/Src/stm32g4xx_hal_dma.c ****       hdma->DMAmuxRequestGenStatus->RGCFR = hdma->DMAmuxRequestGenStatusMask;
 586:Drivers/STM32G4xx_HAL_Driver/Src/stm32g4xx_hal_dma.c ****     }
 587:Drivers/STM32G4xx_HAL_Driver/Src/stm32g4xx_hal_dma.c **** 
 588:Drivers/STM32G4xx_HAL_Driver/Src/stm32g4xx_hal_dma.c ****     /* Change the DMA state */
 589:Drivers/STM32G4xx_HAL_Driver/Src/stm32g4xx_hal_dma.c ****     hdma->State = HAL_DMA_STATE_READY;
 590:Drivers/STM32G4xx_HAL_Driver/Src/stm32g4xx_hal_dma.c **** 
 591:Drivers/STM32G4xx_HAL_Driver/Src/stm32g4xx_hal_dma.c ****     /* Process Unlocked */
 592:Drivers/STM32G4xx_HAL_Driver/Src/stm32g4xx_hal_dma.c ****     __HAL_UNLOCK(hdma);
 593:Drivers/STM32G4xx_HAL_Driver/Src/stm32g4xx_hal_dma.c **** 
 594:Drivers/STM32G4xx_HAL_Driver/Src/stm32g4xx_hal_dma.c ****     /* Call User Abort callback */
 595:Drivers/STM32G4xx_HAL_Driver/Src/stm32g4xx_hal_dma.c ****     if (hdma->XferAbortCallback != NULL)
 596:Drivers/STM32G4xx_HAL_Driver/Src/stm32g4xx_hal_dma.c ****     {
 597:Drivers/STM32G4xx_HAL_Driver/Src/stm32g4xx_hal_dma.c ****       hdma->XferAbortCallback(hdma);
 598:Drivers/STM32G4xx_HAL_Driver/Src/stm32g4xx_hal_dma.c ****     }
 599:Drivers/STM32G4xx_HAL_Driver/Src/stm32g4xx_hal_dma.c ****   }
 600:Drivers/STM32G4xx_HAL_Driver/Src/stm32g4xx_hal_dma.c ****   return status;
 601:Drivers/STM32G4xx_HAL_Driver/Src/stm32g4xx_hal_dma.c **** }
 602:Drivers/STM32G4xx_HAL_Driver/Src/stm32g4xx_hal_dma.c **** 
 603:Drivers/STM32G4xx_HAL_Driver/Src/stm32g4xx_hal_dma.c **** /**
 604:Drivers/STM32G4xx_HAL_Driver/Src/stm32g4xx_hal_dma.c ****   * @brief  Polling for transfer complete.
 605:Drivers/STM32G4xx_HAL_Driver/Src/stm32g4xx_hal_dma.c ****   * @param  hdma pointer to a DMA_HandleTypeDef structure that contains
 606:Drivers/STM32G4xx_HAL_Driver/Src/stm32g4xx_hal_dma.c ****   *              the configuration information for the specified DMA Channel.
 607:Drivers/STM32G4xx_HAL_Driver/Src/stm32g4xx_hal_dma.c ****   * @param  CompleteLevel Specifies the DMA level complete.
 608:Drivers/STM32G4xx_HAL_Driver/Src/stm32g4xx_hal_dma.c ****   * @param  Timeout       Timeout duration.
 609:Drivers/STM32G4xx_HAL_Driver/Src/stm32g4xx_hal_dma.c ****   * @retval HAL status
 610:Drivers/STM32G4xx_HAL_Driver/Src/stm32g4xx_hal_dma.c ****   */
 611:Drivers/STM32G4xx_HAL_Driver/Src/stm32g4xx_hal_dma.c **** HAL_StatusTypeDef HAL_DMA_PollForTransfer(DMA_HandleTypeDef *hdma, HAL_DMA_LevelCompleteTypeDef Com
 612:Drivers/STM32G4xx_HAL_Driver/Src/stm32g4xx_hal_dma.c ****                                           uint32_t Timeout)
 613:Drivers/STM32G4xx_HAL_Driver/Src/stm32g4xx_hal_dma.c **** {
 614:Drivers/STM32G4xx_HAL_Driver/Src/stm32g4xx_hal_dma.c ****   uint32_t temp;
 615:Drivers/STM32G4xx_HAL_Driver/Src/stm32g4xx_hal_dma.c ****   uint32_t tickstart;
 616:Drivers/STM32G4xx_HAL_Driver/Src/stm32g4xx_hal_dma.c **** 
 617:Drivers/STM32G4xx_HAL_Driver/Src/stm32g4xx_hal_dma.c ****   if (HAL_DMA_STATE_BUSY != hdma->State)
 618:Drivers/STM32G4xx_HAL_Driver/Src/stm32g4xx_hal_dma.c ****   {
 619:Drivers/STM32G4xx_HAL_Driver/Src/stm32g4xx_hal_dma.c ****     /* no transfer ongoing */
 620:Drivers/STM32G4xx_HAL_Driver/Src/stm32g4xx_hal_dma.c ****     hdma->ErrorCode = HAL_DMA_ERROR_NO_XFER;
 621:Drivers/STM32G4xx_HAL_Driver/Src/stm32g4xx_hal_dma.c ****     __HAL_UNLOCK(hdma);
 622:Drivers/STM32G4xx_HAL_Driver/Src/stm32g4xx_hal_dma.c ****     return HAL_ERROR;
 623:Drivers/STM32G4xx_HAL_Driver/Src/stm32g4xx_hal_dma.c ****   }
 624:Drivers/STM32G4xx_HAL_Driver/Src/stm32g4xx_hal_dma.c **** 
 625:Drivers/STM32G4xx_HAL_Driver/Src/stm32g4xx_hal_dma.c ****   /* Polling mode not supported in circular mode */
 626:Drivers/STM32G4xx_HAL_Driver/Src/stm32g4xx_hal_dma.c ****   if (0U != (hdma->Instance->CCR & DMA_CCR_CIRC))
 627:Drivers/STM32G4xx_HAL_Driver/Src/stm32g4xx_hal_dma.c ****   {
 628:Drivers/STM32G4xx_HAL_Driver/Src/stm32g4xx_hal_dma.c ****     hdma->ErrorCode = HAL_DMA_ERROR_NOT_SUPPORTED;
 629:Drivers/STM32G4xx_HAL_Driver/Src/stm32g4xx_hal_dma.c ****     return HAL_ERROR;
 630:Drivers/STM32G4xx_HAL_Driver/Src/stm32g4xx_hal_dma.c ****   }
 631:Drivers/STM32G4xx_HAL_Driver/Src/stm32g4xx_hal_dma.c **** 
 632:Drivers/STM32G4xx_HAL_Driver/Src/stm32g4xx_hal_dma.c ****   /* Get the level transfer complete flag */
 633:Drivers/STM32G4xx_HAL_Driver/Src/stm32g4xx_hal_dma.c ****   if (HAL_DMA_FULL_TRANSFER == CompleteLevel)
 634:Drivers/STM32G4xx_HAL_Driver/Src/stm32g4xx_hal_dma.c ****   {
 635:Drivers/STM32G4xx_HAL_Driver/Src/stm32g4xx_hal_dma.c ****     /* Transfer Complete flag */
 636:Drivers/STM32G4xx_HAL_Driver/Src/stm32g4xx_hal_dma.c **** 
 637:Drivers/STM32G4xx_HAL_Driver/Src/stm32g4xx_hal_dma.c ****     temp = (uint32_t)DMA_FLAG_TC1 << (hdma->ChannelIndex & 0x1FU);
 638:Drivers/STM32G4xx_HAL_Driver/Src/stm32g4xx_hal_dma.c ****   }
 639:Drivers/STM32G4xx_HAL_Driver/Src/stm32g4xx_hal_dma.c ****   else
ARM GAS  /tmp/ccQyu1mP.s 			page 14


 640:Drivers/STM32G4xx_HAL_Driver/Src/stm32g4xx_hal_dma.c ****   {
 641:Drivers/STM32G4xx_HAL_Driver/Src/stm32g4xx_hal_dma.c ****     /* Half Transfer Complete flag */
 642:Drivers/STM32G4xx_HAL_Driver/Src/stm32g4xx_hal_dma.c ****     temp = (uint32_t)DMA_FLAG_HT1 << (hdma->ChannelIndex & 0x1FU);
 643:Drivers/STM32G4xx_HAL_Driver/Src/stm32g4xx_hal_dma.c ****   }
 644:Drivers/STM32G4xx_HAL_Driver/Src/stm32g4xx_hal_dma.c **** 
 645:Drivers/STM32G4xx_HAL_Driver/Src/stm32g4xx_hal_dma.c ****   /* Get tick */
 646:Drivers/STM32G4xx_HAL_Driver/Src/stm32g4xx_hal_dma.c ****   tickstart = HAL_GetTick();
 647:Drivers/STM32G4xx_HAL_Driver/Src/stm32g4xx_hal_dma.c **** 
 648:Drivers/STM32G4xx_HAL_Driver/Src/stm32g4xx_hal_dma.c ****   while (0U == (hdma->DmaBaseAddress->ISR & temp))
 649:Drivers/STM32G4xx_HAL_Driver/Src/stm32g4xx_hal_dma.c ****   {
 650:Drivers/STM32G4xx_HAL_Driver/Src/stm32g4xx_hal_dma.c ****     if ((0U != (hdma->DmaBaseAddress->ISR & ((uint32_t)DMA_FLAG_TE1 << (hdma->ChannelIndex & 0x1FU)
 651:Drivers/STM32G4xx_HAL_Driver/Src/stm32g4xx_hal_dma.c ****     {
 652:Drivers/STM32G4xx_HAL_Driver/Src/stm32g4xx_hal_dma.c ****       /* When a DMA transfer error occurs */
 653:Drivers/STM32G4xx_HAL_Driver/Src/stm32g4xx_hal_dma.c ****       /* A hardware clear of its EN bits is performed */
 654:Drivers/STM32G4xx_HAL_Driver/Src/stm32g4xx_hal_dma.c ****       /* Clear all flags */
 655:Drivers/STM32G4xx_HAL_Driver/Src/stm32g4xx_hal_dma.c ****       hdma->DmaBaseAddress->IFCR = ((uint32_t)DMA_ISR_GIF1 << (hdma->ChannelIndex & 0x1FU));
 656:Drivers/STM32G4xx_HAL_Driver/Src/stm32g4xx_hal_dma.c **** 
 657:Drivers/STM32G4xx_HAL_Driver/Src/stm32g4xx_hal_dma.c ****       /* Update error code */
 658:Drivers/STM32G4xx_HAL_Driver/Src/stm32g4xx_hal_dma.c ****       hdma->ErrorCode = HAL_DMA_ERROR_TE;
 659:Drivers/STM32G4xx_HAL_Driver/Src/stm32g4xx_hal_dma.c **** 
 660:Drivers/STM32G4xx_HAL_Driver/Src/stm32g4xx_hal_dma.c ****       /* Change the DMA state */
 661:Drivers/STM32G4xx_HAL_Driver/Src/stm32g4xx_hal_dma.c ****       hdma->State = HAL_DMA_STATE_READY;
 662:Drivers/STM32G4xx_HAL_Driver/Src/stm32g4xx_hal_dma.c **** 
 663:Drivers/STM32G4xx_HAL_Driver/Src/stm32g4xx_hal_dma.c ****       /* Process Unlocked */
 664:Drivers/STM32G4xx_HAL_Driver/Src/stm32g4xx_hal_dma.c ****       __HAL_UNLOCK(hdma);
 665:Drivers/STM32G4xx_HAL_Driver/Src/stm32g4xx_hal_dma.c **** 
 666:Drivers/STM32G4xx_HAL_Driver/Src/stm32g4xx_hal_dma.c ****       return HAL_ERROR;
 667:Drivers/STM32G4xx_HAL_Driver/Src/stm32g4xx_hal_dma.c ****     }
 668:Drivers/STM32G4xx_HAL_Driver/Src/stm32g4xx_hal_dma.c ****     /* Check for the Timeout */
 669:Drivers/STM32G4xx_HAL_Driver/Src/stm32g4xx_hal_dma.c ****     if (Timeout != HAL_MAX_DELAY)
 670:Drivers/STM32G4xx_HAL_Driver/Src/stm32g4xx_hal_dma.c ****     {
 671:Drivers/STM32G4xx_HAL_Driver/Src/stm32g4xx_hal_dma.c ****       if (((HAL_GetTick() - tickstart) > Timeout) || (Timeout == 0U))
 672:Drivers/STM32G4xx_HAL_Driver/Src/stm32g4xx_hal_dma.c ****       {
 673:Drivers/STM32G4xx_HAL_Driver/Src/stm32g4xx_hal_dma.c ****         /* Update error code */
 674:Drivers/STM32G4xx_HAL_Driver/Src/stm32g4xx_hal_dma.c ****         hdma->ErrorCode = HAL_DMA_ERROR_TIMEOUT;
 675:Drivers/STM32G4xx_HAL_Driver/Src/stm32g4xx_hal_dma.c **** 
 676:Drivers/STM32G4xx_HAL_Driver/Src/stm32g4xx_hal_dma.c ****         /* Change the DMA state */
 677:Drivers/STM32G4xx_HAL_Driver/Src/stm32g4xx_hal_dma.c ****         hdma->State = HAL_DMA_STATE_READY;
 678:Drivers/STM32G4xx_HAL_Driver/Src/stm32g4xx_hal_dma.c **** 
 679:Drivers/STM32G4xx_HAL_Driver/Src/stm32g4xx_hal_dma.c ****         /* Process Unlocked */
 680:Drivers/STM32G4xx_HAL_Driver/Src/stm32g4xx_hal_dma.c ****         __HAL_UNLOCK(hdma);
 681:Drivers/STM32G4xx_HAL_Driver/Src/stm32g4xx_hal_dma.c **** 
 682:Drivers/STM32G4xx_HAL_Driver/Src/stm32g4xx_hal_dma.c ****         return HAL_ERROR;
 683:Drivers/STM32G4xx_HAL_Driver/Src/stm32g4xx_hal_dma.c ****       }
 684:Drivers/STM32G4xx_HAL_Driver/Src/stm32g4xx_hal_dma.c ****     }
 685:Drivers/STM32G4xx_HAL_Driver/Src/stm32g4xx_hal_dma.c ****   }
 686:Drivers/STM32G4xx_HAL_Driver/Src/stm32g4xx_hal_dma.c **** 
 687:Drivers/STM32G4xx_HAL_Driver/Src/stm32g4xx_hal_dma.c ****   /*Check for DMAMUX Request generator (if used) overrun status */
 688:Drivers/STM32G4xx_HAL_Driver/Src/stm32g4xx_hal_dma.c ****   if (hdma->DMAmuxRequestGen != 0U)
 689:Drivers/STM32G4xx_HAL_Driver/Src/stm32g4xx_hal_dma.c ****   {
 690:Drivers/STM32G4xx_HAL_Driver/Src/stm32g4xx_hal_dma.c ****     /* if using DMAMUX request generator Check for DMAMUX request generator overrun */
 691:Drivers/STM32G4xx_HAL_Driver/Src/stm32g4xx_hal_dma.c ****     if ((hdma->DMAmuxRequestGenStatus->RGSR & hdma->DMAmuxRequestGenStatusMask) != 0U)
 692:Drivers/STM32G4xx_HAL_Driver/Src/stm32g4xx_hal_dma.c ****     {
 693:Drivers/STM32G4xx_HAL_Driver/Src/stm32g4xx_hal_dma.c ****       /* Disable the request gen overrun interrupt */
 694:Drivers/STM32G4xx_HAL_Driver/Src/stm32g4xx_hal_dma.c ****       hdma->DMAmuxRequestGen->RGCR |= DMAMUX_RGxCR_OIE;
 695:Drivers/STM32G4xx_HAL_Driver/Src/stm32g4xx_hal_dma.c **** 
 696:Drivers/STM32G4xx_HAL_Driver/Src/stm32g4xx_hal_dma.c ****       /* Clear the DMAMUX request generator overrun flag */
ARM GAS  /tmp/ccQyu1mP.s 			page 15


 697:Drivers/STM32G4xx_HAL_Driver/Src/stm32g4xx_hal_dma.c ****       hdma->DMAmuxRequestGenStatus->RGCFR = hdma->DMAmuxRequestGenStatusMask;
 698:Drivers/STM32G4xx_HAL_Driver/Src/stm32g4xx_hal_dma.c **** 
 699:Drivers/STM32G4xx_HAL_Driver/Src/stm32g4xx_hal_dma.c ****       /* Update error code */
 700:Drivers/STM32G4xx_HAL_Driver/Src/stm32g4xx_hal_dma.c ****       hdma->ErrorCode |= HAL_DMA_ERROR_REQGEN;
 701:Drivers/STM32G4xx_HAL_Driver/Src/stm32g4xx_hal_dma.c ****     }
 702:Drivers/STM32G4xx_HAL_Driver/Src/stm32g4xx_hal_dma.c ****   }
 703:Drivers/STM32G4xx_HAL_Driver/Src/stm32g4xx_hal_dma.c **** 
 704:Drivers/STM32G4xx_HAL_Driver/Src/stm32g4xx_hal_dma.c ****   /* Check for DMAMUX Synchronization overrun */
 705:Drivers/STM32G4xx_HAL_Driver/Src/stm32g4xx_hal_dma.c ****   if ((hdma->DMAmuxChannelStatus->CSR & hdma->DMAmuxChannelStatusMask) != 0U)
 706:Drivers/STM32G4xx_HAL_Driver/Src/stm32g4xx_hal_dma.c ****   {
 707:Drivers/STM32G4xx_HAL_Driver/Src/stm32g4xx_hal_dma.c ****     /* Clear the DMAMUX synchro overrun flag */
 708:Drivers/STM32G4xx_HAL_Driver/Src/stm32g4xx_hal_dma.c ****     hdma->DMAmuxChannelStatus->CFR = hdma->DMAmuxChannelStatusMask;
 709:Drivers/STM32G4xx_HAL_Driver/Src/stm32g4xx_hal_dma.c **** 
 710:Drivers/STM32G4xx_HAL_Driver/Src/stm32g4xx_hal_dma.c ****     /* Update error code */
 711:Drivers/STM32G4xx_HAL_Driver/Src/stm32g4xx_hal_dma.c ****     hdma->ErrorCode |= HAL_DMA_ERROR_SYNC;
 712:Drivers/STM32G4xx_HAL_Driver/Src/stm32g4xx_hal_dma.c ****   }
 713:Drivers/STM32G4xx_HAL_Driver/Src/stm32g4xx_hal_dma.c **** 
 714:Drivers/STM32G4xx_HAL_Driver/Src/stm32g4xx_hal_dma.c ****   if (HAL_DMA_FULL_TRANSFER == CompleteLevel)
 715:Drivers/STM32G4xx_HAL_Driver/Src/stm32g4xx_hal_dma.c ****   {
 716:Drivers/STM32G4xx_HAL_Driver/Src/stm32g4xx_hal_dma.c ****     /* Clear the transfer complete flag */
 717:Drivers/STM32G4xx_HAL_Driver/Src/stm32g4xx_hal_dma.c ****     hdma->DmaBaseAddress->IFCR = ((uint32_t)DMA_FLAG_TC1 << (hdma->ChannelIndex & 0x1FU));
 718:Drivers/STM32G4xx_HAL_Driver/Src/stm32g4xx_hal_dma.c **** 
 719:Drivers/STM32G4xx_HAL_Driver/Src/stm32g4xx_hal_dma.c ****     /* The selected Channelx EN bit is cleared (DMA is disabled and
 720:Drivers/STM32G4xx_HAL_Driver/Src/stm32g4xx_hal_dma.c ****     all transfers are complete) */
 721:Drivers/STM32G4xx_HAL_Driver/Src/stm32g4xx_hal_dma.c ****     hdma->State = HAL_DMA_STATE_READY;
 722:Drivers/STM32G4xx_HAL_Driver/Src/stm32g4xx_hal_dma.c ****   }
 723:Drivers/STM32G4xx_HAL_Driver/Src/stm32g4xx_hal_dma.c ****   else
 724:Drivers/STM32G4xx_HAL_Driver/Src/stm32g4xx_hal_dma.c ****   {
 725:Drivers/STM32G4xx_HAL_Driver/Src/stm32g4xx_hal_dma.c ****     /* Clear the half transfer complete flag */
 726:Drivers/STM32G4xx_HAL_Driver/Src/stm32g4xx_hal_dma.c ****     hdma->DmaBaseAddress->IFCR = ((uint32_t)DMA_FLAG_HT1 << (hdma->ChannelIndex & 0x1FU));
 727:Drivers/STM32G4xx_HAL_Driver/Src/stm32g4xx_hal_dma.c ****   }
 728:Drivers/STM32G4xx_HAL_Driver/Src/stm32g4xx_hal_dma.c **** 
 729:Drivers/STM32G4xx_HAL_Driver/Src/stm32g4xx_hal_dma.c ****   /* Process unlocked */
 730:Drivers/STM32G4xx_HAL_Driver/Src/stm32g4xx_hal_dma.c ****   __HAL_UNLOCK(hdma);
 731:Drivers/STM32G4xx_HAL_Driver/Src/stm32g4xx_hal_dma.c **** 
 732:Drivers/STM32G4xx_HAL_Driver/Src/stm32g4xx_hal_dma.c ****   return HAL_OK;
 733:Drivers/STM32G4xx_HAL_Driver/Src/stm32g4xx_hal_dma.c **** }
 734:Drivers/STM32G4xx_HAL_Driver/Src/stm32g4xx_hal_dma.c **** 
 735:Drivers/STM32G4xx_HAL_Driver/Src/stm32g4xx_hal_dma.c **** /**
 736:Drivers/STM32G4xx_HAL_Driver/Src/stm32g4xx_hal_dma.c ****   * @brief  Handle DMA interrupt request.
 737:Drivers/STM32G4xx_HAL_Driver/Src/stm32g4xx_hal_dma.c ****   * @param  hdma pointer to a DMA_HandleTypeDef structure that contains
 738:Drivers/STM32G4xx_HAL_Driver/Src/stm32g4xx_hal_dma.c ****   *               the configuration information for the specified DMA Channel.
 739:Drivers/STM32G4xx_HAL_Driver/Src/stm32g4xx_hal_dma.c ****   * @retval None
 740:Drivers/STM32G4xx_HAL_Driver/Src/stm32g4xx_hal_dma.c ****   */
 741:Drivers/STM32G4xx_HAL_Driver/Src/stm32g4xx_hal_dma.c **** void HAL_DMA_IRQHandler(DMA_HandleTypeDef *hdma)
 742:Drivers/STM32G4xx_HAL_Driver/Src/stm32g4xx_hal_dma.c **** {
 743:Drivers/STM32G4xx_HAL_Driver/Src/stm32g4xx_hal_dma.c ****   uint32_t flag_it = hdma->DmaBaseAddress->ISR;
 744:Drivers/STM32G4xx_HAL_Driver/Src/stm32g4xx_hal_dma.c ****   uint32_t source_it = hdma->Instance->CCR;
 745:Drivers/STM32G4xx_HAL_Driver/Src/stm32g4xx_hal_dma.c **** 
 746:Drivers/STM32G4xx_HAL_Driver/Src/stm32g4xx_hal_dma.c ****   /* Half Transfer Complete Interrupt management ******************************/
 747:Drivers/STM32G4xx_HAL_Driver/Src/stm32g4xx_hal_dma.c ****   if ((0U != (flag_it & ((uint32_t)DMA_FLAG_HT1 << (hdma->ChannelIndex & 0x1FU)))) && (0U != (sourc
 748:Drivers/STM32G4xx_HAL_Driver/Src/stm32g4xx_hal_dma.c ****   {
 749:Drivers/STM32G4xx_HAL_Driver/Src/stm32g4xx_hal_dma.c ****     /* Disable the half transfer interrupt if the DMA mode is not CIRCULAR */
 750:Drivers/STM32G4xx_HAL_Driver/Src/stm32g4xx_hal_dma.c ****     if ((hdma->Instance->CCR & DMA_CCR_CIRC) == 0U)
 751:Drivers/STM32G4xx_HAL_Driver/Src/stm32g4xx_hal_dma.c ****     {
 752:Drivers/STM32G4xx_HAL_Driver/Src/stm32g4xx_hal_dma.c ****       /* Disable the half transfer interrupt */
 753:Drivers/STM32G4xx_HAL_Driver/Src/stm32g4xx_hal_dma.c ****       __HAL_DMA_DISABLE_IT(hdma, DMA_IT_HT);
ARM GAS  /tmp/ccQyu1mP.s 			page 16


 754:Drivers/STM32G4xx_HAL_Driver/Src/stm32g4xx_hal_dma.c ****     }
 755:Drivers/STM32G4xx_HAL_Driver/Src/stm32g4xx_hal_dma.c ****     /* Clear the half transfer complete flag */
 756:Drivers/STM32G4xx_HAL_Driver/Src/stm32g4xx_hal_dma.c ****     hdma->DmaBaseAddress->IFCR = ((uint32_t)DMA_ISR_HTIF1 << (hdma->ChannelIndex & 0x1FU));
 757:Drivers/STM32G4xx_HAL_Driver/Src/stm32g4xx_hal_dma.c **** 
 758:Drivers/STM32G4xx_HAL_Driver/Src/stm32g4xx_hal_dma.c ****     /* DMA peripheral state is not updated in Half Transfer */
 759:Drivers/STM32G4xx_HAL_Driver/Src/stm32g4xx_hal_dma.c ****     /* but in Transfer Complete case */
 760:Drivers/STM32G4xx_HAL_Driver/Src/stm32g4xx_hal_dma.c **** 
 761:Drivers/STM32G4xx_HAL_Driver/Src/stm32g4xx_hal_dma.c ****     if (hdma->XferHalfCpltCallback != NULL)
 762:Drivers/STM32G4xx_HAL_Driver/Src/stm32g4xx_hal_dma.c ****     {
 763:Drivers/STM32G4xx_HAL_Driver/Src/stm32g4xx_hal_dma.c ****       /* Half transfer callback */
 764:Drivers/STM32G4xx_HAL_Driver/Src/stm32g4xx_hal_dma.c ****       hdma->XferHalfCpltCallback(hdma);
 765:Drivers/STM32G4xx_HAL_Driver/Src/stm32g4xx_hal_dma.c ****     }
 766:Drivers/STM32G4xx_HAL_Driver/Src/stm32g4xx_hal_dma.c ****   }
 767:Drivers/STM32G4xx_HAL_Driver/Src/stm32g4xx_hal_dma.c ****   /* Transfer Complete Interrupt management ***********************************/
 768:Drivers/STM32G4xx_HAL_Driver/Src/stm32g4xx_hal_dma.c ****   else if ((0U != (flag_it & ((uint32_t)DMA_FLAG_TC1 << (hdma->ChannelIndex & 0x1FU))))
 769:Drivers/STM32G4xx_HAL_Driver/Src/stm32g4xx_hal_dma.c ****            && (0U != (source_it & DMA_IT_TC)))
 770:Drivers/STM32G4xx_HAL_Driver/Src/stm32g4xx_hal_dma.c ****   {
 771:Drivers/STM32G4xx_HAL_Driver/Src/stm32g4xx_hal_dma.c ****     if ((hdma->Instance->CCR & DMA_CCR_CIRC) == 0U)
 772:Drivers/STM32G4xx_HAL_Driver/Src/stm32g4xx_hal_dma.c ****     {
 773:Drivers/STM32G4xx_HAL_Driver/Src/stm32g4xx_hal_dma.c ****       /* Disable the transfer complete and error interrupt */
 774:Drivers/STM32G4xx_HAL_Driver/Src/stm32g4xx_hal_dma.c ****       __HAL_DMA_DISABLE_IT(hdma, DMA_IT_TE | DMA_IT_TC);
 775:Drivers/STM32G4xx_HAL_Driver/Src/stm32g4xx_hal_dma.c **** 
 776:Drivers/STM32G4xx_HAL_Driver/Src/stm32g4xx_hal_dma.c ****       /* Change the DMA state */
 777:Drivers/STM32G4xx_HAL_Driver/Src/stm32g4xx_hal_dma.c ****       hdma->State = HAL_DMA_STATE_READY;
 778:Drivers/STM32G4xx_HAL_Driver/Src/stm32g4xx_hal_dma.c ****     }
 779:Drivers/STM32G4xx_HAL_Driver/Src/stm32g4xx_hal_dma.c ****     /* Clear the transfer complete flag */
 780:Drivers/STM32G4xx_HAL_Driver/Src/stm32g4xx_hal_dma.c ****     hdma->DmaBaseAddress->IFCR = ((uint32_t)DMA_ISR_TCIF1 << (hdma->ChannelIndex & 0x1FU));
 781:Drivers/STM32G4xx_HAL_Driver/Src/stm32g4xx_hal_dma.c **** 
 782:Drivers/STM32G4xx_HAL_Driver/Src/stm32g4xx_hal_dma.c ****     /* Process Unlocked */
 783:Drivers/STM32G4xx_HAL_Driver/Src/stm32g4xx_hal_dma.c ****     __HAL_UNLOCK(hdma);
 784:Drivers/STM32G4xx_HAL_Driver/Src/stm32g4xx_hal_dma.c **** 
 785:Drivers/STM32G4xx_HAL_Driver/Src/stm32g4xx_hal_dma.c ****     if (hdma->XferCpltCallback != NULL)
 786:Drivers/STM32G4xx_HAL_Driver/Src/stm32g4xx_hal_dma.c ****     {
 787:Drivers/STM32G4xx_HAL_Driver/Src/stm32g4xx_hal_dma.c ****       /* Transfer complete callback */
 788:Drivers/STM32G4xx_HAL_Driver/Src/stm32g4xx_hal_dma.c ****       hdma->XferCpltCallback(hdma);
 789:Drivers/STM32G4xx_HAL_Driver/Src/stm32g4xx_hal_dma.c ****     }
 790:Drivers/STM32G4xx_HAL_Driver/Src/stm32g4xx_hal_dma.c ****   }
 791:Drivers/STM32G4xx_HAL_Driver/Src/stm32g4xx_hal_dma.c ****   /* Transfer Error Interrupt management **************************************/
 792:Drivers/STM32G4xx_HAL_Driver/Src/stm32g4xx_hal_dma.c ****   else if ((0U != (flag_it & ((uint32_t)DMA_FLAG_TE1 << (hdma->ChannelIndex & 0x1FU))))
 793:Drivers/STM32G4xx_HAL_Driver/Src/stm32g4xx_hal_dma.c ****            && (0U != (source_it & DMA_IT_TE)))
 794:Drivers/STM32G4xx_HAL_Driver/Src/stm32g4xx_hal_dma.c ****   {
 795:Drivers/STM32G4xx_HAL_Driver/Src/stm32g4xx_hal_dma.c ****     /* When a DMA transfer error occurs */
 796:Drivers/STM32G4xx_HAL_Driver/Src/stm32g4xx_hal_dma.c ****     /* A hardware clear of its EN bits is performed */
 797:Drivers/STM32G4xx_HAL_Driver/Src/stm32g4xx_hal_dma.c ****     /* Disable ALL DMA IT */
 798:Drivers/STM32G4xx_HAL_Driver/Src/stm32g4xx_hal_dma.c ****     __HAL_DMA_DISABLE_IT(hdma, (DMA_IT_TC | DMA_IT_HT | DMA_IT_TE));
 799:Drivers/STM32G4xx_HAL_Driver/Src/stm32g4xx_hal_dma.c **** 
 800:Drivers/STM32G4xx_HAL_Driver/Src/stm32g4xx_hal_dma.c ****     /* Clear all flags */
 801:Drivers/STM32G4xx_HAL_Driver/Src/stm32g4xx_hal_dma.c ****     hdma->DmaBaseAddress->IFCR = ((uint32_t)DMA_ISR_GIF1 << (hdma->ChannelIndex & 0x1FU));
 802:Drivers/STM32G4xx_HAL_Driver/Src/stm32g4xx_hal_dma.c **** 
 803:Drivers/STM32G4xx_HAL_Driver/Src/stm32g4xx_hal_dma.c ****     /* Update error code */
 804:Drivers/STM32G4xx_HAL_Driver/Src/stm32g4xx_hal_dma.c ****     hdma->ErrorCode = HAL_DMA_ERROR_TE;
 805:Drivers/STM32G4xx_HAL_Driver/Src/stm32g4xx_hal_dma.c **** 
 806:Drivers/STM32G4xx_HAL_Driver/Src/stm32g4xx_hal_dma.c ****     /* Change the DMA state */
 807:Drivers/STM32G4xx_HAL_Driver/Src/stm32g4xx_hal_dma.c ****     hdma->State = HAL_DMA_STATE_READY;
 808:Drivers/STM32G4xx_HAL_Driver/Src/stm32g4xx_hal_dma.c **** 
 809:Drivers/STM32G4xx_HAL_Driver/Src/stm32g4xx_hal_dma.c ****     /* Process Unlocked */
 810:Drivers/STM32G4xx_HAL_Driver/Src/stm32g4xx_hal_dma.c ****     __HAL_UNLOCK(hdma);
ARM GAS  /tmp/ccQyu1mP.s 			page 17


 811:Drivers/STM32G4xx_HAL_Driver/Src/stm32g4xx_hal_dma.c **** 
 812:Drivers/STM32G4xx_HAL_Driver/Src/stm32g4xx_hal_dma.c ****     if (hdma->XferErrorCallback != NULL)
 813:Drivers/STM32G4xx_HAL_Driver/Src/stm32g4xx_hal_dma.c ****     {
 814:Drivers/STM32G4xx_HAL_Driver/Src/stm32g4xx_hal_dma.c ****       /* Transfer error callback */
 815:Drivers/STM32G4xx_HAL_Driver/Src/stm32g4xx_hal_dma.c ****       hdma->XferErrorCallback(hdma);
 816:Drivers/STM32G4xx_HAL_Driver/Src/stm32g4xx_hal_dma.c ****     }
 817:Drivers/STM32G4xx_HAL_Driver/Src/stm32g4xx_hal_dma.c ****   }
 818:Drivers/STM32G4xx_HAL_Driver/Src/stm32g4xx_hal_dma.c ****   else
 819:Drivers/STM32G4xx_HAL_Driver/Src/stm32g4xx_hal_dma.c ****   {
 820:Drivers/STM32G4xx_HAL_Driver/Src/stm32g4xx_hal_dma.c ****     /* Nothing To Do */
 821:Drivers/STM32G4xx_HAL_Driver/Src/stm32g4xx_hal_dma.c ****   }
 822:Drivers/STM32G4xx_HAL_Driver/Src/stm32g4xx_hal_dma.c ****   return;
 823:Drivers/STM32G4xx_HAL_Driver/Src/stm32g4xx_hal_dma.c **** }
 824:Drivers/STM32G4xx_HAL_Driver/Src/stm32g4xx_hal_dma.c **** 
 825:Drivers/STM32G4xx_HAL_Driver/Src/stm32g4xx_hal_dma.c **** /**
 826:Drivers/STM32G4xx_HAL_Driver/Src/stm32g4xx_hal_dma.c ****   * @brief  Register callbacks
 827:Drivers/STM32G4xx_HAL_Driver/Src/stm32g4xx_hal_dma.c ****   * @param  hdma                 pointer to a DMA_HandleTypeDef structure that contains
 828:Drivers/STM32G4xx_HAL_Driver/Src/stm32g4xx_hal_dma.c ****   *                               the configuration information for the specified DMA Channel.
 829:Drivers/STM32G4xx_HAL_Driver/Src/stm32g4xx_hal_dma.c ****   * @param  CallbackID           User Callback identifier
 830:Drivers/STM32G4xx_HAL_Driver/Src/stm32g4xx_hal_dma.c ****   *                               a HAL_DMA_CallbackIDTypeDef ENUM as parameter.
 831:Drivers/STM32G4xx_HAL_Driver/Src/stm32g4xx_hal_dma.c ****   * @param  pCallback            pointer to private callbacsk function which has pointer to
 832:Drivers/STM32G4xx_HAL_Driver/Src/stm32g4xx_hal_dma.c ****   *                               a DMA_HandleTypeDef structure as parameter.
 833:Drivers/STM32G4xx_HAL_Driver/Src/stm32g4xx_hal_dma.c ****   * @retval HAL status
 834:Drivers/STM32G4xx_HAL_Driver/Src/stm32g4xx_hal_dma.c ****   */
 835:Drivers/STM32G4xx_HAL_Driver/Src/stm32g4xx_hal_dma.c **** HAL_StatusTypeDef HAL_DMA_RegisterCallback(DMA_HandleTypeDef *hdma, HAL_DMA_CallbackIDTypeDef Callb
 836:Drivers/STM32G4xx_HAL_Driver/Src/stm32g4xx_hal_dma.c **** {
 837:Drivers/STM32G4xx_HAL_Driver/Src/stm32g4xx_hal_dma.c ****   HAL_StatusTypeDef status = HAL_OK;
 838:Drivers/STM32G4xx_HAL_Driver/Src/stm32g4xx_hal_dma.c **** 
 839:Drivers/STM32G4xx_HAL_Driver/Src/stm32g4xx_hal_dma.c ****   /* Process locked */
 840:Drivers/STM32G4xx_HAL_Driver/Src/stm32g4xx_hal_dma.c ****   __HAL_LOCK(hdma);
 841:Drivers/STM32G4xx_HAL_Driver/Src/stm32g4xx_hal_dma.c **** 
 842:Drivers/STM32G4xx_HAL_Driver/Src/stm32g4xx_hal_dma.c ****   if (HAL_DMA_STATE_READY == hdma->State)
 843:Drivers/STM32G4xx_HAL_Driver/Src/stm32g4xx_hal_dma.c ****   {
 844:Drivers/STM32G4xx_HAL_Driver/Src/stm32g4xx_hal_dma.c ****     switch (CallbackID)
 845:Drivers/STM32G4xx_HAL_Driver/Src/stm32g4xx_hal_dma.c ****     {
 846:Drivers/STM32G4xx_HAL_Driver/Src/stm32g4xx_hal_dma.c ****       case  HAL_DMA_XFER_CPLT_CB_ID:
 847:Drivers/STM32G4xx_HAL_Driver/Src/stm32g4xx_hal_dma.c ****         hdma->XferCpltCallback = pCallback;
 848:Drivers/STM32G4xx_HAL_Driver/Src/stm32g4xx_hal_dma.c ****         break;
 849:Drivers/STM32G4xx_HAL_Driver/Src/stm32g4xx_hal_dma.c **** 
 850:Drivers/STM32G4xx_HAL_Driver/Src/stm32g4xx_hal_dma.c ****       case  HAL_DMA_XFER_HALFCPLT_CB_ID:
 851:Drivers/STM32G4xx_HAL_Driver/Src/stm32g4xx_hal_dma.c ****         hdma->XferHalfCpltCallback = pCallback;
 852:Drivers/STM32G4xx_HAL_Driver/Src/stm32g4xx_hal_dma.c ****         break;
 853:Drivers/STM32G4xx_HAL_Driver/Src/stm32g4xx_hal_dma.c **** 
 854:Drivers/STM32G4xx_HAL_Driver/Src/stm32g4xx_hal_dma.c ****       case  HAL_DMA_XFER_ERROR_CB_ID:
 855:Drivers/STM32G4xx_HAL_Driver/Src/stm32g4xx_hal_dma.c ****         hdma->XferErrorCallback = pCallback;
 856:Drivers/STM32G4xx_HAL_Driver/Src/stm32g4xx_hal_dma.c ****         break;
 857:Drivers/STM32G4xx_HAL_Driver/Src/stm32g4xx_hal_dma.c **** 
 858:Drivers/STM32G4xx_HAL_Driver/Src/stm32g4xx_hal_dma.c ****       case  HAL_DMA_XFER_ABORT_CB_ID:
 859:Drivers/STM32G4xx_HAL_Driver/Src/stm32g4xx_hal_dma.c ****         hdma->XferAbortCallback = pCallback;
 860:Drivers/STM32G4xx_HAL_Driver/Src/stm32g4xx_hal_dma.c ****         break;
 861:Drivers/STM32G4xx_HAL_Driver/Src/stm32g4xx_hal_dma.c **** 
 862:Drivers/STM32G4xx_HAL_Driver/Src/stm32g4xx_hal_dma.c ****       default:
 863:Drivers/STM32G4xx_HAL_Driver/Src/stm32g4xx_hal_dma.c ****         status = HAL_ERROR;
 864:Drivers/STM32G4xx_HAL_Driver/Src/stm32g4xx_hal_dma.c ****         break;
 865:Drivers/STM32G4xx_HAL_Driver/Src/stm32g4xx_hal_dma.c ****     }
 866:Drivers/STM32G4xx_HAL_Driver/Src/stm32g4xx_hal_dma.c ****   }
 867:Drivers/STM32G4xx_HAL_Driver/Src/stm32g4xx_hal_dma.c ****   else
ARM GAS  /tmp/ccQyu1mP.s 			page 18


 868:Drivers/STM32G4xx_HAL_Driver/Src/stm32g4xx_hal_dma.c ****   {
 869:Drivers/STM32G4xx_HAL_Driver/Src/stm32g4xx_hal_dma.c ****     status = HAL_ERROR;
 870:Drivers/STM32G4xx_HAL_Driver/Src/stm32g4xx_hal_dma.c ****   }
 871:Drivers/STM32G4xx_HAL_Driver/Src/stm32g4xx_hal_dma.c **** 
 872:Drivers/STM32G4xx_HAL_Driver/Src/stm32g4xx_hal_dma.c ****   /* Release Lock */
 873:Drivers/STM32G4xx_HAL_Driver/Src/stm32g4xx_hal_dma.c ****   __HAL_UNLOCK(hdma);
 874:Drivers/STM32G4xx_HAL_Driver/Src/stm32g4xx_hal_dma.c **** 
 875:Drivers/STM32G4xx_HAL_Driver/Src/stm32g4xx_hal_dma.c ****   return status;
 876:Drivers/STM32G4xx_HAL_Driver/Src/stm32g4xx_hal_dma.c **** }
 877:Drivers/STM32G4xx_HAL_Driver/Src/stm32g4xx_hal_dma.c **** 
 878:Drivers/STM32G4xx_HAL_Driver/Src/stm32g4xx_hal_dma.c **** /**
 879:Drivers/STM32G4xx_HAL_Driver/Src/stm32g4xx_hal_dma.c ****   * @brief  UnRegister callbacks
 880:Drivers/STM32G4xx_HAL_Driver/Src/stm32g4xx_hal_dma.c ****   * @param  hdma                 pointer to a DMA_HandleTypeDef structure that contains
 881:Drivers/STM32G4xx_HAL_Driver/Src/stm32g4xx_hal_dma.c ****   *                               the configuration information for the specified DMA Channel.
 882:Drivers/STM32G4xx_HAL_Driver/Src/stm32g4xx_hal_dma.c ****   * @param  CallbackID           User Callback identifier
 883:Drivers/STM32G4xx_HAL_Driver/Src/stm32g4xx_hal_dma.c ****   *                               a HAL_DMA_CallbackIDTypeDef ENUM as parameter.
 884:Drivers/STM32G4xx_HAL_Driver/Src/stm32g4xx_hal_dma.c ****   * @retval HAL status
 885:Drivers/STM32G4xx_HAL_Driver/Src/stm32g4xx_hal_dma.c ****   */
 886:Drivers/STM32G4xx_HAL_Driver/Src/stm32g4xx_hal_dma.c **** HAL_StatusTypeDef HAL_DMA_UnRegisterCallback(DMA_HandleTypeDef *hdma, HAL_DMA_CallbackIDTypeDef Cal
 887:Drivers/STM32G4xx_HAL_Driver/Src/stm32g4xx_hal_dma.c **** {
 888:Drivers/STM32G4xx_HAL_Driver/Src/stm32g4xx_hal_dma.c ****   HAL_StatusTypeDef status = HAL_OK;
 889:Drivers/STM32G4xx_HAL_Driver/Src/stm32g4xx_hal_dma.c **** 
 890:Drivers/STM32G4xx_HAL_Driver/Src/stm32g4xx_hal_dma.c ****   /* Process locked */
 891:Drivers/STM32G4xx_HAL_Driver/Src/stm32g4xx_hal_dma.c ****   __HAL_LOCK(hdma);
 892:Drivers/STM32G4xx_HAL_Driver/Src/stm32g4xx_hal_dma.c **** 
 893:Drivers/STM32G4xx_HAL_Driver/Src/stm32g4xx_hal_dma.c ****   if (HAL_DMA_STATE_READY == hdma->State)
 894:Drivers/STM32G4xx_HAL_Driver/Src/stm32g4xx_hal_dma.c ****   {
 895:Drivers/STM32G4xx_HAL_Driver/Src/stm32g4xx_hal_dma.c ****     switch (CallbackID)
 896:Drivers/STM32G4xx_HAL_Driver/Src/stm32g4xx_hal_dma.c ****     {
 897:Drivers/STM32G4xx_HAL_Driver/Src/stm32g4xx_hal_dma.c ****       case  HAL_DMA_XFER_CPLT_CB_ID:
 898:Drivers/STM32G4xx_HAL_Driver/Src/stm32g4xx_hal_dma.c ****         hdma->XferCpltCallback = NULL;
 899:Drivers/STM32G4xx_HAL_Driver/Src/stm32g4xx_hal_dma.c ****         break;
 900:Drivers/STM32G4xx_HAL_Driver/Src/stm32g4xx_hal_dma.c **** 
 901:Drivers/STM32G4xx_HAL_Driver/Src/stm32g4xx_hal_dma.c ****       case  HAL_DMA_XFER_HALFCPLT_CB_ID:
 902:Drivers/STM32G4xx_HAL_Driver/Src/stm32g4xx_hal_dma.c ****         hdma->XferHalfCpltCallback = NULL;
 903:Drivers/STM32G4xx_HAL_Driver/Src/stm32g4xx_hal_dma.c ****         break;
 904:Drivers/STM32G4xx_HAL_Driver/Src/stm32g4xx_hal_dma.c **** 
 905:Drivers/STM32G4xx_HAL_Driver/Src/stm32g4xx_hal_dma.c ****       case  HAL_DMA_XFER_ERROR_CB_ID:
 906:Drivers/STM32G4xx_HAL_Driver/Src/stm32g4xx_hal_dma.c ****         hdma->XferErrorCallback = NULL;
 907:Drivers/STM32G4xx_HAL_Driver/Src/stm32g4xx_hal_dma.c ****         break;
 908:Drivers/STM32G4xx_HAL_Driver/Src/stm32g4xx_hal_dma.c **** 
 909:Drivers/STM32G4xx_HAL_Driver/Src/stm32g4xx_hal_dma.c ****       case  HAL_DMA_XFER_ABORT_CB_ID:
 910:Drivers/STM32G4xx_HAL_Driver/Src/stm32g4xx_hal_dma.c ****         hdma->XferAbortCallback = NULL;
 911:Drivers/STM32G4xx_HAL_Driver/Src/stm32g4xx_hal_dma.c ****         break;
 912:Drivers/STM32G4xx_HAL_Driver/Src/stm32g4xx_hal_dma.c **** 
 913:Drivers/STM32G4xx_HAL_Driver/Src/stm32g4xx_hal_dma.c ****       case   HAL_DMA_XFER_ALL_CB_ID:
 914:Drivers/STM32G4xx_HAL_Driver/Src/stm32g4xx_hal_dma.c ****         hdma->XferCpltCallback = NULL;
 915:Drivers/STM32G4xx_HAL_Driver/Src/stm32g4xx_hal_dma.c ****         hdma->XferHalfCpltCallback = NULL;
 916:Drivers/STM32G4xx_HAL_Driver/Src/stm32g4xx_hal_dma.c ****         hdma->XferErrorCallback = NULL;
 917:Drivers/STM32G4xx_HAL_Driver/Src/stm32g4xx_hal_dma.c ****         hdma->XferAbortCallback = NULL;
 918:Drivers/STM32G4xx_HAL_Driver/Src/stm32g4xx_hal_dma.c ****         break;
 919:Drivers/STM32G4xx_HAL_Driver/Src/stm32g4xx_hal_dma.c **** 
 920:Drivers/STM32G4xx_HAL_Driver/Src/stm32g4xx_hal_dma.c ****       default:
 921:Drivers/STM32G4xx_HAL_Driver/Src/stm32g4xx_hal_dma.c ****         status = HAL_ERROR;
 922:Drivers/STM32G4xx_HAL_Driver/Src/stm32g4xx_hal_dma.c ****         break;
 923:Drivers/STM32G4xx_HAL_Driver/Src/stm32g4xx_hal_dma.c ****     }
 924:Drivers/STM32G4xx_HAL_Driver/Src/stm32g4xx_hal_dma.c ****   }
ARM GAS  /tmp/ccQyu1mP.s 			page 19


 925:Drivers/STM32G4xx_HAL_Driver/Src/stm32g4xx_hal_dma.c ****   else
 926:Drivers/STM32G4xx_HAL_Driver/Src/stm32g4xx_hal_dma.c ****   {
 927:Drivers/STM32G4xx_HAL_Driver/Src/stm32g4xx_hal_dma.c ****     status = HAL_ERROR;
 928:Drivers/STM32G4xx_HAL_Driver/Src/stm32g4xx_hal_dma.c ****   }
 929:Drivers/STM32G4xx_HAL_Driver/Src/stm32g4xx_hal_dma.c **** 
 930:Drivers/STM32G4xx_HAL_Driver/Src/stm32g4xx_hal_dma.c ****   /* Release Lock */
 931:Drivers/STM32G4xx_HAL_Driver/Src/stm32g4xx_hal_dma.c ****   __HAL_UNLOCK(hdma);
 932:Drivers/STM32G4xx_HAL_Driver/Src/stm32g4xx_hal_dma.c **** 
 933:Drivers/STM32G4xx_HAL_Driver/Src/stm32g4xx_hal_dma.c ****   return status;
 934:Drivers/STM32G4xx_HAL_Driver/Src/stm32g4xx_hal_dma.c **** }
 935:Drivers/STM32G4xx_HAL_Driver/Src/stm32g4xx_hal_dma.c **** 
 936:Drivers/STM32G4xx_HAL_Driver/Src/stm32g4xx_hal_dma.c **** /**
 937:Drivers/STM32G4xx_HAL_Driver/Src/stm32g4xx_hal_dma.c ****   * @}
 938:Drivers/STM32G4xx_HAL_Driver/Src/stm32g4xx_hal_dma.c ****   */
 939:Drivers/STM32G4xx_HAL_Driver/Src/stm32g4xx_hal_dma.c **** 
 940:Drivers/STM32G4xx_HAL_Driver/Src/stm32g4xx_hal_dma.c **** 
 941:Drivers/STM32G4xx_HAL_Driver/Src/stm32g4xx_hal_dma.c **** 
 942:Drivers/STM32G4xx_HAL_Driver/Src/stm32g4xx_hal_dma.c **** /** @defgroup DMA_Exported_Functions_Group3 Peripheral State and Errors functions
 943:Drivers/STM32G4xx_HAL_Driver/Src/stm32g4xx_hal_dma.c ****   *  @brief    Peripheral State and Errors functions
 944:Drivers/STM32G4xx_HAL_Driver/Src/stm32g4xx_hal_dma.c ****   *
 945:Drivers/STM32G4xx_HAL_Driver/Src/stm32g4xx_hal_dma.c **** @verbatim
 946:Drivers/STM32G4xx_HAL_Driver/Src/stm32g4xx_hal_dma.c ****  ===============================================================================
 947:Drivers/STM32G4xx_HAL_Driver/Src/stm32g4xx_hal_dma.c ****             ##### Peripheral State and Errors functions #####
 948:Drivers/STM32G4xx_HAL_Driver/Src/stm32g4xx_hal_dma.c ****  ===============================================================================
 949:Drivers/STM32G4xx_HAL_Driver/Src/stm32g4xx_hal_dma.c ****     [..]
 950:Drivers/STM32G4xx_HAL_Driver/Src/stm32g4xx_hal_dma.c ****     This subsection provides functions allowing to
 951:Drivers/STM32G4xx_HAL_Driver/Src/stm32g4xx_hal_dma.c ****       (+) Check the DMA state
 952:Drivers/STM32G4xx_HAL_Driver/Src/stm32g4xx_hal_dma.c ****       (+) Get error code
 953:Drivers/STM32G4xx_HAL_Driver/Src/stm32g4xx_hal_dma.c **** 
 954:Drivers/STM32G4xx_HAL_Driver/Src/stm32g4xx_hal_dma.c **** @endverbatim
 955:Drivers/STM32G4xx_HAL_Driver/Src/stm32g4xx_hal_dma.c ****   * @{
 956:Drivers/STM32G4xx_HAL_Driver/Src/stm32g4xx_hal_dma.c ****   */
 957:Drivers/STM32G4xx_HAL_Driver/Src/stm32g4xx_hal_dma.c **** 
 958:Drivers/STM32G4xx_HAL_Driver/Src/stm32g4xx_hal_dma.c **** /**
 959:Drivers/STM32G4xx_HAL_Driver/Src/stm32g4xx_hal_dma.c ****   * @brief  Return the DMA hande state.
 960:Drivers/STM32G4xx_HAL_Driver/Src/stm32g4xx_hal_dma.c ****   * @param  hdma pointer to a DMA_HandleTypeDef structure that contains
 961:Drivers/STM32G4xx_HAL_Driver/Src/stm32g4xx_hal_dma.c ****   *               the configuration information for the specified DMA Channel.
 962:Drivers/STM32G4xx_HAL_Driver/Src/stm32g4xx_hal_dma.c ****   * @retval HAL state
 963:Drivers/STM32G4xx_HAL_Driver/Src/stm32g4xx_hal_dma.c ****   */
 964:Drivers/STM32G4xx_HAL_Driver/Src/stm32g4xx_hal_dma.c **** HAL_DMA_StateTypeDef HAL_DMA_GetState(DMA_HandleTypeDef *hdma)
 965:Drivers/STM32G4xx_HAL_Driver/Src/stm32g4xx_hal_dma.c **** {
 966:Drivers/STM32G4xx_HAL_Driver/Src/stm32g4xx_hal_dma.c ****   /* Return DMA handle state */
 967:Drivers/STM32G4xx_HAL_Driver/Src/stm32g4xx_hal_dma.c ****   return hdma->State;
 968:Drivers/STM32G4xx_HAL_Driver/Src/stm32g4xx_hal_dma.c **** }
 969:Drivers/STM32G4xx_HAL_Driver/Src/stm32g4xx_hal_dma.c **** 
 970:Drivers/STM32G4xx_HAL_Driver/Src/stm32g4xx_hal_dma.c **** /**
 971:Drivers/STM32G4xx_HAL_Driver/Src/stm32g4xx_hal_dma.c ****   * @brief  Return the DMA error code.
 972:Drivers/STM32G4xx_HAL_Driver/Src/stm32g4xx_hal_dma.c ****   * @param  hdma : pointer to a DMA_HandleTypeDef structure that contains
 973:Drivers/STM32G4xx_HAL_Driver/Src/stm32g4xx_hal_dma.c ****   *              the configuration information for the specified DMA Channel.
 974:Drivers/STM32G4xx_HAL_Driver/Src/stm32g4xx_hal_dma.c ****   * @retval DMA Error Code
 975:Drivers/STM32G4xx_HAL_Driver/Src/stm32g4xx_hal_dma.c ****   */
 976:Drivers/STM32G4xx_HAL_Driver/Src/stm32g4xx_hal_dma.c **** uint32_t HAL_DMA_GetError(DMA_HandleTypeDef *hdma)
 977:Drivers/STM32G4xx_HAL_Driver/Src/stm32g4xx_hal_dma.c **** {
 978:Drivers/STM32G4xx_HAL_Driver/Src/stm32g4xx_hal_dma.c ****   return hdma->ErrorCode;
 979:Drivers/STM32G4xx_HAL_Driver/Src/stm32g4xx_hal_dma.c **** }
 980:Drivers/STM32G4xx_HAL_Driver/Src/stm32g4xx_hal_dma.c **** 
 981:Drivers/STM32G4xx_HAL_Driver/Src/stm32g4xx_hal_dma.c **** /**
ARM GAS  /tmp/ccQyu1mP.s 			page 20


 982:Drivers/STM32G4xx_HAL_Driver/Src/stm32g4xx_hal_dma.c ****   * @}
 983:Drivers/STM32G4xx_HAL_Driver/Src/stm32g4xx_hal_dma.c ****   */
 984:Drivers/STM32G4xx_HAL_Driver/Src/stm32g4xx_hal_dma.c **** 
 985:Drivers/STM32G4xx_HAL_Driver/Src/stm32g4xx_hal_dma.c **** /**
 986:Drivers/STM32G4xx_HAL_Driver/Src/stm32g4xx_hal_dma.c ****   * @}
 987:Drivers/STM32G4xx_HAL_Driver/Src/stm32g4xx_hal_dma.c ****   */
 988:Drivers/STM32G4xx_HAL_Driver/Src/stm32g4xx_hal_dma.c **** 
 989:Drivers/STM32G4xx_HAL_Driver/Src/stm32g4xx_hal_dma.c **** /** @addtogroup DMA_Private_Functions
 990:Drivers/STM32G4xx_HAL_Driver/Src/stm32g4xx_hal_dma.c ****   * @{
 991:Drivers/STM32G4xx_HAL_Driver/Src/stm32g4xx_hal_dma.c ****   */
 992:Drivers/STM32G4xx_HAL_Driver/Src/stm32g4xx_hal_dma.c **** 
 993:Drivers/STM32G4xx_HAL_Driver/Src/stm32g4xx_hal_dma.c **** /**
 994:Drivers/STM32G4xx_HAL_Driver/Src/stm32g4xx_hal_dma.c ****   * @brief  Sets the DMA Transfer parameter.
 995:Drivers/STM32G4xx_HAL_Driver/Src/stm32g4xx_hal_dma.c ****   * @param  hdma       pointer to a DMA_HandleTypeDef structure that contains
 996:Drivers/STM32G4xx_HAL_Driver/Src/stm32g4xx_hal_dma.c ****   *                     the configuration information for the specified DMA Channel.
 997:Drivers/STM32G4xx_HAL_Driver/Src/stm32g4xx_hal_dma.c ****   * @param  SrcAddress The source memory Buffer address
 998:Drivers/STM32G4xx_HAL_Driver/Src/stm32g4xx_hal_dma.c ****   * @param  DstAddress The destination memory Buffer address
 999:Drivers/STM32G4xx_HAL_Driver/Src/stm32g4xx_hal_dma.c ****   * @param  DataLength The length of data to be transferred from source to destination
1000:Drivers/STM32G4xx_HAL_Driver/Src/stm32g4xx_hal_dma.c ****   * @retval HAL status
1001:Drivers/STM32G4xx_HAL_Driver/Src/stm32g4xx_hal_dma.c ****   */
1002:Drivers/STM32G4xx_HAL_Driver/Src/stm32g4xx_hal_dma.c **** static void DMA_SetConfig(DMA_HandleTypeDef *hdma, uint32_t SrcAddress, uint32_t DstAddress, uint32
1003:Drivers/STM32G4xx_HAL_Driver/Src/stm32g4xx_hal_dma.c **** {
1004:Drivers/STM32G4xx_HAL_Driver/Src/stm32g4xx_hal_dma.c ****   /* Clear the DMAMUX synchro overrun flag */
1005:Drivers/STM32G4xx_HAL_Driver/Src/stm32g4xx_hal_dma.c ****   hdma->DMAmuxChannelStatus->CFR = hdma->DMAmuxChannelStatusMask;
1006:Drivers/STM32G4xx_HAL_Driver/Src/stm32g4xx_hal_dma.c **** 
1007:Drivers/STM32G4xx_HAL_Driver/Src/stm32g4xx_hal_dma.c ****   if (hdma->DMAmuxRequestGen != 0U)
1008:Drivers/STM32G4xx_HAL_Driver/Src/stm32g4xx_hal_dma.c ****   {
1009:Drivers/STM32G4xx_HAL_Driver/Src/stm32g4xx_hal_dma.c ****     /* Clear the DMAMUX request generator overrun flag */
1010:Drivers/STM32G4xx_HAL_Driver/Src/stm32g4xx_hal_dma.c ****     hdma->DMAmuxRequestGenStatus->RGCFR = hdma->DMAmuxRequestGenStatusMask;
1011:Drivers/STM32G4xx_HAL_Driver/Src/stm32g4xx_hal_dma.c ****   }
1012:Drivers/STM32G4xx_HAL_Driver/Src/stm32g4xx_hal_dma.c **** 
1013:Drivers/STM32G4xx_HAL_Driver/Src/stm32g4xx_hal_dma.c ****   /* Clear all flags */
1014:Drivers/STM32G4xx_HAL_Driver/Src/stm32g4xx_hal_dma.c ****   hdma->DmaBaseAddress->IFCR = (DMA_ISR_GIF1 << (hdma->ChannelIndex & 0x1FU));
1015:Drivers/STM32G4xx_HAL_Driver/Src/stm32g4xx_hal_dma.c **** 
1016:Drivers/STM32G4xx_HAL_Driver/Src/stm32g4xx_hal_dma.c ****   /* Configure DMA Channel data length */
1017:Drivers/STM32G4xx_HAL_Driver/Src/stm32g4xx_hal_dma.c ****   hdma->Instance->CNDTR = DataLength;
1018:Drivers/STM32G4xx_HAL_Driver/Src/stm32g4xx_hal_dma.c **** 
1019:Drivers/STM32G4xx_HAL_Driver/Src/stm32g4xx_hal_dma.c ****   /* Memory to Peripheral */
1020:Drivers/STM32G4xx_HAL_Driver/Src/stm32g4xx_hal_dma.c ****   if ((hdma->Init.Direction) == DMA_MEMORY_TO_PERIPH)
1021:Drivers/STM32G4xx_HAL_Driver/Src/stm32g4xx_hal_dma.c ****   {
1022:Drivers/STM32G4xx_HAL_Driver/Src/stm32g4xx_hal_dma.c ****     /* Configure DMA Channel destination address */
1023:Drivers/STM32G4xx_HAL_Driver/Src/stm32g4xx_hal_dma.c ****     hdma->Instance->CPAR = DstAddress;
1024:Drivers/STM32G4xx_HAL_Driver/Src/stm32g4xx_hal_dma.c **** 
1025:Drivers/STM32G4xx_HAL_Driver/Src/stm32g4xx_hal_dma.c ****     /* Configure DMA Channel source address */
1026:Drivers/STM32G4xx_HAL_Driver/Src/stm32g4xx_hal_dma.c ****     hdma->Instance->CMAR = SrcAddress;
1027:Drivers/STM32G4xx_HAL_Driver/Src/stm32g4xx_hal_dma.c ****   }
1028:Drivers/STM32G4xx_HAL_Driver/Src/stm32g4xx_hal_dma.c ****   /* Peripheral to Memory */
1029:Drivers/STM32G4xx_HAL_Driver/Src/stm32g4xx_hal_dma.c ****   else
1030:Drivers/STM32G4xx_HAL_Driver/Src/stm32g4xx_hal_dma.c ****   {
1031:Drivers/STM32G4xx_HAL_Driver/Src/stm32g4xx_hal_dma.c ****     /* Configure DMA Channel source address */
1032:Drivers/STM32G4xx_HAL_Driver/Src/stm32g4xx_hal_dma.c ****     hdma->Instance->CPAR = SrcAddress;
1033:Drivers/STM32G4xx_HAL_Driver/Src/stm32g4xx_hal_dma.c **** 
1034:Drivers/STM32G4xx_HAL_Driver/Src/stm32g4xx_hal_dma.c ****     /* Configure DMA Channel destination address */
1035:Drivers/STM32G4xx_HAL_Driver/Src/stm32g4xx_hal_dma.c ****     hdma->Instance->CMAR = DstAddress;
1036:Drivers/STM32G4xx_HAL_Driver/Src/stm32g4xx_hal_dma.c ****   }
1037:Drivers/STM32G4xx_HAL_Driver/Src/stm32g4xx_hal_dma.c **** }
1038:Drivers/STM32G4xx_HAL_Driver/Src/stm32g4xx_hal_dma.c **** 
ARM GAS  /tmp/ccQyu1mP.s 			page 21


1039:Drivers/STM32G4xx_HAL_Driver/Src/stm32g4xx_hal_dma.c **** /**
1040:Drivers/STM32G4xx_HAL_Driver/Src/stm32g4xx_hal_dma.c ****   * @brief  Updates the DMA handle with the DMAMUX  channel and status mask depending on stream num
1041:Drivers/STM32G4xx_HAL_Driver/Src/stm32g4xx_hal_dma.c ****   * @param  hdma        pointer to a DMA_HandleTypeDef structure that contains
1042:Drivers/STM32G4xx_HAL_Driver/Src/stm32g4xx_hal_dma.c ****   *                     the configuration information for the specified DMA Stream.
1043:Drivers/STM32G4xx_HAL_Driver/Src/stm32g4xx_hal_dma.c ****   * @retval None
1044:Drivers/STM32G4xx_HAL_Driver/Src/stm32g4xx_hal_dma.c ****   */
1045:Drivers/STM32G4xx_HAL_Driver/Src/stm32g4xx_hal_dma.c **** static void DMA_CalcDMAMUXChannelBaseAndMask(DMA_HandleTypeDef *hdma)
1046:Drivers/STM32G4xx_HAL_Driver/Src/stm32g4xx_hal_dma.c **** {
1047:Drivers/STM32G4xx_HAL_Driver/Src/stm32g4xx_hal_dma.c ****   uint32_t dmamux_base_addr;
1048:Drivers/STM32G4xx_HAL_Driver/Src/stm32g4xx_hal_dma.c ****   uint32_t channel_number;
1049:Drivers/STM32G4xx_HAL_Driver/Src/stm32g4xx_hal_dma.c ****   DMAMUX_Channel_TypeDef *DMAMUX1_ChannelBase;
1050:Drivers/STM32G4xx_HAL_Driver/Src/stm32g4xx_hal_dma.c **** 
1051:Drivers/STM32G4xx_HAL_Driver/Src/stm32g4xx_hal_dma.c ****   /* check if instance is not outside the DMA channel range */
1052:Drivers/STM32G4xx_HAL_Driver/Src/stm32g4xx_hal_dma.c ****   if ((uint32_t)hdma->Instance < (uint32_t)DMA2_Channel1)
  99              		.loc 1 1052 6 view .LVU32
 100 0030 DFF8F4E0 		ldr	lr, .L18+36
 101 0034 DFF8CC80 		ldr	r8, .L18
 102              	.LBE15:
 103              	.LBE14:
 201:Drivers/STM32G4xx_HAL_Driver/Src/stm32g4xx_hal_dma.c ****           hdma->Init.PeriphDataAlignment | hdma->Init.MemDataAlignment |
 104              		.loc 1 201 42 view .LVU33
 105 0038 3243     		orrs	r2, r2, r6
 189:Drivers/STM32G4xx_HAL_Driver/Src/stm32g4xx_hal_dma.c **** 
 106              		.loc 1 189 15 view .LVU34
 107 003a 4FF0020C 		mov	ip, #2
 201:Drivers/STM32G4xx_HAL_Driver/Src/stm32g4xx_hal_dma.c ****           hdma->Init.PeriphDataAlignment | hdma->Init.MemDataAlignment |
 108              		.loc 1 201 72 view .LVU35
 109 003e 2243     		orrs	r2, r2, r4
 189:Drivers/STM32G4xx_HAL_Driver/Src/stm32g4xx_hal_dma.c **** 
 110              		.loc 1 189 15 view .LVU36
 111 0040 83F825C0 		strb	ip, [r3, #37]
 112              	.LBB23:
 113              	.LBB16:
1053:Drivers/STM32G4xx_HAL_Driver/Src/stm32g4xx_hal_dma.c ****   {
1054:Drivers/STM32G4xx_HAL_Driver/Src/stm32g4xx_hal_dma.c ****     /* DMA1 */
1055:Drivers/STM32G4xx_HAL_Driver/Src/stm32g4xx_hal_dma.c ****     DMAMUX1_ChannelBase = DMAMUX1_Channel0;
1056:Drivers/STM32G4xx_HAL_Driver/Src/stm32g4xx_hal_dma.c ****   }
1057:Drivers/STM32G4xx_HAL_Driver/Src/stm32g4xx_hal_dma.c ****   else
1058:Drivers/STM32G4xx_HAL_Driver/Src/stm32g4xx_hal_dma.c ****   {
1059:Drivers/STM32G4xx_HAL_Driver/Src/stm32g4xx_hal_dma.c ****     /* DMA2 */
1060:Drivers/STM32G4xx_HAL_Driver/Src/stm32g4xx_hal_dma.c **** #if defined (STM32G471xx) || defined (STM32G473xx) || defined (STM32G474xx) || defined (STM32G483xx
1061:Drivers/STM32G4xx_HAL_Driver/Src/stm32g4xx_hal_dma.c ****     DMAMUX1_ChannelBase = DMAMUX1_Channel8;
1062:Drivers/STM32G4xx_HAL_Driver/Src/stm32g4xx_hal_dma.c **** #elif defined (STM32G431xx) || defined (STM32G441xx) || defined (STM32GBK1CB)
1063:Drivers/STM32G4xx_HAL_Driver/Src/stm32g4xx_hal_dma.c ****     DMAMUX1_ChannelBase = DMAMUX1_Channel6;
1064:Drivers/STM32G4xx_HAL_Driver/Src/stm32g4xx_hal_dma.c **** #else
1065:Drivers/STM32G4xx_HAL_Driver/Src/stm32g4xx_hal_dma.c ****     DMAMUX1_ChannelBase = DMAMUX1_Channel7;
1066:Drivers/STM32G4xx_HAL_Driver/Src/stm32g4xx_hal_dma.c **** #endif /* STM32G4x1xx) */
1067:Drivers/STM32G4xx_HAL_Driver/Src/stm32g4xx_hal_dma.c ****   }
1068:Drivers/STM32G4xx_HAL_Driver/Src/stm32g4xx_hal_dma.c ****   dmamux_base_addr = (uint32_t)DMAMUX1_ChannelBase;
1069:Drivers/STM32G4xx_HAL_Driver/Src/stm32g4xx_hal_dma.c ****   channel_number = (((uint32_t)hdma->Instance & 0xFFU) - 8U) / 20U;
 114              		.loc 1 1069 18 view .LVU37
 115 0044 314C     		ldr	r4, .L18+8
 116              	.LBE16:
 117              	.LBE23:
 192:Drivers/STM32G4xx_HAL_Driver/Src/stm32g4xx_hal_dma.c **** 
 118              		.loc 1 192 7 view .LVU38
 119 0046 D0F800C0 		ldr	ip, [r0]
ARM GAS  /tmp/ccQyu1mP.s 			page 22


 202:Drivers/STM32G4xx_HAL_Driver/Src/stm32g4xx_hal_dma.c ****           hdma->Init.Mode                | hdma->Init.Priority;
 120              		.loc 1 202 72 view .LVU39
 121 004a DE69     		ldr	r6, [r3, #28]
 122 004c 5964     		str	r1, [r3, #68]
 189:Drivers/STM32G4xx_HAL_Driver/Src/stm32g4xx_hal_dma.c **** 
 123              		.loc 1 189 3 is_stmt 1 view .LVU40
 192:Drivers/STM32G4xx_HAL_Driver/Src/stm32g4xx_hal_dma.c **** 
 124              		.loc 1 192 3 view .LVU41
 125              	.LVL2:
 195:Drivers/STM32G4xx_HAL_Driver/Src/stm32g4xx_hal_dma.c ****                       DMA_CCR_MINC  | DMA_CCR_PINC   | DMA_CCR_CIRC   |
 126              		.loc 1 195 3 view .LVU42
 202:Drivers/STM32G4xx_HAL_Driver/Src/stm32g4xx_hal_dma.c ****           hdma->Init.Mode                | hdma->Init.Priority;
 127              		.loc 1 202 42 is_stmt 0 view .LVU43
 128 004e 2A43     		orrs	r2, r2, r5
 129              	.LBB24:
 130              	.LBB17:
 131              		.loc 1 1069 47 view .LVU44
 132 0050 C5B2     		uxtb	r5, r0
 133              		.loc 1 1069 56 view .LVU45
 134 0052 083D     		subs	r5, r5, #8
 135              		.loc 1 1069 18 view .LVU46
 136 0054 A4FB0545 		umull	r4, r5, r4, r5
 137              	.LBE17:
 138              	.LBE24:
 203:Drivers/STM32G4xx_HAL_Driver/Src/stm32g4xx_hal_dma.c **** 
 139              		.loc 1 203 42 view .LVU47
 140 0058 1C6A     		ldr	r4, [r3, #32]
 202:Drivers/STM32G4xx_HAL_Driver/Src/stm32g4xx_hal_dma.c ****           hdma->Init.Mode                | hdma->Init.Priority;
 141              		.loc 1 202 72 view .LVU48
 142 005a 3243     		orrs	r2, r2, r6
 195:Drivers/STM32G4xx_HAL_Driver/Src/stm32g4xx_hal_dma.c ****                       DMA_CCR_MINC  | DMA_CCR_PINC   | DMA_CCR_CIRC   |
 143              		.loc 1 195 7 view .LVU49
 144 005c 2CF4FF4C 		bic	ip, ip, #32640
 145              	.LVL3:
 146              	.LBB25:
 147              	.LBB18:
1052:Drivers/STM32G4xx_HAL_Driver/Src/stm32g4xx_hal_dma.c ****   {
 148              		.loc 1 1052 6 view .LVU50
 149 0060 2C4E     		ldr	r6, .L18+16
 150              	.LBE18:
 151              	.LBE25:
 203:Drivers/STM32G4xx_HAL_Driver/Src/stm32g4xx_hal_dma.c **** 
 152              		.loc 1 203 42 view .LVU51
 153 0062 2243     		orrs	r2, r2, r4
 195:Drivers/STM32G4xx_HAL_Driver/Src/stm32g4xx_hal_dma.c ****                       DMA_CCR_MINC  | DMA_CCR_PINC   | DMA_CCR_CIRC   |
 154              		.loc 1 195 7 view .LVU52
 155 0064 2CF0700C 		bic	ip, ip, #112
 156              	.LVL4:
 200:Drivers/STM32G4xx_HAL_Driver/Src/stm32g4xx_hal_dma.c ****           hdma->Init.PeriphInc           | hdma->Init.MemInc           |
 157              		.loc 1 200 3 is_stmt 1 view .LVU53
 158              	.LBB26:
 159              	.LBB19:
1070:Drivers/STM32G4xx_HAL_Driver/Src/stm32g4xx_hal_dma.c ****   hdma->DMAmuxChannel = (DMAMUX_Channel_TypeDef *)(uint32_t)(dmamux_base_addr + ((hdma->ChannelInde
1071:Drivers/STM32G4xx_HAL_Driver/Src/stm32g4xx_hal_dma.c ****   hdma->DMAmuxChannelStatus = DMAMUX1_ChannelStatus;
1072:Drivers/STM32G4xx_HAL_Driver/Src/stm32g4xx_hal_dma.c ****   hdma->DMAmuxChannelStatusMask = 1UL << (channel_number & 0x1FU);
 160              		.loc 1 1072 58 is_stmt 0 view .LVU54
 161 0068 C5F30414 		ubfx	r4, r5, #4, #5
ARM GAS  /tmp/ccQyu1mP.s 			page 23


1052:Drivers/STM32G4xx_HAL_Driver/Src/stm32g4xx_hal_dma.c ****   {
 162              		.loc 1 1052 6 view .LVU55
 163 006c 4045     		cmp	r0, r8
 164 006e 88BF     		it	hi
 165 0070 7646     		movhi	r6, lr
 166              	.LBE19:
 167              	.LBE26:
 200:Drivers/STM32G4xx_HAL_Driver/Src/stm32g4xx_hal_dma.c ****           hdma->Init.PeriphInc           | hdma->Init.MemInc           |
 168              		.loc 1 200 7 view .LVU56
 169 0072 42EA0C02 		orr	r2, r2, ip
 170              	.LVL5:
 206:Drivers/STM32G4xx_HAL_Driver/Src/stm32g4xx_hal_dma.c **** 
 171              		.loc 1 206 3 is_stmt 1 view .LVU57
 172              	.LBB27:
 173              	.LBB20:
1070:Drivers/STM32G4xx_HAL_Driver/Src/stm32g4xx_hal_dma.c ****   hdma->DMAmuxChannel = (DMAMUX_Channel_TypeDef *)(uint32_t)(dmamux_base_addr + ((hdma->ChannelInde
 174              		.loc 1 1070 102 is_stmt 0 view .LVU58
 175 0076 8908     		lsrs	r1, r1, #2
 176              		.loc 1 1072 39 view .LVU59
 177 0078 0125     		movs	r5, #1
1071:Drivers/STM32G4xx_HAL_Driver/Src/stm32g4xx_hal_dma.c ****   hdma->DMAmuxChannelStatusMask = 1UL << (channel_number & 0x1FU);
 178              		.loc 1 1071 29 view .LVU60
 179 007a DFF8B0C0 		ldr	ip, .L18+40
 180              	.LBE20:
 181              	.LBE27:
 206:Drivers/STM32G4xx_HAL_Driver/Src/stm32g4xx_hal_dma.c **** 
 182              		.loc 1 206 23 view .LVU61
 183 007e 0260     		str	r2, [r0]
 211:Drivers/STM32G4xx_HAL_Driver/Src/stm32g4xx_hal_dma.c **** 
 184              		.loc 1 211 3 is_stmt 1 view .LVU62
 185              	.LVL6:
 186              	.LBB28:
 187              	.LBI14:
1045:Drivers/STM32G4xx_HAL_Driver/Src/stm32g4xx_hal_dma.c **** {
 188              		.loc 1 1045 13 view .LVU63
 189              	.LBB21:
1047:Drivers/STM32G4xx_HAL_Driver/Src/stm32g4xx_hal_dma.c ****   uint32_t channel_number;
 190              		.loc 1 1047 3 view .LVU64
1048:Drivers/STM32G4xx_HAL_Driver/Src/stm32g4xx_hal_dma.c ****   DMAMUX_Channel_TypeDef *DMAMUX1_ChannelBase;
 191              		.loc 1 1048 3 view .LVU65
1049:Drivers/STM32G4xx_HAL_Driver/Src/stm32g4xx_hal_dma.c **** 
 192              		.loc 1 1049 3 view .LVU66
1052:Drivers/STM32G4xx_HAL_Driver/Src/stm32g4xx_hal_dma.c ****   {
 193              		.loc 1 1052 3 view .LVU67
1068:Drivers/STM32G4xx_HAL_Driver/Src/stm32g4xx_hal_dma.c ****   channel_number = (((uint32_t)hdma->Instance & 0xFFU) - 8U) / 20U;
 194              		.loc 1 1068 3 view .LVU68
1069:Drivers/STM32G4xx_HAL_Driver/Src/stm32g4xx_hal_dma.c ****   hdma->DMAmuxChannel = (DMAMUX_Channel_TypeDef *)(uint32_t)(dmamux_base_addr + ((hdma->ChannelInde
 195              		.loc 1 1069 3 view .LVU69
1070:Drivers/STM32G4xx_HAL_Driver/Src/stm32g4xx_hal_dma.c ****   hdma->DMAmuxChannelStatus = DMAMUX1_ChannelStatus;
 196              		.loc 1 1070 3 view .LVU70
 197              		.loc 1 1072 39 is_stmt 0 view .LVU71
 198 0080 05FA04F4 		lsl	r4, r5, r4
1070:Drivers/STM32G4xx_HAL_Driver/Src/stm32g4xx_hal_dma.c ****   hdma->DMAmuxChannelStatus = DMAMUX1_ChannelStatus;
 199              		.loc 1 1070 51 view .LVU72
 200 0084 06EB810E 		add	lr, r6, r1, lsl #2
 201              	.LBE21:
 202              	.LBE28:
ARM GAS  /tmp/ccQyu1mP.s 			page 24


 213:Drivers/STM32G4xx_HAL_Driver/Src/stm32g4xx_hal_dma.c ****   {
 203              		.loc 1 213 6 view .LVU73
 204 0088 B7F5804F 		cmp	r7, #16384
 205              	.LBB29:
 206              	.LBB22:
 207              		.loc 1 1072 33 view .LVU74
 208 008c 1C65     		str	r4, [r3, #80]
1071:Drivers/STM32G4xx_HAL_Driver/Src/stm32g4xx_hal_dma.c ****   hdma->DMAmuxChannelStatusMask = 1UL << (channel_number & 0x1FU);
 209              		.loc 1 1071 29 view .LVU75
 210 008e C3E912EC 		strd	lr, ip, [r3, #72]
 211              		.loc 1 1072 3 is_stmt 1 view .LVU76
 212              	.LVL7:
 213              		.loc 1 1072 3 is_stmt 0 view .LVU77
 214              	.LBE22:
 215              	.LBE29:
 213:Drivers/STM32G4xx_HAL_Driver/Src/stm32g4xx_hal_dma.c ****   {
 216              		.loc 1 213 3 is_stmt 1 view .LVU78
 213:Drivers/STM32G4xx_HAL_Driver/Src/stm32g4xx_hal_dma.c ****   {
 217              		.loc 1 213 6 is_stmt 0 view .LVU79
 218 0092 29D0     		beq	.L17
 220:Drivers/STM32G4xx_HAL_Driver/Src/stm32g4xx_hal_dma.c **** 
 219              		.loc 1 220 3 is_stmt 1 view .LVU80
 220:Drivers/STM32G4xx_HAL_Driver/Src/stm32g4xx_hal_dma.c **** 
 220              		.loc 1 220 41 is_stmt 0 view .LVU81
 221 0094 5868     		ldr	r0, [r3, #4]
 220:Drivers/STM32G4xx_HAL_Driver/Src/stm32g4xx_hal_dma.c **** 
 222              		.loc 1 220 50 view .LVU82
 223 0096 C2B2     		uxtb	r2, r0
 224              	.LVL8:
 225:Drivers/STM32G4xx_HAL_Driver/Src/stm32g4xx_hal_dma.c ****   {
 225              		.loc 1 225 35 view .LVU83
 226 0098 0138     		subs	r0, r0, #1
 225:Drivers/STM32G4xx_HAL_Driver/Src/stm32g4xx_hal_dma.c ****   {
 227              		.loc 1 225 6 view .LVU84
 228 009a 0328     		cmp	r0, #3
 220:Drivers/STM32G4xx_HAL_Driver/Src/stm32g4xx_hal_dma.c **** 
 229              		.loc 1 220 28 view .LVU85
 230 009c 46F82120 		str	r2, [r6, r1, lsl #2]
 231              	.LVL9:
 223:Drivers/STM32G4xx_HAL_Driver/Src/stm32g4xx_hal_dma.c **** 
 232              		.loc 1 223 3 is_stmt 1 view .LVU86
 223:Drivers/STM32G4xx_HAL_Driver/Src/stm32g4xx_hal_dma.c **** 
 233              		.loc 1 223 34 is_stmt 0 view .LVU87
 234 00a0 CCF80440 		str	r4, [ip, #4]
 225:Drivers/STM32G4xx_HAL_Driver/Src/stm32g4xx_hal_dma.c ****   {
 235              		.loc 1 225 3 is_stmt 1 view .LVU88
 225:Drivers/STM32G4xx_HAL_Driver/Src/stm32g4xx_hal_dma.c ****   {
 236              		.loc 1 225 6 is_stmt 0 view .LVU89
 237 00a4 26D8     		bhi	.L7
 230:Drivers/STM32G4xx_HAL_Driver/Src/stm32g4xx_hal_dma.c **** 
 238              		.loc 1 230 5 is_stmt 1 view .LVU90
 239              	.LVL10:
 240              	.LBB30:
 241              	.LBI30:
1073:Drivers/STM32G4xx_HAL_Driver/Src/stm32g4xx_hal_dma.c **** }
1074:Drivers/STM32G4xx_HAL_Driver/Src/stm32g4xx_hal_dma.c **** 
1075:Drivers/STM32G4xx_HAL_Driver/Src/stm32g4xx_hal_dma.c **** /**
ARM GAS  /tmp/ccQyu1mP.s 			page 25


1076:Drivers/STM32G4xx_HAL_Driver/Src/stm32g4xx_hal_dma.c ****   * @brief  Updates the DMA handle with the DMAMUX  request generator params
1077:Drivers/STM32G4xx_HAL_Driver/Src/stm32g4xx_hal_dma.c ****   * @param  hdma        pointer to a DMA_HandleTypeDef structure that contains
1078:Drivers/STM32G4xx_HAL_Driver/Src/stm32g4xx_hal_dma.c ****   *                     the configuration information for the specified DMA Channel.
1079:Drivers/STM32G4xx_HAL_Driver/Src/stm32g4xx_hal_dma.c ****   * @retval None
1080:Drivers/STM32G4xx_HAL_Driver/Src/stm32g4xx_hal_dma.c ****   */
1081:Drivers/STM32G4xx_HAL_Driver/Src/stm32g4xx_hal_dma.c **** 
1082:Drivers/STM32G4xx_HAL_Driver/Src/stm32g4xx_hal_dma.c **** static void DMA_CalcDMAMUXRequestGenBaseAndMask(DMA_HandleTypeDef *hdma)
 242              		.loc 1 1082 13 view .LVU91
 243              	.LBB31:
1083:Drivers/STM32G4xx_HAL_Driver/Src/stm32g4xx_hal_dma.c **** {
1084:Drivers/STM32G4xx_HAL_Driver/Src/stm32g4xx_hal_dma.c ****   uint32_t request =  hdma->Init.Request & DMAMUX_CxCR_DMAREQ_ID;
 244              		.loc 1 1084 3 view .LVU92
1085:Drivers/STM32G4xx_HAL_Driver/Src/stm32g4xx_hal_dma.c **** 
1086:Drivers/STM32G4xx_HAL_Driver/Src/stm32g4xx_hal_dma.c ****   /* DMA Channels are connected to DMAMUX1 request generator blocks*/
1087:Drivers/STM32G4xx_HAL_Driver/Src/stm32g4xx_hal_dma.c ****   hdma->DMAmuxRequestGen = (DMAMUX_RequestGen_TypeDef *)((uint32_t)(((uint32_t)DMAMUX1_RequestGener
 245              		.loc 1 1087 3 view .LVU93
 246              		.loc 1 1087 58 is_stmt 0 view .LVU94
 247 00a6 1C49     		ldr	r1, .L18+20
1088:Drivers/STM32G4xx_HAL_Driver/Src/stm32g4xx_hal_dma.c **** 
1089:Drivers/STM32G4xx_HAL_Driver/Src/stm32g4xx_hal_dma.c ****   hdma->DMAmuxRequestGenStatus = DMAMUX1_RequestGenStatus;
 248              		.loc 1 1089 32 view .LVU95
 249 00a8 1C48     		ldr	r0, .L18+24
 250 00aa 9865     		str	r0, [r3, #88]
1087:Drivers/STM32G4xx_HAL_Driver/Src/stm32g4xx_hal_dma.c **** 
 251              		.loc 1 1087 58 view .LVU96
 252 00ac 1144     		add	r1, r1, r2
1090:Drivers/STM32G4xx_HAL_Driver/Src/stm32g4xx_hal_dma.c **** 
1091:Drivers/STM32G4xx_HAL_Driver/Src/stm32g4xx_hal_dma.c ****   hdma->DMAmuxRequestGenStatusMask = 1UL << ((request - 1U) & 0x1FU);
 253              		.loc 1 1091 55 view .LVU97
 254 00ae 013A     		subs	r2, r2, #1
 255              	.LVL11:
1087:Drivers/STM32G4xx_HAL_Driver/Src/stm32g4xx_hal_dma.c **** 
 256              		.loc 1 1087 58 view .LVU98
 257 00b0 8900     		lsls	r1, r1, #2
 258              		.loc 1 1091 61 view .LVU99
 259 00b2 02F01F02 		and	r2, r2, #31
 260              	.LVL12:
 261              		.loc 1 1091 42 view .LVU100
 262 00b6 05FA02F2 		lsl	r2, r5, r2
 263              	.LBE31:
 264              	.LBE30:
 233:Drivers/STM32G4xx_HAL_Driver/Src/stm32g4xx_hal_dma.c **** 
 265              		.loc 1 233 34 view .LVU101
 266 00ba 0024     		movs	r4, #0
 267              	.LBB33:
 268              	.LBB32:
1087:Drivers/STM32G4xx_HAL_Driver/Src/stm32g4xx_hal_dma.c **** 
 269              		.loc 1 1087 26 view .LVU102
 270 00bc 5965     		str	r1, [r3, #84]
1089:Drivers/STM32G4xx_HAL_Driver/Src/stm32g4xx_hal_dma.c **** 
 271              		.loc 1 1089 3 is_stmt 1 view .LVU103
 272              		.loc 1 1091 3 view .LVU104
 273              		.loc 1 1091 36 is_stmt 0 view .LVU105
 274 00be DA65     		str	r2, [r3, #92]
 275              	.LVL13:
 276              		.loc 1 1091 36 view .LVU106
 277              	.LBE32:
ARM GAS  /tmp/ccQyu1mP.s 			page 26


 278              	.LBE33:
 233:Drivers/STM32G4xx_HAL_Driver/Src/stm32g4xx_hal_dma.c **** 
 279              		.loc 1 233 5 is_stmt 1 view .LVU107
 233:Drivers/STM32G4xx_HAL_Driver/Src/stm32g4xx_hal_dma.c **** 
 280              		.loc 1 233 34 is_stmt 0 view .LVU108
 281 00c0 0C60     		str	r4, [r1]
 236:Drivers/STM32G4xx_HAL_Driver/Src/stm32g4xx_hal_dma.c ****   }
 282              		.loc 1 236 5 is_stmt 1 view .LVU109
 236:Drivers/STM32G4xx_HAL_Driver/Src/stm32g4xx_hal_dma.c ****   }
 283              		.loc 1 236 41 is_stmt 0 view .LVU110
 284 00c2 4260     		str	r2, [r0, #4]
 285              	.L8:
 246:Drivers/STM32G4xx_HAL_Driver/Src/stm32g4xx_hal_dma.c **** 
 286              		.loc 1 246 3 is_stmt 1 view .LVU111
 246:Drivers/STM32G4xx_HAL_Driver/Src/stm32g4xx_hal_dma.c **** 
 287              		.loc 1 246 19 is_stmt 0 view .LVU112
 288 00c4 0020     		movs	r0, #0
 249:Drivers/STM32G4xx_HAL_Driver/Src/stm32g4xx_hal_dma.c **** 
 289              		.loc 1 249 16 view .LVU113
 290 00c6 0122     		movs	r2, #1
 246:Drivers/STM32G4xx_HAL_Driver/Src/stm32g4xx_hal_dma.c **** 
 291              		.loc 1 246 19 view .LVU114
 292 00c8 D863     		str	r0, [r3, #60]
 249:Drivers/STM32G4xx_HAL_Driver/Src/stm32g4xx_hal_dma.c **** 
 293              		.loc 1 249 3 is_stmt 1 view .LVU115
 252:Drivers/STM32G4xx_HAL_Driver/Src/stm32g4xx_hal_dma.c **** 
 294              		.loc 1 252 14 is_stmt 0 view .LVU116
 295 00ca 83F82400 		strb	r0, [r3, #36]
 249:Drivers/STM32G4xx_HAL_Driver/Src/stm32g4xx_hal_dma.c **** 
 296              		.loc 1 249 16 view .LVU117
 297 00ce 83F82520 		strb	r2, [r3, #37]
 252:Drivers/STM32G4xx_HAL_Driver/Src/stm32g4xx_hal_dma.c **** 
 298              		.loc 1 252 3 is_stmt 1 view .LVU118
 254:Drivers/STM32G4xx_HAL_Driver/Src/stm32g4xx_hal_dma.c **** }
 299              		.loc 1 254 3 view .LVU119
 255:Drivers/STM32G4xx_HAL_Driver/Src/stm32g4xx_hal_dma.c **** 
 300              		.loc 1 255 1 is_stmt 0 view .LVU120
 301 00d2 BDE8F081 		pop	{r4, r5, r6, r7, r8, pc}
 302              	.L16:
 178:Drivers/STM32G4xx_HAL_Driver/Src/stm32g4xx_hal_dma.c ****     hdma->DmaBaseAddress = DMA1;
 303              		.loc 1 178 5 is_stmt 1 view .LVU121
 178:Drivers/STM32G4xx_HAL_Driver/Src/stm32g4xx_hal_dma.c ****     hdma->DmaBaseAddress = DMA1;
 304              		.loc 1 178 53 is_stmt 0 view .LVU122
 305 00d6 1249     		ldr	r1, .L18+28
 178:Drivers/STM32G4xx_HAL_Driver/Src/stm32g4xx_hal_dma.c ****     hdma->DmaBaseAddress = DMA1;
 306              		.loc 1 178 80 view .LVU123
 307 00d8 0C4A     		ldr	r2, .L18+8
 179:Drivers/STM32G4xx_HAL_Driver/Src/stm32g4xx_hal_dma.c ****   }
 308              		.loc 1 179 26 view .LVU124
 309 00da 124C     		ldr	r4, .L18+32
 178:Drivers/STM32G4xx_HAL_Driver/Src/stm32g4xx_hal_dma.c ****     hdma->DmaBaseAddress = DMA1;
 310              		.loc 1 178 53 view .LVU125
 311 00dc 0144     		add	r1, r1, r0
 178:Drivers/STM32G4xx_HAL_Driver/Src/stm32g4xx_hal_dma.c ****     hdma->DmaBaseAddress = DMA1;
 312              		.loc 1 178 80 view .LVU126
 313 00de A2FB0121 		umull	r2, r1, r2, r1
 314 00e2 0909     		lsrs	r1, r1, #4
ARM GAS  /tmp/ccQyu1mP.s 			page 27


 178:Drivers/STM32G4xx_HAL_Driver/Src/stm32g4xx_hal_dma.c ****     hdma->DmaBaseAddress = DMA1;
 315              		.loc 1 178 135 view .LVU127
 316 00e4 8900     		lsls	r1, r1, #2
 179:Drivers/STM32G4xx_HAL_Driver/Src/stm32g4xx_hal_dma.c ****   }
 317              		.loc 1 179 5 is_stmt 1 view .LVU128
 318 00e6 9CE7     		b	.L4
 319              	.LVL14:
 320              	.L17:
 216:Drivers/STM32G4xx_HAL_Driver/Src/stm32g4xx_hal_dma.c ****   }
 321              		.loc 1 216 5 view .LVU129
 216:Drivers/STM32G4xx_HAL_Driver/Src/stm32g4xx_hal_dma.c ****   }
 322              		.loc 1 216 24 is_stmt 0 view .LVU130
 323 00e8 0022     		movs	r2, #0
 324              	.LVL15:
 216:Drivers/STM32G4xx_HAL_Driver/Src/stm32g4xx_hal_dma.c ****   }
 325              		.loc 1 216 24 view .LVU131
 326 00ea 5A60     		str	r2, [r3, #4]
 220:Drivers/STM32G4xx_HAL_Driver/Src/stm32g4xx_hal_dma.c **** 
 327              		.loc 1 220 3 is_stmt 1 view .LVU132
 220:Drivers/STM32G4xx_HAL_Driver/Src/stm32g4xx_hal_dma.c **** 
 328              		.loc 1 220 28 is_stmt 0 view .LVU133
 329 00ec 46F82120 		str	r2, [r6, r1, lsl #2]
 330              	.LVL16:
 223:Drivers/STM32G4xx_HAL_Driver/Src/stm32g4xx_hal_dma.c **** 
 331              		.loc 1 223 3 is_stmt 1 view .LVU134
 223:Drivers/STM32G4xx_HAL_Driver/Src/stm32g4xx_hal_dma.c **** 
 332              		.loc 1 223 34 is_stmt 0 view .LVU135
 333 00f0 CCF80440 		str	r4, [ip, #4]
 225:Drivers/STM32G4xx_HAL_Driver/Src/stm32g4xx_hal_dma.c ****   {
 334              		.loc 1 225 3 is_stmt 1 view .LVU136
 335              	.L7:
 240:Drivers/STM32G4xx_HAL_Driver/Src/stm32g4xx_hal_dma.c ****     hdma->DMAmuxRequestGenStatus = 0U;
 336              		.loc 1 240 5 view .LVU137
 240:Drivers/STM32G4xx_HAL_Driver/Src/stm32g4xx_hal_dma.c ****     hdma->DMAmuxRequestGenStatus = 0U;
 337              		.loc 1 240 28 is_stmt 0 view .LVU138
 338 00f4 0022     		movs	r2, #0
 241:Drivers/STM32G4xx_HAL_Driver/Src/stm32g4xx_hal_dma.c ****     hdma->DMAmuxRequestGenStatusMask = 0U;
 339              		.loc 1 241 34 view .LVU139
 340 00f6 C3E91522 		strd	r2, r2, [r3, #84]
 242:Drivers/STM32G4xx_HAL_Driver/Src/stm32g4xx_hal_dma.c ****   }
 341              		.loc 1 242 5 is_stmt 1 view .LVU140
 242:Drivers/STM32G4xx_HAL_Driver/Src/stm32g4xx_hal_dma.c ****   }
 342              		.loc 1 242 38 is_stmt 0 view .LVU141
 343 00fa DA65     		str	r2, [r3, #92]
 344 00fc E2E7     		b	.L8
 345              	.LVL17:
 346              	.L9:
 347              	.LCFI1:
 348              		.cfi_def_cfa_offset 0
 349              		.cfi_restore 4
 350              		.cfi_restore 5
 351              		.cfi_restore 6
 352              		.cfi_restore 7
 353              		.cfi_restore 8
 354              		.cfi_restore 14
 159:Drivers/STM32G4xx_HAL_Driver/Src/stm32g4xx_hal_dma.c ****   }
 355              		.loc 1 159 12 view .LVU142
ARM GAS  /tmp/ccQyu1mP.s 			page 28


 356 00fe 0120     		movs	r0, #1
 357              	.LVL18:
 255:Drivers/STM32G4xx_HAL_Driver/Src/stm32g4xx_hal_dma.c **** 
 358              		.loc 1 255 1 view .LVU143
 359 0100 7047     		bx	lr
 360              	.L19:
 361 0102 00BF     		.align	2
 362              	.L18:
 363 0104 07040240 		.word	1073873927
 364 0108 F8FBFDBF 		.word	-1073873928
 365 010c CDCCCCCC 		.word	-858993459
 366 0110 00040240 		.word	1073873920
 367 0114 00080240 		.word	1073874944
 368 0118 3F820010 		.word	268468799
 369 011c 40090240 		.word	1073875264
 370 0120 F8FFFDBF 		.word	-1073872904
 371 0124 00000240 		.word	1073872896
 372 0128 20080240 		.word	1073874976
 373 012c 80080240 		.word	1073875072
 374              		.cfi_endproc
 375              	.LFE329:
 377              		.section	.text.HAL_DMA_DeInit,"ax",%progbits
 378              		.align	1
 379              		.p2align 2,,3
 380              		.global	HAL_DMA_DeInit
 381              		.syntax unified
 382              		.thumb
 383              		.thumb_func
 384              		.fpu fpv4-sp-d16
 386              	HAL_DMA_DeInit:
 387              	.LVL19:
 388              	.LFB330:
 264:Drivers/STM32G4xx_HAL_Driver/Src/stm32g4xx_hal_dma.c **** 
 389              		.loc 1 264 1 is_stmt 1 view -0
 390              		.cfi_startproc
 391              		@ args = 0, pretend = 0, frame = 0
 392              		@ frame_needed = 0, uses_anonymous_args = 0
 393              		@ link register save eliminated.
 267:Drivers/STM32G4xx_HAL_Driver/Src/stm32g4xx_hal_dma.c ****   {
 394              		.loc 1 267 3 view .LVU145
 267:Drivers/STM32G4xx_HAL_Driver/Src/stm32g4xx_hal_dma.c ****   {
 395              		.loc 1 267 6 is_stmt 0 view .LVU146
 396 0000 0028     		cmp	r0, #0
 397 0002 60D0     		beq	.L25
 273:Drivers/STM32G4xx_HAL_Driver/Src/stm32g4xx_hal_dma.c **** 
 398              		.loc 1 273 3 is_stmt 1 view .LVU147
 276:Drivers/STM32G4xx_HAL_Driver/Src/stm32g4xx_hal_dma.c **** 
 399              		.loc 1 276 3 view .LVU148
 400 0004 0368     		ldr	r3, [r0]
 279:Drivers/STM32G4xx_HAL_Driver/Src/stm32g4xx_hal_dma.c ****   {
 401              		.loc 1 279 6 is_stmt 0 view .LVU149
 402 0006 3149     		ldr	r1, .L31
 276:Drivers/STM32G4xx_HAL_Driver/Src/stm32g4xx_hal_dma.c **** 
 403              		.loc 1 276 3 view .LVU150
 404 0008 1A68     		ldr	r2, [r3]
 279:Drivers/STM32G4xx_HAL_Driver/Src/stm32g4xx_hal_dma.c ****   {
 405              		.loc 1 279 6 view .LVU151
ARM GAS  /tmp/ccQyu1mP.s 			page 29


 406 000a 8B42     		cmp	r3, r1
 276:Drivers/STM32G4xx_HAL_Driver/Src/stm32g4xx_hal_dma.c **** 
 407              		.loc 1 276 3 view .LVU152
 408 000c 22F00102 		bic	r2, r2, #1
 264:Drivers/STM32G4xx_HAL_Driver/Src/stm32g4xx_hal_dma.c **** 
 409              		.loc 1 264 1 view .LVU153
 410 0010 F0B4     		push	{r4, r5, r6, r7}
 411              	.LCFI2:
 412              		.cfi_def_cfa_offset 16
 413              		.cfi_offset 4, -16
 414              		.cfi_offset 5, -12
 415              		.cfi_offset 6, -8
 416              		.cfi_offset 7, -4
 276:Drivers/STM32G4xx_HAL_Driver/Src/stm32g4xx_hal_dma.c **** 
 417              		.loc 1 276 3 view .LVU154
 418 0012 1A60     		str	r2, [r3]
 279:Drivers/STM32G4xx_HAL_Driver/Src/stm32g4xx_hal_dma.c ****   {
 419              		.loc 1 279 3 is_stmt 1 view .LVU155
 279:Drivers/STM32G4xx_HAL_Driver/Src/stm32g4xx_hal_dma.c ****   {
 420              		.loc 1 279 6 is_stmt 0 view .LVU156
 421 0014 41D9     		bls	.L30
 288:Drivers/STM32G4xx_HAL_Driver/Src/stm32g4xx_hal_dma.c ****     hdma->DmaBaseAddress = DMA2;
 422              		.loc 1 288 5 is_stmt 1 view .LVU157
 288:Drivers/STM32G4xx_HAL_Driver/Src/stm32g4xx_hal_dma.c ****     hdma->DmaBaseAddress = DMA2;
 423              		.loc 1 288 53 is_stmt 0 view .LVU158
 424 0016 2E4A     		ldr	r2, .L31+4
 288:Drivers/STM32G4xx_HAL_Driver/Src/stm32g4xx_hal_dma.c ****     hdma->DmaBaseAddress = DMA2;
 425              		.loc 1 288 80 view .LVU159
 426 0018 2E49     		ldr	r1, .L31+8
 289:Drivers/STM32G4xx_HAL_Driver/Src/stm32g4xx_hal_dma.c ****   }
 427              		.loc 1 289 26 view .LVU160
 428 001a 2F4C     		ldr	r4, .L31+12
 429 001c 0464     		str	r4, [r0, #64]
 288:Drivers/STM32G4xx_HAL_Driver/Src/stm32g4xx_hal_dma.c ****     hdma->DmaBaseAddress = DMA2;
 430              		.loc 1 288 53 view .LVU161
 431 001e 1A44     		add	r2, r2, r3
 288:Drivers/STM32G4xx_HAL_Driver/Src/stm32g4xx_hal_dma.c ****     hdma->DmaBaseAddress = DMA2;
 432              		.loc 1 288 80 view .LVU162
 433 0020 A1FB0212 		umull	r1, r2, r1, r2
 434 0024 1209     		lsrs	r2, r2, #4
 288:Drivers/STM32G4xx_HAL_Driver/Src/stm32g4xx_hal_dma.c ****     hdma->DmaBaseAddress = DMA2;
 435              		.loc 1 288 135 view .LVU163
 436 0026 9200     		lsls	r2, r2, #2
 296:Drivers/STM32G4xx_HAL_Driver/Src/stm32g4xx_hal_dma.c **** 
 437              		.loc 1 296 69 view .LVU164
 438 0028 02F01F05 		and	r5, r2, #31
 296:Drivers/STM32G4xx_HAL_Driver/Src/stm32g4xx_hal_dma.c **** 
 439              		.loc 1 296 46 view .LVU165
 440 002c 0121     		movs	r1, #1
 441 002e A940     		lsls	r1, r1, r5
 293:Drivers/STM32G4xx_HAL_Driver/Src/stm32g4xx_hal_dma.c **** 
 442              		.loc 1 293 24 view .LVU166
 443 0030 0026     		movs	r6, #0
 296:Drivers/STM32G4xx_HAL_Driver/Src/stm32g4xx_hal_dma.c **** 
 444              		.loc 1 296 30 view .LVU167
 445 0032 2A4D     		ldr	r5, .L31+16
 288:Drivers/STM32G4xx_HAL_Driver/Src/stm32g4xx_hal_dma.c ****     hdma->DmaBaseAddress = DMA2;
ARM GAS  /tmp/ccQyu1mP.s 			page 30


 446              		.loc 1 288 24 view .LVU168
 447 0034 4264     		str	r2, [r0, #68]
 289:Drivers/STM32G4xx_HAL_Driver/Src/stm32g4xx_hal_dma.c ****   }
 448              		.loc 1 289 5 is_stmt 1 view .LVU169
 293:Drivers/STM32G4xx_HAL_Driver/Src/stm32g4xx_hal_dma.c **** 
 449              		.loc 1 293 3 view .LVU170
 293:Drivers/STM32G4xx_HAL_Driver/Src/stm32g4xx_hal_dma.c **** 
 450              		.loc 1 293 24 is_stmt 0 view .LVU171
 451 0036 1E60     		str	r6, [r3]
 296:Drivers/STM32G4xx_HAL_Driver/Src/stm32g4xx_hal_dma.c **** 
 452              		.loc 1 296 3 is_stmt 1 view .LVU172
 296:Drivers/STM32G4xx_HAL_Driver/Src/stm32g4xx_hal_dma.c **** 
 453              		.loc 1 296 30 is_stmt 0 view .LVU173
 454 0038 6160     		str	r1, [r4, #4]
 301:Drivers/STM32G4xx_HAL_Driver/Src/stm32g4xx_hal_dma.c **** 
 455              		.loc 1 301 3 is_stmt 1 view .LVU174
 456              	.LVL20:
 457              	.LBB34:
 458              	.LBI34:
1045:Drivers/STM32G4xx_HAL_Driver/Src/stm32g4xx_hal_dma.c **** {
 459              		.loc 1 1045 13 view .LVU175
 460              	.LBB35:
1047:Drivers/STM32G4xx_HAL_Driver/Src/stm32g4xx_hal_dma.c ****   uint32_t channel_number;
 461              		.loc 1 1047 3 view .LVU176
1048:Drivers/STM32G4xx_HAL_Driver/Src/stm32g4xx_hal_dma.c ****   DMAMUX_Channel_TypeDef *DMAMUX1_ChannelBase;
 462              		.loc 1 1048 3 view .LVU177
1049:Drivers/STM32G4xx_HAL_Driver/Src/stm32g4xx_hal_dma.c **** 
 463              		.loc 1 1049 3 view .LVU178
1052:Drivers/STM32G4xx_HAL_Driver/Src/stm32g4xx_hal_dma.c ****   {
 464              		.loc 1 1052 3 view .LVU179
 465              	.L23:
1068:Drivers/STM32G4xx_HAL_Driver/Src/stm32g4xx_hal_dma.c ****   channel_number = (((uint32_t)hdma->Instance & 0xFFU) - 8U) / 20U;
 466              		.loc 1 1068 3 view .LVU180
1069:Drivers/STM32G4xx_HAL_Driver/Src/stm32g4xx_hal_dma.c ****   hdma->DMAmuxChannel = (DMAMUX_Channel_TypeDef *)(uint32_t)(dmamux_base_addr + ((hdma->ChannelInde
 467              		.loc 1 1069 3 view .LVU181
1070:Drivers/STM32G4xx_HAL_Driver/Src/stm32g4xx_hal_dma.c ****   hdma->DMAmuxChannelStatus = DMAMUX1_ChannelStatus;
 468              		.loc 1 1070 3 view .LVU182
1069:Drivers/STM32G4xx_HAL_Driver/Src/stm32g4xx_hal_dma.c ****   hdma->DMAmuxChannel = (DMAMUX_Channel_TypeDef *)(uint32_t)(dmamux_base_addr + ((hdma->ChannelInde
 469              		.loc 1 1069 18 is_stmt 0 view .LVU183
 470 003a 2649     		ldr	r1, .L31+8
1071:Drivers/STM32G4xx_HAL_Driver/Src/stm32g4xx_hal_dma.c ****   hdma->DMAmuxChannelStatusMask = 1UL << (channel_number & 0x1FU);
 471              		.loc 1 1071 29 view .LVU184
 472 003c 284C     		ldr	r4, .L31+20
 473 003e C464     		str	r4, [r0, #76]
1069:Drivers/STM32G4xx_HAL_Driver/Src/stm32g4xx_hal_dma.c ****   hdma->DMAmuxChannel = (DMAMUX_Channel_TypeDef *)(uint32_t)(dmamux_base_addr + ((hdma->ChannelInde
 474              		.loc 1 1069 47 view .LVU185
 475 0040 DBB2     		uxtb	r3, r3
 476              	.LVL21:
1069:Drivers/STM32G4xx_HAL_Driver/Src/stm32g4xx_hal_dma.c ****   hdma->DMAmuxChannel = (DMAMUX_Channel_TypeDef *)(uint32_t)(dmamux_base_addr + ((hdma->ChannelInde
 477              		.loc 1 1069 56 view .LVU186
 478 0042 083B     		subs	r3, r3, #8
1069:Drivers/STM32G4xx_HAL_Driver/Src/stm32g4xx_hal_dma.c ****   hdma->DMAmuxChannel = (DMAMUX_Channel_TypeDef *)(uint32_t)(dmamux_base_addr + ((hdma->ChannelInde
 479              		.loc 1 1069 18 view .LVU187
 480 0044 A1FB0313 		umull	r1, r3, r1, r3
1070:Drivers/STM32G4xx_HAL_Driver/Src/stm32g4xx_hal_dma.c ****   hdma->DMAmuxChannelStatus = DMAMUX1_ChannelStatus;
 481              		.loc 1 1070 102 view .LVU188
 482 0048 9208     		lsrs	r2, r2, #2
ARM GAS  /tmp/ccQyu1mP.s 			page 31


1072:Drivers/STM32G4xx_HAL_Driver/Src/stm32g4xx_hal_dma.c **** }
 483              		.loc 1 1072 58 view .LVU189
 484 004a C3F30413 		ubfx	r3, r3, #4, #5
1072:Drivers/STM32G4xx_HAL_Driver/Src/stm32g4xx_hal_dma.c **** }
 485              		.loc 1 1072 39 view .LVU190
 486 004e 0121     		movs	r1, #1
 487 0050 01FA03F3 		lsl	r3, r1, r3
1070:Drivers/STM32G4xx_HAL_Driver/Src/stm32g4xx_hal_dma.c ****   hdma->DMAmuxChannelStatus = DMAMUX1_ChannelStatus;
 488              		.loc 1 1070 51 view .LVU191
 489 0054 05EB8207 		add	r7, r5, r2, lsl #2
 490              	.LBE35:
 491              	.LBE34:
 304:Drivers/STM32G4xx_HAL_Driver/Src/stm32g4xx_hal_dma.c **** 
 492              		.loc 1 304 28 view .LVU192
 493 0058 0026     		movs	r6, #0
 494              	.LBB38:
 495              	.LBB36:
1072:Drivers/STM32G4xx_HAL_Driver/Src/stm32g4xx_hal_dma.c **** }
 496              		.loc 1 1072 33 view .LVU193
 497 005a 0365     		str	r3, [r0, #80]
1070:Drivers/STM32G4xx_HAL_Driver/Src/stm32g4xx_hal_dma.c ****   hdma->DMAmuxChannelStatus = DMAMUX1_ChannelStatus;
 498              		.loc 1 1070 23 view .LVU194
 499 005c 8764     		str	r7, [r0, #72]
1071:Drivers/STM32G4xx_HAL_Driver/Src/stm32g4xx_hal_dma.c ****   hdma->DMAmuxChannelStatusMask = 1UL << (channel_number & 0x1FU);
 500              		.loc 1 1071 3 is_stmt 1 view .LVU195
1072:Drivers/STM32G4xx_HAL_Driver/Src/stm32g4xx_hal_dma.c **** }
 501              		.loc 1 1072 3 view .LVU196
 502              	.LVL22:
1072:Drivers/STM32G4xx_HAL_Driver/Src/stm32g4xx_hal_dma.c **** }
 503              		.loc 1 1072 3 is_stmt 0 view .LVU197
 504              	.LBE36:
 505              	.LBE38:
 304:Drivers/STM32G4xx_HAL_Driver/Src/stm32g4xx_hal_dma.c **** 
 506              		.loc 1 304 3 is_stmt 1 view .LVU198
 304:Drivers/STM32G4xx_HAL_Driver/Src/stm32g4xx_hal_dma.c **** 
 507              		.loc 1 304 28 is_stmt 0 view .LVU199
 508 005e 45F82260 		str	r6, [r5, r2, lsl #2]
 307:Drivers/STM32G4xx_HAL_Driver/Src/stm32g4xx_hal_dma.c **** 
 509              		.loc 1 307 3 is_stmt 1 view .LVU200
 307:Drivers/STM32G4xx_HAL_Driver/Src/stm32g4xx_hal_dma.c **** 
 510              		.loc 1 307 34 is_stmt 0 view .LVU201
 511 0062 6360     		str	r3, [r4, #4]
 310:Drivers/STM32G4xx_HAL_Driver/Src/stm32g4xx_hal_dma.c ****   {
 512              		.loc 1 310 3 is_stmt 1 view .LVU202
 310:Drivers/STM32G4xx_HAL_Driver/Src/stm32g4xx_hal_dma.c ****   {
 513              		.loc 1 310 19 is_stmt 0 view .LVU203
 514 0064 4468     		ldr	r4, [r0, #4]
 310:Drivers/STM32G4xx_HAL_Driver/Src/stm32g4xx_hal_dma.c ****   {
 515              		.loc 1 310 35 view .LVU204
 516 0066 621E     		subs	r2, r4, #1
 310:Drivers/STM32G4xx_HAL_Driver/Src/stm32g4xx_hal_dma.c ****   {
 517              		.loc 1 310 6 view .LVU205
 518 0068 032A     		cmp	r2, #3
 519 006a 06D8     		bhi	.L24
 315:Drivers/STM32G4xx_HAL_Driver/Src/stm32g4xx_hal_dma.c **** 
 520              		.loc 1 315 5 is_stmt 1 view .LVU206
 521              	.LVL23:
ARM GAS  /tmp/ccQyu1mP.s 			page 32


 522              	.LBB39:
 523              	.LBI39:
1082:Drivers/STM32G4xx_HAL_Driver/Src/stm32g4xx_hal_dma.c **** {
 524              		.loc 1 1082 13 view .LVU207
 525              	.LBB40:
1084:Drivers/STM32G4xx_HAL_Driver/Src/stm32g4xx_hal_dma.c **** 
 526              		.loc 1 1084 3 view .LVU208
1087:Drivers/STM32G4xx_HAL_Driver/Src/stm32g4xx_hal_dma.c **** 
 527              		.loc 1 1087 3 view .LVU209
1087:Drivers/STM32G4xx_HAL_Driver/Src/stm32g4xx_hal_dma.c **** 
 528              		.loc 1 1087 58 is_stmt 0 view .LVU210
 529 006c 1D4B     		ldr	r3, .L31+24
 530 006e 2344     		add	r3, r3, r4
 531 0070 9B00     		lsls	r3, r3, #2
1089:Drivers/STM32G4xx_HAL_Driver/Src/stm32g4xx_hal_dma.c **** 
 532              		.loc 1 1089 3 is_stmt 1 view .LVU211
 533              		.loc 1 1091 3 view .LVU212
 534              	.LBE40:
 535              	.LBE39:
 321:Drivers/STM32G4xx_HAL_Driver/Src/stm32g4xx_hal_dma.c ****   }
 536              		.loc 1 321 41 is_stmt 0 view .LVU213
 537 0072 1D4C     		ldr	r4, .L31+28
 538              	.LVL24:
 318:Drivers/STM32G4xx_HAL_Driver/Src/stm32g4xx_hal_dma.c **** 
 539              		.loc 1 318 34 view .LVU214
 540 0074 1E60     		str	r6, [r3]
 541              	.LBB42:
 542              	.LBB41:
 543              		.loc 1 1091 42 view .LVU215
 544 0076 9140     		lsls	r1, r1, r2
 545              	.LVL25:
 546              		.loc 1 1091 42 view .LVU216
 547              	.LBE41:
 548              	.LBE42:
 318:Drivers/STM32G4xx_HAL_Driver/Src/stm32g4xx_hal_dma.c **** 
 549              		.loc 1 318 5 is_stmt 1 view .LVU217
 321:Drivers/STM32G4xx_HAL_Driver/Src/stm32g4xx_hal_dma.c ****   }
 550              		.loc 1 321 5 view .LVU218
 321:Drivers/STM32G4xx_HAL_Driver/Src/stm32g4xx_hal_dma.c ****   }
 551              		.loc 1 321 41 is_stmt 0 view .LVU219
 552 0078 6160     		str	r1, [r4, #4]
 553              	.L24:
 324:Drivers/STM32G4xx_HAL_Driver/Src/stm32g4xx_hal_dma.c ****   hdma->DMAmuxRequestGenStatus = 0U;
 554              		.loc 1 324 3 is_stmt 1 view .LVU220
 324:Drivers/STM32G4xx_HAL_Driver/Src/stm32g4xx_hal_dma.c ****   hdma->DMAmuxRequestGenStatus = 0U;
 555              		.loc 1 324 26 is_stmt 0 view .LVU221
 556 007a 0023     		movs	r3, #0
 335:Drivers/STM32G4xx_HAL_Driver/Src/stm32g4xx_hal_dma.c **** 
 557              		.loc 1 335 19 view .LVU222
 558 007c C363     		str	r3, [r0, #60]
 325:Drivers/STM32G4xx_HAL_Driver/Src/stm32g4xx_hal_dma.c ****   hdma->DMAmuxRequestGenStatusMask = 0U;
 559              		.loc 1 325 32 view .LVU223
 560 007e C0E91533 		strd	r3, r3, [r0, #84]
 326:Drivers/STM32G4xx_HAL_Driver/Src/stm32g4xx_hal_dma.c **** 
 561              		.loc 1 326 3 is_stmt 1 view .LVU224
 326:Drivers/STM32G4xx_HAL_Driver/Src/stm32g4xx_hal_dma.c **** 
 562              		.loc 1 326 36 is_stmt 0 view .LVU225
ARM GAS  /tmp/ccQyu1mP.s 			page 33


 563 0082 C365     		str	r3, [r0, #92]
 329:Drivers/STM32G4xx_HAL_Driver/Src/stm32g4xx_hal_dma.c ****   hdma->XferHalfCpltCallback = NULL;
 564              		.loc 1 329 3 is_stmt 1 view .LVU226
 330:Drivers/STM32G4xx_HAL_Driver/Src/stm32g4xx_hal_dma.c ****   hdma->XferErrorCallback = NULL;
 565              		.loc 1 330 30 is_stmt 0 view .LVU227
 566 0084 C0E90B33 		strd	r3, r3, [r0, #44]
 331:Drivers/STM32G4xx_HAL_Driver/Src/stm32g4xx_hal_dma.c ****   hdma->XferAbortCallback = NULL;
 567              		.loc 1 331 3 is_stmt 1 view .LVU228
 332:Drivers/STM32G4xx_HAL_Driver/Src/stm32g4xx_hal_dma.c **** 
 568              		.loc 1 332 27 is_stmt 0 view .LVU229
 569 0088 C0E90D33 		strd	r3, r3, [r0, #52]
 335:Drivers/STM32G4xx_HAL_Driver/Src/stm32g4xx_hal_dma.c **** 
 570              		.loc 1 335 3 is_stmt 1 view .LVU230
 338:Drivers/STM32G4xx_HAL_Driver/Src/stm32g4xx_hal_dma.c **** 
 571              		.loc 1 338 3 view .LVU231
 338:Drivers/STM32G4xx_HAL_Driver/Src/stm32g4xx_hal_dma.c **** 
 572              		.loc 1 338 15 is_stmt 0 view .LVU232
 573 008c 80F82530 		strb	r3, [r0, #37]
 341:Drivers/STM32G4xx_HAL_Driver/Src/stm32g4xx_hal_dma.c **** 
 574              		.loc 1 341 3 is_stmt 1 view .LVU233
 341:Drivers/STM32G4xx_HAL_Driver/Src/stm32g4xx_hal_dma.c **** 
 575              		.loc 1 341 3 view .LVU234
 576 0090 80F82430 		strb	r3, [r0, #36]
 343:Drivers/STM32G4xx_HAL_Driver/Src/stm32g4xx_hal_dma.c **** }
 577              		.loc 1 343 3 view .LVU235
 344:Drivers/STM32G4xx_HAL_Driver/Src/stm32g4xx_hal_dma.c **** 
 578              		.loc 1 344 1 is_stmt 0 view .LVU236
 579 0094 F0BC     		pop	{r4, r5, r6, r7}
 580              	.LCFI3:
 581              		.cfi_remember_state
 582              		.cfi_restore 7
 583              		.cfi_restore 6
 584              		.cfi_restore 5
 585              		.cfi_restore 4
 586              		.cfi_def_cfa_offset 0
 343:Drivers/STM32G4xx_HAL_Driver/Src/stm32g4xx_hal_dma.c **** }
 587              		.loc 1 343 10 view .LVU237
 588 0096 1846     		mov	r0, r3
 589              	.LVL26:
 344:Drivers/STM32G4xx_HAL_Driver/Src/stm32g4xx_hal_dma.c **** 
 590              		.loc 1 344 1 view .LVU238
 591 0098 7047     		bx	lr
 592              	.LVL27:
 593              	.L30:
 594              	.LCFI4:
 595              		.cfi_restore_state
 282:Drivers/STM32G4xx_HAL_Driver/Src/stm32g4xx_hal_dma.c ****     hdma->DmaBaseAddress = DMA1;
 596              		.loc 1 282 5 is_stmt 1 view .LVU239
 282:Drivers/STM32G4xx_HAL_Driver/Src/stm32g4xx_hal_dma.c ****     hdma->DmaBaseAddress = DMA1;
 597              		.loc 1 282 53 is_stmt 0 view .LVU240
 598 009a 144A     		ldr	r2, .L31+32
 282:Drivers/STM32G4xx_HAL_Driver/Src/stm32g4xx_hal_dma.c ****     hdma->DmaBaseAddress = DMA1;
 599              		.loc 1 282 80 view .LVU241
 600 009c 0D49     		ldr	r1, .L31+8
 283:Drivers/STM32G4xx_HAL_Driver/Src/stm32g4xx_hal_dma.c ****   }
 601              		.loc 1 283 26 view .LVU242
 602 009e 144C     		ldr	r4, .L31+36
ARM GAS  /tmp/ccQyu1mP.s 			page 34


 603 00a0 0464     		str	r4, [r0, #64]
 282:Drivers/STM32G4xx_HAL_Driver/Src/stm32g4xx_hal_dma.c ****     hdma->DmaBaseAddress = DMA1;
 604              		.loc 1 282 53 view .LVU243
 605 00a2 1A44     		add	r2, r2, r3
 282:Drivers/STM32G4xx_HAL_Driver/Src/stm32g4xx_hal_dma.c ****     hdma->DmaBaseAddress = DMA1;
 606              		.loc 1 282 80 view .LVU244
 607 00a4 A1FB0212 		umull	r1, r2, r1, r2
 608 00a8 1209     		lsrs	r2, r2, #4
 282:Drivers/STM32G4xx_HAL_Driver/Src/stm32g4xx_hal_dma.c ****     hdma->DmaBaseAddress = DMA1;
 609              		.loc 1 282 135 view .LVU245
 610 00aa 9200     		lsls	r2, r2, #2
 296:Drivers/STM32G4xx_HAL_Driver/Src/stm32g4xx_hal_dma.c **** 
 611              		.loc 1 296 69 view .LVU246
 612 00ac 02F01F05 		and	r5, r2, #31
 296:Drivers/STM32G4xx_HAL_Driver/Src/stm32g4xx_hal_dma.c **** 
 613              		.loc 1 296 46 view .LVU247
 614 00b0 0121     		movs	r1, #1
 615 00b2 A940     		lsls	r1, r1, r5
 293:Drivers/STM32G4xx_HAL_Driver/Src/stm32g4xx_hal_dma.c **** 
 616              		.loc 1 293 24 view .LVU248
 617 00b4 0025     		movs	r5, #0
 282:Drivers/STM32G4xx_HAL_Driver/Src/stm32g4xx_hal_dma.c ****     hdma->DmaBaseAddress = DMA1;
 618              		.loc 1 282 24 view .LVU249
 619 00b6 4264     		str	r2, [r0, #68]
 283:Drivers/STM32G4xx_HAL_Driver/Src/stm32g4xx_hal_dma.c ****   }
 620              		.loc 1 283 5 is_stmt 1 view .LVU250
 293:Drivers/STM32G4xx_HAL_Driver/Src/stm32g4xx_hal_dma.c **** 
 621              		.loc 1 293 3 view .LVU251
 293:Drivers/STM32G4xx_HAL_Driver/Src/stm32g4xx_hal_dma.c **** 
 622              		.loc 1 293 24 is_stmt 0 view .LVU252
 623 00b8 1D60     		str	r5, [r3]
 296:Drivers/STM32G4xx_HAL_Driver/Src/stm32g4xx_hal_dma.c **** 
 624              		.loc 1 296 3 is_stmt 1 view .LVU253
 296:Drivers/STM32G4xx_HAL_Driver/Src/stm32g4xx_hal_dma.c **** 
 625              		.loc 1 296 30 is_stmt 0 view .LVU254
 626 00ba 05F18045 		add	r5, r5, #1073741824
 627 00be 05F50235 		add	r5, r5, #133120
 628 00c2 6160     		str	r1, [r4, #4]
 301:Drivers/STM32G4xx_HAL_Driver/Src/stm32g4xx_hal_dma.c **** 
 629              		.loc 1 301 3 is_stmt 1 view .LVU255
 630              	.LVL28:
 631              	.LBB43:
1045:Drivers/STM32G4xx_HAL_Driver/Src/stm32g4xx_hal_dma.c **** {
 632              		.loc 1 1045 13 view .LVU256
 633              	.LBB37:
1047:Drivers/STM32G4xx_HAL_Driver/Src/stm32g4xx_hal_dma.c ****   uint32_t channel_number;
 634              		.loc 1 1047 3 view .LVU257
1048:Drivers/STM32G4xx_HAL_Driver/Src/stm32g4xx_hal_dma.c ****   DMAMUX_Channel_TypeDef *DMAMUX1_ChannelBase;
 635              		.loc 1 1048 3 view .LVU258
1049:Drivers/STM32G4xx_HAL_Driver/Src/stm32g4xx_hal_dma.c **** 
 636              		.loc 1 1049 3 view .LVU259
1052:Drivers/STM32G4xx_HAL_Driver/Src/stm32g4xx_hal_dma.c ****   {
 637              		.loc 1 1052 3 view .LVU260
 638 00c4 B9E7     		b	.L23
 639              	.LVL29:
 640              	.L25:
 641              	.LCFI5:
ARM GAS  /tmp/ccQyu1mP.s 			page 35


 642              		.cfi_def_cfa_offset 0
 643              		.cfi_restore 4
 644              		.cfi_restore 5
 645              		.cfi_restore 6
 646              		.cfi_restore 7
1052:Drivers/STM32G4xx_HAL_Driver/Src/stm32g4xx_hal_dma.c ****   {
 647              		.loc 1 1052 3 is_stmt 0 view .LVU261
 648              	.LBE37:
 649              	.LBE43:
 269:Drivers/STM32G4xx_HAL_Driver/Src/stm32g4xx_hal_dma.c ****   }
 650              		.loc 1 269 12 view .LVU262
 651 00c6 0120     		movs	r0, #1
 652              	.LVL30:
 344:Drivers/STM32G4xx_HAL_Driver/Src/stm32g4xx_hal_dma.c **** 
 653              		.loc 1 344 1 view .LVU263
 654 00c8 7047     		bx	lr
 655              	.L32:
 656 00ca 00BF     		.align	2
 657              	.L31:
 658 00cc 07040240 		.word	1073873927
 659 00d0 F8FBFDBF 		.word	-1073873928
 660 00d4 CDCCCCCC 		.word	-858993459
 661 00d8 00040240 		.word	1073873920
 662 00dc 20080240 		.word	1073874976
 663 00e0 80080240 		.word	1073875072
 664 00e4 3F820010 		.word	268468799
 665 00e8 40090240 		.word	1073875264
 666 00ec F8FFFDBF 		.word	-1073872904
 667 00f0 00000240 		.word	1073872896
 668              		.cfi_endproc
 669              	.LFE330:
 671              		.section	.text.HAL_DMA_Start,"ax",%progbits
 672              		.align	1
 673              		.p2align 2,,3
 674              		.global	HAL_DMA_Start
 675              		.syntax unified
 676              		.thumb
 677              		.thumb_func
 678              		.fpu fpv4-sp-d16
 680              	HAL_DMA_Start:
 681              	.LVL31:
 682              	.LFB331:
 379:Drivers/STM32G4xx_HAL_Driver/Src/stm32g4xx_hal_dma.c ****   HAL_StatusTypeDef status = HAL_OK;
 683              		.loc 1 379 1 is_stmt 1 view -0
 684              		.cfi_startproc
 685              		@ args = 0, pretend = 0, frame = 0
 686              		@ frame_needed = 0, uses_anonymous_args = 0
 687              		@ link register save eliminated.
 380:Drivers/STM32G4xx_HAL_Driver/Src/stm32g4xx_hal_dma.c **** 
 688              		.loc 1 380 3 view .LVU265
 383:Drivers/STM32G4xx_HAL_Driver/Src/stm32g4xx_hal_dma.c **** 
 689              		.loc 1 383 3 view .LVU266
 386:Drivers/STM32G4xx_HAL_Driver/Src/stm32g4xx_hal_dma.c **** 
 690              		.loc 1 386 3 view .LVU267
 386:Drivers/STM32G4xx_HAL_Driver/Src/stm32g4xx_hal_dma.c **** 
 691              		.loc 1 386 3 view .LVU268
 379:Drivers/STM32G4xx_HAL_Driver/Src/stm32g4xx_hal_dma.c ****   HAL_StatusTypeDef status = HAL_OK;
ARM GAS  /tmp/ccQyu1mP.s 			page 36


 692              		.loc 1 379 1 is_stmt 0 view .LVU269
 693 0000 F0B4     		push	{r4, r5, r6, r7}
 694              	.LCFI6:
 695              		.cfi_def_cfa_offset 16
 696              		.cfi_offset 4, -16
 697              		.cfi_offset 5, -12
 698              		.cfi_offset 6, -8
 699              		.cfi_offset 7, -4
 386:Drivers/STM32G4xx_HAL_Driver/Src/stm32g4xx_hal_dma.c **** 
 700              		.loc 1 386 3 view .LVU270
 701 0002 90F82440 		ldrb	r4, [r0, #36]	@ zero_extendqisi2
 702 0006 012C     		cmp	r4, #1
 703 0008 36D0     		beq	.L39
 386:Drivers/STM32G4xx_HAL_Driver/Src/stm32g4xx_hal_dma.c **** 
 704              		.loc 1 386 3 is_stmt 1 discriminator 2 view .LVU271
 388:Drivers/STM32G4xx_HAL_Driver/Src/stm32g4xx_hal_dma.c ****   {
 705              		.loc 1 388 34 is_stmt 0 discriminator 2 view .LVU272
 706 000a 90F82540 		ldrb	r4, [r0, #37]	@ zero_extendqisi2
 386:Drivers/STM32G4xx_HAL_Driver/Src/stm32g4xx_hal_dma.c **** 
 707              		.loc 1 386 3 discriminator 2 view .LVU273
 708 000e 0125     		movs	r5, #1
 388:Drivers/STM32G4xx_HAL_Driver/Src/stm32g4xx_hal_dma.c ****   {
 709              		.loc 1 388 6 discriminator 2 view .LVU274
 710 0010 AC42     		cmp	r4, r5
 386:Drivers/STM32G4xx_HAL_Driver/Src/stm32g4xx_hal_dma.c **** 
 711              		.loc 1 386 3 discriminator 2 view .LVU275
 712 0012 80F82450 		strb	r5, [r0, #36]
 388:Drivers/STM32G4xx_HAL_Driver/Src/stm32g4xx_hal_dma.c ****   {
 713              		.loc 1 388 3 is_stmt 1 discriminator 2 view .LVU276
 388:Drivers/STM32G4xx_HAL_Driver/Src/stm32g4xx_hal_dma.c ****   {
 714              		.loc 1 388 6 is_stmt 0 discriminator 2 view .LVU277
 715 0016 05D0     		beq	.L44
 406:Drivers/STM32G4xx_HAL_Driver/Src/stm32g4xx_hal_dma.c ****     status = HAL_BUSY;
 716              		.loc 1 406 5 is_stmt 1 view .LVU278
 406:Drivers/STM32G4xx_HAL_Driver/Src/stm32g4xx_hal_dma.c ****     status = HAL_BUSY;
 717              		.loc 1 406 5 view .LVU279
 718 0018 0023     		movs	r3, #0
 719              	.LVL32:
 406:Drivers/STM32G4xx_HAL_Driver/Src/stm32g4xx_hal_dma.c ****     status = HAL_BUSY;
 720              		.loc 1 406 5 is_stmt 0 view .LVU280
 721 001a 80F82430 		strb	r3, [r0, #36]
 407:Drivers/STM32G4xx_HAL_Driver/Src/stm32g4xx_hal_dma.c ****   }
 722              		.loc 1 407 5 is_stmt 1 view .LVU281
 723              	.LVL33:
 410:Drivers/STM32G4xx_HAL_Driver/Src/stm32g4xx_hal_dma.c **** 
 724              		.loc 1 410 1 is_stmt 0 view .LVU282
 725 001e F0BC     		pop	{r4, r5, r6, r7}
 726              	.LCFI7:
 727              		.cfi_remember_state
 728              		.cfi_restore 7
 729              		.cfi_restore 6
 730              		.cfi_restore 5
 731              		.cfi_restore 4
 732              		.cfi_def_cfa_offset 0
 407:Drivers/STM32G4xx_HAL_Driver/Src/stm32g4xx_hal_dma.c ****   }
 733              		.loc 1 407 12 view .LVU283
 734 0020 0220     		movs	r0, #2
ARM GAS  /tmp/ccQyu1mP.s 			page 37


 735              	.LVL34:
 410:Drivers/STM32G4xx_HAL_Driver/Src/stm32g4xx_hal_dma.c **** 
 736              		.loc 1 410 1 view .LVU284
 737 0022 7047     		bx	lr
 738              	.LVL35:
 739              	.L44:
 740              	.LCFI8:
 741              		.cfi_restore_state
 391:Drivers/STM32G4xx_HAL_Driver/Src/stm32g4xx_hal_dma.c ****     hdma->ErrorCode = HAL_DMA_ERROR_NONE;
 742              		.loc 1 391 5 is_stmt 1 view .LVU285
 395:Drivers/STM32G4xx_HAL_Driver/Src/stm32g4xx_hal_dma.c **** 
 743              		.loc 1 395 5 is_stmt 0 view .LVU286
 744 0024 0468     		ldr	r4, [r0]
 745              	.LBB44:
 746              	.LBB45:
1005:Drivers/STM32G4xx_HAL_Driver/Src/stm32g4xx_hal_dma.c **** 
 747              		.loc 1 1005 7 view .LVU287
 748 0026 C76C     		ldr	r7, [r0, #76]
 749              	.LBE45:
 750              	.LBE44:
 391:Drivers/STM32G4xx_HAL_Driver/Src/stm32g4xx_hal_dma.c ****     hdma->ErrorCode = HAL_DMA_ERROR_NONE;
 751              		.loc 1 391 17 view .LVU288
 752 0028 0226     		movs	r6, #2
 392:Drivers/STM32G4xx_HAL_Driver/Src/stm32g4xx_hal_dma.c **** 
 753              		.loc 1 392 21 view .LVU289
 754 002a 0025     		movs	r5, #0
 391:Drivers/STM32G4xx_HAL_Driver/Src/stm32g4xx_hal_dma.c ****     hdma->ErrorCode = HAL_DMA_ERROR_NONE;
 755              		.loc 1 391 17 view .LVU290
 756 002c 80F82560 		strb	r6, [r0, #37]
 392:Drivers/STM32G4xx_HAL_Driver/Src/stm32g4xx_hal_dma.c **** 
 757              		.loc 1 392 5 is_stmt 1 view .LVU291
 392:Drivers/STM32G4xx_HAL_Driver/Src/stm32g4xx_hal_dma.c **** 
 758              		.loc 1 392 21 is_stmt 0 view .LVU292
 759 0030 C563     		str	r5, [r0, #60]
 395:Drivers/STM32G4xx_HAL_Driver/Src/stm32g4xx_hal_dma.c **** 
 760              		.loc 1 395 5 is_stmt 1 view .LVU293
 761 0032 2568     		ldr	r5, [r4]
 762              	.LBB48:
 763              	.LBB46:
1005:Drivers/STM32G4xx_HAL_Driver/Src/stm32g4xx_hal_dma.c **** 
 764              		.loc 1 1005 40 is_stmt 0 view .LVU294
 765 0034 D0E914C6 		ldrd	ip, r6, [r0, #80]
 766              	.LBE46:
 767              	.LBE48:
 395:Drivers/STM32G4xx_HAL_Driver/Src/stm32g4xx_hal_dma.c **** 
 768              		.loc 1 395 5 view .LVU295
 769 0038 25F00105 		bic	r5, r5, #1
 770 003c 2560     		str	r5, [r4]
 398:Drivers/STM32G4xx_HAL_Driver/Src/stm32g4xx_hal_dma.c **** 
 771              		.loc 1 398 5 is_stmt 1 view .LVU296
 772              	.LVL36:
 773              	.LBB49:
 774              	.LBI44:
1002:Drivers/STM32G4xx_HAL_Driver/Src/stm32g4xx_hal_dma.c **** {
 775              		.loc 1 1002 13 view .LVU297
 776              	.LBB47:
1005:Drivers/STM32G4xx_HAL_Driver/Src/stm32g4xx_hal_dma.c **** 
ARM GAS  /tmp/ccQyu1mP.s 			page 38


 777              		.loc 1 1005 3 view .LVU298
1005:Drivers/STM32G4xx_HAL_Driver/Src/stm32g4xx_hal_dma.c **** 
 778              		.loc 1 1005 34 is_stmt 0 view .LVU299
 779 003e C7F804C0 		str	ip, [r7, #4]
1007:Drivers/STM32G4xx_HAL_Driver/Src/stm32g4xx_hal_dma.c ****   {
 780              		.loc 1 1007 3 is_stmt 1 view .LVU300
1007:Drivers/STM32G4xx_HAL_Driver/Src/stm32g4xx_hal_dma.c ****   {
 781              		.loc 1 1007 6 is_stmt 0 view .LVU301
 782 0042 16B1     		cbz	r6, .L36
1010:Drivers/STM32G4xx_HAL_Driver/Src/stm32g4xx_hal_dma.c ****   }
 783              		.loc 1 1010 5 is_stmt 1 view .LVU302
1010:Drivers/STM32G4xx_HAL_Driver/Src/stm32g4xx_hal_dma.c ****   }
 784              		.loc 1 1010 47 is_stmt 0 view .LVU303
 785 0044 D0E91656 		ldrd	r5, r6, [r0, #88]
1010:Drivers/STM32G4xx_HAL_Driver/Src/stm32g4xx_hal_dma.c ****   }
 786              		.loc 1 1010 41 view .LVU304
 787 0048 6E60     		str	r6, [r5, #4]
 788              	.L36:
1014:Drivers/STM32G4xx_HAL_Driver/Src/stm32g4xx_hal_dma.c **** 
 789              		.loc 1 1014 3 is_stmt 1 view .LVU305
1014:Drivers/STM32G4xx_HAL_Driver/Src/stm32g4xx_hal_dma.c **** 
 790              		.loc 1 1014 7 is_stmt 0 view .LVU306
 791 004a D0E91075 		ldrd	r7, r5, [r0, #64]
1020:Drivers/STM32G4xx_HAL_Driver/Src/stm32g4xx_hal_dma.c ****   {
 792              		.loc 1 1020 6 view .LVU307
 793 004e 8668     		ldr	r6, [r0, #8]
1014:Drivers/STM32G4xx_HAL_Driver/Src/stm32g4xx_hal_dma.c **** 
 794              		.loc 1 1014 69 view .LVU308
 795 0050 05F01F05 		and	r5, r5, #31
1014:Drivers/STM32G4xx_HAL_Driver/Src/stm32g4xx_hal_dma.c **** 
 796              		.loc 1 1014 46 view .LVU309
 797 0054 0120     		movs	r0, #1
 798              	.LVL37:
1020:Drivers/STM32G4xx_HAL_Driver/Src/stm32g4xx_hal_dma.c ****   {
 799              		.loc 1 1020 6 view .LVU310
 800 0056 102E     		cmp	r6, #16
1014:Drivers/STM32G4xx_HAL_Driver/Src/stm32g4xx_hal_dma.c **** 
 801              		.loc 1 1014 46 view .LVU311
 802 0058 00FA05F0 		lsl	r0, r0, r5
1014:Drivers/STM32G4xx_HAL_Driver/Src/stm32g4xx_hal_dma.c **** 
 803              		.loc 1 1014 30 view .LVU312
 804 005c 7860     		str	r0, [r7, #4]
1017:Drivers/STM32G4xx_HAL_Driver/Src/stm32g4xx_hal_dma.c **** 
 805              		.loc 1 1017 3 is_stmt 1 view .LVU313
1017:Drivers/STM32G4xx_HAL_Driver/Src/stm32g4xx_hal_dma.c **** 
 806              		.loc 1 1017 25 is_stmt 0 view .LVU314
 807 005e 6360     		str	r3, [r4, #4]
1020:Drivers/STM32G4xx_HAL_Driver/Src/stm32g4xx_hal_dma.c ****   {
 808              		.loc 1 1020 3 is_stmt 1 view .LVU315
1023:Drivers/STM32G4xx_HAL_Driver/Src/stm32g4xx_hal_dma.c **** 
 809              		.loc 1 1023 5 view .LVU316
1023:Drivers/STM32G4xx_HAL_Driver/Src/stm32g4xx_hal_dma.c **** 
 810              		.loc 1 1023 26 is_stmt 0 view .LVU317
 811 0060 0BBF     		itete	eq
 812 0062 A260     		streq	r2, [r4, #8]
1026:Drivers/STM32G4xx_HAL_Driver/Src/stm32g4xx_hal_dma.c ****   }
 813              		.loc 1 1026 5 is_stmt 1 view .LVU318
ARM GAS  /tmp/ccQyu1mP.s 			page 39


1032:Drivers/STM32G4xx_HAL_Driver/Src/stm32g4xx_hal_dma.c **** 
 814              		.loc 1 1032 26 is_stmt 0 view .LVU319
 815 0064 A160     		strne	r1, [r4, #8]
1026:Drivers/STM32G4xx_HAL_Driver/Src/stm32g4xx_hal_dma.c ****   }
 816              		.loc 1 1026 26 view .LVU320
 817 0066 E160     		streq	r1, [r4, #12]
1032:Drivers/STM32G4xx_HAL_Driver/Src/stm32g4xx_hal_dma.c **** 
 818              		.loc 1 1032 5 is_stmt 1 view .LVU321
1035:Drivers/STM32G4xx_HAL_Driver/Src/stm32g4xx_hal_dma.c ****   }
 819              		.loc 1 1035 5 view .LVU322
1035:Drivers/STM32G4xx_HAL_Driver/Src/stm32g4xx_hal_dma.c ****   }
 820              		.loc 1 1035 26 is_stmt 0 view .LVU323
 821 0068 E260     		strne	r2, [r4, #12]
 822              	.LVL38:
1035:Drivers/STM32G4xx_HAL_Driver/Src/stm32g4xx_hal_dma.c ****   }
 823              		.loc 1 1035 26 view .LVU324
 824              	.LBE47:
 825              	.LBE49:
 401:Drivers/STM32G4xx_HAL_Driver/Src/stm32g4xx_hal_dma.c ****   }
 826              		.loc 1 401 5 is_stmt 1 view .LVU325
 827 006a 2368     		ldr	r3, [r4]
 828              	.LVL39:
 401:Drivers/STM32G4xx_HAL_Driver/Src/stm32g4xx_hal_dma.c ****   }
 829              		.loc 1 401 5 is_stmt 0 view .LVU326
 830 006c 43F00103 		orr	r3, r3, #1
 831 0070 2360     		str	r3, [r4]
 832              	.LVL40:
 380:Drivers/STM32G4xx_HAL_Driver/Src/stm32g4xx_hal_dma.c **** 
 833              		.loc 1 380 21 view .LVU327
 834 0072 0020     		movs	r0, #0
 410:Drivers/STM32G4xx_HAL_Driver/Src/stm32g4xx_hal_dma.c **** 
 835              		.loc 1 410 1 view .LVU328
 836 0074 F0BC     		pop	{r4, r5, r6, r7}
 837              	.LCFI9:
 838              		.cfi_remember_state
 839              		.cfi_restore 7
 840              		.cfi_restore 6
 841              		.cfi_restore 5
 842              		.cfi_restore 4
 843              		.cfi_def_cfa_offset 0
 844 0076 7047     		bx	lr
 845              	.LVL41:
 846              	.L39:
 847              	.LCFI10:
 848              		.cfi_restore_state
 386:Drivers/STM32G4xx_HAL_Driver/Src/stm32g4xx_hal_dma.c **** 
 849              		.loc 1 386 3 view .LVU329
 850 0078 0220     		movs	r0, #2
 851              	.LVL42:
 410:Drivers/STM32G4xx_HAL_Driver/Src/stm32g4xx_hal_dma.c **** 
 852              		.loc 1 410 1 view .LVU330
 853 007a F0BC     		pop	{r4, r5, r6, r7}
 854              	.LCFI11:
 855              		.cfi_restore 7
 856              		.cfi_restore 6
 857              		.cfi_restore 5
 858              		.cfi_restore 4
ARM GAS  /tmp/ccQyu1mP.s 			page 40


 859              		.cfi_def_cfa_offset 0
 860 007c 7047     		bx	lr
 861              		.cfi_endproc
 862              	.LFE331:
 864 007e 00BF     		.section	.text.HAL_DMA_Start_IT,"ax",%progbits
 865              		.align	1
 866              		.p2align 2,,3
 867              		.global	HAL_DMA_Start_IT
 868              		.syntax unified
 869              		.thumb
 870              		.thumb_func
 871              		.fpu fpv4-sp-d16
 873              	HAL_DMA_Start_IT:
 874              	.LVL43:
 875              	.LFB332:
 423:Drivers/STM32G4xx_HAL_Driver/Src/stm32g4xx_hal_dma.c ****   HAL_StatusTypeDef status = HAL_OK;
 876              		.loc 1 423 1 is_stmt 1 view -0
 877              		.cfi_startproc
 878              		@ args = 0, pretend = 0, frame = 0
 879              		@ frame_needed = 0, uses_anonymous_args = 0
 880              		@ link register save eliminated.
 424:Drivers/STM32G4xx_HAL_Driver/Src/stm32g4xx_hal_dma.c **** 
 881              		.loc 1 424 3 view .LVU332
 427:Drivers/STM32G4xx_HAL_Driver/Src/stm32g4xx_hal_dma.c **** 
 882              		.loc 1 427 3 view .LVU333
 430:Drivers/STM32G4xx_HAL_Driver/Src/stm32g4xx_hal_dma.c **** 
 883              		.loc 1 430 3 view .LVU334
 430:Drivers/STM32G4xx_HAL_Driver/Src/stm32g4xx_hal_dma.c **** 
 884              		.loc 1 430 3 view .LVU335
 423:Drivers/STM32G4xx_HAL_Driver/Src/stm32g4xx_hal_dma.c ****   HAL_StatusTypeDef status = HAL_OK;
 885              		.loc 1 423 1 is_stmt 0 view .LVU336
 886 0000 F0B4     		push	{r4, r5, r6, r7}
 887              	.LCFI12:
 888              		.cfi_def_cfa_offset 16
 889              		.cfi_offset 4, -16
 890              		.cfi_offset 5, -12
 891              		.cfi_offset 6, -8
 892              		.cfi_offset 7, -4
 430:Drivers/STM32G4xx_HAL_Driver/Src/stm32g4xx_hal_dma.c **** 
 893              		.loc 1 430 3 view .LVU337
 894 0002 90F82440 		ldrb	r4, [r0, #36]	@ zero_extendqisi2
 895 0006 012C     		cmp	r4, #1
 896 0008 53D0     		beq	.L55
 430:Drivers/STM32G4xx_HAL_Driver/Src/stm32g4xx_hal_dma.c **** 
 897              		.loc 1 430 3 is_stmt 1 discriminator 2 view .LVU338
 432:Drivers/STM32G4xx_HAL_Driver/Src/stm32g4xx_hal_dma.c ****   {
 898              		.loc 1 432 34 is_stmt 0 discriminator 2 view .LVU339
 899 000a 90F82540 		ldrb	r4, [r0, #37]	@ zero_extendqisi2
 430:Drivers/STM32G4xx_HAL_Driver/Src/stm32g4xx_hal_dma.c **** 
 900              		.loc 1 430 3 discriminator 2 view .LVU340
 901 000e 0125     		movs	r5, #1
 432:Drivers/STM32G4xx_HAL_Driver/Src/stm32g4xx_hal_dma.c ****   {
 902              		.loc 1 432 6 discriminator 2 view .LVU341
 903 0010 AC42     		cmp	r4, r5
 430:Drivers/STM32G4xx_HAL_Driver/Src/stm32g4xx_hal_dma.c **** 
 904              		.loc 1 430 3 discriminator 2 view .LVU342
 905 0012 80F82450 		strb	r5, [r0, #36]
ARM GAS  /tmp/ccQyu1mP.s 			page 41


 432:Drivers/STM32G4xx_HAL_Driver/Src/stm32g4xx_hal_dma.c ****   {
 906              		.loc 1 432 3 is_stmt 1 discriminator 2 view .LVU343
 432:Drivers/STM32G4xx_HAL_Driver/Src/stm32g4xx_hal_dma.c ****   {
 907              		.loc 1 432 6 is_stmt 0 discriminator 2 view .LVU344
 908 0016 05D0     		beq	.L66
 477:Drivers/STM32G4xx_HAL_Driver/Src/stm32g4xx_hal_dma.c **** 
 909              		.loc 1 477 5 is_stmt 1 view .LVU345
 477:Drivers/STM32G4xx_HAL_Driver/Src/stm32g4xx_hal_dma.c **** 
 910              		.loc 1 477 5 view .LVU346
 911 0018 0023     		movs	r3, #0
 912              	.LVL44:
 477:Drivers/STM32G4xx_HAL_Driver/Src/stm32g4xx_hal_dma.c **** 
 913              		.loc 1 477 5 is_stmt 0 view .LVU347
 914 001a 80F82430 		strb	r3, [r0, #36]
 480:Drivers/STM32G4xx_HAL_Driver/Src/stm32g4xx_hal_dma.c ****   }
 915              		.loc 1 480 5 is_stmt 1 view .LVU348
 916              	.LVL45:
 483:Drivers/STM32G4xx_HAL_Driver/Src/stm32g4xx_hal_dma.c **** 
 917              		.loc 1 483 1 is_stmt 0 view .LVU349
 918 001e F0BC     		pop	{r4, r5, r6, r7}
 919              	.LCFI13:
 920              		.cfi_remember_state
 921              		.cfi_restore 7
 922              		.cfi_restore 6
 923              		.cfi_restore 5
 924              		.cfi_restore 4
 925              		.cfi_def_cfa_offset 0
 480:Drivers/STM32G4xx_HAL_Driver/Src/stm32g4xx_hal_dma.c ****   }
 926              		.loc 1 480 12 view .LVU350
 927 0020 0220     		movs	r0, #2
 928              	.LVL46:
 483:Drivers/STM32G4xx_HAL_Driver/Src/stm32g4xx_hal_dma.c **** 
 929              		.loc 1 483 1 view .LVU351
 930 0022 7047     		bx	lr
 931              	.LVL47:
 932              	.L66:
 933              	.LCFI14:
 934              		.cfi_restore_state
 435:Drivers/STM32G4xx_HAL_Driver/Src/stm32g4xx_hal_dma.c ****     hdma->ErrorCode = HAL_DMA_ERROR_NONE;
 935              		.loc 1 435 5 is_stmt 1 view .LVU352
 439:Drivers/STM32G4xx_HAL_Driver/Src/stm32g4xx_hal_dma.c **** 
 936              		.loc 1 439 5 is_stmt 0 view .LVU353
 937 0024 0468     		ldr	r4, [r0]
 938              	.LBB50:
 939              	.LBB51:
1005:Drivers/STM32G4xx_HAL_Driver/Src/stm32g4xx_hal_dma.c **** 
 940              		.loc 1 1005 7 view .LVU354
 941 0026 C76C     		ldr	r7, [r0, #76]
 942              	.LBE51:
 943              	.LBE50:
 435:Drivers/STM32G4xx_HAL_Driver/Src/stm32g4xx_hal_dma.c ****     hdma->ErrorCode = HAL_DMA_ERROR_NONE;
 944              		.loc 1 435 17 view .LVU355
 945 0028 0226     		movs	r6, #2
 436:Drivers/STM32G4xx_HAL_Driver/Src/stm32g4xx_hal_dma.c **** 
 946              		.loc 1 436 21 view .LVU356
 947 002a 0025     		movs	r5, #0
 435:Drivers/STM32G4xx_HAL_Driver/Src/stm32g4xx_hal_dma.c ****     hdma->ErrorCode = HAL_DMA_ERROR_NONE;
ARM GAS  /tmp/ccQyu1mP.s 			page 42


 948              		.loc 1 435 17 view .LVU357
 949 002c 80F82560 		strb	r6, [r0, #37]
 436:Drivers/STM32G4xx_HAL_Driver/Src/stm32g4xx_hal_dma.c **** 
 950              		.loc 1 436 5 is_stmt 1 view .LVU358
 436:Drivers/STM32G4xx_HAL_Driver/Src/stm32g4xx_hal_dma.c **** 
 951              		.loc 1 436 21 is_stmt 0 view .LVU359
 952 0030 C563     		str	r5, [r0, #60]
 439:Drivers/STM32G4xx_HAL_Driver/Src/stm32g4xx_hal_dma.c **** 
 953              		.loc 1 439 5 is_stmt 1 view .LVU360
 954 0032 2668     		ldr	r6, [r4]
 955              	.LBB56:
 956              	.LBB52:
1005:Drivers/STM32G4xx_HAL_Driver/Src/stm32g4xx_hal_dma.c **** 
 957              		.loc 1 1005 40 is_stmt 0 view .LVU361
 958 0034 D0E914C5 		ldrd	ip, r5, [r0, #80]
 959              	.LBE52:
 960              	.LBE56:
 439:Drivers/STM32G4xx_HAL_Driver/Src/stm32g4xx_hal_dma.c **** 
 961              		.loc 1 439 5 view .LVU362
 962 0038 26F00106 		bic	r6, r6, #1
 963 003c 2660     		str	r6, [r4]
 442:Drivers/STM32G4xx_HAL_Driver/Src/stm32g4xx_hal_dma.c **** 
 964              		.loc 1 442 5 is_stmt 1 view .LVU363
 965              	.LVL48:
 966              	.LBB57:
 967              	.LBI50:
1002:Drivers/STM32G4xx_HAL_Driver/Src/stm32g4xx_hal_dma.c **** {
 968              		.loc 1 1002 13 view .LVU364
 969              	.LBB53:
1005:Drivers/STM32G4xx_HAL_Driver/Src/stm32g4xx_hal_dma.c **** 
 970              		.loc 1 1005 3 view .LVU365
1005:Drivers/STM32G4xx_HAL_Driver/Src/stm32g4xx_hal_dma.c **** 
 971              		.loc 1 1005 34 is_stmt 0 view .LVU366
 972 003e C7F804C0 		str	ip, [r7, #4]
1007:Drivers/STM32G4xx_HAL_Driver/Src/stm32g4xx_hal_dma.c ****   {
 973              		.loc 1 1007 3 is_stmt 1 view .LVU367
1007:Drivers/STM32G4xx_HAL_Driver/Src/stm32g4xx_hal_dma.c ****   {
 974              		.loc 1 1007 6 is_stmt 0 view .LVU368
 975 0042 15B1     		cbz	r5, .L48
1010:Drivers/STM32G4xx_HAL_Driver/Src/stm32g4xx_hal_dma.c ****   }
 976              		.loc 1 1010 5 is_stmt 1 view .LVU369
1010:Drivers/STM32G4xx_HAL_Driver/Src/stm32g4xx_hal_dma.c ****   }
 977              		.loc 1 1010 47 is_stmt 0 view .LVU370
 978 0044 D0E91667 		ldrd	r6, r7, [r0, #88]
1010:Drivers/STM32G4xx_HAL_Driver/Src/stm32g4xx_hal_dma.c ****   }
 979              		.loc 1 1010 41 view .LVU371
 980 0048 7760     		str	r7, [r6, #4]
 981              	.L48:
1014:Drivers/STM32G4xx_HAL_Driver/Src/stm32g4xx_hal_dma.c **** 
 982              		.loc 1 1014 3 is_stmt 1 view .LVU372
1014:Drivers/STM32G4xx_HAL_Driver/Src/stm32g4xx_hal_dma.c **** 
 983              		.loc 1 1014 69 is_stmt 0 view .LVU373
 984 004a 466C     		ldr	r6, [r0, #68]
1020:Drivers/STM32G4xx_HAL_Driver/Src/stm32g4xx_hal_dma.c ****   {
 985              		.loc 1 1020 6 view .LVU374
 986 004c D0F808C0 		ldr	ip, [r0, #8]
1014:Drivers/STM32G4xx_HAL_Driver/Src/stm32g4xx_hal_dma.c **** 
ARM GAS  /tmp/ccQyu1mP.s 			page 43


 987              		.loc 1 1014 69 view .LVU375
 988 0050 06F01F07 		and	r7, r6, #31
1014:Drivers/STM32G4xx_HAL_Driver/Src/stm32g4xx_hal_dma.c **** 
 989              		.loc 1 1014 46 view .LVU376
 990 0054 0126     		movs	r6, #1
 991 0056 BE40     		lsls	r6, r6, r7
1014:Drivers/STM32G4xx_HAL_Driver/Src/stm32g4xx_hal_dma.c **** 
 992              		.loc 1 1014 30 view .LVU377
 993 0058 076C     		ldr	r7, [r0, #64]
 994 005a 7E60     		str	r6, [r7, #4]
1017:Drivers/STM32G4xx_HAL_Driver/Src/stm32g4xx_hal_dma.c **** 
 995              		.loc 1 1017 3 is_stmt 1 view .LVU378
1017:Drivers/STM32G4xx_HAL_Driver/Src/stm32g4xx_hal_dma.c **** 
 996              		.loc 1 1017 25 is_stmt 0 view .LVU379
 997 005c 6360     		str	r3, [r4, #4]
1020:Drivers/STM32G4xx_HAL_Driver/Src/stm32g4xx_hal_dma.c ****   {
 998              		.loc 1 1020 3 is_stmt 1 view .LVU380
 999              	.LBE53:
 1000              	.LBE57:
 446:Drivers/STM32G4xx_HAL_Driver/Src/stm32g4xx_hal_dma.c ****     {
 1001              		.loc 1 446 8 is_stmt 0 view .LVU381
 1002 005e 036B     		ldr	r3, [r0, #48]
 1003              	.LVL49:
 1004              	.LBB58:
 1005              	.LBB54:
1020:Drivers/STM32G4xx_HAL_Driver/Src/stm32g4xx_hal_dma.c ****   {
 1006              		.loc 1 1020 6 view .LVU382
 1007 0060 BCF1100F 		cmp	ip, #16
1023:Drivers/STM32G4xx_HAL_Driver/Src/stm32g4xx_hal_dma.c **** 
 1008              		.loc 1 1023 5 is_stmt 1 view .LVU383
1023:Drivers/STM32G4xx_HAL_Driver/Src/stm32g4xx_hal_dma.c **** 
 1009              		.loc 1 1023 26 is_stmt 0 view .LVU384
 1010 0064 0BBF     		itete	eq
 1011 0066 A260     		streq	r2, [r4, #8]
1026:Drivers/STM32G4xx_HAL_Driver/Src/stm32g4xx_hal_dma.c ****   }
 1012              		.loc 1 1026 5 is_stmt 1 view .LVU385
1032:Drivers/STM32G4xx_HAL_Driver/Src/stm32g4xx_hal_dma.c **** 
 1013              		.loc 1 1032 26 is_stmt 0 view .LVU386
 1014 0068 A160     		strne	r1, [r4, #8]
1026:Drivers/STM32G4xx_HAL_Driver/Src/stm32g4xx_hal_dma.c ****   }
 1015              		.loc 1 1026 26 view .LVU387
 1016 006a E160     		streq	r1, [r4, #12]
1032:Drivers/STM32G4xx_HAL_Driver/Src/stm32g4xx_hal_dma.c **** 
 1017              		.loc 1 1032 5 is_stmt 1 view .LVU388
1035:Drivers/STM32G4xx_HAL_Driver/Src/stm32g4xx_hal_dma.c ****   }
 1018              		.loc 1 1035 5 view .LVU389
 1019              	.LVL50:
1035:Drivers/STM32G4xx_HAL_Driver/Src/stm32g4xx_hal_dma.c ****   }
 1020              		.loc 1 1035 5 is_stmt 0 view .LVU390
 1021              	.LBE54:
 1022              	.LBE58:
 446:Drivers/STM32G4xx_HAL_Driver/Src/stm32g4xx_hal_dma.c ****     {
 1023              		.loc 1 446 5 is_stmt 1 view .LVU391
 1024              	.LBB59:
 1025              	.LBB55:
1035:Drivers/STM32G4xx_HAL_Driver/Src/stm32g4xx_hal_dma.c ****   }
 1026              		.loc 1 1035 26 is_stmt 0 view .LVU392
ARM GAS  /tmp/ccQyu1mP.s 			page 44


 1027 006c E260     		strne	r2, [r4, #12]
 1028              	.LBE55:
 1029              	.LBE59:
 446:Drivers/STM32G4xx_HAL_Driver/Src/stm32g4xx_hal_dma.c ****     {
 1030              		.loc 1 446 8 view .LVU393
 1031 006e BBB1     		cbz	r3, .L51
 449:Drivers/STM32G4xx_HAL_Driver/Src/stm32g4xx_hal_dma.c ****     }
 1032              		.loc 1 449 7 is_stmt 1 view .LVU394
 1033 0070 2368     		ldr	r3, [r4]
 1034 0072 43F00E03 		orr	r3, r3, #14
 1035 0076 2360     		str	r3, [r4]
 1036              	.LVL51:
 1037              	.L52:
 458:Drivers/STM32G4xx_HAL_Driver/Src/stm32g4xx_hal_dma.c ****     {
 1038              		.loc 1 458 5 view .LVU395
 458:Drivers/STM32G4xx_HAL_Driver/Src/stm32g4xx_hal_dma.c ****     {
 1039              		.loc 1 458 14 is_stmt 0 view .LVU396
 1040 0078 836C     		ldr	r3, [r0, #72]
 458:Drivers/STM32G4xx_HAL_Driver/Src/stm32g4xx_hal_dma.c ****     {
 1041              		.loc 1 458 29 view .LVU397
 1042 007a 1A68     		ldr	r2, [r3]
 1043              	.LVL52:
 458:Drivers/STM32G4xx_HAL_Driver/Src/stm32g4xx_hal_dma.c ****     {
 1044              		.loc 1 458 8 view .LVU398
 1045 007c D203     		lsls	r2, r2, #15
 1046 007e 03D5     		bpl	.L53
 461:Drivers/STM32G4xx_HAL_Driver/Src/stm32g4xx_hal_dma.c ****     }
 1047              		.loc 1 461 7 is_stmt 1 view .LVU399
 461:Drivers/STM32G4xx_HAL_Driver/Src/stm32g4xx_hal_dma.c ****     }
 1048              		.loc 1 461 32 is_stmt 0 view .LVU400
 1049 0080 1A68     		ldr	r2, [r3]
 1050 0082 42F48072 		orr	r2, r2, #256
 1051 0086 1A60     		str	r2, [r3]
 1052              	.L53:
 464:Drivers/STM32G4xx_HAL_Driver/Src/stm32g4xx_hal_dma.c ****     {
 1053              		.loc 1 464 5 is_stmt 1 view .LVU401
 464:Drivers/STM32G4xx_HAL_Driver/Src/stm32g4xx_hal_dma.c ****     {
 1054              		.loc 1 464 8 is_stmt 0 view .LVU402
 1055 0088 1DB1     		cbz	r5, .L54
 468:Drivers/STM32G4xx_HAL_Driver/Src/stm32g4xx_hal_dma.c ****     }
 1056              		.loc 1 468 7 is_stmt 1 view .LVU403
 468:Drivers/STM32G4xx_HAL_Driver/Src/stm32g4xx_hal_dma.c ****     }
 1057              		.loc 1 468 36 is_stmt 0 view .LVU404
 1058 008a 2B68     		ldr	r3, [r5]
 1059 008c 43F48073 		orr	r3, r3, #256
 1060 0090 2B60     		str	r3, [r5]
 1061              	.L54:
 472:Drivers/STM32G4xx_HAL_Driver/Src/stm32g4xx_hal_dma.c ****   }
 1062              		.loc 1 472 5 is_stmt 1 view .LVU405
 1063 0092 2368     		ldr	r3, [r4]
 1064 0094 43F00103 		orr	r3, r3, #1
 1065 0098 2360     		str	r3, [r4]
 424:Drivers/STM32G4xx_HAL_Driver/Src/stm32g4xx_hal_dma.c **** 
 1066              		.loc 1 424 21 is_stmt 0 view .LVU406
 1067 009a 0020     		movs	r0, #0
 1068              	.LVL53:
 483:Drivers/STM32G4xx_HAL_Driver/Src/stm32g4xx_hal_dma.c **** 
ARM GAS  /tmp/ccQyu1mP.s 			page 45


 1069              		.loc 1 483 1 view .LVU407
 1070 009c F0BC     		pop	{r4, r5, r6, r7}
 1071              	.LCFI15:
 1072              		.cfi_remember_state
 1073              		.cfi_restore 7
 1074              		.cfi_restore 6
 1075              		.cfi_restore 5
 1076              		.cfi_restore 4
 1077              		.cfi_def_cfa_offset 0
 1078 009e 7047     		bx	lr
 1079              	.LVL54:
 1080              	.L51:
 1081              	.LCFI16:
 1082              		.cfi_restore_state
 453:Drivers/STM32G4xx_HAL_Driver/Src/stm32g4xx_hal_dma.c ****       __HAL_DMA_ENABLE_IT(hdma, (DMA_IT_TC | DMA_IT_TE));
 1083              		.loc 1 453 7 is_stmt 1 view .LVU408
 1084 00a0 2368     		ldr	r3, [r4]
 1085 00a2 23F00403 		bic	r3, r3, #4
 1086 00a6 2360     		str	r3, [r4]
 1087              	.LVL55:
 454:Drivers/STM32G4xx_HAL_Driver/Src/stm32g4xx_hal_dma.c ****     }
 1088              		.loc 1 454 7 view .LVU409
 1089 00a8 2368     		ldr	r3, [r4]
 1090 00aa 43F00A03 		orr	r3, r3, #10
 1091 00ae 2360     		str	r3, [r4]
 1092 00b0 E2E7     		b	.L52
 1093              	.LVL56:
 1094              	.L55:
 430:Drivers/STM32G4xx_HAL_Driver/Src/stm32g4xx_hal_dma.c **** 
 1095              		.loc 1 430 3 is_stmt 0 view .LVU410
 1096 00b2 0220     		movs	r0, #2
 1097              	.LVL57:
 483:Drivers/STM32G4xx_HAL_Driver/Src/stm32g4xx_hal_dma.c **** 
 1098              		.loc 1 483 1 view .LVU411
 1099 00b4 F0BC     		pop	{r4, r5, r6, r7}
 1100              	.LCFI17:
 1101              		.cfi_restore 7
 1102              		.cfi_restore 6
 1103              		.cfi_restore 5
 1104              		.cfi_restore 4
 1105              		.cfi_def_cfa_offset 0
 1106 00b6 7047     		bx	lr
 1107              		.cfi_endproc
 1108              	.LFE332:
 1110              		.section	.text.HAL_DMA_Abort,"ax",%progbits
 1111              		.align	1
 1112              		.p2align 2,,3
 1113              		.global	HAL_DMA_Abort
 1114              		.syntax unified
 1115              		.thumb
 1116              		.thumb_func
 1117              		.fpu fpv4-sp-d16
 1119              	HAL_DMA_Abort:
 1120              	.LVL58:
 1121              	.LFB333:
 492:Drivers/STM32G4xx_HAL_Driver/Src/stm32g4xx_hal_dma.c ****   HAL_StatusTypeDef status = HAL_OK;
 1122              		.loc 1 492 1 is_stmt 1 view -0
ARM GAS  /tmp/ccQyu1mP.s 			page 46


 1123              		.cfi_startproc
 1124              		@ args = 0, pretend = 0, frame = 0
 1125              		@ frame_needed = 0, uses_anonymous_args = 0
 1126              		@ link register save eliminated.
 493:Drivers/STM32G4xx_HAL_Driver/Src/stm32g4xx_hal_dma.c **** 
 1127              		.loc 1 493 3 view .LVU413
 495:Drivers/STM32G4xx_HAL_Driver/Src/stm32g4xx_hal_dma.c ****   {
 1128              		.loc 1 495 3 view .LVU414
 495:Drivers/STM32G4xx_HAL_Driver/Src/stm32g4xx_hal_dma.c ****   {
 1129              		.loc 1 495 10 is_stmt 0 view .LVU415
 1130 0000 90F82520 		ldrb	r2, [r0, #37]	@ zero_extendqisi2
 495:Drivers/STM32G4xx_HAL_Driver/Src/stm32g4xx_hal_dma.c ****   {
 1131              		.loc 1 495 5 view .LVU416
 1132 0004 022A     		cmp	r2, #2
 492:Drivers/STM32G4xx_HAL_Driver/Src/stm32g4xx_hal_dma.c ****   HAL_StatusTypeDef status = HAL_OK;
 1133              		.loc 1 492 1 view .LVU417
 1134 0006 0346     		mov	r3, r0
 495:Drivers/STM32G4xx_HAL_Driver/Src/stm32g4xx_hal_dma.c ****   {
 1135              		.loc 1 495 5 view .LVU418
 1136 0008 09D0     		beq	.L68
 498:Drivers/STM32G4xx_HAL_Driver/Src/stm32g4xx_hal_dma.c **** 
 1137              		.loc 1 498 5 is_stmt 1 view .LVU419
 498:Drivers/STM32G4xx_HAL_Driver/Src/stm32g4xx_hal_dma.c **** 
 1138              		.loc 1 498 21 is_stmt 0 view .LVU420
 1139 000a 0422     		movs	r2, #4
 1140 000c C263     		str	r2, [r0, #60]
 500:Drivers/STM32G4xx_HAL_Driver/Src/stm32g4xx_hal_dma.c ****   }
 1141              		.loc 1 500 5 is_stmt 1 view .LVU421
 1142              	.LVL59:
 530:Drivers/STM32G4xx_HAL_Driver/Src/stm32g4xx_hal_dma.c **** 
 1143              		.loc 1 530 15 is_stmt 0 view .LVU422
 1144 000e 0121     		movs	r1, #1
 533:Drivers/STM32G4xx_HAL_Driver/Src/stm32g4xx_hal_dma.c **** 
 1145              		.loc 1 533 3 view .LVU423
 1146 0010 0022     		movs	r2, #0
 500:Drivers/STM32G4xx_HAL_Driver/Src/stm32g4xx_hal_dma.c ****   }
 1147              		.loc 1 500 12 view .LVU424
 1148 0012 0120     		movs	r0, #1
 1149              	.LVL60:
 530:Drivers/STM32G4xx_HAL_Driver/Src/stm32g4xx_hal_dma.c **** 
 1150              		.loc 1 530 3 is_stmt 1 view .LVU425
 530:Drivers/STM32G4xx_HAL_Driver/Src/stm32g4xx_hal_dma.c **** 
 1151              		.loc 1 530 15 is_stmt 0 view .LVU426
 1152 0014 83F82510 		strb	r1, [r3, #37]
 533:Drivers/STM32G4xx_HAL_Driver/Src/stm32g4xx_hal_dma.c **** 
 1153              		.loc 1 533 3 is_stmt 1 view .LVU427
 533:Drivers/STM32G4xx_HAL_Driver/Src/stm32g4xx_hal_dma.c **** 
 1154              		.loc 1 533 3 view .LVU428
 1155 0018 83F82420 		strb	r2, [r3, #36]
 535:Drivers/STM32G4xx_HAL_Driver/Src/stm32g4xx_hal_dma.c **** }
 1156              		.loc 1 535 3 view .LVU429
 536:Drivers/STM32G4xx_HAL_Driver/Src/stm32g4xx_hal_dma.c **** 
 1157              		.loc 1 536 1 is_stmt 0 view .LVU430
 1158 001c 7047     		bx	lr
 1159              	.LVL61:
 1160              	.L68:
 505:Drivers/STM32G4xx_HAL_Driver/Src/stm32g4xx_hal_dma.c ****      
ARM GAS  /tmp/ccQyu1mP.s 			page 47


 1161              		.loc 1 505 6 is_stmt 1 view .LVU431
 1162 001e 0268     		ldr	r2, [r0]
 492:Drivers/STM32G4xx_HAL_Driver/Src/stm32g4xx_hal_dma.c ****   HAL_StatusTypeDef status = HAL_OK;
 1163              		.loc 1 492 1 is_stmt 0 view .LVU432
 1164 0020 70B4     		push	{r4, r5, r6}
 1165              	.LCFI18:
 1166              		.cfi_def_cfa_offset 12
 1167              		.cfi_offset 4, -12
 1168              		.cfi_offset 5, -8
 1169              		.cfi_offset 6, -4
 508:Drivers/STM32G4xx_HAL_Driver/Src/stm32g4xx_hal_dma.c ****      
 1170              		.loc 1 508 10 view .LVU433
 1171 0022 846C     		ldr	r4, [r0, #72]
 505:Drivers/STM32G4xx_HAL_Driver/Src/stm32g4xx_hal_dma.c ****      
 1172              		.loc 1 505 6 view .LVU434
 1173 0024 1068     		ldr	r0, [r2]
 1174              	.LVL62:
 517:Drivers/STM32G4xx_HAL_Driver/Src/stm32g4xx_hal_dma.c ****      
 1175              		.loc 1 517 10 view .LVU435
 1176 0026 DE6C     		ldr	r6, [r3, #76]
 505:Drivers/STM32G4xx_HAL_Driver/Src/stm32g4xx_hal_dma.c ****      
 1177              		.loc 1 505 6 view .LVU436
 1178 0028 20F00E00 		bic	r0, r0, #14
 514:Drivers/STM32G4xx_HAL_Driver/Src/stm32g4xx_hal_dma.c ****      
 1179              		.loc 1 514 10 view .LVU437
 1180 002c D3E91051 		ldrd	r5, r1, [r3, #64]
 505:Drivers/STM32G4xx_HAL_Driver/Src/stm32g4xx_hal_dma.c ****      
 1181              		.loc 1 505 6 view .LVU438
 1182 0030 1060     		str	r0, [r2]
 508:Drivers/STM32G4xx_HAL_Driver/Src/stm32g4xx_hal_dma.c ****      
 1183              		.loc 1 508 6 is_stmt 1 view .LVU439
 508:Drivers/STM32G4xx_HAL_Driver/Src/stm32g4xx_hal_dma.c ****      
 1184              		.loc 1 508 31 is_stmt 0 view .LVU440
 1185 0032 2068     		ldr	r0, [r4]
 1186 0034 20F48070 		bic	r0, r0, #256
 1187 0038 2060     		str	r0, [r4]
 511:Drivers/STM32G4xx_HAL_Driver/Src/stm32g4xx_hal_dma.c ****      
 1188              		.loc 1 511 6 is_stmt 1 view .LVU441
 1189 003a 1468     		ldr	r4, [r2]
 519:Drivers/STM32G4xx_HAL_Driver/Src/stm32g4xx_hal_dma.c ****      {
 1190              		.loc 1 519 14 is_stmt 0 view .LVU442
 1191 003c 586D     		ldr	r0, [r3, #84]
 511:Drivers/STM32G4xx_HAL_Driver/Src/stm32g4xx_hal_dma.c ****      
 1192              		.loc 1 511 6 view .LVU443
 1193 003e 24F00104 		bic	r4, r4, #1
 1194 0042 1460     		str	r4, [r2]
 514:Drivers/STM32G4xx_HAL_Driver/Src/stm32g4xx_hal_dma.c ****      
 1195              		.loc 1 514 6 is_stmt 1 view .LVU444
 514:Drivers/STM32G4xx_HAL_Driver/Src/stm32g4xx_hal_dma.c ****      
 1196              		.loc 1 514 72 is_stmt 0 view .LVU445
 1197 0044 01F01F01 		and	r1, r1, #31
 514:Drivers/STM32G4xx_HAL_Driver/Src/stm32g4xx_hal_dma.c ****      
 1198              		.loc 1 514 49 view .LVU446
 1199 0048 0122     		movs	r2, #1
 1200 004a 8A40     		lsls	r2, r2, r1
 517:Drivers/STM32G4xx_HAL_Driver/Src/stm32g4xx_hal_dma.c ****      
 1201              		.loc 1 517 43 view .LVU447
ARM GAS  /tmp/ccQyu1mP.s 			page 48


 1202 004c 196D     		ldr	r1, [r3, #80]
 514:Drivers/STM32G4xx_HAL_Driver/Src/stm32g4xx_hal_dma.c ****      
 1203              		.loc 1 514 33 view .LVU448
 1204 004e 6A60     		str	r2, [r5, #4]
 517:Drivers/STM32G4xx_HAL_Driver/Src/stm32g4xx_hal_dma.c ****      
 1205              		.loc 1 517 6 is_stmt 1 view .LVU449
 517:Drivers/STM32G4xx_HAL_Driver/Src/stm32g4xx_hal_dma.c ****      
 1206              		.loc 1 517 37 is_stmt 0 view .LVU450
 1207 0050 7160     		str	r1, [r6, #4]
 519:Drivers/STM32G4xx_HAL_Driver/Src/stm32g4xx_hal_dma.c ****      {
 1208              		.loc 1 519 6 is_stmt 1 view .LVU451
 519:Drivers/STM32G4xx_HAL_Driver/Src/stm32g4xx_hal_dma.c ****      {
 1209              		.loc 1 519 9 is_stmt 0 view .LVU452
 1210 0052 38B1     		cbz	r0, .L69
 523:Drivers/STM32G4xx_HAL_Driver/Src/stm32g4xx_hal_dma.c ****      
 1211              		.loc 1 523 8 is_stmt 1 view .LVU453
 523:Drivers/STM32G4xx_HAL_Driver/Src/stm32g4xx_hal_dma.c ****      
 1212              		.loc 1 523 37 is_stmt 0 view .LVU454
 1213 0054 0268     		ldr	r2, [r0]
 526:Drivers/STM32G4xx_HAL_Driver/Src/stm32g4xx_hal_dma.c ****      }
 1214              		.loc 1 526 50 view .LVU455
 1215 0056 D3E91614 		ldrd	r1, r4, [r3, #88]
 523:Drivers/STM32G4xx_HAL_Driver/Src/stm32g4xx_hal_dma.c ****      
 1216              		.loc 1 523 37 view .LVU456
 1217 005a 22F48072 		bic	r2, r2, #256
 1218 005e 0260     		str	r2, [r0]
 526:Drivers/STM32G4xx_HAL_Driver/Src/stm32g4xx_hal_dma.c ****      }
 1219              		.loc 1 526 8 is_stmt 1 view .LVU457
 493:Drivers/STM32G4xx_HAL_Driver/Src/stm32g4xx_hal_dma.c **** 
 1220              		.loc 1 493 21 is_stmt 0 view .LVU458
 1221 0060 0020     		movs	r0, #0
 526:Drivers/STM32G4xx_HAL_Driver/Src/stm32g4xx_hal_dma.c ****      }
 1222              		.loc 1 526 44 view .LVU459
 1223 0062 4C60     		str	r4, [r1, #4]
 1224              	.L69:
 1225              	.LVL63:
 530:Drivers/STM32G4xx_HAL_Driver/Src/stm32g4xx_hal_dma.c **** 
 1226              		.loc 1 530 3 is_stmt 1 view .LVU460
 530:Drivers/STM32G4xx_HAL_Driver/Src/stm32g4xx_hal_dma.c **** 
 1227              		.loc 1 530 15 is_stmt 0 view .LVU461
 1228 0064 0121     		movs	r1, #1
 533:Drivers/STM32G4xx_HAL_Driver/Src/stm32g4xx_hal_dma.c **** 
 1229              		.loc 1 533 3 view .LVU462
 1230 0066 0022     		movs	r2, #0
 530:Drivers/STM32G4xx_HAL_Driver/Src/stm32g4xx_hal_dma.c **** 
 1231              		.loc 1 530 15 view .LVU463
 1232 0068 83F82510 		strb	r1, [r3, #37]
 533:Drivers/STM32G4xx_HAL_Driver/Src/stm32g4xx_hal_dma.c **** 
 1233              		.loc 1 533 3 is_stmt 1 view .LVU464
 533:Drivers/STM32G4xx_HAL_Driver/Src/stm32g4xx_hal_dma.c **** 
 1234              		.loc 1 533 3 view .LVU465
 1235 006c 83F82420 		strb	r2, [r3, #36]
 535:Drivers/STM32G4xx_HAL_Driver/Src/stm32g4xx_hal_dma.c **** }
 1236              		.loc 1 535 3 view .LVU466
 536:Drivers/STM32G4xx_HAL_Driver/Src/stm32g4xx_hal_dma.c **** 
 1237              		.loc 1 536 1 is_stmt 0 view .LVU467
 1238 0070 70BC     		pop	{r4, r5, r6}
ARM GAS  /tmp/ccQyu1mP.s 			page 49


 1239              	.LCFI19:
 1240              		.cfi_restore 6
 1241              		.cfi_restore 5
 1242              		.cfi_restore 4
 1243              		.cfi_def_cfa_offset 0
 1244 0072 7047     		bx	lr
 1245              		.cfi_endproc
 1246              	.LFE333:
 1248              		.section	.text.HAL_DMA_Abort_IT,"ax",%progbits
 1249              		.align	1
 1250              		.p2align 2,,3
 1251              		.global	HAL_DMA_Abort_IT
 1252              		.syntax unified
 1253              		.thumb
 1254              		.thumb_func
 1255              		.fpu fpv4-sp-d16
 1257              	HAL_DMA_Abort_IT:
 1258              	.LVL64:
 1259              	.LFB334:
 545:Drivers/STM32G4xx_HAL_Driver/Src/stm32g4xx_hal_dma.c ****   HAL_StatusTypeDef status = HAL_OK;
 1260              		.loc 1 545 1 is_stmt 1 view -0
 1261              		.cfi_startproc
 1262              		@ args = 0, pretend = 0, frame = 0
 1263              		@ frame_needed = 0, uses_anonymous_args = 0
 546:Drivers/STM32G4xx_HAL_Driver/Src/stm32g4xx_hal_dma.c **** 
 1264              		.loc 1 546 3 view .LVU469
 548:Drivers/STM32G4xx_HAL_Driver/Src/stm32g4xx_hal_dma.c ****   {
 1265              		.loc 1 548 3 view .LVU470
 548:Drivers/STM32G4xx_HAL_Driver/Src/stm32g4xx_hal_dma.c ****   {
 1266              		.loc 1 548 33 is_stmt 0 view .LVU471
 1267 0000 90F82530 		ldrb	r3, [r0, #37]	@ zero_extendqisi2
 548:Drivers/STM32G4xx_HAL_Driver/Src/stm32g4xx_hal_dma.c ****   {
 1268              		.loc 1 548 6 view .LVU472
 1269 0004 022B     		cmp	r3, #2
 545:Drivers/STM32G4xx_HAL_Driver/Src/stm32g4xx_hal_dma.c ****   HAL_StatusTypeDef status = HAL_OK;
 1270              		.loc 1 545 1 view .LVU473
 1271 0006 70B5     		push	{r4, r5, r6, lr}
 1272              	.LCFI20:
 1273              		.cfi_def_cfa_offset 16
 1274              		.cfi_offset 4, -16
 1275              		.cfi_offset 5, -12
 1276              		.cfi_offset 6, -8
 1277              		.cfi_offset 14, -4
 548:Drivers/STM32G4xx_HAL_Driver/Src/stm32g4xx_hal_dma.c ****   {
 1278              		.loc 1 548 6 view .LVU474
 1279 0008 0AD0     		beq	.L75
 551:Drivers/STM32G4xx_HAL_Driver/Src/stm32g4xx_hal_dma.c **** 
 1280              		.loc 1 551 5 is_stmt 1 view .LVU475
 554:Drivers/STM32G4xx_HAL_Driver/Src/stm32g4xx_hal_dma.c **** 
 1281              		.loc 1 554 17 is_stmt 0 view .LVU476
 1282 000a 0122     		movs	r2, #1
 551:Drivers/STM32G4xx_HAL_Driver/Src/stm32g4xx_hal_dma.c **** 
 1283              		.loc 1 551 21 view .LVU477
 1284 000c 0423     		movs	r3, #4
 557:Drivers/STM32G4xx_HAL_Driver/Src/stm32g4xx_hal_dma.c **** 
 1285              		.loc 1 557 5 view .LVU478
 1286 000e 0021     		movs	r1, #0
ARM GAS  /tmp/ccQyu1mP.s 			page 50


 559:Drivers/STM32G4xx_HAL_Driver/Src/stm32g4xx_hal_dma.c ****   }
 1287              		.loc 1 559 12 view .LVU479
 1288 0010 1446     		mov	r4, r2
 551:Drivers/STM32G4xx_HAL_Driver/Src/stm32g4xx_hal_dma.c **** 
 1289              		.loc 1 551 21 view .LVU480
 1290 0012 C363     		str	r3, [r0, #60]
 554:Drivers/STM32G4xx_HAL_Driver/Src/stm32g4xx_hal_dma.c **** 
 1291              		.loc 1 554 5 is_stmt 1 view .LVU481
 557:Drivers/STM32G4xx_HAL_Driver/Src/stm32g4xx_hal_dma.c **** 
 1292              		.loc 1 557 5 is_stmt 0 view .LVU482
 1293 0014 80F82410 		strb	r1, [r0, #36]
 554:Drivers/STM32G4xx_HAL_Driver/Src/stm32g4xx_hal_dma.c **** 
 1294              		.loc 1 554 17 view .LVU483
 1295 0018 80F82520 		strb	r2, [r0, #37]
 557:Drivers/STM32G4xx_HAL_Driver/Src/stm32g4xx_hal_dma.c **** 
 1296              		.loc 1 557 5 is_stmt 1 view .LVU484
 557:Drivers/STM32G4xx_HAL_Driver/Src/stm32g4xx_hal_dma.c **** 
 1297              		.loc 1 557 5 view .LVU485
 559:Drivers/STM32G4xx_HAL_Driver/Src/stm32g4xx_hal_dma.c ****   }
 1298              		.loc 1 559 5 view .LVU486
 1299              	.LVL65:
 600:Drivers/STM32G4xx_HAL_Driver/Src/stm32g4xx_hal_dma.c **** }
 1300              		.loc 1 600 3 view .LVU487
 601:Drivers/STM32G4xx_HAL_Driver/Src/stm32g4xx_hal_dma.c **** 
 1301              		.loc 1 601 1 is_stmt 0 view .LVU488
 1302 001c 2046     		mov	r0, r4
 1303              	.LVL66:
 601:Drivers/STM32G4xx_HAL_Driver/Src/stm32g4xx_hal_dma.c **** 
 1304              		.loc 1 601 1 view .LVU489
 1305 001e 70BD     		pop	{r4, r5, r6, pc}
 1306              	.LVL67:
 1307              	.L75:
 564:Drivers/STM32G4xx_HAL_Driver/Src/stm32g4xx_hal_dma.c **** 
 1308              		.loc 1 564 5 is_stmt 1 view .LVU490
 1309 0020 0368     		ldr	r3, [r0]
 570:Drivers/STM32G4xx_HAL_Driver/Src/stm32g4xx_hal_dma.c **** 
 1310              		.loc 1 570 9 is_stmt 0 view .LVU491
 1311 0022 856C     		ldr	r5, [r0, #72]
 564:Drivers/STM32G4xx_HAL_Driver/Src/stm32g4xx_hal_dma.c **** 
 1312              		.loc 1 564 5 view .LVU492
 1313 0024 1968     		ldr	r1, [r3]
 576:Drivers/STM32G4xx_HAL_Driver/Src/stm32g4xx_hal_dma.c **** 
 1314              		.loc 1 576 9 view .LVU493
 1315 0026 C66C     		ldr	r6, [r0, #76]
 564:Drivers/STM32G4xx_HAL_Driver/Src/stm32g4xx_hal_dma.c **** 
 1316              		.loc 1 564 5 view .LVU494
 1317 0028 21F00E01 		bic	r1, r1, #14
 573:Drivers/STM32G4xx_HAL_Driver/Src/stm32g4xx_hal_dma.c **** 
 1318              		.loc 1 573 9 view .LVU495
 1319 002c D0E91042 		ldrd	r4, r2, [r0, #64]
 564:Drivers/STM32G4xx_HAL_Driver/Src/stm32g4xx_hal_dma.c **** 
 1320              		.loc 1 564 5 view .LVU496
 1321 0030 1960     		str	r1, [r3]
 567:Drivers/STM32G4xx_HAL_Driver/Src/stm32g4xx_hal_dma.c **** 
 1322              		.loc 1 567 5 is_stmt 1 view .LVU497
 1323 0032 1968     		ldr	r1, [r3]
 1324 0034 21F00101 		bic	r1, r1, #1
ARM GAS  /tmp/ccQyu1mP.s 			page 51


 1325 0038 1960     		str	r1, [r3]
 570:Drivers/STM32G4xx_HAL_Driver/Src/stm32g4xx_hal_dma.c **** 
 1326              		.loc 1 570 5 view .LVU498
 570:Drivers/STM32G4xx_HAL_Driver/Src/stm32g4xx_hal_dma.c **** 
 1327              		.loc 1 570 30 is_stmt 0 view .LVU499
 1328 003a 2B68     		ldr	r3, [r5]
 578:Drivers/STM32G4xx_HAL_Driver/Src/stm32g4xx_hal_dma.c ****     {
 1329              		.loc 1 578 13 view .LVU500
 1330 003c 416D     		ldr	r1, [r0, #84]
 570:Drivers/STM32G4xx_HAL_Driver/Src/stm32g4xx_hal_dma.c **** 
 1331              		.loc 1 570 30 view .LVU501
 1332 003e 23F48073 		bic	r3, r3, #256
 1333 0042 2B60     		str	r3, [r5]
 573:Drivers/STM32G4xx_HAL_Driver/Src/stm32g4xx_hal_dma.c **** 
 1334              		.loc 1 573 5 is_stmt 1 view .LVU502
 573:Drivers/STM32G4xx_HAL_Driver/Src/stm32g4xx_hal_dma.c **** 
 1335              		.loc 1 573 71 is_stmt 0 view .LVU503
 1336 0044 02F01F02 		and	r2, r2, #31
 573:Drivers/STM32G4xx_HAL_Driver/Src/stm32g4xx_hal_dma.c **** 
 1337              		.loc 1 573 48 view .LVU504
 1338 0048 0123     		movs	r3, #1
 1339 004a 9340     		lsls	r3, r3, r2
 576:Drivers/STM32G4xx_HAL_Driver/Src/stm32g4xx_hal_dma.c **** 
 1340              		.loc 1 576 42 view .LVU505
 1341 004c 026D     		ldr	r2, [r0, #80]
 573:Drivers/STM32G4xx_HAL_Driver/Src/stm32g4xx_hal_dma.c **** 
 1342              		.loc 1 573 32 view .LVU506
 1343 004e 6360     		str	r3, [r4, #4]
 576:Drivers/STM32G4xx_HAL_Driver/Src/stm32g4xx_hal_dma.c **** 
 1344              		.loc 1 576 5 is_stmt 1 view .LVU507
 576:Drivers/STM32G4xx_HAL_Driver/Src/stm32g4xx_hal_dma.c **** 
 1345              		.loc 1 576 36 is_stmt 0 view .LVU508
 1346 0050 7260     		str	r2, [r6, #4]
 578:Drivers/STM32G4xx_HAL_Driver/Src/stm32g4xx_hal_dma.c ****     {
 1347              		.loc 1 578 5 is_stmt 1 view .LVU509
 578:Drivers/STM32G4xx_HAL_Driver/Src/stm32g4xx_hal_dma.c ****     {
 1348              		.loc 1 578 8 is_stmt 0 view .LVU510
 1349 0052 31B1     		cbz	r1, .L77
 582:Drivers/STM32G4xx_HAL_Driver/Src/stm32g4xx_hal_dma.c **** 
 1350              		.loc 1 582 7 is_stmt 1 view .LVU511
 582:Drivers/STM32G4xx_HAL_Driver/Src/stm32g4xx_hal_dma.c **** 
 1351              		.loc 1 582 36 is_stmt 0 view .LVU512
 1352 0054 0B68     		ldr	r3, [r1]
 585:Drivers/STM32G4xx_HAL_Driver/Src/stm32g4xx_hal_dma.c ****     }
 1353              		.loc 1 585 49 view .LVU513
 1354 0056 D0E91624 		ldrd	r2, r4, [r0, #88]
 582:Drivers/STM32G4xx_HAL_Driver/Src/stm32g4xx_hal_dma.c **** 
 1355              		.loc 1 582 36 view .LVU514
 1356 005a 23F48073 		bic	r3, r3, #256
 1357 005e 0B60     		str	r3, [r1]
 585:Drivers/STM32G4xx_HAL_Driver/Src/stm32g4xx_hal_dma.c ****     }
 1358              		.loc 1 585 7 is_stmt 1 view .LVU515
 585:Drivers/STM32G4xx_HAL_Driver/Src/stm32g4xx_hal_dma.c ****     }
 1359              		.loc 1 585 43 is_stmt 0 view .LVU516
 1360 0060 5460     		str	r4, [r2, #4]
 1361              	.L77:
 589:Drivers/STM32G4xx_HAL_Driver/Src/stm32g4xx_hal_dma.c **** 
ARM GAS  /tmp/ccQyu1mP.s 			page 52


 1362              		.loc 1 589 5 is_stmt 1 view .LVU517
 595:Drivers/STM32G4xx_HAL_Driver/Src/stm32g4xx_hal_dma.c ****     {
 1363              		.loc 1 595 13 is_stmt 0 view .LVU518
 1364 0062 836B     		ldr	r3, [r0, #56]
 589:Drivers/STM32G4xx_HAL_Driver/Src/stm32g4xx_hal_dma.c **** 
 1365              		.loc 1 589 17 view .LVU519
 1366 0064 0122     		movs	r2, #1
 592:Drivers/STM32G4xx_HAL_Driver/Src/stm32g4xx_hal_dma.c **** 
 1367              		.loc 1 592 5 view .LVU520
 1368 0066 0024     		movs	r4, #0
 589:Drivers/STM32G4xx_HAL_Driver/Src/stm32g4xx_hal_dma.c **** 
 1369              		.loc 1 589 17 view .LVU521
 1370 0068 80F82520 		strb	r2, [r0, #37]
 592:Drivers/STM32G4xx_HAL_Driver/Src/stm32g4xx_hal_dma.c **** 
 1371              		.loc 1 592 5 is_stmt 1 view .LVU522
 592:Drivers/STM32G4xx_HAL_Driver/Src/stm32g4xx_hal_dma.c **** 
 1372              		.loc 1 592 5 view .LVU523
 1373 006c 80F82440 		strb	r4, [r0, #36]
 595:Drivers/STM32G4xx_HAL_Driver/Src/stm32g4xx_hal_dma.c ****     {
 1374              		.loc 1 595 5 view .LVU524
 595:Drivers/STM32G4xx_HAL_Driver/Src/stm32g4xx_hal_dma.c ****     {
 1375              		.loc 1 595 8 is_stmt 0 view .LVU525
 1376 0070 13B1     		cbz	r3, .L78
 597:Drivers/STM32G4xx_HAL_Driver/Src/stm32g4xx_hal_dma.c ****     }
 1377              		.loc 1 597 7 is_stmt 1 view .LVU526
 1378 0072 9847     		blx	r3
 1379              	.LVL68:
 600:Drivers/STM32G4xx_HAL_Driver/Src/stm32g4xx_hal_dma.c **** }
 1380              		.loc 1 600 3 view .LVU527
 601:Drivers/STM32G4xx_HAL_Driver/Src/stm32g4xx_hal_dma.c **** 
 1381              		.loc 1 601 1 is_stmt 0 view .LVU528
 1382 0074 2046     		mov	r0, r4
 1383 0076 70BD     		pop	{r4, r5, r6, pc}
 1384              	.LVL69:
 1385              	.L78:
 546:Drivers/STM32G4xx_HAL_Driver/Src/stm32g4xx_hal_dma.c **** 
 1386              		.loc 1 546 21 view .LVU529
 1387 0078 1C46     		mov	r4, r3
 1388              	.LVL70:
 600:Drivers/STM32G4xx_HAL_Driver/Src/stm32g4xx_hal_dma.c **** }
 1389              		.loc 1 600 3 is_stmt 1 view .LVU530
 601:Drivers/STM32G4xx_HAL_Driver/Src/stm32g4xx_hal_dma.c **** 
 1390              		.loc 1 601 1 is_stmt 0 view .LVU531
 1391 007a 2046     		mov	r0, r4
 1392              	.LVL71:
 601:Drivers/STM32G4xx_HAL_Driver/Src/stm32g4xx_hal_dma.c **** 
 1393              		.loc 1 601 1 view .LVU532
 1394 007c 70BD     		pop	{r4, r5, r6, pc}
 601:Drivers/STM32G4xx_HAL_Driver/Src/stm32g4xx_hal_dma.c **** 
 1395              		.loc 1 601 1 view .LVU533
 1396              		.cfi_endproc
 1397              	.LFE334:
 1399 007e 00BF     		.section	.text.HAL_DMA_PollForTransfer,"ax",%progbits
 1400              		.align	1
 1401              		.p2align 2,,3
 1402              		.global	HAL_DMA_PollForTransfer
 1403              		.syntax unified
ARM GAS  /tmp/ccQyu1mP.s 			page 53


 1404              		.thumb
 1405              		.thumb_func
 1406              		.fpu fpv4-sp-d16
 1408              	HAL_DMA_PollForTransfer:
 1409              	.LVL72:
 1410              	.LFB335:
 613:Drivers/STM32G4xx_HAL_Driver/Src/stm32g4xx_hal_dma.c ****   uint32_t temp;
 1411              		.loc 1 613 1 is_stmt 1 view -0
 1412              		.cfi_startproc
 1413              		@ args = 0, pretend = 0, frame = 0
 1414              		@ frame_needed = 0, uses_anonymous_args = 0
 614:Drivers/STM32G4xx_HAL_Driver/Src/stm32g4xx_hal_dma.c ****   uint32_t tickstart;
 1415              		.loc 1 614 3 view .LVU535
 615:Drivers/STM32G4xx_HAL_Driver/Src/stm32g4xx_hal_dma.c **** 
 1416              		.loc 1 615 3 view .LVU536
 617:Drivers/STM32G4xx_HAL_Driver/Src/stm32g4xx_hal_dma.c ****   {
 1417              		.loc 1 617 3 view .LVU537
 613:Drivers/STM32G4xx_HAL_Driver/Src/stm32g4xx_hal_dma.c ****   uint32_t temp;
 1418              		.loc 1 613 1 is_stmt 0 view .LVU538
 1419 0000 2DE9F843 		push	{r3, r4, r5, r6, r7, r8, r9, lr}
 1420              	.LCFI21:
 1421              		.cfi_def_cfa_offset 32
 1422              		.cfi_offset 3, -32
 1423              		.cfi_offset 4, -28
 1424              		.cfi_offset 5, -24
 1425              		.cfi_offset 6, -20
 1426              		.cfi_offset 7, -16
 1427              		.cfi_offset 8, -12
 1428              		.cfi_offset 9, -8
 1429              		.cfi_offset 14, -4
 617:Drivers/STM32G4xx_HAL_Driver/Src/stm32g4xx_hal_dma.c ****   {
 1430              		.loc 1 617 33 view .LVU539
 1431 0004 90F82570 		ldrb	r7, [r0, #37]	@ zero_extendqisi2
 1432 0008 FBB2     		uxtb	r3, r7
 617:Drivers/STM32G4xx_HAL_Driver/Src/stm32g4xx_hal_dma.c ****   {
 1433              		.loc 1 617 6 view .LVU540
 1434 000a 022B     		cmp	r3, #2
 1435 000c 07D0     		beq	.L84
 620:Drivers/STM32G4xx_HAL_Driver/Src/stm32g4xx_hal_dma.c ****     __HAL_UNLOCK(hdma);
 1436              		.loc 1 620 5 is_stmt 1 view .LVU541
 620:Drivers/STM32G4xx_HAL_Driver/Src/stm32g4xx_hal_dma.c ****     __HAL_UNLOCK(hdma);
 1437              		.loc 1 620 21 is_stmt 0 view .LVU542
 1438 000e 0422     		movs	r2, #4
 1439              	.LVL73:
 621:Drivers/STM32G4xx_HAL_Driver/Src/stm32g4xx_hal_dma.c ****     return HAL_ERROR;
 1440              		.loc 1 621 5 view .LVU543
 1441 0010 0023     		movs	r3, #0
 620:Drivers/STM32G4xx_HAL_Driver/Src/stm32g4xx_hal_dma.c ****     __HAL_UNLOCK(hdma);
 1442              		.loc 1 620 21 view .LVU544
 1443 0012 C263     		str	r2, [r0, #60]
 621:Drivers/STM32G4xx_HAL_Driver/Src/stm32g4xx_hal_dma.c ****     return HAL_ERROR;
 1444              		.loc 1 621 5 is_stmt 1 view .LVU545
 621:Drivers/STM32G4xx_HAL_Driver/Src/stm32g4xx_hal_dma.c ****     return HAL_ERROR;
 1445              		.loc 1 621 5 view .LVU546
 1446 0014 80F82430 		strb	r3, [r0, #36]
 622:Drivers/STM32G4xx_HAL_Driver/Src/stm32g4xx_hal_dma.c ****   }
 1447              		.loc 1 622 5 view .LVU547
ARM GAS  /tmp/ccQyu1mP.s 			page 54


 622:Drivers/STM32G4xx_HAL_Driver/Src/stm32g4xx_hal_dma.c ****   }
 1448              		.loc 1 622 12 is_stmt 0 view .LVU548
 1449 0018 0120     		movs	r0, #1
 1450              	.LVL74:
 1451              	.L85:
 733:Drivers/STM32G4xx_HAL_Driver/Src/stm32g4xx_hal_dma.c **** 
 1452              		.loc 1 733 1 view .LVU549
 1453 001a BDE8F883 		pop	{r3, r4, r5, r6, r7, r8, r9, pc}
 1454              	.LVL75:
 1455              	.L84:
 626:Drivers/STM32G4xx_HAL_Driver/Src/stm32g4xx_hal_dma.c ****   {
 1456              		.loc 1 626 3 is_stmt 1 view .LVU550
 626:Drivers/STM32G4xx_HAL_Driver/Src/stm32g4xx_hal_dma.c ****   {
 1457              		.loc 1 626 18 is_stmt 0 view .LVU551
 1458 001e 0468     		ldr	r4, [r0]
 626:Drivers/STM32G4xx_HAL_Driver/Src/stm32g4xx_hal_dma.c ****   {
 1459              		.loc 1 626 28 view .LVU552
 1460 0020 2468     		ldr	r4, [r4]
 626:Drivers/STM32G4xx_HAL_Driver/Src/stm32g4xx_hal_dma.c ****   {
 1461              		.loc 1 626 6 view .LVU553
 1462 0022 A406     		lsls	r4, r4, #26
 1463 0024 47D4     		bmi	.L113
 633:Drivers/STM32G4xx_HAL_Driver/Src/stm32g4xx_hal_dma.c ****   {
 1464              		.loc 1 633 3 is_stmt 1 view .LVU554
 1465 0026 476C     		ldr	r7, [r0, #68]
 1466 0028 07F01F07 		and	r7, r7, #31
 633:Drivers/STM32G4xx_HAL_Driver/Src/stm32g4xx_hal_dma.c ****   {
 1467              		.loc 1 633 6 is_stmt 0 view .LVU555
 1468 002c 0029     		cmp	r1, #0
 1469 002e 40D1     		bne	.L87
 1470              	.L112:
 642:Drivers/STM32G4xx_HAL_Driver/Src/stm32g4xx_hal_dma.c ****   }
 1471              		.loc 1 642 10 view .LVU556
 1472 0030 03FA07F7 		lsl	r7, r3, r7
 1473              	.LVL76:
 642:Drivers/STM32G4xx_HAL_Driver/Src/stm32g4xx_hal_dma.c ****   }
 1474              		.loc 1 642 10 view .LVU557
 1475 0034 1446     		mov	r4, r2
 1476 0036 0E46     		mov	r6, r1
 1477 0038 0546     		mov	r5, r0
 646:Drivers/STM32G4xx_HAL_Driver/Src/stm32g4xx_hal_dma.c **** 
 1478              		.loc 1 646 3 is_stmt 1 view .LVU558
 646:Drivers/STM32G4xx_HAL_Driver/Src/stm32g4xx_hal_dma.c **** 
 1479              		.loc 1 646 15 is_stmt 0 view .LVU559
 1480 003a FFF7FEFF 		bl	HAL_GetTick
 1481              	.LVL77:
 650:Drivers/STM32G4xx_HAL_Driver/Src/stm32g4xx_hal_dma.c ****     {
 1482              		.loc 1 650 69 view .LVU560
 1483 003e 4FF00808 		mov	r8, #8
 646:Drivers/STM32G4xx_HAL_Driver/Src/stm32g4xx_hal_dma.c **** 
 1484              		.loc 1 646 15 view .LVU561
 1485 0042 8146     		mov	r9, r0
 1486              	.LVL78:
 648:Drivers/STM32G4xx_HAL_Driver/Src/stm32g4xx_hal_dma.c ****   {
 1487              		.loc 1 648 3 is_stmt 1 view .LVU562
 1488              	.L89:
 648:Drivers/STM32G4xx_HAL_Driver/Src/stm32g4xx_hal_dma.c ****   {
ARM GAS  /tmp/ccQyu1mP.s 			page 55


 1489              		.loc 1 648 21 is_stmt 0 view .LVU563
 1490 0044 D5E91031 		ldrd	r3, r1, [r5, #64]
 1491 0048 621C     		adds	r2, r4, #1
 1492 004a 01F01F01 		and	r1, r1, #31
 1493 004e 38D1     		bne	.L92
 650:Drivers/STM32G4xx_HAL_Driver/Src/stm32g4xx_hal_dma.c ****     {
 1494              		.loc 1 650 69 view .LVU564
 1495 0050 0824     		movs	r4, #8
 1496              	.LVL79:
 650:Drivers/STM32G4xx_HAL_Driver/Src/stm32g4xx_hal_dma.c ****     {
 1497              		.loc 1 650 69 view .LVU565
 1498 0052 8C40     		lsls	r4, r4, r1
 1499 0054 02E0     		b	.L95
 1500              	.LVL80:
 1501              	.L114:
 650:Drivers/STM32G4xx_HAL_Driver/Src/stm32g4xx_hal_dma.c ****     {
 1502              		.loc 1 650 37 view .LVU566
 1503 0056 1A68     		ldr	r2, [r3]
 650:Drivers/STM32G4xx_HAL_Driver/Src/stm32g4xx_hal_dma.c ****     {
 1504              		.loc 1 650 8 view .LVU567
 1505 0058 2242     		tst	r2, r4
 1506 005a 4CD1     		bne	.L94
 1507              	.L95:
 650:Drivers/STM32G4xx_HAL_Driver/Src/stm32g4xx_hal_dma.c ****     {
 1508              		.loc 1 650 5 is_stmt 1 view .LVU568
 648:Drivers/STM32G4xx_HAL_Driver/Src/stm32g4xx_hal_dma.c ****   {
 1509              		.loc 1 648 37 is_stmt 0 view .LVU569
 1510 005c 1A68     		ldr	r2, [r3]
 648:Drivers/STM32G4xx_HAL_Driver/Src/stm32g4xx_hal_dma.c ****   {
 1511              		.loc 1 648 9 view .LVU570
 1512 005e 3A42     		tst	r2, r7
 1513 0060 F9D0     		beq	.L114
 1514              	.L93:
 688:Drivers/STM32G4xx_HAL_Driver/Src/stm32g4xx_hal_dma.c ****   {
 1515              		.loc 1 688 3 is_stmt 1 view .LVU571
 688:Drivers/STM32G4xx_HAL_Driver/Src/stm32g4xx_hal_dma.c ****   {
 1516              		.loc 1 688 11 is_stmt 0 view .LVU572
 1517 0062 6A6D     		ldr	r2, [r5, #84]
 688:Drivers/STM32G4xx_HAL_Driver/Src/stm32g4xx_hal_dma.c ****   {
 1518              		.loc 1 688 6 view .LVU573
 1519 0064 6AB1     		cbz	r2, .L97
 691:Drivers/STM32G4xx_HAL_Driver/Src/stm32g4xx_hal_dma.c ****     {
 1520              		.loc 1 691 5 is_stmt 1 view .LVU574
 691:Drivers/STM32G4xx_HAL_Driver/Src/stm32g4xx_hal_dma.c ****     {
 1521              		.loc 1 691 51 is_stmt 0 view .LVU575
 1522 0066 D5E91604 		ldrd	r0, r4, [r5, #88]
 691:Drivers/STM32G4xx_HAL_Driver/Src/stm32g4xx_hal_dma.c ****     {
 1523              		.loc 1 691 38 view .LVU576
 1524 006a 0768     		ldr	r7, [r0]
 1525              	.LVL81:
 691:Drivers/STM32G4xx_HAL_Driver/Src/stm32g4xx_hal_dma.c ****     {
 1526              		.loc 1 691 8 view .LVU577
 1527 006c 2742     		tst	r7, r4
 1528 006e 08D0     		beq	.L97
 694:Drivers/STM32G4xx_HAL_Driver/Src/stm32g4xx_hal_dma.c **** 
 1529              		.loc 1 694 7 is_stmt 1 view .LVU578
 694:Drivers/STM32G4xx_HAL_Driver/Src/stm32g4xx_hal_dma.c **** 
ARM GAS  /tmp/ccQyu1mP.s 			page 56


 1530              		.loc 1 694 36 is_stmt 0 view .LVU579
 1531 0070 1768     		ldr	r7, [r2]
 1532 0072 47F48077 		orr	r7, r7, #256
 1533 0076 1760     		str	r7, [r2]
 697:Drivers/STM32G4xx_HAL_Driver/Src/stm32g4xx_hal_dma.c **** 
 1534              		.loc 1 697 7 is_stmt 1 view .LVU580
 697:Drivers/STM32G4xx_HAL_Driver/Src/stm32g4xx_hal_dma.c **** 
 1535              		.loc 1 697 43 is_stmt 0 view .LVU581
 1536 0078 4460     		str	r4, [r0, #4]
 700:Drivers/STM32G4xx_HAL_Driver/Src/stm32g4xx_hal_dma.c ****     }
 1537              		.loc 1 700 7 is_stmt 1 view .LVU582
 700:Drivers/STM32G4xx_HAL_Driver/Src/stm32g4xx_hal_dma.c ****     }
 1538              		.loc 1 700 23 is_stmt 0 view .LVU583
 1539 007a EA6B     		ldr	r2, [r5, #60]
 1540 007c 42F48062 		orr	r2, r2, #1024
 1541 0080 EA63     		str	r2, [r5, #60]
 1542              	.L97:
 705:Drivers/STM32G4xx_HAL_Driver/Src/stm32g4xx_hal_dma.c ****   {
 1543              		.loc 1 705 3 is_stmt 1 view .LVU584
 705:Drivers/STM32G4xx_HAL_Driver/Src/stm32g4xx_hal_dma.c ****   {
 1544              		.loc 1 705 45 is_stmt 0 view .LVU585
 1545 0082 D5E91320 		ldrd	r2, r0, [r5, #76]
 705:Drivers/STM32G4xx_HAL_Driver/Src/stm32g4xx_hal_dma.c ****   {
 1546              		.loc 1 705 33 view .LVU586
 1547 0086 1468     		ldr	r4, [r2]
 705:Drivers/STM32G4xx_HAL_Driver/Src/stm32g4xx_hal_dma.c ****   {
 1548              		.loc 1 705 6 view .LVU587
 1549 0088 0442     		tst	r4, r0
 1550 008a 04D0     		beq	.L98
 708:Drivers/STM32G4xx_HAL_Driver/Src/stm32g4xx_hal_dma.c **** 
 1551              		.loc 1 708 5 is_stmt 1 view .LVU588
 708:Drivers/STM32G4xx_HAL_Driver/Src/stm32g4xx_hal_dma.c **** 
 1552              		.loc 1 708 36 is_stmt 0 view .LVU589
 1553 008c 5060     		str	r0, [r2, #4]
 711:Drivers/STM32G4xx_HAL_Driver/Src/stm32g4xx_hal_dma.c ****   }
 1554              		.loc 1 711 5 is_stmt 1 view .LVU590
 711:Drivers/STM32G4xx_HAL_Driver/Src/stm32g4xx_hal_dma.c ****   }
 1555              		.loc 1 711 21 is_stmt 0 view .LVU591
 1556 008e EA6B     		ldr	r2, [r5, #60]
 1557 0090 42F40072 		orr	r2, r2, #512
 1558 0094 EA63     		str	r2, [r5, #60]
 1559              	.L98:
 714:Drivers/STM32G4xx_HAL_Driver/Src/stm32g4xx_hal_dma.c ****   {
 1560              		.loc 1 714 3 is_stmt 1 view .LVU592
 714:Drivers/STM32G4xx_HAL_Driver/Src/stm32g4xx_hal_dma.c ****   {
 1561              		.loc 1 714 6 is_stmt 0 view .LVU593
 1562 0096 002E     		cmp	r6, #0
 1563 0098 3AD1     		bne	.L99
 717:Drivers/STM32G4xx_HAL_Driver/Src/stm32g4xx_hal_dma.c **** 
 1564              		.loc 1 717 5 is_stmt 1 view .LVU594
 717:Drivers/STM32G4xx_HAL_Driver/Src/stm32g4xx_hal_dma.c **** 
 1565              		.loc 1 717 58 is_stmt 0 view .LVU595
 1566 009a 0222     		movs	r2, #2
 1567 009c 02FA01F1 		lsl	r1, r2, r1
 721:Drivers/STM32G4xx_HAL_Driver/Src/stm32g4xx_hal_dma.c ****   }
 1568              		.loc 1 721 17 view .LVU596
 1569 00a0 0122     		movs	r2, #1
ARM GAS  /tmp/ccQyu1mP.s 			page 57


 717:Drivers/STM32G4xx_HAL_Driver/Src/stm32g4xx_hal_dma.c **** 
 1570              		.loc 1 717 32 view .LVU597
 1571 00a2 5960     		str	r1, [r3, #4]
 721:Drivers/STM32G4xx_HAL_Driver/Src/stm32g4xx_hal_dma.c ****   }
 1572              		.loc 1 721 5 is_stmt 1 view .LVU598
 721:Drivers/STM32G4xx_HAL_Driver/Src/stm32g4xx_hal_dma.c ****   }
 1573              		.loc 1 721 17 is_stmt 0 view .LVU599
 1574 00a4 85F82520 		strb	r2, [r5, #37]
 1575              	.L100:
 730:Drivers/STM32G4xx_HAL_Driver/Src/stm32g4xx_hal_dma.c **** 
 1576              		.loc 1 730 3 is_stmt 1 view .LVU600
 730:Drivers/STM32G4xx_HAL_Driver/Src/stm32g4xx_hal_dma.c **** 
 1577              		.loc 1 730 3 view .LVU601
 1578 00a8 0020     		movs	r0, #0
 1579 00aa 85F82400 		strb	r0, [r5, #36]
 732:Drivers/STM32G4xx_HAL_Driver/Src/stm32g4xx_hal_dma.c **** }
 1580              		.loc 1 732 3 view .LVU602
 733:Drivers/STM32G4xx_HAL_Driver/Src/stm32g4xx_hal_dma.c **** 
 1581              		.loc 1 733 1 is_stmt 0 view .LVU603
 1582 00ae BDE8F883 		pop	{r3, r4, r5, r6, r7, r8, r9, pc}
 1583              	.LVL82:
 1584              	.L87:
 642:Drivers/STM32G4xx_HAL_Driver/Src/stm32g4xx_hal_dma.c ****   }
 1585              		.loc 1 642 5 is_stmt 1 view .LVU604
 642:Drivers/STM32G4xx_HAL_Driver/Src/stm32g4xx_hal_dma.c ****   }
 1586              		.loc 1 642 10 is_stmt 0 view .LVU605
 1587 00b2 0423     		movs	r3, #4
 1588 00b4 BCE7     		b	.L112
 1589              	.L113:
 628:Drivers/STM32G4xx_HAL_Driver/Src/stm32g4xx_hal_dma.c ****     return HAL_ERROR;
 1590              		.loc 1 628 5 is_stmt 1 view .LVU606
 628:Drivers/STM32G4xx_HAL_Driver/Src/stm32g4xx_hal_dma.c ****     return HAL_ERROR;
 1591              		.loc 1 628 21 is_stmt 0 view .LVU607
 1592 00b6 4FF48073 		mov	r3, #256
 1593 00ba C363     		str	r3, [r0, #60]
 629:Drivers/STM32G4xx_HAL_Driver/Src/stm32g4xx_hal_dma.c ****   }
 1594              		.loc 1 629 5 is_stmt 1 view .LVU608
 629:Drivers/STM32G4xx_HAL_Driver/Src/stm32g4xx_hal_dma.c ****   }
 1595              		.loc 1 629 12 is_stmt 0 view .LVU609
 1596 00bc 0120     		movs	r0, #1
 1597              	.LVL83:
 733:Drivers/STM32G4xx_HAL_Driver/Src/stm32g4xx_hal_dma.c **** 
 1598              		.loc 1 733 1 view .LVU610
 1599 00be BDE8F883 		pop	{r3, r4, r5, r6, r7, r8, r9, pc}
 1600              	.LVL84:
 1601              	.L92:
 650:Drivers/STM32G4xx_HAL_Driver/Src/stm32g4xx_hal_dma.c ****     {
 1602              		.loc 1 650 5 is_stmt 1 view .LVU611
 669:Drivers/STM32G4xx_HAL_Driver/Src/stm32g4xx_hal_dma.c ****     {
 1603              		.loc 1 669 5 view .LVU612
 671:Drivers/STM32G4xx_HAL_Driver/Src/stm32g4xx_hal_dma.c ****       {
 1604              		.loc 1 671 7 view .LVU613
 648:Drivers/STM32G4xx_HAL_Driver/Src/stm32g4xx_hal_dma.c ****   {
 1605              		.loc 1 648 37 is_stmt 0 view .LVU614
 1606 00c2 1A68     		ldr	r2, [r3]
 648:Drivers/STM32G4xx_HAL_Driver/Src/stm32g4xx_hal_dma.c ****   {
 1607              		.loc 1 648 9 view .LVU615
ARM GAS  /tmp/ccQyu1mP.s 			page 58


 1608 00c4 3A42     		tst	r2, r7
 650:Drivers/STM32G4xx_HAL_Driver/Src/stm32g4xx_hal_dma.c ****     {
 1609              		.loc 1 650 69 view .LVU616
 1610 00c6 08FA01F0 		lsl	r0, r8, r1
 648:Drivers/STM32G4xx_HAL_Driver/Src/stm32g4xx_hal_dma.c ****   {
 1611              		.loc 1 648 9 view .LVU617
 1612 00ca CAD1     		bne	.L93
 650:Drivers/STM32G4xx_HAL_Driver/Src/stm32g4xx_hal_dma.c ****     {
 1613              		.loc 1 650 37 view .LVU618
 1614 00cc 1A68     		ldr	r2, [r3]
 650:Drivers/STM32G4xx_HAL_Driver/Src/stm32g4xx_hal_dma.c ****     {
 1615              		.loc 1 650 8 view .LVU619
 1616 00ce 1042     		tst	r0, r2
 1617 00d0 11D1     		bne	.L94
 671:Drivers/STM32G4xx_HAL_Driver/Src/stm32g4xx_hal_dma.c ****       {
 1618              		.loc 1 671 13 view .LVU620
 1619 00d2 FFF7FEFF 		bl	HAL_GetTick
 1620              	.LVL85:
 671:Drivers/STM32G4xx_HAL_Driver/Src/stm32g4xx_hal_dma.c ****       {
 1621              		.loc 1 671 27 view .LVU621
 1622 00d6 A0EB0900 		sub	r0, r0, r9
 671:Drivers/STM32G4xx_HAL_Driver/Src/stm32g4xx_hal_dma.c ****       {
 1623              		.loc 1 671 10 view .LVU622
 1624 00da A042     		cmp	r0, r4
 1625 00dc 01D8     		bhi	.L91
 671:Drivers/STM32G4xx_HAL_Driver/Src/stm32g4xx_hal_dma.c ****       {
 1626              		.loc 1 671 51 discriminator 1 view .LVU623
 1627 00de 002C     		cmp	r4, #0
 1628 00e0 B0D1     		bne	.L89
 1629              	.L91:
 674:Drivers/STM32G4xx_HAL_Driver/Src/stm32g4xx_hal_dma.c **** 
 1630              		.loc 1 674 9 is_stmt 1 view .LVU624
 677:Drivers/STM32G4xx_HAL_Driver/Src/stm32g4xx_hal_dma.c **** 
 1631              		.loc 1 677 21 is_stmt 0 view .LVU625
 1632 00e2 0123     		movs	r3, #1
 674:Drivers/STM32G4xx_HAL_Driver/Src/stm32g4xx_hal_dma.c **** 
 1633              		.loc 1 674 25 view .LVU626
 1634 00e4 2021     		movs	r1, #32
 680:Drivers/STM32G4xx_HAL_Driver/Src/stm32g4xx_hal_dma.c **** 
 1635              		.loc 1 680 9 view .LVU627
 1636 00e6 0022     		movs	r2, #0
 674:Drivers/STM32G4xx_HAL_Driver/Src/stm32g4xx_hal_dma.c **** 
 1637              		.loc 1 674 25 view .LVU628
 1638 00e8 E963     		str	r1, [r5, #60]
 677:Drivers/STM32G4xx_HAL_Driver/Src/stm32g4xx_hal_dma.c **** 
 1639              		.loc 1 677 9 is_stmt 1 view .LVU629
 682:Drivers/STM32G4xx_HAL_Driver/Src/stm32g4xx_hal_dma.c ****       }
 1640              		.loc 1 682 16 is_stmt 0 view .LVU630
 1641 00ea 1846     		mov	r0, r3
 677:Drivers/STM32G4xx_HAL_Driver/Src/stm32g4xx_hal_dma.c **** 
 1642              		.loc 1 677 21 view .LVU631
 1643 00ec 85F82530 		strb	r3, [r5, #37]
 680:Drivers/STM32G4xx_HAL_Driver/Src/stm32g4xx_hal_dma.c **** 
 1644              		.loc 1 680 9 is_stmt 1 view .LVU632
 680:Drivers/STM32G4xx_HAL_Driver/Src/stm32g4xx_hal_dma.c **** 
 1645              		.loc 1 680 9 view .LVU633
 1646 00f0 85F82420 		strb	r2, [r5, #36]
ARM GAS  /tmp/ccQyu1mP.s 			page 59


 682:Drivers/STM32G4xx_HAL_Driver/Src/stm32g4xx_hal_dma.c ****       }
 1647              		.loc 1 682 9 view .LVU634
 682:Drivers/STM32G4xx_HAL_Driver/Src/stm32g4xx_hal_dma.c ****       }
 1648              		.loc 1 682 16 is_stmt 0 view .LVU635
 1649 00f4 91E7     		b	.L85
 1650              	.LVL86:
 1651              	.L94:
 655:Drivers/STM32G4xx_HAL_Driver/Src/stm32g4xx_hal_dma.c **** 
 1652              		.loc 1 655 7 is_stmt 1 view .LVU636
 655:Drivers/STM32G4xx_HAL_Driver/Src/stm32g4xx_hal_dma.c **** 
 1653              		.loc 1 655 60 is_stmt 0 view .LVU637
 1654 00f6 0122     		movs	r2, #1
 1655 00f8 02FA01F1 		lsl	r1, r2, r1
 664:Drivers/STM32G4xx_HAL_Driver/Src/stm32g4xx_hal_dma.c **** 
 1656              		.loc 1 664 7 view .LVU638
 1657 00fc 0024     		movs	r4, #0
 655:Drivers/STM32G4xx_HAL_Driver/Src/stm32g4xx_hal_dma.c **** 
 1658              		.loc 1 655 34 view .LVU639
 1659 00fe 5960     		str	r1, [r3, #4]
 658:Drivers/STM32G4xx_HAL_Driver/Src/stm32g4xx_hal_dma.c **** 
 1660              		.loc 1 658 7 is_stmt 1 view .LVU640
 666:Drivers/STM32G4xx_HAL_Driver/Src/stm32g4xx_hal_dma.c ****     }
 1661              		.loc 1 666 14 is_stmt 0 view .LVU641
 1662 0100 1046     		mov	r0, r2
 658:Drivers/STM32G4xx_HAL_Driver/Src/stm32g4xx_hal_dma.c **** 
 1663              		.loc 1 658 23 view .LVU642
 1664 0102 EA63     		str	r2, [r5, #60]
 661:Drivers/STM32G4xx_HAL_Driver/Src/stm32g4xx_hal_dma.c **** 
 1665              		.loc 1 661 7 is_stmt 1 view .LVU643
 664:Drivers/STM32G4xx_HAL_Driver/Src/stm32g4xx_hal_dma.c **** 
 1666              		.loc 1 664 7 is_stmt 0 view .LVU644
 1667 0104 85F82440 		strb	r4, [r5, #36]
 661:Drivers/STM32G4xx_HAL_Driver/Src/stm32g4xx_hal_dma.c **** 
 1668              		.loc 1 661 19 view .LVU645
 1669 0108 85F82520 		strb	r2, [r5, #37]
 664:Drivers/STM32G4xx_HAL_Driver/Src/stm32g4xx_hal_dma.c **** 
 1670              		.loc 1 664 7 is_stmt 1 view .LVU646
 664:Drivers/STM32G4xx_HAL_Driver/Src/stm32g4xx_hal_dma.c **** 
 1671              		.loc 1 664 7 view .LVU647
 666:Drivers/STM32G4xx_HAL_Driver/Src/stm32g4xx_hal_dma.c ****     }
 1672              		.loc 1 666 7 view .LVU648
 733:Drivers/STM32G4xx_HAL_Driver/Src/stm32g4xx_hal_dma.c **** 
 1673              		.loc 1 733 1 is_stmt 0 view .LVU649
 1674 010c BDE8F883 		pop	{r3, r4, r5, r6, r7, r8, r9, pc}
 1675              	.LVL87:
 1676              	.L99:
 726:Drivers/STM32G4xx_HAL_Driver/Src/stm32g4xx_hal_dma.c ****   }
 1677              		.loc 1 726 5 is_stmt 1 view .LVU650
 726:Drivers/STM32G4xx_HAL_Driver/Src/stm32g4xx_hal_dma.c ****   }
 1678              		.loc 1 726 58 is_stmt 0 view .LVU651
 1679 0110 0422     		movs	r2, #4
 1680 0112 02FA01F1 		lsl	r1, r2, r1
 726:Drivers/STM32G4xx_HAL_Driver/Src/stm32g4xx_hal_dma.c ****   }
 1681              		.loc 1 726 32 view .LVU652
 1682 0116 5960     		str	r1, [r3, #4]
 1683 0118 C6E7     		b	.L100
 1684              		.cfi_endproc
ARM GAS  /tmp/ccQyu1mP.s 			page 60


 1685              	.LFE335:
 1687 011a 00BF     		.section	.text.HAL_DMA_IRQHandler,"ax",%progbits
 1688              		.align	1
 1689              		.p2align 2,,3
 1690              		.global	HAL_DMA_IRQHandler
 1691              		.syntax unified
 1692              		.thumb
 1693              		.thumb_func
 1694              		.fpu fpv4-sp-d16
 1696              	HAL_DMA_IRQHandler:
 1697              	.LVL88:
 1698              	.LFB336:
 742:Drivers/STM32G4xx_HAL_Driver/Src/stm32g4xx_hal_dma.c ****   uint32_t flag_it = hdma->DmaBaseAddress->ISR;
 1699              		.loc 1 742 1 is_stmt 1 view -0
 1700              		.cfi_startproc
 1701              		@ args = 0, pretend = 0, frame = 0
 1702              		@ frame_needed = 0, uses_anonymous_args = 0
 1703              		@ link register save eliminated.
 743:Drivers/STM32G4xx_HAL_Driver/Src/stm32g4xx_hal_dma.c ****   uint32_t source_it = hdma->Instance->CCR;
 1704              		.loc 1 743 3 view .LVU654
 742:Drivers/STM32G4xx_HAL_Driver/Src/stm32g4xx_hal_dma.c ****   uint32_t flag_it = hdma->DmaBaseAddress->ISR;
 1705              		.loc 1 742 1 is_stmt 0 view .LVU655
 1706 0000 70B4     		push	{r4, r5, r6}
 1707              	.LCFI22:
 1708              		.cfi_def_cfa_offset 12
 1709              		.cfi_offset 4, -12
 1710              		.cfi_offset 5, -8
 1711              		.cfi_offset 6, -4
 747:Drivers/STM32G4xx_HAL_Driver/Src/stm32g4xx_hal_dma.c ****   {
 1712              		.loc 1 747 72 view .LVU656
 1713 0002 D0E91063 		ldrd	r6, r3, [r0, #64]
 747:Drivers/STM32G4xx_HAL_Driver/Src/stm32g4xx_hal_dma.c ****   {
 1714              		.loc 1 747 49 view .LVU657
 1715 0006 0422     		movs	r2, #4
 743:Drivers/STM32G4xx_HAL_Driver/Src/stm32g4xx_hal_dma.c ****   uint32_t source_it = hdma->Instance->CCR;
 1716              		.loc 1 743 12 view .LVU658
 1717 0008 3168     		ldr	r1, [r6]
 1718              	.LVL89:
 744:Drivers/STM32G4xx_HAL_Driver/Src/stm32g4xx_hal_dma.c **** 
 1719              		.loc 1 744 3 is_stmt 1 view .LVU659
 744:Drivers/STM32G4xx_HAL_Driver/Src/stm32g4xx_hal_dma.c **** 
 1720              		.loc 1 744 28 is_stmt 0 view .LVU660
 1721 000a 0568     		ldr	r5, [r0]
 747:Drivers/STM32G4xx_HAL_Driver/Src/stm32g4xx_hal_dma.c ****   {
 1722              		.loc 1 747 72 view .LVU661
 1723 000c 03F01F03 		and	r3, r3, #31
 747:Drivers/STM32G4xx_HAL_Driver/Src/stm32g4xx_hal_dma.c ****   {
 1724              		.loc 1 747 49 view .LVU662
 1725 0010 9A40     		lsls	r2, r2, r3
 747:Drivers/STM32G4xx_HAL_Driver/Src/stm32g4xx_hal_dma.c ****   {
 1726              		.loc 1 747 6 view .LVU663
 1727 0012 0A42     		tst	r2, r1
 744:Drivers/STM32G4xx_HAL_Driver/Src/stm32g4xx_hal_dma.c **** 
 1728              		.loc 1 744 12 view .LVU664
 1729 0014 2C68     		ldr	r4, [r5]
 1730              	.LVL90:
 747:Drivers/STM32G4xx_HAL_Driver/Src/stm32g4xx_hal_dma.c ****   {
ARM GAS  /tmp/ccQyu1mP.s 			page 61


 1731              		.loc 1 747 3 is_stmt 1 view .LVU665
 747:Drivers/STM32G4xx_HAL_Driver/Src/stm32g4xx_hal_dma.c ****   {
 1732              		.loc 1 747 6 is_stmt 0 view .LVU666
 1733 0016 0ED0     		beq	.L116
 747:Drivers/STM32G4xx_HAL_Driver/Src/stm32g4xx_hal_dma.c ****   {
 1734              		.loc 1 747 84 discriminator 1 view .LVU667
 1735 0018 14F0040F 		tst	r4, #4
 1736 001c 0BD0     		beq	.L116
 750:Drivers/STM32G4xx_HAL_Driver/Src/stm32g4xx_hal_dma.c ****     {
 1737              		.loc 1 750 5 is_stmt 1 view .LVU668
 750:Drivers/STM32G4xx_HAL_Driver/Src/stm32g4xx_hal_dma.c ****     {
 1738              		.loc 1 750 24 is_stmt 0 view .LVU669
 1739 001e 2B68     		ldr	r3, [r5]
 750:Drivers/STM32G4xx_HAL_Driver/Src/stm32g4xx_hal_dma.c ****     {
 1740              		.loc 1 750 8 view .LVU670
 1741 0020 9B06     		lsls	r3, r3, #26
 1742 0022 03D4     		bmi	.L117
 753:Drivers/STM32G4xx_HAL_Driver/Src/stm32g4xx_hal_dma.c ****     }
 1743              		.loc 1 753 7 is_stmt 1 view .LVU671
 1744 0024 2B68     		ldr	r3, [r5]
 1745 0026 23F00403 		bic	r3, r3, #4
 1746 002a 2B60     		str	r3, [r5]
 1747              	.L117:
 756:Drivers/STM32G4xx_HAL_Driver/Src/stm32g4xx_hal_dma.c **** 
 1748              		.loc 1 756 5 view .LVU672
 761:Drivers/STM32G4xx_HAL_Driver/Src/stm32g4xx_hal_dma.c ****     {
 1749              		.loc 1 761 13 is_stmt 0 view .LVU673
 1750 002c 036B     		ldr	r3, [r0, #48]
 756:Drivers/STM32G4xx_HAL_Driver/Src/stm32g4xx_hal_dma.c **** 
 1751              		.loc 1 756 32 view .LVU674
 1752 002e 7260     		str	r2, [r6, #4]
 761:Drivers/STM32G4xx_HAL_Driver/Src/stm32g4xx_hal_dma.c ****     {
 1753              		.loc 1 761 5 is_stmt 1 view .LVU675
 761:Drivers/STM32G4xx_HAL_Driver/Src/stm32g4xx_hal_dma.c ****     {
 1754              		.loc 1 761 8 is_stmt 0 view .LVU676
 1755 0030 CBB1     		cbz	r3, .L115
 1756              	.LVL91:
 1757              	.L148:
 788:Drivers/STM32G4xx_HAL_Driver/Src/stm32g4xx_hal_dma.c ****     }
 1758              		.loc 1 788 7 is_stmt 1 view .LVU677
 823:Drivers/STM32G4xx_HAL_Driver/Src/stm32g4xx_hal_dma.c **** 
 1759              		.loc 1 823 1 is_stmt 0 view .LVU678
 1760 0032 70BC     		pop	{r4, r5, r6}
 1761              	.LCFI23:
 1762              		.cfi_remember_state
 1763              		.cfi_restore 6
 1764              		.cfi_restore 5
 1765              		.cfi_restore 4
 1766              		.cfi_def_cfa_offset 0
 1767              	.LVL92:
 788:Drivers/STM32G4xx_HAL_Driver/Src/stm32g4xx_hal_dma.c ****     }
 1768              		.loc 1 788 7 view .LVU679
 1769 0034 1847     		bx	r3	@ indirect register sibling call
 1770              	.LVL93:
 1771              	.L116:
 1772              	.LCFI24:
 1773              		.cfi_restore_state
ARM GAS  /tmp/ccQyu1mP.s 			page 62


 768:Drivers/STM32G4xx_HAL_Driver/Src/stm32g4xx_hal_dma.c ****            && (0U != (source_it & DMA_IT_TC)))
 1774              		.loc 1 768 8 is_stmt 1 view .LVU680
 768:Drivers/STM32G4xx_HAL_Driver/Src/stm32g4xx_hal_dma.c ****            && (0U != (source_it & DMA_IT_TC)))
 1775              		.loc 1 768 54 is_stmt 0 view .LVU681
 1776 0036 0222     		movs	r2, #2
 1777 0038 9A40     		lsls	r2, r2, r3
 768:Drivers/STM32G4xx_HAL_Driver/Src/stm32g4xx_hal_dma.c ****            && (0U != (source_it & DMA_IT_TC)))
 1778              		.loc 1 768 11 view .LVU682
 1779 003a 0A42     		tst	r2, r1
 1780 003c 15D0     		beq	.L120
 769:Drivers/STM32G4xx_HAL_Driver/Src/stm32g4xx_hal_dma.c ****   {
 1781              		.loc 1 769 12 view .LVU683
 1782 003e 14F0020F 		tst	r4, #2
 1783 0042 12D0     		beq	.L120
 771:Drivers/STM32G4xx_HAL_Driver/Src/stm32g4xx_hal_dma.c ****     {
 1784              		.loc 1 771 5 is_stmt 1 view .LVU684
 771:Drivers/STM32G4xx_HAL_Driver/Src/stm32g4xx_hal_dma.c ****     {
 1785              		.loc 1 771 24 is_stmt 0 view .LVU685
 1786 0044 2B68     		ldr	r3, [r5]
 771:Drivers/STM32G4xx_HAL_Driver/Src/stm32g4xx_hal_dma.c ****     {
 1787              		.loc 1 771 8 view .LVU686
 1788 0046 9906     		lsls	r1, r3, #26
 1789              	.LVL94:
 771:Drivers/STM32G4xx_HAL_Driver/Src/stm32g4xx_hal_dma.c ****     {
 1790              		.loc 1 771 8 view .LVU687
 1791 0048 06D4     		bmi	.L121
 774:Drivers/STM32G4xx_HAL_Driver/Src/stm32g4xx_hal_dma.c **** 
 1792              		.loc 1 774 7 is_stmt 1 view .LVU688
 1793 004a 2B68     		ldr	r3, [r5]
 777:Drivers/STM32G4xx_HAL_Driver/Src/stm32g4xx_hal_dma.c ****     }
 1794              		.loc 1 777 19 is_stmt 0 view .LVU689
 1795 004c 0121     		movs	r1, #1
 774:Drivers/STM32G4xx_HAL_Driver/Src/stm32g4xx_hal_dma.c **** 
 1796              		.loc 1 774 7 view .LVU690
 1797 004e 23F00A03 		bic	r3, r3, #10
 1798 0052 2B60     		str	r3, [r5]
 777:Drivers/STM32G4xx_HAL_Driver/Src/stm32g4xx_hal_dma.c ****     }
 1799              		.loc 1 777 7 is_stmt 1 view .LVU691
 777:Drivers/STM32G4xx_HAL_Driver/Src/stm32g4xx_hal_dma.c ****     }
 1800              		.loc 1 777 19 is_stmt 0 view .LVU692
 1801 0054 80F82510 		strb	r1, [r0, #37]
 1802              	.L121:
 780:Drivers/STM32G4xx_HAL_Driver/Src/stm32g4xx_hal_dma.c **** 
 1803              		.loc 1 780 5 is_stmt 1 view .LVU693
 785:Drivers/STM32G4xx_HAL_Driver/Src/stm32g4xx_hal_dma.c ****     {
 1804              		.loc 1 785 13 is_stmt 0 view .LVU694
 1805 0058 C36A     		ldr	r3, [r0, #44]
 780:Drivers/STM32G4xx_HAL_Driver/Src/stm32g4xx_hal_dma.c **** 
 1806              		.loc 1 780 32 view .LVU695
 1807 005a 7260     		str	r2, [r6, #4]
 783:Drivers/STM32G4xx_HAL_Driver/Src/stm32g4xx_hal_dma.c **** 
 1808              		.loc 1 783 5 is_stmt 1 view .LVU696
 783:Drivers/STM32G4xx_HAL_Driver/Src/stm32g4xx_hal_dma.c **** 
 1809              		.loc 1 783 5 view .LVU697
 1810 005c 0022     		movs	r2, #0
 1811 005e 80F82420 		strb	r2, [r0, #36]
 785:Drivers/STM32G4xx_HAL_Driver/Src/stm32g4xx_hal_dma.c ****     {
ARM GAS  /tmp/ccQyu1mP.s 			page 63


 1812              		.loc 1 785 5 view .LVU698
 785:Drivers/STM32G4xx_HAL_Driver/Src/stm32g4xx_hal_dma.c ****     {
 1813              		.loc 1 785 8 is_stmt 0 view .LVU699
 1814 0062 002B     		cmp	r3, #0
 1815 0064 E5D1     		bne	.L148
 1816              	.LVL95:
 1817              	.L115:
 823:Drivers/STM32G4xx_HAL_Driver/Src/stm32g4xx_hal_dma.c **** 
 1818              		.loc 1 823 1 view .LVU700
 1819 0066 70BC     		pop	{r4, r5, r6}
 1820              	.LCFI25:
 1821              		.cfi_remember_state
 1822              		.cfi_restore 6
 1823              		.cfi_restore 5
 1824              		.cfi_restore 4
 1825              		.cfi_def_cfa_offset 0
 1826 0068 7047     		bx	lr
 1827              	.LVL96:
 1828              	.L120:
 1829              	.LCFI26:
 1830              		.cfi_restore_state
 792:Drivers/STM32G4xx_HAL_Driver/Src/stm32g4xx_hal_dma.c ****            && (0U != (source_it & DMA_IT_TE)))
 1831              		.loc 1 792 8 is_stmt 1 view .LVU701
 792:Drivers/STM32G4xx_HAL_Driver/Src/stm32g4xx_hal_dma.c ****            && (0U != (source_it & DMA_IT_TE)))
 1832              		.loc 1 792 54 is_stmt 0 view .LVU702
 1833 006a 0822     		movs	r2, #8
 1834 006c 9A40     		lsls	r2, r2, r3
 792:Drivers/STM32G4xx_HAL_Driver/Src/stm32g4xx_hal_dma.c ****            && (0U != (source_it & DMA_IT_TE)))
 1835              		.loc 1 792 11 view .LVU703
 1836 006e 0A42     		tst	r2, r1
 1837 0070 F9D0     		beq	.L115
 793:Drivers/STM32G4xx_HAL_Driver/Src/stm32g4xx_hal_dma.c ****   {
 1838              		.loc 1 793 12 view .LVU704
 1839 0072 2207     		lsls	r2, r4, #28
 1840 0074 F7D5     		bpl	.L115
 798:Drivers/STM32G4xx_HAL_Driver/Src/stm32g4xx_hal_dma.c **** 
 1841              		.loc 1 798 5 is_stmt 1 view .LVU705
 1842 0076 2A68     		ldr	r2, [r5]
 812:Drivers/STM32G4xx_HAL_Driver/Src/stm32g4xx_hal_dma.c ****     {
 1843              		.loc 1 812 13 is_stmt 0 view .LVU706
 1844 0078 416B     		ldr	r1, [r0, #52]
 1845              	.LVL97:
 798:Drivers/STM32G4xx_HAL_Driver/Src/stm32g4xx_hal_dma.c **** 
 1846              		.loc 1 798 5 view .LVU707
 1847 007a 22F00E02 		bic	r2, r2, #14
 1848 007e 2A60     		str	r2, [r5]
 801:Drivers/STM32G4xx_HAL_Driver/Src/stm32g4xx_hal_dma.c **** 
 1849              		.loc 1 801 5 is_stmt 1 view .LVU708
 801:Drivers/STM32G4xx_HAL_Driver/Src/stm32g4xx_hal_dma.c **** 
 1850              		.loc 1 801 58 is_stmt 0 view .LVU709
 1851 0080 0122     		movs	r2, #1
 1852 0082 02FA03F3 		lsl	r3, r2, r3
 810:Drivers/STM32G4xx_HAL_Driver/Src/stm32g4xx_hal_dma.c **** 
 1853              		.loc 1 810 5 view .LVU710
 1854 0086 0024     		movs	r4, #0
 1855              	.LVL98:
 801:Drivers/STM32G4xx_HAL_Driver/Src/stm32g4xx_hal_dma.c **** 
ARM GAS  /tmp/ccQyu1mP.s 			page 64


 1856              		.loc 1 801 32 view .LVU711
 1857 0088 7360     		str	r3, [r6, #4]
 804:Drivers/STM32G4xx_HAL_Driver/Src/stm32g4xx_hal_dma.c **** 
 1858              		.loc 1 804 5 is_stmt 1 view .LVU712
 804:Drivers/STM32G4xx_HAL_Driver/Src/stm32g4xx_hal_dma.c **** 
 1859              		.loc 1 804 21 is_stmt 0 view .LVU713
 1860 008a C263     		str	r2, [r0, #60]
 807:Drivers/STM32G4xx_HAL_Driver/Src/stm32g4xx_hal_dma.c **** 
 1861              		.loc 1 807 5 is_stmt 1 view .LVU714
 810:Drivers/STM32G4xx_HAL_Driver/Src/stm32g4xx_hal_dma.c **** 
 1862              		.loc 1 810 5 is_stmt 0 view .LVU715
 1863 008c 80F82440 		strb	r4, [r0, #36]
 807:Drivers/STM32G4xx_HAL_Driver/Src/stm32g4xx_hal_dma.c **** 
 1864              		.loc 1 807 17 view .LVU716
 1865 0090 80F82520 		strb	r2, [r0, #37]
 810:Drivers/STM32G4xx_HAL_Driver/Src/stm32g4xx_hal_dma.c **** 
 1866              		.loc 1 810 5 is_stmt 1 view .LVU717
 810:Drivers/STM32G4xx_HAL_Driver/Src/stm32g4xx_hal_dma.c **** 
 1867              		.loc 1 810 5 view .LVU718
 812:Drivers/STM32G4xx_HAL_Driver/Src/stm32g4xx_hal_dma.c ****     {
 1868              		.loc 1 812 5 view .LVU719
 812:Drivers/STM32G4xx_HAL_Driver/Src/stm32g4xx_hal_dma.c ****     {
 1869              		.loc 1 812 8 is_stmt 0 view .LVU720
 1870 0094 0029     		cmp	r1, #0
 1871 0096 E6D0     		beq	.L115
 815:Drivers/STM32G4xx_HAL_Driver/Src/stm32g4xx_hal_dma.c ****     }
 1872              		.loc 1 815 7 is_stmt 1 view .LVU721
 823:Drivers/STM32G4xx_HAL_Driver/Src/stm32g4xx_hal_dma.c **** 
 1873              		.loc 1 823 1 is_stmt 0 view .LVU722
 1874 0098 70BC     		pop	{r4, r5, r6}
 1875              	.LCFI27:
 1876              		.cfi_restore 6
 1877              		.cfi_restore 5
 1878              		.cfi_restore 4
 1879              		.cfi_def_cfa_offset 0
 815:Drivers/STM32G4xx_HAL_Driver/Src/stm32g4xx_hal_dma.c ****     }
 1880              		.loc 1 815 7 view .LVU723
 1881 009a 0847     		bx	r1	@ indirect register sibling call
 1882              	.LVL99:
 815:Drivers/STM32G4xx_HAL_Driver/Src/stm32g4xx_hal_dma.c ****     }
 1883              		.loc 1 815 7 view .LVU724
 1884              		.cfi_endproc
 1885              	.LFE336:
 1887              		.section	.text.HAL_DMA_RegisterCallback,"ax",%progbits
 1888              		.align	1
 1889              		.p2align 2,,3
 1890              		.global	HAL_DMA_RegisterCallback
 1891              		.syntax unified
 1892              		.thumb
 1893              		.thumb_func
 1894              		.fpu fpv4-sp-d16
 1896              	HAL_DMA_RegisterCallback:
 1897              	.LVL100:
 1898              	.LFB337:
 836:Drivers/STM32G4xx_HAL_Driver/Src/stm32g4xx_hal_dma.c ****   HAL_StatusTypeDef status = HAL_OK;
 1899              		.loc 1 836 1 is_stmt 1 view -0
 1900              		.cfi_startproc
ARM GAS  /tmp/ccQyu1mP.s 			page 65


 1901              		@ args = 0, pretend = 0, frame = 0
 1902              		@ frame_needed = 0, uses_anonymous_args = 0
 1903              		@ link register save eliminated.
 837:Drivers/STM32G4xx_HAL_Driver/Src/stm32g4xx_hal_dma.c **** 
 1904              		.loc 1 837 3 view .LVU726
 840:Drivers/STM32G4xx_HAL_Driver/Src/stm32g4xx_hal_dma.c **** 
 1905              		.loc 1 840 3 view .LVU727
 840:Drivers/STM32G4xx_HAL_Driver/Src/stm32g4xx_hal_dma.c **** 
 1906              		.loc 1 840 3 view .LVU728
 1907 0000 90F82430 		ldrb	r3, [r0, #36]	@ zero_extendqisi2
 1908 0004 012B     		cmp	r3, #1
 1909 0006 22D0     		beq	.L157
 840:Drivers/STM32G4xx_HAL_Driver/Src/stm32g4xx_hal_dma.c **** 
 1910              		.loc 1 840 3 discriminator 2 view .LVU729
 842:Drivers/STM32G4xx_HAL_Driver/Src/stm32g4xx_hal_dma.c ****   {
 1911              		.loc 1 842 34 is_stmt 0 discriminator 2 view .LVU730
 1912 0008 90F82530 		ldrb	r3, [r0, #37]	@ zero_extendqisi2
 836:Drivers/STM32G4xx_HAL_Driver/Src/stm32g4xx_hal_dma.c ****   HAL_StatusTypeDef status = HAL_OK;
 1913              		.loc 1 836 1 discriminator 2 view .LVU731
 1914 000c 10B4     		push	{r4}
 1915              	.LCFI28:
 1916              		.cfi_def_cfa_offset 4
 1917              		.cfi_offset 4, -4
 842:Drivers/STM32G4xx_HAL_Driver/Src/stm32g4xx_hal_dma.c ****   {
 1918              		.loc 1 842 34 discriminator 2 view .LVU732
 1919 000e DBB2     		uxtb	r3, r3
 840:Drivers/STM32G4xx_HAL_Driver/Src/stm32g4xx_hal_dma.c **** 
 1920              		.loc 1 840 3 discriminator 2 view .LVU733
 1921 0010 0124     		movs	r4, #1
 842:Drivers/STM32G4xx_HAL_Driver/Src/stm32g4xx_hal_dma.c ****   {
 1922              		.loc 1 842 6 discriminator 2 view .LVU734
 1923 0012 A342     		cmp	r3, r4
 840:Drivers/STM32G4xx_HAL_Driver/Src/stm32g4xx_hal_dma.c **** 
 1924              		.loc 1 840 3 discriminator 2 view .LVU735
 1925 0014 80F82440 		strb	r4, [r0, #36]
 842:Drivers/STM32G4xx_HAL_Driver/Src/stm32g4xx_hal_dma.c ****   {
 1926              		.loc 1 842 3 is_stmt 1 discriminator 2 view .LVU736
 842:Drivers/STM32G4xx_HAL_Driver/Src/stm32g4xx_hal_dma.c ****   {
 1927              		.loc 1 842 6 is_stmt 0 discriminator 2 view .LVU737
 1928 0018 07D0     		beq	.L163
 869:Drivers/STM32G4xx_HAL_Driver/Src/stm32g4xx_hal_dma.c ****   }
 1929              		.loc 1 869 12 view .LVU738
 1930 001a 2346     		mov	r3, r4
 1931              	.L151:
 1932              	.LVL101:
 873:Drivers/STM32G4xx_HAL_Driver/Src/stm32g4xx_hal_dma.c **** 
 1933              		.loc 1 873 3 is_stmt 1 view .LVU739
 873:Drivers/STM32G4xx_HAL_Driver/Src/stm32g4xx_hal_dma.c **** 
 1934              		.loc 1 873 3 view .LVU740
 1935 001c 0022     		movs	r2, #0
 1936              	.LVL102:
 873:Drivers/STM32G4xx_HAL_Driver/Src/stm32g4xx_hal_dma.c **** 
 1937              		.loc 1 873 3 is_stmt 0 view .LVU741
 1938 001e 80F82420 		strb	r2, [r0, #36]
 875:Drivers/STM32G4xx_HAL_Driver/Src/stm32g4xx_hal_dma.c **** }
 1939              		.loc 1 875 3 is_stmt 1 view .LVU742
 876:Drivers/STM32G4xx_HAL_Driver/Src/stm32g4xx_hal_dma.c **** 
ARM GAS  /tmp/ccQyu1mP.s 			page 66


 1940              		.loc 1 876 1 is_stmt 0 view .LVU743
 1941 0022 5DF8044B 		ldr	r4, [sp], #4
 1942              	.LCFI29:
 1943              		.cfi_remember_state
 1944              		.cfi_restore 4
 1945              		.cfi_def_cfa_offset 0
 1946 0026 1846     		mov	r0, r3
 1947              	.LVL103:
 876:Drivers/STM32G4xx_HAL_Driver/Src/stm32g4xx_hal_dma.c **** 
 1948              		.loc 1 876 1 view .LVU744
 1949 0028 7047     		bx	lr
 1950              	.LVL104:
 1951              	.L163:
 1952              	.LCFI30:
 1953              		.cfi_restore_state
 844:Drivers/STM32G4xx_HAL_Driver/Src/stm32g4xx_hal_dma.c ****     {
 1954              		.loc 1 844 5 is_stmt 1 view .LVU745
 1955 002a 0329     		cmp	r1, #3
 1956 002c F6D8     		bhi	.L151
 1957 002e DFE801F0 		tbb	[pc, r1]
 1958              	.L153:
 1959 0032 0B       		.byte	(.L156-.L153)/2
 1960 0033 08       		.byte	(.L155-.L153)/2
 1961 0034 05       		.byte	(.L154-.L153)/2
 1962 0035 02       		.byte	(.L152-.L153)/2
 1963              		.p2align 1
 1964              	.L152:
 859:Drivers/STM32G4xx_HAL_Driver/Src/stm32g4xx_hal_dma.c ****         break;
 1965              		.loc 1 859 9 view .LVU746
 859:Drivers/STM32G4xx_HAL_Driver/Src/stm32g4xx_hal_dma.c ****         break;
 1966              		.loc 1 859 33 is_stmt 0 view .LVU747
 1967 0036 8263     		str	r2, [r0, #56]
 860:Drivers/STM32G4xx_HAL_Driver/Src/stm32g4xx_hal_dma.c **** 
 1968              		.loc 1 860 9 is_stmt 1 view .LVU748
 837:Drivers/STM32G4xx_HAL_Driver/Src/stm32g4xx_hal_dma.c **** 
 1969              		.loc 1 837 21 is_stmt 0 view .LVU749
 1970 0038 0023     		movs	r3, #0
 860:Drivers/STM32G4xx_HAL_Driver/Src/stm32g4xx_hal_dma.c **** 
 1971              		.loc 1 860 9 view .LVU750
 1972 003a EFE7     		b	.L151
 1973              	.L154:
 855:Drivers/STM32G4xx_HAL_Driver/Src/stm32g4xx_hal_dma.c ****         break;
 1974              		.loc 1 855 9 is_stmt 1 view .LVU751
 855:Drivers/STM32G4xx_HAL_Driver/Src/stm32g4xx_hal_dma.c ****         break;
 1975              		.loc 1 855 33 is_stmt 0 view .LVU752
 1976 003c 4263     		str	r2, [r0, #52]
 856:Drivers/STM32G4xx_HAL_Driver/Src/stm32g4xx_hal_dma.c **** 
 1977              		.loc 1 856 9 is_stmt 1 view .LVU753
 837:Drivers/STM32G4xx_HAL_Driver/Src/stm32g4xx_hal_dma.c **** 
 1978              		.loc 1 837 21 is_stmt 0 view .LVU754
 1979 003e 0023     		movs	r3, #0
 856:Drivers/STM32G4xx_HAL_Driver/Src/stm32g4xx_hal_dma.c **** 
 1980              		.loc 1 856 9 view .LVU755
 1981 0040 ECE7     		b	.L151
 1982              	.L155:
 851:Drivers/STM32G4xx_HAL_Driver/Src/stm32g4xx_hal_dma.c ****         break;
 1983              		.loc 1 851 9 is_stmt 1 view .LVU756
ARM GAS  /tmp/ccQyu1mP.s 			page 67


 851:Drivers/STM32G4xx_HAL_Driver/Src/stm32g4xx_hal_dma.c ****         break;
 1984              		.loc 1 851 36 is_stmt 0 view .LVU757
 1985 0042 0263     		str	r2, [r0, #48]
 852:Drivers/STM32G4xx_HAL_Driver/Src/stm32g4xx_hal_dma.c **** 
 1986              		.loc 1 852 9 is_stmt 1 view .LVU758
 837:Drivers/STM32G4xx_HAL_Driver/Src/stm32g4xx_hal_dma.c **** 
 1987              		.loc 1 837 21 is_stmt 0 view .LVU759
 1988 0044 0023     		movs	r3, #0
 852:Drivers/STM32G4xx_HAL_Driver/Src/stm32g4xx_hal_dma.c **** 
 1989              		.loc 1 852 9 view .LVU760
 1990 0046 E9E7     		b	.L151
 1991              	.L156:
 847:Drivers/STM32G4xx_HAL_Driver/Src/stm32g4xx_hal_dma.c ****         break;
 1992              		.loc 1 847 9 is_stmt 1 view .LVU761
 847:Drivers/STM32G4xx_HAL_Driver/Src/stm32g4xx_hal_dma.c ****         break;
 1993              		.loc 1 847 32 is_stmt 0 view .LVU762
 1994 0048 C262     		str	r2, [r0, #44]
 848:Drivers/STM32G4xx_HAL_Driver/Src/stm32g4xx_hal_dma.c **** 
 1995              		.loc 1 848 9 is_stmt 1 view .LVU763
 837:Drivers/STM32G4xx_HAL_Driver/Src/stm32g4xx_hal_dma.c **** 
 1996              		.loc 1 837 21 is_stmt 0 view .LVU764
 1997 004a 0B46     		mov	r3, r1
 848:Drivers/STM32G4xx_HAL_Driver/Src/stm32g4xx_hal_dma.c **** 
 1998              		.loc 1 848 9 view .LVU765
 1999 004c E6E7     		b	.L151
 2000              	.L157:
 2001              	.LCFI31:
 2002              		.cfi_def_cfa_offset 0
 2003              		.cfi_restore 4
 840:Drivers/STM32G4xx_HAL_Driver/Src/stm32g4xx_hal_dma.c **** 
 2004              		.loc 1 840 3 view .LVU766
 2005 004e 0223     		movs	r3, #2
 876:Drivers/STM32G4xx_HAL_Driver/Src/stm32g4xx_hal_dma.c **** 
 2006              		.loc 1 876 1 view .LVU767
 2007 0050 1846     		mov	r0, r3
 2008              	.LVL105:
 876:Drivers/STM32G4xx_HAL_Driver/Src/stm32g4xx_hal_dma.c **** 
 2009              		.loc 1 876 1 view .LVU768
 2010 0052 7047     		bx	lr
 2011              		.cfi_endproc
 2012              	.LFE337:
 2014              		.section	.text.HAL_DMA_UnRegisterCallback,"ax",%progbits
 2015              		.align	1
 2016              		.p2align 2,,3
 2017              		.global	HAL_DMA_UnRegisterCallback
 2018              		.syntax unified
 2019              		.thumb
 2020              		.thumb_func
 2021              		.fpu fpv4-sp-d16
 2023              	HAL_DMA_UnRegisterCallback:
 2024              	.LVL106:
 2025              	.LFB338:
 887:Drivers/STM32G4xx_HAL_Driver/Src/stm32g4xx_hal_dma.c ****   HAL_StatusTypeDef status = HAL_OK;
 2026              		.loc 1 887 1 is_stmt 1 view -0
 2027              		.cfi_startproc
 2028              		@ args = 0, pretend = 0, frame = 0
 2029              		@ frame_needed = 0, uses_anonymous_args = 0
ARM GAS  /tmp/ccQyu1mP.s 			page 68


 2030              		@ link register save eliminated.
 888:Drivers/STM32G4xx_HAL_Driver/Src/stm32g4xx_hal_dma.c **** 
 2031              		.loc 1 888 3 view .LVU770
 891:Drivers/STM32G4xx_HAL_Driver/Src/stm32g4xx_hal_dma.c **** 
 2032              		.loc 1 891 3 view .LVU771
 891:Drivers/STM32G4xx_HAL_Driver/Src/stm32g4xx_hal_dma.c **** 
 2033              		.loc 1 891 3 view .LVU772
 2034 0000 90F82430 		ldrb	r3, [r0, #36]	@ zero_extendqisi2
 2035 0004 012B     		cmp	r3, #1
 2036 0006 17D0     		beq	.L173
 893:Drivers/STM32G4xx_HAL_Driver/Src/stm32g4xx_hal_dma.c ****   {
 2037              		.loc 1 893 34 is_stmt 0 discriminator 2 view .LVU773
 2038 0008 90F82530 		ldrb	r3, [r0, #37]	@ zero_extendqisi2
 887:Drivers/STM32G4xx_HAL_Driver/Src/stm32g4xx_hal_dma.c ****   HAL_StatusTypeDef status = HAL_OK;
 2039              		.loc 1 887 1 discriminator 2 view .LVU774
 2040 000c 10B4     		push	{r4}
 2041              	.LCFI32:
 2042              		.cfi_def_cfa_offset 4
 2043              		.cfi_offset 4, -4
 2044 000e 0246     		mov	r2, r0
 891:Drivers/STM32G4xx_HAL_Driver/Src/stm32g4xx_hal_dma.c **** 
 2045              		.loc 1 891 3 is_stmt 1 discriminator 2 view .LVU775
 2046 0010 0124     		movs	r4, #1
 893:Drivers/STM32G4xx_HAL_Driver/Src/stm32g4xx_hal_dma.c ****   {
 2047              		.loc 1 893 34 is_stmt 0 discriminator 2 view .LVU776
 2048 0012 D8B2     		uxtb	r0, r3
 2049              	.LVL107:
 893:Drivers/STM32G4xx_HAL_Driver/Src/stm32g4xx_hal_dma.c ****   {
 2050              		.loc 1 893 6 discriminator 2 view .LVU777
 2051 0014 A042     		cmp	r0, r4
 891:Drivers/STM32G4xx_HAL_Driver/Src/stm32g4xx_hal_dma.c **** 
 2052              		.loc 1 891 3 discriminator 2 view .LVU778
 2053 0016 82F82440 		strb	r4, [r2, #36]
 893:Drivers/STM32G4xx_HAL_Driver/Src/stm32g4xx_hal_dma.c ****   {
 2054              		.loc 1 893 3 is_stmt 1 discriminator 2 view .LVU779
 893:Drivers/STM32G4xx_HAL_Driver/Src/stm32g4xx_hal_dma.c ****   {
 2055              		.loc 1 893 6 is_stmt 0 discriminator 2 view .LVU780
 2056 001a 06D0     		beq	.L179
 927:Drivers/STM32G4xx_HAL_Driver/Src/stm32g4xx_hal_dma.c ****   }
 2057              		.loc 1 927 12 view .LVU781
 2058 001c 2046     		mov	r0, r4
 2059              	.L166:
 2060              	.LVL108:
 931:Drivers/STM32G4xx_HAL_Driver/Src/stm32g4xx_hal_dma.c **** 
 2061              		.loc 1 931 3 is_stmt 1 view .LVU782
 931:Drivers/STM32G4xx_HAL_Driver/Src/stm32g4xx_hal_dma.c **** 
 2062              		.loc 1 931 3 view .LVU783
 2063 001e 0023     		movs	r3, #0
 2064 0020 82F82430 		strb	r3, [r2, #36]
 933:Drivers/STM32G4xx_HAL_Driver/Src/stm32g4xx_hal_dma.c **** }
 2065              		.loc 1 933 3 view .LVU784
 934:Drivers/STM32G4xx_HAL_Driver/Src/stm32g4xx_hal_dma.c **** 
 2066              		.loc 1 934 1 is_stmt 0 view .LVU785
 2067 0024 5DF8044B 		ldr	r4, [sp], #4
 2068              	.LCFI33:
 2069              		.cfi_remember_state
 2070              		.cfi_restore 4
ARM GAS  /tmp/ccQyu1mP.s 			page 69


 2071              		.cfi_def_cfa_offset 0
 2072 0028 7047     		bx	lr
 2073              	.LVL109:
 2074              	.L179:
 2075              	.LCFI34:
 2076              		.cfi_restore_state
 895:Drivers/STM32G4xx_HAL_Driver/Src/stm32g4xx_hal_dma.c ****     {
 2077              		.loc 1 895 5 is_stmt 1 view .LVU786
 2078 002a 0429     		cmp	r1, #4
 2079 002c F7D8     		bhi	.L166
 2080 002e DFE801F0 		tbb	[pc, r1]
 2081              	.L168:
 2082 0032 0B       		.byte	(.L172-.L168)/2
 2083 0033 0F       		.byte	(.L171-.L168)/2
 2084 0034 12       		.byte	(.L170-.L168)/2
 2085 0035 15       		.byte	(.L169-.L168)/2
 2086 0036 05       		.byte	(.L167-.L168)/2
 2087              	.LVL110:
 2088 0037 00       		.p2align 1
 2089              	.L173:
 2090              	.LCFI35:
 2091              		.cfi_def_cfa_offset 0
 2092              		.cfi_restore 4
 891:Drivers/STM32G4xx_HAL_Driver/Src/stm32g4xx_hal_dma.c **** 
 2093              		.loc 1 891 3 is_stmt 0 view .LVU787
 2094 0038 0220     		movs	r0, #2
 2095              	.LVL111:
 934:Drivers/STM32G4xx_HAL_Driver/Src/stm32g4xx_hal_dma.c **** 
 2096              		.loc 1 934 1 view .LVU788
 2097 003a 7047     		bx	lr
 2098              	.LVL112:
 2099              	.L167:
 2100              	.LCFI36:
 2101              		.cfi_def_cfa_offset 4
 2102              		.cfi_offset 4, -4
 914:Drivers/STM32G4xx_HAL_Driver/Src/stm32g4xx_hal_dma.c ****         hdma->XferHalfCpltCallback = NULL;
 2103              		.loc 1 914 9 is_stmt 1 view .LVU789
 914:Drivers/STM32G4xx_HAL_Driver/Src/stm32g4xx_hal_dma.c ****         hdma->XferHalfCpltCallback = NULL;
 2104              		.loc 1 914 32 is_stmt 0 view .LVU790
 2105 003c 0020     		movs	r0, #0
 915:Drivers/STM32G4xx_HAL_Driver/Src/stm32g4xx_hal_dma.c ****         hdma->XferErrorCallback = NULL;
 2106              		.loc 1 915 36 view .LVU791
 2107 003e C2E90B00 		strd	r0, r0, [r2, #44]
 916:Drivers/STM32G4xx_HAL_Driver/Src/stm32g4xx_hal_dma.c ****         hdma->XferAbortCallback = NULL;
 2108              		.loc 1 916 9 is_stmt 1 view .LVU792
 917:Drivers/STM32G4xx_HAL_Driver/Src/stm32g4xx_hal_dma.c ****         break;
 2109              		.loc 1 917 33 is_stmt 0 view .LVU793
 2110 0042 C2E90D00 		strd	r0, r0, [r2, #52]
 918:Drivers/STM32G4xx_HAL_Driver/Src/stm32g4xx_hal_dma.c **** 
 2111              		.loc 1 918 9 is_stmt 1 view .LVU794
 2112 0046 EAE7     		b	.L166
 2113              	.L172:
 898:Drivers/STM32G4xx_HAL_Driver/Src/stm32g4xx_hal_dma.c ****         break;
 2114              		.loc 1 898 9 view .LVU795
 898:Drivers/STM32G4xx_HAL_Driver/Src/stm32g4xx_hal_dma.c ****         break;
 2115              		.loc 1 898 32 is_stmt 0 view .LVU796
 2116 0048 0023     		movs	r3, #0
ARM GAS  /tmp/ccQyu1mP.s 			page 70


 888:Drivers/STM32G4xx_HAL_Driver/Src/stm32g4xx_hal_dma.c **** 
 2117              		.loc 1 888 21 view .LVU797
 2118 004a 0846     		mov	r0, r1
 898:Drivers/STM32G4xx_HAL_Driver/Src/stm32g4xx_hal_dma.c ****         break;
 2119              		.loc 1 898 32 view .LVU798
 2120 004c D362     		str	r3, [r2, #44]
 899:Drivers/STM32G4xx_HAL_Driver/Src/stm32g4xx_hal_dma.c **** 
 2121              		.loc 1 899 9 is_stmt 1 view .LVU799
 2122 004e E6E7     		b	.L166
 2123              	.L171:
 902:Drivers/STM32G4xx_HAL_Driver/Src/stm32g4xx_hal_dma.c ****         break;
 2124              		.loc 1 902 9 view .LVU800
 902:Drivers/STM32G4xx_HAL_Driver/Src/stm32g4xx_hal_dma.c ****         break;
 2125              		.loc 1 902 36 is_stmt 0 view .LVU801
 2126 0050 0020     		movs	r0, #0
 2127 0052 1063     		str	r0, [r2, #48]
 903:Drivers/STM32G4xx_HAL_Driver/Src/stm32g4xx_hal_dma.c **** 
 2128              		.loc 1 903 9 is_stmt 1 view .LVU802
 2129 0054 E3E7     		b	.L166
 2130              	.L170:
 906:Drivers/STM32G4xx_HAL_Driver/Src/stm32g4xx_hal_dma.c ****         break;
 2131              		.loc 1 906 9 view .LVU803
 906:Drivers/STM32G4xx_HAL_Driver/Src/stm32g4xx_hal_dma.c ****         break;
 2132              		.loc 1 906 33 is_stmt 0 view .LVU804
 2133 0056 0020     		movs	r0, #0
 2134 0058 5063     		str	r0, [r2, #52]
 907:Drivers/STM32G4xx_HAL_Driver/Src/stm32g4xx_hal_dma.c **** 
 2135              		.loc 1 907 9 is_stmt 1 view .LVU805
 2136 005a E0E7     		b	.L166
 2137              	.L169:
 910:Drivers/STM32G4xx_HAL_Driver/Src/stm32g4xx_hal_dma.c ****         break;
 2138              		.loc 1 910 9 view .LVU806
 910:Drivers/STM32G4xx_HAL_Driver/Src/stm32g4xx_hal_dma.c ****         break;
 2139              		.loc 1 910 33 is_stmt 0 view .LVU807
 2140 005c 0020     		movs	r0, #0
 2141 005e 9063     		str	r0, [r2, #56]
 911:Drivers/STM32G4xx_HAL_Driver/Src/stm32g4xx_hal_dma.c **** 
 2142              		.loc 1 911 9 is_stmt 1 view .LVU808
 2143 0060 DDE7     		b	.L166
 2144              		.cfi_endproc
 2145              	.LFE338:
 2147 0062 00BF     		.section	.text.HAL_DMA_GetState,"ax",%progbits
 2148              		.align	1
 2149              		.p2align 2,,3
 2150              		.global	HAL_DMA_GetState
 2151              		.syntax unified
 2152              		.thumb
 2153              		.thumb_func
 2154              		.fpu fpv4-sp-d16
 2156              	HAL_DMA_GetState:
 2157              	.LVL113:
 2158              	.LFB339:
