ARM GAS  /tmp/ccnj3rZR.s 			page 1


   1              		.cpu cortex-m4
   2              		.eabi_attribute 27, 1
   3              		.eabi_attribute 28, 1
   4              		.eabi_attribute 20, 1
   5              		.eabi_attribute 21, 1
   6              		.eabi_attribute 23, 3
   7              		.eabi_attribute 24, 1
   8              		.eabi_attribute 25, 1
   9              		.eabi_attribute 26, 1
  10              		.eabi_attribute 30, 2
  11              		.eabi_attribute 34, 1
  12              		.eabi_attribute 18, 4
  13              		.file	"syscalls.c"
  14              		.text
  15              	.Ltext0:
  16              		.cfi_sections	.debug_frame
  17              		.section	.text.initialise_monitor_handles,"ax",%progbits
  18              		.align	1
  19              		.p2align 2,,3
  20              		.global	initialise_monitor_handles
  21              		.arch armv7e-m
  22              		.syntax unified
  23              		.thumb
  24              		.thumb_func
  25              		.fpu fpv4-sp-d16
  27              	initialise_monitor_handles:
  28              	.LFB25:
  29              		.file 1 "Src/syscalls.c"
   1:Src/syscalls.c **** /**
   2:Src/syscalls.c ****  ******************************************************************************
   3:Src/syscalls.c ****  * @file      syscalls.c
   4:Src/syscalls.c ****  * @author    Auto-generated by STM32CubeMX
   5:Src/syscalls.c ****  * @brief     Minimal System calls file
   6:Src/syscalls.c ****  *
   7:Src/syscalls.c ****  *            For more information about which c-functions
   8:Src/syscalls.c ****  *            need which of these lowlevel functions
   9:Src/syscalls.c ****  *            please consult the Newlib libc-manual
  10:Src/syscalls.c ****  ******************************************************************************
  11:Src/syscalls.c ****  * @attention
  12:Src/syscalls.c ****  *
  13:Src/syscalls.c ****  * Copyright (c) 2020-2024 STMicroelectronics.
  14:Src/syscalls.c ****  * All rights reserved.
  15:Src/syscalls.c ****  *
  16:Src/syscalls.c ****  * This software is licensed under terms that can be found in the LICENSE file
  17:Src/syscalls.c ****  * in the root directory of this software component.
  18:Src/syscalls.c ****  * If no LICENSE file comes with this software, it is provided AS-IS.
  19:Src/syscalls.c ****  *
  20:Src/syscalls.c ****  ******************************************************************************
  21:Src/syscalls.c ****  */
  22:Src/syscalls.c **** 
  23:Src/syscalls.c **** /* Includes */
  24:Src/syscalls.c **** #include <sys/stat.h>
  25:Src/syscalls.c **** #include <stdlib.h>
  26:Src/syscalls.c **** #include <errno.h>
  27:Src/syscalls.c **** #include <stdio.h>
  28:Src/syscalls.c **** #include <signal.h>
  29:Src/syscalls.c **** #include <time.h>
ARM GAS  /tmp/ccnj3rZR.s 			page 2


  30:Src/syscalls.c **** #include <sys/time.h>
  31:Src/syscalls.c **** #include <sys/times.h>
  32:Src/syscalls.c **** 
  33:Src/syscalls.c **** 
  34:Src/syscalls.c **** /* Variables */
  35:Src/syscalls.c **** extern int __io_putchar(int ch) __attribute__((weak));
  36:Src/syscalls.c **** extern int __io_getchar(void) __attribute__((weak));
  37:Src/syscalls.c **** 
  38:Src/syscalls.c **** 
  39:Src/syscalls.c **** char *__env[1] = { 0 };
  40:Src/syscalls.c **** char **environ = __env;
  41:Src/syscalls.c **** 
  42:Src/syscalls.c **** 
  43:Src/syscalls.c **** /* Functions */
  44:Src/syscalls.c **** void initialise_monitor_handles()
  45:Src/syscalls.c **** {
  30              		.loc 1 45 1 view -0
  31              		.cfi_startproc
  32              		@ args = 0, pretend = 0, frame = 0
  33              		@ frame_needed = 0, uses_anonymous_args = 0
  34              		@ link register save eliminated.
  46:Src/syscalls.c **** }
  35              		.loc 1 46 1 view .LVU1
  36 0000 7047     		bx	lr
  37              		.cfi_endproc
  38              	.LFE25:
  40 0002 00BF     		.section	.text._getpid,"ax",%progbits
  41              		.align	1
  42              		.p2align 2,,3
  43              		.global	_getpid
  44              		.syntax unified
  45              		.thumb
  46              		.thumb_func
  47              		.fpu fpv4-sp-d16
  49              	_getpid:
  50              	.LFB26:
  47:Src/syscalls.c **** 
  48:Src/syscalls.c **** int _getpid(void)
  49:Src/syscalls.c **** {
  51              		.loc 1 49 1 view -0
  52              		.cfi_startproc
  53              		@ args = 0, pretend = 0, frame = 0
  54              		@ frame_needed = 0, uses_anonymous_args = 0
  55              		@ link register save eliminated.
  50:Src/syscalls.c ****   return 1;
  56              		.loc 1 50 3 view .LVU3
  51:Src/syscalls.c **** }
  57              		.loc 1 51 1 is_stmt 0 view .LVU4
  58 0000 0120     		movs	r0, #1
  59 0002 7047     		bx	lr
  60              		.cfi_endproc
  61              	.LFE26:
  63              		.section	.text._kill,"ax",%progbits
  64              		.align	1
  65              		.p2align 2,,3
  66              		.global	_kill
  67              		.syntax unified
ARM GAS  /tmp/ccnj3rZR.s 			page 3


  68              		.thumb
  69              		.thumb_func
  70              		.fpu fpv4-sp-d16
  72              	_kill:
  73              	.LVL0:
  74              	.LFB27:
  52:Src/syscalls.c **** 
  53:Src/syscalls.c **** int _kill(int pid, int sig)
  54:Src/syscalls.c **** {
  75              		.loc 1 54 1 is_stmt 1 view -0
  76              		.cfi_startproc
  77              		@ args = 0, pretend = 0, frame = 0
  78              		@ frame_needed = 0, uses_anonymous_args = 0
  55:Src/syscalls.c ****   (void)pid;
  79              		.loc 1 55 3 view .LVU6
  56:Src/syscalls.c ****   (void)sig;
  80              		.loc 1 56 3 view .LVU7
  57:Src/syscalls.c ****   errno = EINVAL;
  81              		.loc 1 57 3 view .LVU8
  54:Src/syscalls.c ****   (void)pid;
  82              		.loc 1 54 1 is_stmt 0 view .LVU9
  83 0000 08B5     		push	{r3, lr}
  84              	.LCFI0:
  85              		.cfi_def_cfa_offset 8
  86              		.cfi_offset 3, -8
  87              		.cfi_offset 14, -4
  88              		.loc 1 57 3 view .LVU10
  89 0002 FFF7FEFF 		bl	__errno
  90              	.LVL1:
  91              		.loc 1 57 9 view .LVU11
  92 0006 1623     		movs	r3, #22
  93 0008 0360     		str	r3, [r0]
  58:Src/syscalls.c ****   return -1;
  94              		.loc 1 58 3 is_stmt 1 view .LVU12
  59:Src/syscalls.c **** }
  95              		.loc 1 59 1 is_stmt 0 view .LVU13
  96 000a 4FF0FF30 		mov	r0, #-1
  97 000e 08BD     		pop	{r3, pc}
  98              		.cfi_endproc
  99              	.LFE27:
 101              		.section	.text._exit,"ax",%progbits
 102              		.align	1
 103              		.p2align 2,,3
 104              		.global	_exit
 105              		.syntax unified
 106              		.thumb
 107              		.thumb_func
 108              		.fpu fpv4-sp-d16
 110              	_exit:
 111              	.LVL2:
 112              	.LFB28:
  60:Src/syscalls.c **** 
  61:Src/syscalls.c **** void _exit (int status)
  62:Src/syscalls.c **** {
 113              		.loc 1 62 1 is_stmt 1 view -0
 114              		.cfi_startproc
 115              		@ Volatile: function does not return.
ARM GAS  /tmp/ccnj3rZR.s 			page 4


 116              		@ args = 0, pretend = 0, frame = 0
 117              		@ frame_needed = 0, uses_anonymous_args = 0
  63:Src/syscalls.c ****   _kill(status, -1);
 118              		.loc 1 63 3 view .LVU15
 119              	.LBB4:
 120              	.LBI4:
  53:Src/syscalls.c **** {
 121              		.loc 1 53 5 view .LVU16
 122              	.LBB5:
  55:Src/syscalls.c ****   (void)sig;
 123              		.loc 1 55 3 view .LVU17
  56:Src/syscalls.c ****   errno = EINVAL;
 124              		.loc 1 56 3 view .LVU18
  57:Src/syscalls.c ****   return -1;
 125              		.loc 1 57 3 view .LVU19
 126              	.LBE5:
 127              	.LBE4:
  62:Src/syscalls.c ****   _kill(status, -1);
 128              		.loc 1 62 1 is_stmt 0 view .LVU20
 129 0000 08B5     		push	{r3, lr}
 130              	.LCFI1:
 131              		.cfi_def_cfa_offset 8
 132              		.cfi_offset 3, -8
 133              		.cfi_offset 14, -4
 134              	.LBB7:
 135              	.LBB6:
  57:Src/syscalls.c ****   return -1;
 136              		.loc 1 57 3 view .LVU21
 137 0002 FFF7FEFF 		bl	__errno
 138              	.LVL3:
  57:Src/syscalls.c ****   return -1;
 139              		.loc 1 57 9 view .LVU22
 140 0006 1623     		movs	r3, #22
 141 0008 0360     		str	r3, [r0]
  58:Src/syscalls.c **** }
 142              		.loc 1 58 3 is_stmt 1 view .LVU23
 143              	.L7:
 144              	.LBE6:
 145              	.LBE7:
  64:Src/syscalls.c ****   while (1) {}    /* Make sure we hang here */
 146              		.loc 1 64 3 discriminator 1 view .LVU24
 147              		.loc 1 64 14 discriminator 1 view .LVU25
 148              		.loc 1 64 3 discriminator 1 view .LVU26
 149              		.loc 1 64 14 discriminator 1 view .LVU27
 150 000a FEE7     		b	.L7
 151              		.cfi_endproc
 152              	.LFE28:
 154              		.section	.text._read,"ax",%progbits
 155              		.align	1
 156              		.p2align 2,,3
 157              		.weak	_read
 158              		.syntax unified
 159              		.thumb
 160              		.thumb_func
 161              		.fpu fpv4-sp-d16
 163              	_read:
 164              	.LVL4:
ARM GAS  /tmp/ccnj3rZR.s 			page 5


 165              	.LFB29:
  65:Src/syscalls.c **** }
  66:Src/syscalls.c **** 
  67:Src/syscalls.c **** __attribute__((weak)) int _read(int file, char *ptr, int len)
  68:Src/syscalls.c **** {
 166              		.loc 1 68 1 view -0
 167              		.cfi_startproc
 168              		@ args = 0, pretend = 0, frame = 0
 169              		@ frame_needed = 0, uses_anonymous_args = 0
  69:Src/syscalls.c ****   (void)file;
 170              		.loc 1 69 3 view .LVU29
  70:Src/syscalls.c ****   int DataIdx;
 171              		.loc 1 70 3 view .LVU30
  71:Src/syscalls.c **** 
  72:Src/syscalls.c ****   for (DataIdx = 0; DataIdx < len; DataIdx++)
 172              		.loc 1 72 3 view .LVU31
  68:Src/syscalls.c ****   (void)file;
 173              		.loc 1 68 1 is_stmt 0 view .LVU32
 174 0000 70B5     		push	{r4, r5, r6, lr}
 175              	.LCFI2:
 176              		.cfi_def_cfa_offset 16
 177              		.cfi_offset 4, -16
 178              		.cfi_offset 5, -12
 179              		.cfi_offset 6, -8
 180              		.cfi_offset 14, -4
 181              		.loc 1 72 3 view .LVU33
 182 0002 161E     		subs	r6, r2, #0
 183 0004 07DD     		ble	.L10
 184 0006 0C46     		mov	r4, r1
 185 0008 8D19     		adds	r5, r1, r6
 186              	.LVL5:
 187              	.L11:
  73:Src/syscalls.c ****   {
  74:Src/syscalls.c ****     *ptr++ = __io_getchar();
 188              		.loc 1 74 5 is_stmt 1 discriminator 3 view .LVU34
 189              		.loc 1 74 14 is_stmt 0 discriminator 3 view .LVU35
 190 000a FFF7FEFF 		bl	__io_getchar
 191              	.LVL6:
 192              		.loc 1 74 12 discriminator 3 view .LVU36
 193 000e 04F8010B 		strb	r0, [r4], #1
 194              	.LVL7:
  72:Src/syscalls.c ****   {
 195              		.loc 1 72 3 discriminator 3 view .LVU37
 196 0012 A542     		cmp	r5, r4
 197 0014 F9D1     		bne	.L11
 198              	.LVL8:
 199              	.L10:
  75:Src/syscalls.c ****   }
  76:Src/syscalls.c **** 
  77:Src/syscalls.c ****   return len;
 200              		.loc 1 77 3 is_stmt 1 view .LVU38
  78:Src/syscalls.c **** }
 201              		.loc 1 78 1 is_stmt 0 view .LVU39
 202 0016 3046     		mov	r0, r6
 203 0018 70BD     		pop	{r4, r5, r6, pc}
 204              		.loc 1 78 1 view .LVU40
 205              		.cfi_endproc
ARM GAS  /tmp/ccnj3rZR.s 			page 6


 206              	.LFE29:
 208 001a 00BF     		.section	.text._write,"ax",%progbits
 209              		.align	1
 210              		.p2align 2,,3
 211              		.weak	_write
 212              		.syntax unified
 213              		.thumb
 214              		.thumb_func
 215              		.fpu fpv4-sp-d16
 217              	_write:
 218              	.LVL9:
 219              	.LFB30:
  79:Src/syscalls.c **** 
  80:Src/syscalls.c **** __attribute__((weak)) int _write(int file, char *ptr, int len)
  81:Src/syscalls.c **** {
 220              		.loc 1 81 1 is_stmt 1 view -0
 221              		.cfi_startproc
 222              		@ args = 0, pretend = 0, frame = 0
 223              		@ frame_needed = 0, uses_anonymous_args = 0
  82:Src/syscalls.c ****   (void)file;
 224              		.loc 1 82 3 view .LVU42
  83:Src/syscalls.c ****   int DataIdx;
 225              		.loc 1 83 3 view .LVU43
  84:Src/syscalls.c **** 
  85:Src/syscalls.c ****   for (DataIdx = 0; DataIdx < len; DataIdx++)
 226              		.loc 1 85 3 view .LVU44
  81:Src/syscalls.c ****   (void)file;
 227              		.loc 1 81 1 is_stmt 0 view .LVU45
 228 0000 70B5     		push	{r4, r5, r6, lr}
 229              	.LCFI3:
 230              		.cfi_def_cfa_offset 16
 231              		.cfi_offset 4, -16
 232              		.cfi_offset 5, -12
 233              		.cfi_offset 6, -8
 234              		.cfi_offset 14, -4
 235              		.loc 1 85 3 view .LVU46
 236 0002 161E     		subs	r6, r2, #0
 237 0004 07DD     		ble	.L15
 238 0006 0C46     		mov	r4, r1
 239 0008 8D19     		adds	r5, r1, r6
 240              	.LVL10:
 241              	.L16:
  86:Src/syscalls.c ****   {
  87:Src/syscalls.c ****     __io_putchar(*ptr++);
 242              		.loc 1 87 5 is_stmt 1 discriminator 3 view .LVU47
 243              		.loc 1 87 5 is_stmt 0 discriminator 3 view .LVU48
 244 000a 14F8010B 		ldrb	r0, [r4], #1	@ zero_extendqisi2
 245              	.LVL11:
 246              		.loc 1 87 5 discriminator 3 view .LVU49
 247 000e FFF7FEFF 		bl	__io_putchar
 248              	.LVL12:
  85:Src/syscalls.c ****   {
 249              		.loc 1 85 3 discriminator 3 view .LVU50
 250 0012 AC42     		cmp	r4, r5
 251 0014 F9D1     		bne	.L16
 252              	.LVL13:
 253              	.L15:
ARM GAS  /tmp/ccnj3rZR.s 			page 7


  88:Src/syscalls.c ****   }
  89:Src/syscalls.c ****   return len;
 254              		.loc 1 89 3 is_stmt 1 view .LVU51
  90:Src/syscalls.c **** }
 255              		.loc 1 90 1 is_stmt 0 view .LVU52
 256 0016 3046     		mov	r0, r6
 257 0018 70BD     		pop	{r4, r5, r6, pc}
 258              		.loc 1 90 1 view .LVU53
 259              		.cfi_endproc
 260              	.LFE30:
 262 001a 00BF     		.section	.text._close,"ax",%progbits
 263              		.align	1
 264              		.p2align 2,,3
 265              		.global	_close
 266              		.syntax unified
 267              		.thumb
 268              		.thumb_func
 269              		.fpu fpv4-sp-d16
 271              	_close:
 272              	.LVL14:
 273              	.LFB31:
  91:Src/syscalls.c **** 
  92:Src/syscalls.c **** int _close(int file)
  93:Src/syscalls.c **** {
 274              		.loc 1 93 1 is_stmt 1 view -0
 275              		.cfi_startproc
 276              		@ args = 0, pretend = 0, frame = 0
 277              		@ frame_needed = 0, uses_anonymous_args = 0
 278              		@ link register save eliminated.
  94:Src/syscalls.c ****   (void)file;
 279              		.loc 1 94 3 view .LVU55
  95:Src/syscalls.c ****   return -1;
 280              		.loc 1 95 3 view .LVU56
  96:Src/syscalls.c **** }
 281              		.loc 1 96 1 is_stmt 0 view .LVU57
 282 0000 4FF0FF30 		mov	r0, #-1
 283              	.LVL15:
 284              		.loc 1 96 1 view .LVU58
 285 0004 7047     		bx	lr
 286              		.cfi_endproc
 287              	.LFE31:
 289 0006 00BF     		.section	.text._fstat,"ax",%progbits
 290              		.align	1
 291              		.p2align 2,,3
 292              		.global	_fstat
 293              		.syntax unified
 294              		.thumb
 295              		.thumb_func
 296              		.fpu fpv4-sp-d16
 298              	_fstat:
 299              	.LVL16:
 300              	.LFB32:
  97:Src/syscalls.c **** 
  98:Src/syscalls.c **** 
  99:Src/syscalls.c **** int _fstat(int file, struct stat *st)
 100:Src/syscalls.c **** {
 301              		.loc 1 100 1 is_stmt 1 view -0
ARM GAS  /tmp/ccnj3rZR.s 			page 8


 302              		.cfi_startproc
 303              		@ args = 0, pretend = 0, frame = 0
 304              		@ frame_needed = 0, uses_anonymous_args = 0
 305              		@ link register save eliminated.
 101:Src/syscalls.c ****   (void)file;
 306              		.loc 1 101 3 view .LVU60
 102:Src/syscalls.c ****   st->st_mode = S_IFCHR;
 307              		.loc 1 102 3 view .LVU61
 308              		.loc 1 102 15 is_stmt 0 view .LVU62
 309 0000 4FF40053 		mov	r3, #8192
 310 0004 4B60     		str	r3, [r1, #4]
 103:Src/syscalls.c ****   return 0;
 311              		.loc 1 103 3 is_stmt 1 view .LVU63
 104:Src/syscalls.c **** }
 312              		.loc 1 104 1 is_stmt 0 view .LVU64
 313 0006 0020     		movs	r0, #0
 314              	.LVL17:
 315              		.loc 1 104 1 view .LVU65
 316 0008 7047     		bx	lr
 317              		.cfi_endproc
 318              	.LFE32:
 320 000a 00BF     		.section	.text._isatty,"ax",%progbits
 321              		.align	1
 322              		.p2align 2,,3
 323              		.global	_isatty
 324              		.syntax unified
 325              		.thumb
 326              		.thumb_func
 327              		.fpu fpv4-sp-d16
 329              	_isatty:
 330              	.LVL18:
 331              	.LFB33:
 105:Src/syscalls.c **** 
 106:Src/syscalls.c **** int _isatty(int file)
 107:Src/syscalls.c **** {
 332              		.loc 1 107 1 is_stmt 1 view -0
 333              		.cfi_startproc
 334              		@ args = 0, pretend = 0, frame = 0
 335              		@ frame_needed = 0, uses_anonymous_args = 0
 336              		@ link register save eliminated.
 108:Src/syscalls.c ****   (void)file;
 337              		.loc 1 108 3 view .LVU67
 109:Src/syscalls.c ****   return 1;
 338              		.loc 1 109 3 view .LVU68
 110:Src/syscalls.c **** }
 339              		.loc 1 110 1 is_stmt 0 view .LVU69
 340 0000 0120     		movs	r0, #1
 341              	.LVL19:
 342              		.loc 1 110 1 view .LVU70
 343 0002 7047     		bx	lr
 344              		.cfi_endproc
 345              	.LFE33:
 347              		.section	.text._lseek,"ax",%progbits
 348              		.align	1
 349              		.p2align 2,,3
 350              		.global	_lseek
 351              		.syntax unified
ARM GAS  /tmp/ccnj3rZR.s 			page 9


 352              		.thumb
 353              		.thumb_func
 354              		.fpu fpv4-sp-d16
 356              	_lseek:
 357              	.LVL20:
 358              	.LFB34:
 111:Src/syscalls.c **** 
 112:Src/syscalls.c **** int _lseek(int file, int ptr, int dir)
 113:Src/syscalls.c **** {
 359              		.loc 1 113 1 is_stmt 1 view -0
 360              		.cfi_startproc
 361              		@ args = 0, pretend = 0, frame = 0
 362              		@ frame_needed = 0, uses_anonymous_args = 0
 363              		@ link register save eliminated.
 114:Src/syscalls.c ****   (void)file;
 364              		.loc 1 114 3 view .LVU72
 115:Src/syscalls.c ****   (void)ptr;
 365              		.loc 1 115 3 view .LVU73
 116:Src/syscalls.c ****   (void)dir;
 366              		.loc 1 116 3 view .LVU74
 117:Src/syscalls.c ****   return 0;
 367              		.loc 1 117 3 view .LVU75
 118:Src/syscalls.c **** }
 368              		.loc 1 118 1 is_stmt 0 view .LVU76
 369 0000 0020     		movs	r0, #0
 370              	.LVL21:
 371              		.loc 1 118 1 view .LVU77
 372 0002 7047     		bx	lr
 373              		.cfi_endproc
 374              	.LFE34:
 376              		.section	.text._open,"ax",%progbits
 377              		.align	1
 378              		.p2align 2,,3
 379              		.global	_open
 380              		.syntax unified
 381              		.thumb
 382              		.thumb_func
 383              		.fpu fpv4-sp-d16
 385              	_open:
 386              	.LVL22:
 387              	.LFB35:
 119:Src/syscalls.c **** 
 120:Src/syscalls.c **** int _open(char *path, int flags, ...)
 121:Src/syscalls.c **** {
 388              		.loc 1 121 1 is_stmt 1 view -0
 389              		.cfi_startproc
 390              		@ args = 4, pretend = 12, frame = 0
 391              		@ frame_needed = 0, uses_anonymous_args = 1
 392              		@ link register save eliminated.
 122:Src/syscalls.c ****   (void)path;
 393              		.loc 1 122 3 view .LVU79
 123:Src/syscalls.c ****   (void)flags;
 394              		.loc 1 123 3 view .LVU80
 124:Src/syscalls.c ****   /* Pretend like we always fail */
 125:Src/syscalls.c ****   return -1;
 395              		.loc 1 125 3 view .LVU81
 121:Src/syscalls.c ****   (void)path;
ARM GAS  /tmp/ccnj3rZR.s 			page 10


 396              		.loc 1 121 1 is_stmt 0 view .LVU82
 397 0000 0EB4     		push	{r1, r2, r3}
 398              	.LCFI4:
 399              		.cfi_def_cfa_offset 12
 400              		.cfi_offset 1, -12
 401              		.cfi_offset 2, -8
 402              		.cfi_offset 3, -4
 126:Src/syscalls.c **** }
 403              		.loc 1 126 1 view .LVU83
 404 0002 4FF0FF30 		mov	r0, #-1
 405              	.LVL23:
 406              		.loc 1 126 1 view .LVU84
 407 0006 03B0     		add	sp, sp, #12
 408              	.LCFI5:
 409              		.cfi_restore 3
 410              		.cfi_restore 2
 411              		.cfi_restore 1
 412              		.cfi_def_cfa_offset 0
 413 0008 7047     		bx	lr
 414              		.cfi_endproc
 415              	.LFE35:
 417 000a 00BF     		.section	.text._wait,"ax",%progbits
 418              		.align	1
 419              		.p2align 2,,3
 420              		.global	_wait
 421              		.syntax unified
 422              		.thumb
 423              		.thumb_func
 424              		.fpu fpv4-sp-d16
 426              	_wait:
 427              	.LVL24:
 428              	.LFB36:
 127:Src/syscalls.c **** 
 128:Src/syscalls.c **** int _wait(int *status)
 129:Src/syscalls.c **** {
 429              		.loc 1 129 1 is_stmt 1 view -0
 430              		.cfi_startproc
 431              		@ args = 0, pretend = 0, frame = 0
 432              		@ frame_needed = 0, uses_anonymous_args = 0
 130:Src/syscalls.c ****   (void)status;
 433              		.loc 1 130 3 view .LVU86
 131:Src/syscalls.c ****   errno = ECHILD;
 434              		.loc 1 131 3 view .LVU87
 129:Src/syscalls.c ****   (void)status;
 435              		.loc 1 129 1 is_stmt 0 view .LVU88
 436 0000 08B5     		push	{r3, lr}
 437              	.LCFI6:
 438              		.cfi_def_cfa_offset 8
 439              		.cfi_offset 3, -8
 440              		.cfi_offset 14, -4
 441              		.loc 1 131 3 view .LVU89
 442 0002 FFF7FEFF 		bl	__errno
 443              	.LVL25:
 444              		.loc 1 131 9 view .LVU90
 445 0006 0A23     		movs	r3, #10
 446 0008 0360     		str	r3, [r0]
 132:Src/syscalls.c ****   return -1;
ARM GAS  /tmp/ccnj3rZR.s 			page 11


 447              		.loc 1 132 3 is_stmt 1 view .LVU91
 133:Src/syscalls.c **** }
 448              		.loc 1 133 1 is_stmt 0 view .LVU92
 449 000a 4FF0FF30 		mov	r0, #-1
 450 000e 08BD     		pop	{r3, pc}
 451              		.cfi_endproc
 452              	.LFE36:
 454              		.section	.text._unlink,"ax",%progbits
 455              		.align	1
 456              		.p2align 2,,3
 457              		.global	_unlink
 458              		.syntax unified
 459              		.thumb
 460              		.thumb_func
 461              		.fpu fpv4-sp-d16
 463              	_unlink:
 464              	.LVL26:
 465              	.LFB37:
 134:Src/syscalls.c **** 
 135:Src/syscalls.c **** int _unlink(char *name)
 136:Src/syscalls.c **** {
 466              		.loc 1 136 1 is_stmt 1 view -0
 467              		.cfi_startproc
 468              		@ args = 0, pretend = 0, frame = 0
 469              		@ frame_needed = 0, uses_anonymous_args = 0
 137:Src/syscalls.c ****   (void)name;
 470              		.loc 1 137 3 view .LVU94
 138:Src/syscalls.c ****   errno = ENOENT;
 471              		.loc 1 138 3 view .LVU95
 136:Src/syscalls.c ****   (void)name;
 472              		.loc 1 136 1 is_stmt 0 view .LVU96
 473 0000 08B5     		push	{r3, lr}
 474              	.LCFI7:
 475              		.cfi_def_cfa_offset 8
 476              		.cfi_offset 3, -8
 477              		.cfi_offset 14, -4
 478              		.loc 1 138 3 view .LVU97
 479 0002 FFF7FEFF 		bl	__errno
 480              	.LVL27:
 481              		.loc 1 138 9 view .LVU98
 482 0006 0223     		movs	r3, #2
 483 0008 0360     		str	r3, [r0]
 139:Src/syscalls.c ****   return -1;
 484              		.loc 1 139 3 is_stmt 1 view .LVU99
 140:Src/syscalls.c **** }
 485              		.loc 1 140 1 is_stmt 0 view .LVU100
 486 000a 4FF0FF30 		mov	r0, #-1
 487 000e 08BD     		pop	{r3, pc}
 488              		.cfi_endproc
 489              	.LFE37:
 491              		.section	.text._times,"ax",%progbits
 492              		.align	1
 493              		.p2align 2,,3
 494              		.global	_times
 495              		.syntax unified
 496              		.thumb
 497              		.thumb_func
ARM GAS  /tmp/ccnj3rZR.s 			page 12


 498              		.fpu fpv4-sp-d16
 500              	_times:
 501              	.LVL28:
 502              	.LFB38:
 141:Src/syscalls.c **** 
 142:Src/syscalls.c **** int _times(struct tms *buf)
 143:Src/syscalls.c **** {
 503              		.loc 1 143 1 is_stmt 1 view -0
 504              		.cfi_startproc
 505              		@ args = 0, pretend = 0, frame = 0
 506              		@ frame_needed = 0, uses_anonymous_args = 0
 507              		@ link register save eliminated.
 144:Src/syscalls.c ****   (void)buf;
 508              		.loc 1 144 3 view .LVU102
 145:Src/syscalls.c ****   return -1;
 509              		.loc 1 145 3 view .LVU103
 146:Src/syscalls.c **** }
 510              		.loc 1 146 1 is_stmt 0 view .LVU104
 511 0000 4FF0FF30 		mov	r0, #-1
 512              	.LVL29:
 513              		.loc 1 146 1 view .LVU105
 514 0004 7047     		bx	lr
 515              		.cfi_endproc
 516              	.LFE38:
 518 0006 00BF     		.section	.text._stat,"ax",%progbits
 519              		.align	1
 520              		.p2align 2,,3
 521              		.global	_stat
 522              		.syntax unified
 523              		.thumb
 524              		.thumb_func
 525              		.fpu fpv4-sp-d16
 527              	_stat:
 528              	.LVL30:
 529              	.LFB39:
 147:Src/syscalls.c **** 
 148:Src/syscalls.c **** int _stat(char *file, struct stat *st)
 149:Src/syscalls.c **** {
 530              		.loc 1 149 1 is_stmt 1 view -0
 531              		.cfi_startproc
 532              		@ args = 0, pretend = 0, frame = 0
 533              		@ frame_needed = 0, uses_anonymous_args = 0
 534              		@ link register save eliminated.
 150:Src/syscalls.c ****   (void)file;
 535              		.loc 1 150 3 view .LVU107
 151:Src/syscalls.c ****   st->st_mode = S_IFCHR;
 536              		.loc 1 151 3 view .LVU108
 537              		.loc 1 151 15 is_stmt 0 view .LVU109
 538 0000 4FF40053 		mov	r3, #8192
 539 0004 4B60     		str	r3, [r1, #4]
 152:Src/syscalls.c ****   return 0;
 540              		.loc 1 152 3 is_stmt 1 view .LVU110
 153:Src/syscalls.c **** }
 541              		.loc 1 153 1 is_stmt 0 view .LVU111
 542 0006 0020     		movs	r0, #0
 543              	.LVL31:
 544              		.loc 1 153 1 view .LVU112
ARM GAS  /tmp/ccnj3rZR.s 			page 13


 545 0008 7047     		bx	lr
 546              		.cfi_endproc
 547              	.LFE39:
 549 000a 00BF     		.section	.text._link,"ax",%progbits
 550              		.align	1
 551              		.p2align 2,,3
 552              		.global	_link
 553              		.syntax unified
 554              		.thumb
 555              		.thumb_func
 556              		.fpu fpv4-sp-d16
 558              	_link:
 559              	.LVL32:
 560              	.LFB40:
 154:Src/syscalls.c **** 
 155:Src/syscalls.c **** int _link(char *old, char *new)
 156:Src/syscalls.c **** {
 561              		.loc 1 156 1 is_stmt 1 view -0
 562              		.cfi_startproc
 563              		@ args = 0, pretend = 0, frame = 0
 564              		@ frame_needed = 0, uses_anonymous_args = 0
 157:Src/syscalls.c ****   (void)old;
 565              		.loc 1 157 3 view .LVU114
 158:Src/syscalls.c ****   (void)new;
 566              		.loc 1 158 3 view .LVU115
 159:Src/syscalls.c ****   errno = EMLINK;
 567              		.loc 1 159 3 view .LVU116
 156:Src/syscalls.c ****   (void)old;
 568              		.loc 1 156 1 is_stmt 0 view .LVU117
 569 0000 08B5     		push	{r3, lr}
 570              	.LCFI8:
 571              		.cfi_def_cfa_offset 8
 572              		.cfi_offset 3, -8
 573              		.cfi_offset 14, -4
 574              		.loc 1 159 3 view .LVU118
 575 0002 FFF7FEFF 		bl	__errno
 576              	.LVL33:
 577              		.loc 1 159 9 view .LVU119
 578 0006 1F23     		movs	r3, #31
 579 0008 0360     		str	r3, [r0]
 160:Src/syscalls.c ****   return -1;
 580              		.loc 1 160 3 is_stmt 1 view .LVU120
 161:Src/syscalls.c **** }
 581              		.loc 1 161 1 is_stmt 0 view .LVU121
 582 000a 4FF0FF30 		mov	r0, #-1
 583 000e 08BD     		pop	{r3, pc}
 584              		.cfi_endproc
 585              	.LFE40:
 587              		.section	.text._fork,"ax",%progbits
 588              		.align	1
 589              		.p2align 2,,3
 590              		.global	_fork
 591              		.syntax unified
 592              		.thumb
 593              		.thumb_func
 594              		.fpu fpv4-sp-d16
 596              	_fork:
ARM GAS  /tmp/ccnj3rZR.s 			page 14


 597              	.LFB41:
 162:Src/syscalls.c **** 
 163:Src/syscalls.c **** int _fork(void)
 164:Src/syscalls.c **** {
 598              		.loc 1 164 1 is_stmt 1 view -0
 599              		.cfi_startproc
 600              		@ args = 0, pretend = 0, frame = 0
 601              		@ frame_needed = 0, uses_anonymous_args = 0
 165:Src/syscalls.c ****   errno = EAGAIN;
 602              		.loc 1 165 3 view .LVU123
 164:Src/syscalls.c ****   errno = EAGAIN;
 603              		.loc 1 164 1 is_stmt 0 view .LVU124
 604 0000 08B5     		push	{r3, lr}
 605              	.LCFI9:
 606              		.cfi_def_cfa_offset 8
 607              		.cfi_offset 3, -8
 608              		.cfi_offset 14, -4
 609              		.loc 1 165 3 view .LVU125
 610 0002 FFF7FEFF 		bl	__errno
 611              	.LVL34:
 612              		.loc 1 165 9 view .LVU126
 613 0006 0B23     		movs	r3, #11
 614 0008 0360     		str	r3, [r0]
 166:Src/syscalls.c ****   return -1;
 615              		.loc 1 166 3 is_stmt 1 view .LVU127
 167:Src/syscalls.c **** }
 616              		.loc 1 167 1 is_stmt 0 view .LVU128
 617 000a 4FF0FF30 		mov	r0, #-1
 618 000e 08BD     		pop	{r3, pc}
 619              		.cfi_endproc
 620              	.LFE41:
 622              		.section	.text._execve,"ax",%progbits
 623              		.align	1
 624              		.p2align 2,,3
 625              		.global	_execve
 626              		.syntax unified
 627              		.thumb
 628              		.thumb_func
 629              		.fpu fpv4-sp-d16
 631              	_execve:
 632              	.LVL35:
 633              	.LFB42:
 168:Src/syscalls.c **** 
 169:Src/syscalls.c **** int _execve(char *name, char **argv, char **env)
 170:Src/syscalls.c **** {
 634              		.loc 1 170 1 is_stmt 1 view -0
 635              		.cfi_startproc
 636              		@ args = 0, pretend = 0, frame = 0
 637              		@ frame_needed = 0, uses_anonymous_args = 0
 171:Src/syscalls.c ****   (void)name;
 638              		.loc 1 171 3 view .LVU130
 172:Src/syscalls.c ****   (void)argv;
 639              		.loc 1 172 3 view .LVU131
 173:Src/syscalls.c ****   (void)env;
 640              		.loc 1 173 3 view .LVU132
 174:Src/syscalls.c ****   errno = ENOMEM;
 641              		.loc 1 174 3 view .LVU133
ARM GAS  /tmp/ccnj3rZR.s 			page 15


 170:Src/syscalls.c ****   (void)name;
 642              		.loc 1 170 1 is_stmt 0 view .LVU134
 643 0000 08B5     		push	{r3, lr}
 644              	.LCFI10:
 645              		.cfi_def_cfa_offset 8
 646              		.cfi_offset 3, -8
 647              		.cfi_offset 14, -4
 648              		.loc 1 174 3 view .LVU135
 649 0002 FFF7FEFF 		bl	__errno
 650              	.LVL36:
 651              		.loc 1 174 9 view .LVU136
 652 0006 0C23     		movs	r3, #12
 653 0008 0360     		str	r3, [r0]
 175:Src/syscalls.c ****   return -1;
 654              		.loc 1 175 3 is_stmt 1 view .LVU137
 176:Src/syscalls.c **** }
 655              		.loc 1 176 1 is_stmt 0 view .LVU138
 656 000a 4FF0FF30 		mov	r0, #-1
 657 000e 08BD     		pop	{r3, pc}
 658              		.cfi_endproc
 659              	.LFE42:
 661              		.global	environ
 662              		.global	__env
 663              		.section	.bss.__env,"aw",%nobits
 664              		.align	2
 667              	__env:
 668 0000 00000000 		.space	4
 669              		.section	.data.environ,"aw"
 670              		.align	2
 673              	environ:
 674 0000 00000000 		.word	__env
 675              		.weak	__io_putchar
 676              		.weak	__io_getchar
 677              		.text
 678              	.Letext0:
 679              		.file 2 "/usr/include/newlib/machine/_default_types.h"
 680              		.file 3 "/usr/lib/gcc/arm-none-eabi/8.3.1/include/stddef.h"
 681              		.file 4 "/usr/include/newlib/sys/_types.h"
 682              		.file 5 "/usr/include/newlib/sys/reent.h"
 683              		.file 6 "/usr/include/newlib/sys/lock.h"
 684              		.file 7 "/usr/include/newlib/sys/_timeval.h"
 685              		.file 8 "/usr/include/newlib/sys/_timespec.h"
 686              		.file 9 "/usr/include/newlib/sys/types.h"
 687              		.file 10 "/usr/include/newlib/time.h"
 688              		.file 11 "/usr/include/newlib/sys/stat.h"
 689              		.file 12 "/usr/include/newlib/stdlib.h"
 690              		.file 13 "/usr/include/newlib/sys/errno.h"
 691              		.file 14 "/usr/include/newlib/sys/times.h"
ARM GAS  /tmp/ccnj3rZR.s 			page 16

